ARM GAS  /cygdrive/c/DOCUME~1/mkwapisz/LOCALS~1/Temp/ccjDN05n.s 			page 1


   1              		.file	"time.c"
   8 0000 3B000000 		.text
   8      02001D00 
   8      00000201 
   8      FB0E0D00 
   8      01010101 
   9              	.Ltext0:
  10              		.align	2
  11              		.global	fs_makeDate
  12              		.type	fs_makeDate, %function
  13              	fs_makeDate:
  14              	.LFB2:
  15              		.file 1 "time.c"
   1:time.c        **** /*****************************************************************************/
   2:time.c        **** #include "time.h"
   3:time.c        **** /*****************************************************************************/
   4:time.c        **** 
   5:time.c        **** unsigned short fs_makeDate(void)
   6:time.c        **** {
  16              		.loc 1 6 0
  17              		@ Function supports interworking.
  18              		@ args = 0, pretend = 0, frame = 0
  19              		@ frame_needed = 0, uses_anonymous_args = 0
  20              		@ link register save eliminated.
   7:time.c        **** #ifndef DATE_TIME_SUPPORT
   8:time.c        **** 	return(0);
   9:time.c        **** #else
  10:time.c        **** 	unsigned char m,d;
  11:time.c        **** 	unsigned short y;
  12:time.c        **** 	
  13:time.c        **** 	y = time_getYear()-1980;
  14:time.c        **** 	m = time_getMonth();
  15:time.c        **** 	d = time_getDay();
  16:time.c        **** 	
  17:time.c        **** 	return(
  18:time.c        **** 		(y>127?127<<9:(y&0x3F)<<9)   |
  19:time.c        **** 		((m==0||m>12)?1:(m&0xF)<<5)  |
  20:time.c        **** 		((d==0||d>31)?1:(d&0x1F))
  21:time.c        **** 	);
  22:time.c        **** #endif
  23:time.c        **** }
  21              		.loc 1 23 0
  22 0000 0000A0E3 		mov	r0, #0
  23              		.loc 1 6 0
  24              		@ lr needed for prologue
  25              		.loc 1 23 0
  26 0004 1EFF2FE1 		bx	lr
  27              	.LFE2:
  28              		.size	fs_makeDate, .-fs_makeDate
  29              		.align	2
  30              		.global	fs_makeTime
ARM GAS  /cygdrive/c/DOCUME~1/mkwapisz/LOCALS~1/Temp/ccjDN05n.s 			page 2


  31              		.type	fs_makeTime, %function
  32              	fs_makeTime:
  33              	.LFB3:
  24:time.c        **** /*****************************************************************************/
  25:time.c        **** 
  26:time.c        **** unsigned short fs_makeTime(void)
  27:time.c        **** {
  34              		.loc 1 27 0
  35              		@ Function supports interworking.
  36              		@ args = 0, pretend = 0, frame = 0
  37              		@ frame_needed = 0, uses_anonymous_args = 0
  38              		@ link register save eliminated.
  28:time.c        **** #ifndef DATE_TIME_SUPPORT
  29:time.c        **** 	return(0);
  30:time.c        **** #else
  31:time.c        **** 	unsigned char s,m,h;
  32:time.c        **** 	
  33:time.c        **** 	s = time_getSecond();
  34:time.c        **** 	m = time_getMinute();
  35:time.c        **** 	h = time_getHour();
  36:time.c        **** 	
  37:time.c        **** 	return(
  38:time.c        **** 		(h>23?0:(h&0x1F)<<11) |
  39:time.c        **** 		(m>59?0:(m&0x3F)<<5)  |
  40:time.c        **** 		(s>59?0:(s-s%2)/2)
  41:time.c        **** 	);
  42:time.c        **** #endif
  43:time.c        **** }
  39              		.loc 1 43 0
  40 0008 0000A0E3 		mov	r0, #0
  41              		.loc 1 27 0
  42              		@ lr needed for prologue
  43              		.loc 1 43 0
  44 000c 1EFF2FE1 		bx	lr
  45              	.LFE3:
  46              		.size	fs_makeTime, .-fs_makeTime
  47              		.align	2
  48              		.global	fs_hasTimeSupport
  49              		.type	fs_hasTimeSupport, %function
  50              	fs_hasTimeSupport:
  51              	.LFB4:
  44:time.c        **** /*****************************************************************************/
  45:time.c        **** 
  46:time.c        **** unsigned char fs_hasTimeSupport(void)
  47:time.c        **** {
  52              		.loc 1 47 0
  53              		@ Function supports interworking.
  54              		@ args = 0, pretend = 0, frame = 0
  55              		@ frame_needed = 0, uses_anonymous_args = 0
  56              		@ link register save eliminated.
  48:time.c        **** #ifdef DATE_TIME_SUPPORT
  49:time.c        **** 	return(1);
  50:time.c        **** #else
  51:time.c        **** 	return(0);
  52:time.c        **** #endif
  53:time.c        **** }
  57              		.loc 1 53 0
ARM GAS  /cygdrive/c/DOCUME~1/mkwapisz/LOCALS~1/Temp/ccjDN05n.s 			page 3


  58 0010 0000A0E3 		mov	r0, #0
  59              		.loc 1 47 0
  60              		@ lr needed for prologue
  61              		.loc 1 53 0
  62 0014 1EFF2FE1 		bx	lr
  63              	.LFE4:
  64              		.size	fs_hasTimeSupport, .-fs_hasTimeSupport
  65              		.section	.debug_frame,"",%progbits
  66              	.Lframe0:
  67 0000 0C000000 		.4byte	.LECIE0-.LSCIE0
  68              	.LSCIE0:
  69 0004 FFFFFFFF 		.4byte	0xffffffff
  70 0008 01       		.byte	0x1
  71 0009 00       		.ascii	"\000"
  72 000a 01       		.uleb128 0x1
  73 000b 7C       		.sleb128 -4
  74 000c 0E       		.byte	0xe
  75 000d 0C       		.byte	0xc
  76 000e 0D       		.uleb128 0xd
  77 000f 00       		.uleb128 0x0
  78              		.align	2
  79              	.LECIE0:
  80              	.LSFDE0:
  81 0010 0C000000 		.4byte	.LEFDE0-.LASFDE0
  82              	.LASFDE0:
  83 0014 00000000 		.4byte	.Lframe0
  84 0018 00000000 		.4byte	.LFB2
  85 001c 08000000 		.4byte	.LFE2-.LFB2
  86              		.align	2
  87              	.LEFDE0:
  88              	.LSFDE2:
  89 0020 0C000000 		.4byte	.LEFDE2-.LASFDE2
  90              	.LASFDE2:
  91 0024 00000000 		.4byte	.Lframe0
  92 0028 08000000 		.4byte	.LFB3
  93 002c 08000000 		.4byte	.LFE3-.LFB3
  94              		.align	2
  95              	.LEFDE2:
  96              	.LSFDE4:
  97 0030 0C000000 		.4byte	.LEFDE4-.LASFDE4
  98              	.LASFDE4:
  99 0034 00000000 		.4byte	.Lframe0
 100 0038 10000000 		.4byte	.LFB4
 101 003c 08000000 		.4byte	.LFE4-.LFB4
 102              		.align	2
 103              	.LEFDE4:
 104              		.text
 105              	.Letext0: