ARM GAS  /cygdrive/c/DOCUME~1/mkwapisz/LOCALS~1/Temp/ccUiNpD3.s 			page 1


   1              		.file	"hwinterface.c"
   8 0000 AD000000 		.text
   8      02004000 
   8      00000201 
   8      FB0E0D00 
   8      01010101 
   9              	.Ltext0:
  10              		.align	2
  11              		.global	if_setPos
  12              		.type	if_setPos, %function
  13              	if_setPos:
  14              	.LFB5:
  15              		.file 1 "hwinterface.c"
   1:hwinterface.c **** /*****************************************************************************/
   2:hwinterface.c **** #include "lpc2xxx.h"
   3:hwinterface.c **** #include "hwinterface.h"
   4:hwinterface.c **** #include "sd.h"
   5:hwinterface.c **** #include "config.h"
   6:hwinterface.c **** /*****************************************************************************/
   7:hwinterface.c **** 
   8:hwinterface.c **** //#ifndef HW_ENDPOINT_LPC2000_SPINUM
   9:hwinterface.c **** //#error "HW_ENDPOINT_LPC2000_SPINUM has to be defined in config.h"
  10:hwinterface.c **** //#endif
  11:hwinterface.c **** 
  12:hwinterface.c **** #if ( HW_ENDPOINT_LPC2000_SPINUM == 0 )
  13:hwinterface.c **** // LPC213x ### SPI0 ###
  14:hwinterface.c **** 
  15:hwinterface.c **** // SP0SPCR  Bit-Definitions
  16:hwinterface.c **** #define CPHA    3
  17:hwinterface.c **** #define CPOL    4
  18:hwinterface.c **** #define MSTR    5
  19:hwinterface.c **** // SP0SPSR  Bit-Definitions
  20:hwinterface.c **** #define SPIF	7
  21:hwinterface.c **** 
  22:hwinterface.c **** #define SPI_IODIR      IODIR0
  23:hwinterface.c **** #define SPI_SCK_PIN    4   /* Clock       P0.4  out */
  24:hwinterface.c **** #define SPI_MISO_PIN   5   /* from Card   P0.5  in  */
  25:hwinterface.c **** #define SPI_MOSI_PIN   6   /* to Card     P0.6  out */
  26:hwinterface.c **** #define SPI_SS_PIN	   11   /* Card-Select P0.7 - GPIO out */
  27:hwinterface.c **** 
  28:hwinterface.c **** #define SPI_PINSEL     PINSEL0
  29:hwinterface.c **** #define SPI_SCK_FUNCBIT   8
  30:hwinterface.c **** #define SPI_MISO_FUNCBIT  10
  31:hwinterface.c **** #define SPI_MOSI_FUNCBIT  12
  32:hwinterface.c **** #define SPI_SS_FUNCBIT    14
  33:hwinterface.c **** 
  34:hwinterface.c **** #define SPI_PRESCALE_REG  S0SPCCR
  35:hwinterface.c **** #define SPI_PRESCALE_MIN  8
  36:hwinterface.c **** 
  37:hwinterface.c **** #define SELECT_CARD()   IOCLR0 = (1<<SPI_SS_PIN)
  38:hwinterface.c **** #define UNSELECT_CARD()	IOSET0 = (1<<SPI_SS_PIN)
ARM GAS  /cygdrive/c/DOCUME~1/mkwapisz/LOCALS~1/Temp/ccUiNpD3.s 			page 2


  39:hwinterface.c **** 
  40:hwinterface.c **** #elif ( HW_ENDPOINT_LPC2000_SPINUM == 1 )
  41:hwinterface.c **** // LPC213x ### SSP ### ("SPI1")
  42:hwinterface.c **** 
  43:hwinterface.c **** // SSPCR0  Bit-Definitions
  44:hwinterface.c **** #define CPOL    6
  45:hwinterface.c **** #define CPHA    7
  46:hwinterface.c **** // SSPCR1  Bit-Defintions
  47:hwinterface.c **** #define SSE     1
  48:hwinterface.c **** #define MS      2
  49:hwinterface.c **** #define SCR     8
  50:hwinterface.c **** // SSPSR  Bit-Definitions
  51:hwinterface.c **** #define TNF     1
  52:hwinterface.c **** #define RNE     2
  53:hwinterface.c **** #define BSY		4
  54:hwinterface.c **** 
  55:hwinterface.c **** #define SPI_IODIR      IODIR0
  56:hwinterface.c **** #define SPI_SCK_PIN    17   /* Clock       P0.17  out */
  57:hwinterface.c **** #define SPI_MISO_PIN   18   /* from Card   P0.18  in  */
  58:hwinterface.c **** #define SPI_MOSI_PIN   19   /* to Card     P0.19  out */
  59:hwinterface.c **** /* Card-Select P0.20 - GPIO out during startup
  60:hwinterface.c ****    Function 03 during normal operation */
  61:hwinterface.c **** #define SPI_SS_PIN	   20   
  62:hwinterface.c **** 
  63:hwinterface.c **** #define SPI_PINSEL     PINSEL1
  64:hwinterface.c **** #define SPI_SCK_FUNCBIT   2
  65:hwinterface.c **** #define SPI_MISO_FUNCBIT  4
  66:hwinterface.c **** #define SPI_MOSI_FUNCBIT  6
  67:hwinterface.c **** #define SPI_SS_FUNCBIT    8
  68:hwinterface.c **** 
  69:hwinterface.c **** #define SPI_PRESCALE_REG  SSPCPSR
  70:hwinterface.c **** /// TODO: too fast on prototyp wires #define SPI_PRESCALE_MIN  2
  71:hwinterface.c **** #define SPI_PRESCALE_MIN  4
  72:hwinterface.c **** 
  73:hwinterface.c **** /* only needed during init: */
  74:hwinterface.c **** #define SELECT_CARD()   IOCLR0 = (1<<SPI_SS_PIN)
  75:hwinterface.c **** #define UNSELECT_CARD()	IOSET0 = (1<<SPI_SS_PIN)
  76:hwinterface.c **** 
  77:hwinterface.c **** 
  78:hwinterface.c **** #else
  79:hwinterface.c **** #error "Invalid Interface-Number"
  80:hwinterface.c **** #endif
  81:hwinterface.c **** 
  82:hwinterface.c **** 
  83:hwinterface.c **** 
  84:hwinterface.c **** 
  85:hwinterface.c **** signed char if_initInterface(hwInterface* file, char* opts)
  86:hwinterface.c **** {
  87:hwinterface.c **** 	unsigned long sc;
  88:hwinterface.c **** 	
  89:hwinterface.c **** 	if_spiInit(file); /* init at low speed */
  90:hwinterface.c **** 	signed char returnValue = sd_Init(file);
  91:hwinterface.c **** 	
  92:hwinterface.c **** 	if(returnValue<0)	{
  93:hwinterface.c **** 		DBG((TXT("Card failed to init, breaking up...\n")));
  94:hwinterface.c **** 		return returnValue;
  95:hwinterface.c **** 	}
ARM GAS  /cygdrive/c/DOCUME~1/mkwapisz/LOCALS~1/Temp/ccUiNpD3.s 			page 3


  96:hwinterface.c **** 	if(sd_State(file)<0){
  97:hwinterface.c **** 		DBG((TXT("Card didn't return the ready state, breaking up...\n")));
  98:hwinterface.c **** 		return(-2);
  99:hwinterface.c **** 	}
 100:hwinterface.c **** 	
 101:hwinterface.c **** 	sd_getDriveSize(file, &sc);
 102:hwinterface.c **** 	file->sectorCount = sc/512;
 103:hwinterface.c **** 	if( (sc%512) != 0) {
 104:hwinterface.c **** 		file->sectorCount--;
 105:hwinterface.c **** 	}
 106:hwinterface.c **** 	DBG((TXT("Drive Size is %lu Bytes (%lu Sectors)\n"), sc, file->sectorCount));
 107:hwinterface.c **** 	
 108:hwinterface.c **** 	 /* increase speed after init */
 109:hwinterface.c **** #if ( HW_ENDPOINT_LPC2000_SPINUM == 1 )
 110:hwinterface.c **** 	SSPCR0 = ((8-1)<<0) | (0<<CPOL);
 111:hwinterface.c **** #endif
 112:hwinterface.c **** 	if_spiSetSpeed(SPI_PRESCALE_MIN);
 113:hwinterface.c **** 	// if_spiSetSpeed(100); /* debug - slower */
 114:hwinterface.c **** 	
 115:hwinterface.c **** 	DBG((TXT("Init done...\n")));
 116:hwinterface.c **** 	return(0);
 117:hwinterface.c **** }
 118:hwinterface.c **** /*****************************************************************************/ 
 119:hwinterface.c **** 
 120:hwinterface.c **** signed char if_readBuf(hwInterface* file,unsigned long address,unsigned char* buf)
 121:hwinterface.c **** {
 122:hwinterface.c **** 	return(sd_readSector(file,address,buf,512));
 123:hwinterface.c **** }
 124:hwinterface.c **** /*****************************************************************************/
 125:hwinterface.c **** 
 126:hwinterface.c **** signed char if_writeBuf(hwInterface* file,unsigned long address,unsigned char* buf)
 127:hwinterface.c **** {
 128:hwinterface.c **** 	return(sd_writeSector(file,address, buf));
 129:hwinterface.c **** }
 130:hwinterface.c **** /*****************************************************************************/ 
 131:hwinterface.c **** 
 132:hwinterface.c **** signed char if_setPos(hwInterface* file,unsigned long address)
 133:hwinterface.c **** {
  16              		.loc 1 133 0
  17              		@ Function supports interworking.
  18              		@ args = 0, pretend = 0, frame = 0
  19              		@ frame_needed = 0, uses_anonymous_args = 0
  20              		@ link register save eliminated.
  21              	.LVL0:
 134:hwinterface.c **** 	return(0);
 135:hwinterface.c **** }
  22              		.loc 1 135 0
  23 0000 0000A0E3 		mov	r0, #0
  24              	.LVL1:
  25              		.loc 1 133 0
  26              		@ lr needed for prologue
  27              		.loc 1 135 0
  28 0004 1EFF2FE1 		bx	lr
  29              	.LFE5:
  30              		.size	if_setPos, .-if_setPos
  31              		.align	2
  32              		.global	if_spiInit
ARM GAS  /cygdrive/c/DOCUME~1/mkwapisz/LOCALS~1/Temp/ccUiNpD3.s 			page 4


  33              		.type	if_spiInit, %function
  34              	if_spiInit:
  35              	.LFB7:
 136:hwinterface.c **** /*****************************************************************************/ 
 137:hwinterface.c **** 
 138:hwinterface.c **** // Utility-functions which does not toogle CS.
 139:hwinterface.c **** // Only needed during card-init. During init
 140:hwinterface.c **** // the automatic chip-select is disabled for SSP
 141:hwinterface.c **** 
 142:hwinterface.c **** static unsigned char my_if_spiSend(hwInterface *iface, unsigned char outgoing)
 143:hwinterface.c **** {
 144:hwinterface.c **** 	unsigned char incoming;
 145:hwinterface.c **** 
 146:hwinterface.c **** 	// SELECT_CARD(); // not here!
 147:hwinterface.c **** 	
 148:hwinterface.c **** #if ( HW_ENDPOINT_LPC2000_SPINUM == 0 )
 149:hwinterface.c **** 	S0SPDR = outgoing;
 150:hwinterface.c **** 	while( !(S0SPSR & (1<<SPIF)) ) ;
 151:hwinterface.c **** 	incoming = S0SPDR;
 152:hwinterface.c **** #endif
 153:hwinterface.c **** #if ( HW_ENDPOINT_LPC2000_SPINUM == 1 )
 154:hwinterface.c **** 	while( !(SSPSR & (1<<TNF)) ) ;
 155:hwinterface.c **** 	SSPDR = outgoing;
 156:hwinterface.c **** 	while( !(SSPSR & (1<<RNE)) ) ;
 157:hwinterface.c **** 	incoming = SSPDR;
 158:hwinterface.c **** #endif
 159:hwinterface.c **** 
 160:hwinterface.c **** 	// UNSELECT_CARD(); // not here!
 161:hwinterface.c **** 
 162:hwinterface.c **** 	return(incoming);
 163:hwinterface.c **** }
 164:hwinterface.c **** /*****************************************************************************/ 
 165:hwinterface.c **** 
 166:hwinterface.c **** void if_spiInit(hwInterface *iface)
 167:hwinterface.c **** {
  36              		.loc 1 167 0
  37              		@ Function supports interworking.
  38              		@ args = 0, pretend = 0, frame = 0
  39              		@ frame_needed = 0, uses_anonymous_args = 0
  40              		@ link register save eliminated.
  41              	.LVL2:
 168:hwinterface.c **** 	unsigned char i; 
 169:hwinterface.c **** 
 170:hwinterface.c **** 	// setup GPIO
 171:hwinterface.c **** 	SPI_IODIR |= (1<<SPI_SCK_PIN)|(1<<SPI_MOSI_PIN)|(1<<SPI_SS_PIN);
  42              		.loc 1 171 0
  43 0008 84209FE5 		ldr	r2, .L13
  44 000c 083092E5 		ldr	r3, [r2, #8]
  45 0010 853E83E3 		orr	r3, r3, #2128
  46 0014 083082E5 		str	r3, [r2, #8]
 172:hwinterface.c **** 	SPI_IODIR &= ~(1<<SPI_MISO_PIN);
  47              		.loc 1 172 0
  48 0018 083092E5 		ldr	r3, [r2, #8]
  49 001c 2030C3E3 		bic	r3, r3, #32
  50 0020 083082E5 		str	r3, [r2, #8]
 173:hwinterface.c **** 	
 174:hwinterface.c **** 	// set Chip-Select high - unselect card
ARM GAS  /cygdrive/c/DOCUME~1/mkwapisz/LOCALS~1/Temp/ccUiNpD3.s 			page 5


 175:hwinterface.c **** 	UNSELECT_CARD();
  51              		.loc 1 175 0
  52 0024 023BA0E3 		mov	r3, #2048
  53 0028 043082E5 		str	r3, [r2, #4]
 176:hwinterface.c **** 
 177:hwinterface.c **** 	// reset Pin-Functions	
 178:hwinterface.c **** 	SPI_PINSEL &= ~( (3<<SPI_SCK_FUNCBIT) | (3<<SPI_MISO_FUNCBIT) |
  54              		.loc 1 178 0
  55 002c 012982E2 		add	r2, r2, #16384
  56 0030 003092E5 		ldr	r3, [r2, #0]
  57 0034 FF3CC3E3 		bic	r3, r3, #65280
  58 0038 003082E5 		str	r3, [r2, #0]
 179:hwinterface.c **** 		(3<<SPI_MOSI_FUNCBIT) | (3<<SPI_SS_FUNCBIT) );
 180:hwinterface.c **** 
 181:hwinterface.c **** #if ( HW_ENDPOINT_LPC2000_SPINUM == 0 )
 182:hwinterface.c **** 	DBG((TXT("spiInit for SPI(0)\n")));
 183:hwinterface.c **** 	SPI_PINSEL |= ( (1<<SPI_SCK_FUNCBIT) | (1<<SPI_MISO_FUNCBIT) |
  59              		.loc 1 183 0
  60 003c 003092E5 		ldr	r3, [r2, #0]
 184:hwinterface.c **** 		(1<<SPI_MOSI_FUNCBIT) );
 185:hwinterface.c **** 	// enable SPI-Master
 186:hwinterface.c **** 	S0SPCR = (1<<MSTR)|(0<<CPOL); // TODO: check CPOL
  61              		.loc 1 186 0
  62 0040 50109FE5 		ldr	r1, .L13+4
  63              		.loc 1 183 0
  64 0044 153C83E3 		orr	r3, r3, #5376
  65 0048 003082E5 		str	r3, [r2, #0]
  66              		.loc 1 186 0
  67 004c 2030A0E3 		mov	r3, #32
  68 0050 003081E5 		str	r3, [r1, #0]
  69              	.LBB8:
  70              	.LBB9:
 187:hwinterface.c **** #endif
 188:hwinterface.c **** 
 189:hwinterface.c **** #if ( HW_ENDPOINT_LPC2000_SPINUM == 1 )
 190:hwinterface.c **** 	DBG((TXT("spiInit for SSP/SPI1\n")));
 191:hwinterface.c **** 	// setup Pin-Functions - keep automatic CS disabled during init
 192:hwinterface.c **** 	SPI_PINSEL |= ( (2<<SPI_SCK_FUNCBIT) | (2<<SPI_MISO_FUNCBIT) |
 193:hwinterface.c **** 		(2<<SPI_MOSI_FUNCBIT) | (0<<SPI_SS_FUNCBIT) );
 194:hwinterface.c **** 	// enable SPI-Master - slowest speed
 195:hwinterface.c **** 	SSPCR0 = ((8-1)<<0) | (0<<CPOL) | (0x20<<SCR); //  (0xff<<SCR);
 196:hwinterface.c **** 	SSPCR1 = (1<<SSE);
 197:hwinterface.c **** #endif
 198:hwinterface.c **** 	
 199:hwinterface.c **** 	// low speed during init
 200:hwinterface.c **** 	if_spiSetSpeed(254); 
 201:hwinterface.c **** 
 202:hwinterface.c **** 	/* Send 20 spi commands with card not selected */
 203:hwinterface.c **** 	for(i=0;i<21;i++)
 204:hwinterface.c **** 		my_if_spiSend(iface,0xff);
 205:hwinterface.c **** 
 206:hwinterface.c **** #if ( HW_ENDPOINT_LPC2000_SPINUM == 0 )
 207:hwinterface.c **** 	// SPI0 does not offer automatic CS for slaves on LPC2138 
 208:hwinterface.c **** 	// ( the SSEL-Pin is input-only )
 209:hwinterface.c **** 	// SELECT_CARD();
 210:hwinterface.c **** #endif
 211:hwinterface.c **** 
ARM GAS  /cygdrive/c/DOCUME~1/mkwapisz/LOCALS~1/Temp/ccUiNpD3.s 			page 6


 212:hwinterface.c **** #if ( HW_ENDPOINT_LPC2000_SPINUM == 1 )
 213:hwinterface.c **** 	// enable automatic slave CS for SSP
 214:hwinterface.c **** 	SSPCR1 &= ~(1<<SSE); // disable interface
 215:hwinterface.c **** 	SPI_PINSEL |= ( (2<<SPI_SCK_FUNCBIT) | (2<<SPI_MISO_FUNCBIT) |
 216:hwinterface.c **** 		(2<<SPI_MOSI_FUNCBIT) | (2<<SPI_SS_FUNCBIT) );
 217:hwinterface.c **** 	SSPCR1 |= (1<<SSE); // enable interface
 218:hwinterface.c **** #endif
 219:hwinterface.c **** 	
 220:hwinterface.c **** }
 221:hwinterface.c **** /*****************************************************************************/
 222:hwinterface.c **** 
 223:hwinterface.c **** void if_spiSetSpeed(euint8 speed)
 224:hwinterface.c **** {
 225:hwinterface.c **** 	speed &= 0xFE;
 226:hwinterface.c **** 	if ( speed < SPI_PRESCALE_MIN  ) speed = SPI_PRESCALE_MIN ;
 227:hwinterface.c **** 	SPI_PRESCALE_REG = speed;
  71              		.loc 1 227 0
  72 0054 DE3083E2 		add	r3, r3, #222
  73 0058 0C3081E5 		str	r3, [r1, #12]
  74              	.LBE9:
  75              	.LBE8:
  76              		.loc 1 167 0
  77              		@ lr needed for prologue
  78              	.LBB10:
  79              	.LBB11:
  80              		.loc 1 227 0
  81 005c 0010A0E3 		mov	r1, #0
  82              	.LVL3:
  83              	.L4:
  84              	.LBE11:
  85              	.LBE10:
  86              	.LBB12:
  87              	.LBB13:
  88              		.loc 1 149 0
  89 0060 30309FE5 		ldr	r3, .L13+4
  90 0064 FF20A0E3 		mov	r2, #255
  91 0068 082083E5 		str	r2, [r3, #8]
  92              	.L5:
  93              		.loc 1 150 0
  94 006c 24209FE5 		ldr	r2, .L13+4
  95 0070 043092E5 		ldr	r3, [r2, #4]
  96 0074 800013E3 		tst	r3, #128
  97 0078 FBFFFF0A 		beq	.L5
  98              	.LBE13:
  99              	.LBE12:
 100              		.loc 1 203 0
 101 007c 013081E2 		add	r3, r1, #1
 102 0080 FF1003E2 		and	r1, r3, #255
 103 0084 150051E3 		cmp	r1, #21
 104              	.LBB14:
 105              	.LBB15:
 106              		.loc 1 151 0
 107 0088 083092E5 		ldr	r3, [r2, #8]
 108              	.LBE15:
 109              	.LBE14:
 110              		.loc 1 203 0
 111 008c F3FFFF1A 		bne	.L4
ARM GAS  /cygdrive/c/DOCUME~1/mkwapisz/LOCALS~1/Temp/ccUiNpD3.s 			page 7


 112              		.loc 1 220 0
 113 0090 1EFF2FE1 		bx	lr
 114              	.L14:
 115              		.align	2
 116              	.L13:
 117 0094 008002E0 		.word	-536707072
 118 0098 000002E0 		.word	-536739840
 119              	.LFE7:
 120              		.size	if_spiInit, .-if_spiInit
 121              		.align	2
 122              		.global	if_spiSetSpeed
 123              		.type	if_spiSetSpeed, %function
 124              	if_spiSetSpeed:
 125              	.LFB8:
 126              		.loc 1 224 0
 127              		@ Function supports interworking.
 128              		@ args = 0, pretend = 0, frame = 0
 129              		@ frame_needed = 0, uses_anonymous_args = 0
 130              		@ link register save eliminated.
 131              	.LVL4:
 132              		.loc 1 225 0
 133 009c FE0000E2 		and	r0, r0, #254
 134              	.LVL5:
 135              		.loc 1 226 0
 136 00a0 070050E3 		cmp	r0, #7
 137              		.loc 1 227 0
 138 00a4 08309FE5 		ldr	r3, .L19
 139              		.loc 1 226 0
 140 00a8 0800A093 		movls	r0, #8
 141              		.loc 1 224 0
 142              		@ lr needed for prologue
 143              		.loc 1 227 0
 144 00ac 0C0083E5 		str	r0, [r3, #12]
 228:hwinterface.c **** }
 145              		.loc 1 228 0
 146 00b0 1EFF2FE1 		bx	lr
 147              	.L20:
 148              		.align	2
 149              	.L19:
 150 00b4 000002E0 		.word	-536739840
 151              	.LFE8:
 152              		.size	if_spiSetSpeed, .-if_spiSetSpeed
 153              		.align	2
 154              		.global	if_spiSend
 155              		.type	if_spiSend, %function
 156              	if_spiSend:
 157              	.LFB9:
 229:hwinterface.c **** 
 230:hwinterface.c **** /*****************************************************************************/
 231:hwinterface.c **** 
 232:hwinterface.c **** unsigned char if_spiSend(hwInterface *iface, unsigned char outgoing)
 233:hwinterface.c **** {
 158              		.loc 1 233 0
 159              		@ Function supports interworking.
 160              		@ args = 0, pretend = 0, frame = 0
 161              		@ frame_needed = 0, uses_anonymous_args = 0
 162              		@ link register save eliminated.
ARM GAS  /cygdrive/c/DOCUME~1/mkwapisz/LOCALS~1/Temp/ccUiNpD3.s 			page 8


 163              	.LVL6:
 234:hwinterface.c **** 	unsigned char incoming;
 235:hwinterface.c **** 
 236:hwinterface.c **** #if ( HW_ENDPOINT_LPC2000_SPINUM == 0 )
 237:hwinterface.c **** 	SELECT_CARD();
 164              		.loc 1 237 0
 165 00b8 38309FE5 		ldr	r3, .L27
 166 00bc 022BA0E3 		mov	r2, #2048
 167 00c0 0C2083E5 		str	r2, [r3, #12]
 168              		.loc 1 233 0
 169 00c4 FF1001E2 		and	r1, r1, #255
 238:hwinterface.c **** 	S0SPDR = outgoing;
 170              		.loc 1 238 0
 171 00c8 023943E2 		sub	r3, r3, #32768
 172 00cc 081083E5 		str	r1, [r3, #8]
 173              		.loc 1 233 0
 174              		@ lr needed for prologue
 175              	.L22:
 239:hwinterface.c **** 	while( !(S0SPSR & (1<<SPIF)) ) ;
 176              		.loc 1 239 0
 177 00d0 24209FE5 		ldr	r2, .L27+4
 178 00d4 043092E5 		ldr	r3, [r2, #4]
 179 00d8 800013E3 		tst	r3, #128
 180 00dc FBFFFF0A 		beq	.L22
 240:hwinterface.c **** 	incoming = S0SPDR;
 181              		.loc 1 240 0
 182 00e0 080092E5 		ldr	r0, [r2, #8]
 183              	.LVL7:
 241:hwinterface.c **** 	UNSELECT_CARD();
 184              		.loc 1 241 0
 185 00e4 0C309FE5 		ldr	r3, .L27
 186 00e8 022BA0E3 		mov	r2, #2048
 187 00ec FF0000E2 		and	r0, r0, #255
 188 00f0 042083E5 		str	r2, [r3, #4]
 242:hwinterface.c **** #endif
 243:hwinterface.c **** 
 244:hwinterface.c **** #if ( HW_ENDPOINT_LPC2000_SPINUM == 1 )
 245:hwinterface.c **** 	// SELECT_CARD();  // done by hardware
 246:hwinterface.c **** 	while( !(SSPSR & (1<<TNF)) ) ;
 247:hwinterface.c **** 	SSPDR = outgoing;
 248:hwinterface.c **** 	while( !(SSPSR & (1<<RNE)) ) ;
 249:hwinterface.c **** 	incoming = SSPDR;
 250:hwinterface.c **** 	// UNSELECT_CARD();  // done by hardware
 251:hwinterface.c **** #endif
 252:hwinterface.c **** 
 253:hwinterface.c **** 	
 254:hwinterface.c **** 
 255:hwinterface.c **** 	return(incoming);
 256:hwinterface.c **** }
 189              		.loc 1 256 0
 190 00f4 1EFF2FE1 		bx	lr
 191              	.L28:
 192              		.align	2
 193              	.L27:
 194 00f8 008002E0 		.word	-536707072
 195 00fc 000002E0 		.word	-536739840
 196              	.LFE9:
ARM GAS  /cygdrive/c/DOCUME~1/mkwapisz/LOCALS~1/Temp/ccUiNpD3.s 			page 9


 197              		.size	if_spiSend, .-if_spiSend
 198              		.align	2
 199              		.global	if_writeBuf
 200              		.type	if_writeBuf, %function
 201              	if_writeBuf:
 202              	.LFB4:
 203              		.loc 1 127 0
 204              		@ Function supports interworking.
 205              		@ args = 0, pretend = 0, frame = 0
 206              		@ frame_needed = 0, uses_anonymous_args = 0
 207              	.LVL8:
 208 0100 04E02DE5 		str	lr, [sp, #-4]!
 209              	.LCFI0:
 210              		.loc 1 128 0
 211 0104 FEFFFFEB 		bl	sd_writeSector
 212              	.LVL9:
 213 0108 000CA0E1 		mov	r0, r0, asl #24
 214              		.loc 1 129 0
 215 010c 400CA0E1 		mov	r0, r0, asr #24
 216 0110 04E09DE4 		ldr	lr, [sp], #4
 217 0114 1EFF2FE1 		bx	lr
 218              	.LFE4:
 219              		.size	if_writeBuf, .-if_writeBuf
 220              		.align	2
 221              		.global	if_readBuf
 222              		.type	if_readBuf, %function
 223              	if_readBuf:
 224              	.LFB3:
 225              		.loc 1 121 0
 226              		@ Function supports interworking.
 227              		@ args = 0, pretend = 0, frame = 0
 228              		@ frame_needed = 0, uses_anonymous_args = 0
 229              	.LVL10:
 230 0118 04E02DE5 		str	lr, [sp, #-4]!
 231              	.LCFI1:
 232              		.loc 1 122 0
 233 011c 023CA0E3 		mov	r3, #512
 234 0120 FEFFFFEB 		bl	sd_readSector
 235              	.LVL11:
 236 0124 000CA0E1 		mov	r0, r0, asl #24
 237              		.loc 1 123 0
 238 0128 400CA0E1 		mov	r0, r0, asr #24
 239 012c 04E09DE4 		ldr	lr, [sp], #4
 240 0130 1EFF2FE1 		bx	lr
 241              	.LFE3:
 242              		.size	if_readBuf, .-if_readBuf
 243              		.align	2
 244              		.global	if_initInterface
 245              		.type	if_initInterface, %function
 246              	if_initInterface:
 247              	.LFB2:
 248              		.loc 1 86 0
 249              		@ Function supports interworking.
 250              		@ args = 0, pretend = 0, frame = 4
 251              		@ frame_needed = 0, uses_anonymous_args = 0
 252              	.LVL12:
 253 0134 10402DE9 		stmfd	sp!, {r4, lr}
ARM GAS  /cygdrive/c/DOCUME~1/mkwapisz/LOCALS~1/Temp/ccUiNpD3.s 			page 10


 254              	.LCFI2:
 255 0138 0040A0E1 		mov	r4, r0
 256 013c 04D04DE2 		sub	sp, sp, #4
 257              	.LCFI3:
 258              		.loc 1 89 0
 259 0140 FEFFFFEB 		bl	if_spiInit
 260              	.LVL13:
 261              		.loc 1 90 0
 262 0144 0400A0E1 		mov	r0, r4
 263 0148 FEFFFFEB 		bl	sd_Init
 264              		.loc 1 92 0
 265 014c 003CA0E1 		mov	r3, r0, asl #24
 266 0150 433CB0E1 		movs	r3, r3, asr #24
 267              		.loc 1 96 0
 268 0154 0400A0E1 		mov	r0, r4
 269              		.loc 1 92 0
 270 0158 1200004A 		bmi	.L36
 271              	.LVL14:
 272              		.loc 1 96 0
 273 015c FEFFFFEB 		bl	sd_State
 274              	.LVL15:
 275 0160 800010E3 		tst	r0, #128
 276              		.loc 1 101 0
 277 0164 0D10A0E1 		mov	r1, sp
 278 0168 0400A0E1 		mov	r0, r4
 279              		.loc 1 96 0
 280 016c 0130E0E3 		mvn	r3, #1
 281 0170 0C00001A 		bne	.L36
 282              	.LVL16:
 283              		.loc 1 101 0
 284 0174 FEFFFFEB 		bl	sd_getDriveSize
 285              	.LVL17:
 286              	.LVL18:
 287              		.loc 1 102 0
 288 0178 00209DE5 		ldr	r2, [sp, #0]
 289              		.loc 1 103 0
 290 017c 823BA0E1 		mov	r3, r2, asl #23
 291 0180 A33BA0E1 		mov	r3, r3, lsr #23
 292              		.loc 1 102 0
 293 0184 A224A0E1 		mov	r2, r2, lsr #9
 294              		.loc 1 103 0
 295 0188 000053E3 		cmp	r3, #0
 296              		.loc 1 104 0
 297 018c 013042E2 		sub	r3, r2, #1
 298              		.loc 1 102 0
 299 0190 002084E5 		str	r2, [r4, #0]
 300              		.loc 1 104 0
 301 0194 00308415 		strne	r3, [r4, #0]
 302              	.LBB18:
 303              	.LBB19:
 304              		.loc 1 227 0
 305 0198 18309FE5 		ldr	r3, .L42
 306 019c 0820A0E3 		mov	r2, #8
 307 01a0 0C2083E5 		str	r2, [r3, #12]
 308 01a4 0030A0E3 		mov	r3, #0
 309              	.LVL19:
 310              	.L36:
ARM GAS  /cygdrive/c/DOCUME~1/mkwapisz/LOCALS~1/Temp/ccUiNpD3.s 			page 11


 311              	.LBE19:
 312              	.LBE18:
 313              		.loc 1 117 0
 314 01a8 0300A0E1 		mov	r0, r3
 315 01ac 04D08DE2 		add	sp, sp, #4
 316 01b0 1040BDE8 		ldmfd	sp!, {r4, lr}
 317 01b4 1EFF2FE1 		bx	lr
 318              	.L43:
 319              		.align	2
 320              	.L42:
 321 01b8 000002E0 		.word	-536739840
 322              	.LFE2:
 323              		.size	if_initInterface, .-if_initInterface
 324              		.section	.debug_frame,"",%progbits
 325              	.Lframe0:
 326 0000 0C000000 		.4byte	.LECIE0-.LSCIE0
 327              	.LSCIE0:
 328 0004 FFFFFFFF 		.4byte	0xffffffff
 329 0008 01       		.byte	0x1
 330 0009 00       		.ascii	"\000"
 331 000a 01       		.uleb128 0x1
 332 000b 7C       		.sleb128 -4
 333 000c 0E       		.byte	0xe
 334 000d 0C       		.byte	0xc
 335 000e 0D       		.uleb128 0xd
 336 000f 00       		.uleb128 0x0
 337              		.align	2
 338              	.LECIE0:
 339              	.LSFDE0:
 340 0010 0C000000 		.4byte	.LEFDE0-.LASFDE0
 341              	.LASFDE0:
 342 0014 00000000 		.4byte	.Lframe0
 343 0018 00000000 		.4byte	.LFB5
 344 001c 08000000 		.4byte	.LFE5-.LFB5
 345              		.align	2
 346              	.LEFDE0:
 347              	.LSFDE2:
 348 0020 0C000000 		.4byte	.LEFDE2-.LASFDE2
 349              	.LASFDE2:
 350 0024 00000000 		.4byte	.Lframe0
 351 0028 08000000 		.4byte	.LFB7
 352 002c 94000000 		.4byte	.LFE7-.LFB7
 353              		.align	2
 354              	.LEFDE2:
 355              	.LSFDE4:
 356 0030 0C000000 		.4byte	.LEFDE4-.LASFDE4
 357              	.LASFDE4:
 358 0034 00000000 		.4byte	.Lframe0
 359 0038 9C000000 		.4byte	.LFB8
 360 003c 1C000000 		.4byte	.LFE8-.LFB8
 361              		.align	2
 362              	.LEFDE4:
 363              	.LSFDE6:
 364 0040 0C000000 		.4byte	.LEFDE6-.LASFDE6
 365              	.LASFDE6:
 366 0044 00000000 		.4byte	.Lframe0
 367 0048 B8000000 		.4byte	.LFB9
ARM GAS  /cygdrive/c/DOCUME~1/mkwapisz/LOCALS~1/Temp/ccUiNpD3.s 			page 12


 368 004c 48000000 		.4byte	.LFE9-.LFB9
 369              		.align	2
 370              	.LEFDE6:
 371              	.LSFDE8:
 372 0050 14000000 		.4byte	.LEFDE8-.LASFDE8
 373              	.LASFDE8:
 374 0054 00000000 		.4byte	.Lframe0
 375 0058 00010000 		.4byte	.LFB4
 376 005c 18000000 		.4byte	.LFE4-.LFB4
 377 0060 44       		.byte	0x4
 378              		.4byte	.LCFI0-.LFB4
 379 0061 0E       		.byte	0xe
 380 0062 04       		.uleb128 0x4
 381 0063 8E       		.byte	0x8e
 382 0064 01       		.uleb128 0x1
 383 0065 000000   		.align	2
 384              	.LEFDE8:
 385              	.LSFDE10:
 386 0068 14000000 		.4byte	.LEFDE10-.LASFDE10
 387              	.LASFDE10:
 388 006c 00000000 		.4byte	.Lframe0
 389 0070 18010000 		.4byte	.LFB3
 390 0074 1C000000 		.4byte	.LFE3-.LFB3
 391 0078 44       		.byte	0x4
 392              		.4byte	.LCFI1-.LFB3
 393 0079 0E       		.byte	0xe
 394 007a 04       		.uleb128 0x4
 395 007b 8E       		.byte	0x8e
 396 007c 01       		.uleb128 0x1
 397 007d 000000   		.align	2
 398              	.LEFDE10:
 399              	.LSFDE12:
 400 0080 18000000 		.4byte	.LEFDE12-.LASFDE12
 401              	.LASFDE12:
 402 0084 00000000 		.4byte	.Lframe0
 403 0088 34010000 		.4byte	.LFB2
 404 008c 88000000 		.4byte	.LFE2-.LFB2
 405 0090 44       		.byte	0x4
 406              		.4byte	.LCFI2-.LFB2
 407 0091 0E       		.byte	0xe
 408 0092 08       		.uleb128 0x8
 409 0093 8E       		.byte	0x8e
 410 0094 01       		.uleb128 0x1
 411 0095 84       		.byte	0x84
 412 0096 02       		.uleb128 0x2
 413 0097 48       		.byte	0x4
 414              		.4byte	.LCFI3-.LCFI2
 415 0098 0E       		.byte	0xe
 416 0099 0C       		.uleb128 0xc
 417 009a 0000     		.align	2
 418              	.LEFDE12:
 419              		.file 2 "types.h"
 420              		.file 3 "hwinterface.h"
 421              		.text
 422              	.Letext0: