ARM GAS  /cygdrive/c/DOCUME~1/mkwapisz/LOCALS~1/Temp/ccvC2JBL.s 			page 1


   1              		.code	16
   2              		.file	"testLcd.c"
   3              		.section	.debug_abbrev,"",%progbits
   4              	.Ldebug_abbrev0:
   5              		.section	.debug_info,"",%progbits
   6              	.Ldebug_info0:
   7              		.section	.debug_line,"",%progbits
   8              	.Ldebug_line0:
   9 0000 E1000000 		.text
   9      02005400 
   9      00000201 
   9      FB0E0D00 
   9      01010101 
  10              	.Ltext0:
  11              		.align	2
  12              		.code 16
  13              		.thumb_func
  14              		.type	delay37us, %function
  15              	delay37us:
  16              	.LFB3:
  17              		.file 1 "testLcd.c"
   1:testLcd.c     **** /******************************************************************************
   2:testLcd.c     ****  *
   3:testLcd.c     ****  * Copyright:
   4:testLcd.c     ****  *    (C) 2000 - 2005 Embedded Artists AB
   5:testLcd.c     ****  *
   6:testLcd.c     ****  *****************************************************************************/
   7:testLcd.c     **** 
   8:testLcd.c     **** 
   9:testLcd.c     **** #include "../pre_emptive_os/api/osapi.h"
  10:testLcd.c     **** #include "../pre_emptive_os/api/general.h"
  11:testLcd.c     **** #include <printf_P.h>
  12:testLcd.c     **** #include <lpc2xxx.h>
  13:testLcd.c     **** #include <consol.h>
  14:testLcd.c     **** 
  15:testLcd.c     **** #define LCD_DATA      0x00ff0000  //P1.16-P1.23
  16:testLcd.c     **** #define LCD_E         0x02000000  //P1.25
  17:testLcd.c     **** #define LCD_RW        0x00400000  //P0.22
  18:testLcd.c     **** #define LCD_RS        0x01000000  //P1.24
  19:testLcd.c     **** #define LCD_BACKLIGHT 0x40000000  //P0.30
  20:testLcd.c     **** 
  21:testLcd.c     **** /*****************************************************************************
  22:testLcd.c     ****  *
  23:testLcd.c     ****  * Description:
  24:testLcd.c     ****  *    xxx
  25:testLcd.c     ****  *
  26:testLcd.c     ****  ****************************************************************************/
  27:testLcd.c     **** static void
  28:testLcd.c     **** initLCD(void)
  29:testLcd.c     **** {
  30:testLcd.c     **** 	IODIR1 |= (LCD_DATA | LCD_E | LCD_RS);
  31:testLcd.c     **** 	IOCLR1  = (LCD_DATA | LCD_E | LCD_RS);
  32:testLcd.c     **** 
  33:testLcd.c     **** 	IODIR0 |= LCD_RW;
  34:testLcd.c     **** 	IOCLR0  = LCD_RW;
  35:testLcd.c     **** 	
  36:testLcd.c     ****   IODIR0 |= LCD_BACKLIGHT;
ARM GAS  /cygdrive/c/DOCUME~1/mkwapisz/LOCALS~1/Temp/ccvC2JBL.s 			page 2


  37:testLcd.c     ****   IOCLR0  = LCD_BACKLIGHT;
  38:testLcd.c     **** }
  39:testLcd.c     **** 
  40:testLcd.c     **** /*****************************************************************************
  41:testLcd.c     ****  *
  42:testLcd.c     ****  * Description:
  43:testLcd.c     ****  *    xxx
  44:testLcd.c     ****  *
  45:testLcd.c     ****  ****************************************************************************/
  46:testLcd.c     **** static void
  47:testLcd.c     **** delay37us(void)
  48:testLcd.c     **** {
  18              		.loc 1 48 0
  19 0000 81B0     		sub	sp, sp, #4
  20              	.LCFI0:
  49:testLcd.c     **** 	volatile tU32 i;
  50:testLcd.c     **** 
  51:testLcd.c     **** //Temp test for 140 uS delay
  52:testLcd.c     **** 	for(i=0; i<6*2500; i++)
  21              		.loc 1 52 0
  22 0002 0023     		mov	r3, #0
  23              		.loc 1 48 0
  24              		@ lr needed for prologue
  25 0004 02E0     		b	.L6
  26              	.LVL0:
  27              	.L3:
  53:testLcd.c     ****     asm volatile (" nop"); //delay 15 ns x 2500 = about 37 us delay
  28              		.loc 1 53 0
  29 0006 C046     		 nop
  30              		.loc 1 52 0
  31              		.code	16
  32 0008 009B     		ldr	r3, [sp]
  33 000a 0133     		add	r3, r3, #1
  34              	.L6:
  35 000c 0093     		str	r3, [sp]
  36 000e 009A     		ldr	r2, [sp]
  37 0010 024B     		ldr	r3, .L7
  38 0012 9A42     		cmp	r2, r3
  39 0014 F7D9     		bls	.L3
  54:testLcd.c     **** }
  40              		.loc 1 54 0
  41 0016 01B0     		add	sp, sp, #4
  42              		@ sp needed for prologue
  43 0018 7047     		bx	lr
  44              	.L8:
  45 001a 0000     		.align	2
  46              	.L7:
  47 001c 973A0000 		.word	14999
  48              	.LFE3:
  49              		.size	delay37us, .-delay37us
  50              		.align	2
  51              		.code 16
  52              		.thumb_func
  53              		.type	writeLCD, %function
  54              	writeLCD:
  55              	.LFB4:
  55:testLcd.c     **** 
ARM GAS  /cygdrive/c/DOCUME~1/mkwapisz/LOCALS~1/Temp/ccvC2JBL.s 			page 3


  56:testLcd.c     **** /*****************************************************************************
  57:testLcd.c     ****  *
  58:testLcd.c     ****  * Description:
  59:testLcd.c     ****  *    xxx
  60:testLcd.c     ****  *
  61:testLcd.c     ****  ****************************************************************************/
  62:testLcd.c     **** static void
  63:testLcd.c     **** writeLCD(tU8 reg, tU8 data)
  64:testLcd.c     **** {
  56              		.loc 1 64 0
  57              	.LVL1:
  58 0020 0906     		lsl	r1, r1, #24
  59              	.LVL2:
  60 0022 0006     		lsl	r0, r0, #24
  61              	.LVL3:
  62 0024 81B0     		sub	sp, sp, #4
  63              	.LCFI1:
  64              		@ lr needed for prologue
  65              		.loc 1 64 0
  66 0026 090E     		lsr	r1, r1, #24
  67              	.LVL4:
  65:testLcd.c     **** 	volatile tU8 i;
  66:testLcd.c     **** 
  67:testLcd.c     **** 	if (reg == 0)
  68              		.loc 1 67 0
  69 0028 0028     		cmp	r0, #0
  70 002a 03D1     		bne	.L10
  68:testLcd.c     **** 	  IOCLR1 = LCD_RS;
  71              		.loc 1 68 0
  72 002c 8023     		mov	r3, #128
  73 002e 1D4A     		ldr	r2, .L21
  74 0030 5B04     		lsl	r3, r3, #17
  75 0032 02E0     		b	.L20
  76              	.L10:
  69:testLcd.c     **** 	else
  70:testLcd.c     **** 	  IOSET1 = LCD_RS;
  77              		.loc 1 70 0
  78 0034 8023     		mov	r3, #128
  79 0036 1C4A     		ldr	r2, .L21+4
  80 0038 5B04     		lsl	r3, r3, #17
  81              	.L20:
  82 003a 1360     		str	r3, [r2]
  71:testLcd.c     **** 	  
  72:testLcd.c     ****   IOCLR0 = LCD_RW;
  83              		.loc 1 72 0
  84 003c 1B4A     		ldr	r2, .L21+8
  85 003e 8023     		mov	r3, #128
  86 0040 DB03     		lsl	r3, r3, #15
  87 0042 1360     		str	r3, [r2]
  73:testLcd.c     **** 	IOCLR1 = LCD_DATA;
  88              		.loc 1 73 0
  89 0044 174B     		ldr	r3, .L21
  90 0046 FF22     		mov	r2, #255
  91 0048 1204     		lsl	r2, r2, #16
  92 004a 1A60     		str	r2, [r3]
  74:testLcd.c     **** 	IOSET1 = ((tU32)data << 16) & LCD_DATA;
  93              		.loc 1 74 0
ARM GAS  /cygdrive/c/DOCUME~1/mkwapisz/LOCALS~1/Temp/ccvC2JBL.s 			page 4


  94 004c 0B04     		lsl	r3, r1, #16
  95 004e 1340     		and	r3, r3, r2
  96 0050 154A     		ldr	r2, .L21+4
  97 0052 1360     		str	r3, [r2]
  75:testLcd.c     **** //printf("\nwrite: %x", data);
  76:testLcd.c     **** 	
  77:testLcd.c     **** 	IOSET1 = LCD_E;
  98              		.loc 1 77 0
  99 0054 8023     		mov	r3, #128
 100 0056 9B04     		lsl	r3, r3, #18
 101 0058 1360     		str	r3, [r2]
  78:testLcd.c     **** //	osSleep(1);
  79:testLcd.c     **** 	for(i=0; i<16; i++)
 102              		.loc 1 79 0
 103 005a 6B46     		mov	r3, sp
 104 005c 0022     		mov	r2, #0
 105 005e 0333     		add	r3, r3, #3
 106 0060 1A70     		strb	r2, [r3]
 107              	.LVL5:
 108 0062 05E0     		b	.L13
 109              	.LVL6:
 110              	.L14:
  80:testLcd.c     ****     asm volatile (" nop"); //delay 15 ns x 16 = about 250 ns delay
 111              		.loc 1 80 0
 112 0064 C046     		 nop
 113              		.loc 1 79 0
 114              		.code	16
 115 0066 0B78     		ldrb	r3, [r1]
 116 0068 0133     		add	r3, r3, #1
 117              	.LVL7:
 118 006a 1B06     		lsl	r3, r3, #24
 119 006c 1B0E     		lsr	r3, r3, #24
 120 006e 0B70     		strb	r3, [r1]
 121              	.LVL8:
 122              	.L13:
 123 0070 6946     		mov	r1, sp
 124              	.LVL9:
 125 0072 0331     		add	r1, r1, #3
 126 0074 0B78     		ldrb	r3, [r1]
 127 0076 0F2B     		cmp	r3, #15
 128 0078 F4D9     		bls	.L14
 129              	.LVL10:
  81:testLcd.c     **** 	IOCLR1 = LCD_E;
 130              		.loc 1 81 0
 131 007a 8023     		mov	r3, #128
 132              	.LVL11:
 133 007c 094A     		ldr	r2, .L21
 134 007e 9B04     		lsl	r3, r3, #18
 135 0080 1360     		str	r3, [r2]
  82:testLcd.c     **** //	osSleep(1);
  83:testLcd.c     **** 	for(i=0; i<16; i++)
 136              		.loc 1 83 0
 137 0082 0023     		mov	r3, #0
 138 0084 0B70     		strb	r3, [r1]
 139 0086 05E0     		b	.L16
 140              	.LVL12:
 141              	.L17:
ARM GAS  /cygdrive/c/DOCUME~1/mkwapisz/LOCALS~1/Temp/ccvC2JBL.s 			page 5


  84:testLcd.c     ****     asm volatile (" nop"); //delay 15 ns x 16 = about 250 ns delay
 142              		.loc 1 84 0
 143 0088 C046     		 nop
 144              		.loc 1 83 0
 145              		.code	16
 146 008a 1378     		ldrb	r3, [r2]
 147 008c 0133     		add	r3, r3, #1
 148              	.LVL13:
 149 008e 1B06     		lsl	r3, r3, #24
 150 0090 1B0E     		lsr	r3, r3, #24
 151 0092 1370     		strb	r3, [r2]
 152              	.LVL14:
 153              	.L16:
 154 0094 6A46     		mov	r2, sp
 155 0096 0332     		add	r2, r2, #3
 156 0098 1378     		ldrb	r3, [r2]
 157 009a 0F2B     		cmp	r3, #15
 158 009c F4D9     		bls	.L17
 159              	.LVL15:
  85:testLcd.c     **** }
 160              		.loc 1 85 0
 161 009e 01B0     		add	sp, sp, #4
 162              		@ sp needed for prologue
 163 00a0 7047     		bx	lr
 164              	.L22:
 165 00a2 0000     		.align	2
 166              	.L21:
 167 00a4 1C8002E0 		.word	-536707044
 168 00a8 148002E0 		.word	-536707052
 169 00ac 0C8002E0 		.word	-536707060
 170              	.LFE4:
 171              		.size	writeLCD, .-writeLCD
 172              		.align	2
 173              		.global	WriteString
 174              		.code 16
 175              		.thumb_func
 176              		.type	WriteString, %function
 177              	WriteString:
 178              	.LFB7:
  86:testLcd.c     **** 
  87:testLcd.c     **** /*****************************************************************************
  88:testLcd.c     ****  *
  89:testLcd.c     ****  * Description:
  90:testLcd.c     ****  *    xxx
  91:testLcd.c     ****  *
  92:testLcd.c     ****  ****************************************************************************/
  93:testLcd.c     **** static void
  94:testLcd.c     **** lcdBacklight(tU8 onOff)
  95:testLcd.c     **** {
  96:testLcd.c     **** 	if (onOff == TRUE)
  97:testLcd.c     **** 	  IOSET0 = LCD_BACKLIGHT;
  98:testLcd.c     **** 	else
  99:testLcd.c     **** 	  IOCLR0 = LCD_BACKLIGHT;
 100:testLcd.c     **** }
 101:testLcd.c     **** 
 102:testLcd.c     **** /*****************************************************************************
 103:testLcd.c     ****  *
ARM GAS  /cygdrive/c/DOCUME~1/mkwapisz/LOCALS~1/Temp/ccvC2JBL.s 			page 6


 104:testLcd.c     ****  * Description:
 105:testLcd.c     ****  *    A process entry function 
 106:testLcd.c     ****  *
 107:testLcd.c     ****  ****************************************************************************/
 108:testLcd.c     **** void
 109:testLcd.c     **** testLcd(void)
 110:testLcd.c     **** {
 111:testLcd.c     ****   initLCD();
 112:testLcd.c     **** 	lcdBacklight(FALSE);
 113:testLcd.c     ****   osSleep(10);
 114:testLcd.c     ****   
 115:testLcd.c     ****   for(;;)
 116:testLcd.c     ****   {
 117:testLcd.c     ****  		lcdBacklight(TRUE);
 118:testLcd.c     ****     osSleep(50);
 119:testLcd.c     **** 
 120:testLcd.c     ****     //function set
 121:testLcd.c     ****     writeLCD(0, 0x30);
 122:testLcd.c     ****     osSleep(1);
 123:testLcd.c     ****     writeLCD(0, 0x30);
 124:testLcd.c     ****     delay37us();
 125:testLcd.c     ****     writeLCD(0, 0x30);
 126:testLcd.c     ****     delay37us();
 127:testLcd.c     **** 
 128:testLcd.c     ****     //function set
 129:testLcd.c     ****     writeLCD(0, 0x38);
 130:testLcd.c     ****     delay37us();
 131:testLcd.c     **** 
 132:testLcd.c     ****     //display off
 133:testLcd.c     ****     writeLCD(0, 0x08);
 134:testLcd.c     ****     delay37us();
 135:testLcd.c     **** 
 136:testLcd.c     ****     //display clear
 137:testLcd.c     ****     writeLCD(0, 0x01);
 138:testLcd.c     ****     osSleep(1); //actually only 1.52 mS needed
 139:testLcd.c     ****       
 140:testLcd.c     ****     //display control set
 141:testLcd.c     ****     writeLCD(0, 0x06);
 142:testLcd.c     ****     osSleep(1);
 143:testLcd.c     **** 
 144:testLcd.c     ****     //display control set
 145:testLcd.c     ****     writeLCD(0, 0x0c);
 146:testLcd.c     ****     delay37us();
 147:testLcd.c     **** 
 148:testLcd.c     ****     //cursor home
 149:testLcd.c     ****     writeLCD(0, 0x02);
 150:testLcd.c     **** osSleep(1);
 151:testLcd.c     **** 
 152:testLcd.c     **** //    writeLCD(1, 'L');
 153:testLcd.c     **** //    delay37us();
 154:testLcd.c     **** //    writeLCD(1, 'u');
 155:testLcd.c     **** //    delay37us();
 156:testLcd.c     **** //    writeLCD(1, 'b');
 157:testLcd.c     **** //    delay37us();
 158:testLcd.c     **** //    writeLCD(1, 'i');
 159:testLcd.c     **** //    delay37us();
 160:testLcd.c     **** //    writeLCD(1, 'e');
ARM GAS  /cygdrive/c/DOCUME~1/mkwapisz/LOCALS~1/Temp/ccvC2JBL.s 			page 7


 161:testLcd.c     **** //    delay37us();
 162:testLcd.c     **** //    writeLCD(1, ' ');
 163:testLcd.c     **** //    delay37us();
 164:testLcd.c     **** //    writeLCD(1, 'p');
 165:testLcd.c     **** //    delay37us();
 166:testLcd.c     **** //    writeLCD(1, 'l');
 167:testLcd.c     **** //    delay37us();
 168:testLcd.c     **** //    writeLCD(1, 'a');
 169:testLcd.c     **** //    delay37us();
 170:testLcd.c     **** //    writeLCD(1, 'c');
 171:testLcd.c     **** //    delay37us();
 172:testLcd.c     **** //    writeLCD(1, 'k');
 173:testLcd.c     **** //    delay37us();
 174:testLcd.c     **** //    writeLCD(1, 'i');
 175:testLcd.c     **** //    delay37us();
 176:testLcd.c     **** 	WriteString("Lubie czolgi");
 177:testLcd.c     **** 
 178:testLcd.c     ****     //move curstor to second row
 179:testLcd.c     ****     writeLCD(0, 0x80 | 0x40);
 180:testLcd.c     ****     delay37us();
 181:testLcd.c     **** 
 182:testLcd.c     ****     osSleep(20);
 183:testLcd.c     ****     writeLCD(1, 'L');
 184:testLcd.c     ****     osSleep(20);
 185:testLcd.c     ****     writeLCD(1, 'P');
 186:testLcd.c     ****     osSleep(20);
 187:testLcd.c     ****     writeLCD(1, 'C');
 188:testLcd.c     ****     osSleep(20);
 189:testLcd.c     ****     writeLCD(1, '2');
 190:testLcd.c     ****     osSleep(20);
 191:testLcd.c     ****     writeLCD(1, '1');
 192:testLcd.c     ****     osSleep(20);
 193:testLcd.c     ****     writeLCD(1, '4');
 194:testLcd.c     ****     osSleep(20);
 195:testLcd.c     ****     writeLCD(1, '8');
 196:testLcd.c     ****     osSleep(20);
 197:testLcd.c     ****     writeLCD(1, ' ');
 198:testLcd.c     ****     osSleep(20);
 199:testLcd.c     ****     writeLCD(1, 'E');
 200:testLcd.c     ****     osSleep(20);
 201:testLcd.c     ****     writeLCD(1, 'd');
 202:testLcd.c     ****     osSleep(20);
 203:testLcd.c     ****     writeLCD(1, 'u');
 204:testLcd.c     ****     osSleep(20);
 205:testLcd.c     ****     writeLCD(1, 'B');
 206:testLcd.c     ****     osSleep(20);
 207:testLcd.c     ****     writeLCD(1, 'o');
 208:testLcd.c     ****     osSleep(20);
 209:testLcd.c     ****     writeLCD(1, 'a');
 210:testLcd.c     ****     osSleep(20);
 211:testLcd.c     ****     writeLCD(1, 'r');
 212:testLcd.c     ****     osSleep(20);
 213:testLcd.c     ****     writeLCD(1, 'd');
 214:testLcd.c     ****     osSleep(50);
 215:testLcd.c     **** 
 216:testLcd.c     **** //		lcdBacklight(FALSE);
 217:testLcd.c     **** //    osSleep(50);
ARM GAS  /cygdrive/c/DOCUME~1/mkwapisz/LOCALS~1/Temp/ccvC2JBL.s 			page 8


 218:testLcd.c     **** //		lcdBacklight(TRUE);
 219:testLcd.c     **** //    osSleep(50);
 220:testLcd.c     **** //		lcdBacklight(FALSE);
 221:testLcd.c     **** //    osSleep(50);
 222:testLcd.c     **** //		lcdBacklight(TRUE);
 223:testLcd.c     **** //    osSleep(50);
 224:testLcd.c     **** //		lcdBacklight(FALSE);
 225:testLcd.c     **** //    osSleep(50);
 226:testLcd.c     **** //		lcdBacklight(TRUE);
 227:testLcd.c     **** //    osSleep(50);
 228:testLcd.c     **** //		lcdBacklight(FALSE);
 229:testLcd.c     **** //    osSleep(50);
 230:testLcd.c     **** 
 231:testLcd.c     ****     //display clear
 232:testLcd.c     ****     //writeLCD(0, 0x01);
 233:testLcd.c     ****     osSleep(1); //actually only 1.52 mS needed
 234:testLcd.c     ****   }
 235:testLcd.c     **** 	//lcdBacklight(FALSE);
 236:testLcd.c     **** }
 237:testLcd.c     **** 
 238:testLcd.c     **** void WriteString(const char* str)
 239:testLcd.c     **** {
 179              		.loc 1 239 0
 180 00b0 10B5     		push	{r4, lr}
 181              	.LCFI2:
 182              	.LVL16:
 183              		.loc 1 239 0
 184 00b2 041C     		mov	r4, r0
 185 00b4 04E0     		b	.L24
 186              	.L25:
 240:testLcd.c     **** 	int i = 0;
 241:testLcd.c     **** 	for(; str[i] != '\0'; i++)
 242:testLcd.c     **** 	{
 243:testLcd.c     **** 		writeLCD(1, str[i]);
 187              		.loc 1 243 0
 188 00b6 0120     		mov	r0, #1
 189              	.LVL17:
 190 00b8 FFF7B2FF 		bl	writeLCD
 244:testLcd.c     **** 		delay37us();
 191              		.loc 1 244 0
 192 00bc FFF7A0FF 		bl	delay37us
 193              	.LVL18:
 194              	.L24:
 195              		.loc 1 241 0
 196 00c0 2178     		ldrb	r1, [r4]
 197 00c2 0134     		add	r4, r4, #1
 198 00c4 0029     		cmp	r1, #0
 199 00c6 F6D1     		bne	.L25
 245:testLcd.c     **** 	}
 246:testLcd.c     **** }
 200              		.loc 1 246 0
 201              		@ sp needed for prologue
 202 00c8 10BC     		pop	{r4}
 203 00ca 01BC     		pop	{r0}
 204 00cc 0047     		bx	r0
 205              	.LFE7:
 206              		.size	WriteString, .-WriteString
ARM GAS  /cygdrive/c/DOCUME~1/mkwapisz/LOCALS~1/Temp/ccvC2JBL.s 			page 9


 207              		.section	.rodata.str1.4,"aMS",%progbits,1
 208              		.align	2
 209              	.LC0:
 210 0000 4C756269 		.ascii	"Lubie czolgi\000"
 210      6520637A 
 210      6F6C6769 
 210      00
 211 000d 000000   		.text
 212 00ce 0000     		.align	2
 213              		.global	testLcd
 214              		.code 16
 215              		.thumb_func
 216              		.type	testLcd, %function
 217              	testLcd:
 218              	.LFB6:
 219              		.loc 1 110 0
 220 00d0 00B5     		push	{lr}
 221              	.LCFI3:
 222              	.LBB8:
 223              	.LBB9:
 224              		.loc 1 30 0
 225 00d2 6C4A     		ldr	r2, .L32
 226 00d4 6C49     		ldr	r1, .L32+4
 227 00d6 1368     		ldr	r3, [r2]
 228 00d8 0B43     		orr	r3, r3, r1
 229 00da 1360     		str	r3, [r2]
 230              		.loc 1 31 0
 231 00dc 6B4B     		ldr	r3, .L32+8
 232              		.loc 1 33 0
 233 00de 6C48     		ldr	r0, .L32+12
 234              		.loc 1 31 0
 235 00e0 1960     		str	r1, [r3]
 236              		.loc 1 33 0
 237 00e2 8022     		mov	r2, #128
 238 00e4 0368     		ldr	r3, [r0]
 239 00e6 D203     		lsl	r2, r2, #15
 240              		.loc 1 34 0
 241 00e8 6A49     		ldr	r1, .L32+16
 242              		.loc 1 33 0
 243 00ea 1343     		orr	r3, r3, r2
 244 00ec 0360     		str	r3, [r0]
 245              		.loc 1 34 0
 246 00ee 0A60     		str	r2, [r1]
 247              		.loc 1 36 0
 248 00f0 8023     		mov	r3, #128
 249 00f2 0268     		ldr	r2, [r0]
 250 00f4 DB05     		lsl	r3, r3, #23
 251 00f6 1A43     		orr	r2, r2, r3
 252 00f8 0260     		str	r2, [r0]
 253              		.loc 1 37 0
 254 00fa 0B60     		str	r3, [r1]
 255              	.LBE9:
 256              	.LBE8:
 257              	.LBB10:
 258              	.LBB11:
 259              		.loc 1 99 0
 260 00fc 0B60     		str	r3, [r1]
ARM GAS  /cygdrive/c/DOCUME~1/mkwapisz/LOCALS~1/Temp/ccvC2JBL.s 			page 10


 261              	.LBE11:
 262              	.LBE10:
 263              		.loc 1 113 0
 264 00fe 0A20     		mov	r0, #10
 265              	.L31:
 266 0100 FFF7FEFF 		bl	osSleep
 267              	.LBB12:
 268              	.LBB13:
 269              		.loc 1 97 0
 270 0104 644A     		ldr	r2, .L32+20
 271 0106 8023     		mov	r3, #128
 272 0108 DB05     		lsl	r3, r3, #23
 273 010a 1360     		str	r3, [r2]
 274              	.LBE13:
 275              	.LBE12:
 276              		.loc 1 118 0
 277 010c 3220     		mov	r0, #50
 278 010e FFF7FEFF 		bl	osSleep
 279              		.loc 1 121 0
 280 0112 3021     		mov	r1, #48
 281 0114 0020     		mov	r0, #0
 282 0116 FFF783FF 		bl	writeLCD
 283              		.loc 1 122 0
 284 011a 0120     		mov	r0, #1
 285 011c FFF7FEFF 		bl	osSleep
 286              		.loc 1 123 0
 287 0120 0020     		mov	r0, #0
 288 0122 3021     		mov	r1, #48
 289 0124 FFF77CFF 		bl	writeLCD
 290              		.loc 1 124 0
 291 0128 FFF76AFF 		bl	delay37us
 292              		.loc 1 125 0
 293 012c 0020     		mov	r0, #0
 294 012e 3021     		mov	r1, #48
 295 0130 FFF776FF 		bl	writeLCD
 296              		.loc 1 126 0
 297 0134 FFF764FF 		bl	delay37us
 298              		.loc 1 129 0
 299 0138 0020     		mov	r0, #0
 300 013a 3821     		mov	r1, #56
 301 013c FFF770FF 		bl	writeLCD
 302              		.loc 1 130 0
 303 0140 FFF75EFF 		bl	delay37us
 304              		.loc 1 133 0
 305 0144 0020     		mov	r0, #0
 306 0146 0821     		mov	r1, #8
 307 0148 FFF76AFF 		bl	writeLCD
 308              		.loc 1 134 0
 309 014c FFF758FF 		bl	delay37us
 310              		.loc 1 137 0
 311 0150 0121     		mov	r1, #1
 312 0152 0020     		mov	r0, #0
 313 0154 FFF764FF 		bl	writeLCD
 314              		.loc 1 138 0
 315 0158 0120     		mov	r0, #1
 316 015a FFF7FEFF 		bl	osSleep
 317              		.loc 1 141 0
ARM GAS  /cygdrive/c/DOCUME~1/mkwapisz/LOCALS~1/Temp/ccvC2JBL.s 			page 11


 318 015e 0621     		mov	r1, #6
 319 0160 0020     		mov	r0, #0
 320 0162 FFF75DFF 		bl	writeLCD
 321              		.loc 1 142 0
 322 0166 0120     		mov	r0, #1
 323 0168 FFF7FEFF 		bl	osSleep
 324              		.loc 1 145 0
 325 016c 0020     		mov	r0, #0
 326 016e 0C21     		mov	r1, #12
 327 0170 FFF756FF 		bl	writeLCD
 328              		.loc 1 146 0
 329 0174 FFF744FF 		bl	delay37us
 330              		.loc 1 149 0
 331 0178 0221     		mov	r1, #2
 332 017a 0020     		mov	r0, #0
 333 017c FFF750FF 		bl	writeLCD
 334              		.loc 1 150 0
 335 0180 0120     		mov	r0, #1
 336 0182 FFF7FEFF 		bl	osSleep
 337              		.loc 1 176 0
 338 0186 4548     		ldr	r0, .L32+24
 339 0188 FFF7FEFF 		bl	WriteString
 340              		.loc 1 179 0
 341 018c C021     		mov	r1, #192
 342 018e 0020     		mov	r0, #0
 343 0190 FFF746FF 		bl	writeLCD
 344              		.loc 1 180 0
 345 0194 FFF734FF 		bl	delay37us
 346              		.loc 1 182 0
 347 0198 1420     		mov	r0, #20
 348 019a FFF7FEFF 		bl	osSleep
 349              		.loc 1 183 0
 350 019e 4C21     		mov	r1, #76
 351 01a0 0120     		mov	r0, #1
 352 01a2 FFF73DFF 		bl	writeLCD
 353              		.loc 1 184 0
 354 01a6 1420     		mov	r0, #20
 355 01a8 FFF7FEFF 		bl	osSleep
 356              		.loc 1 185 0
 357 01ac 5021     		mov	r1, #80
 358 01ae 0120     		mov	r0, #1
 359 01b0 FFF736FF 		bl	writeLCD
 360              		.loc 1 186 0
 361 01b4 1420     		mov	r0, #20
 362 01b6 FFF7FEFF 		bl	osSleep
 363              		.loc 1 187 0
 364 01ba 4321     		mov	r1, #67
 365 01bc 0120     		mov	r0, #1
 366 01be FFF72FFF 		bl	writeLCD
 367              		.loc 1 188 0
 368 01c2 1420     		mov	r0, #20
 369 01c4 FFF7FEFF 		bl	osSleep
 370              		.loc 1 189 0
 371 01c8 3221     		mov	r1, #50
 372 01ca 0120     		mov	r0, #1
 373 01cc FFF728FF 		bl	writeLCD
 374              		.loc 1 190 0
ARM GAS  /cygdrive/c/DOCUME~1/mkwapisz/LOCALS~1/Temp/ccvC2JBL.s 			page 12


 375 01d0 1420     		mov	r0, #20
 376 01d2 FFF7FEFF 		bl	osSleep
 377              		.loc 1 191 0
 378 01d6 3121     		mov	r1, #49
 379 01d8 0120     		mov	r0, #1
 380 01da FFF721FF 		bl	writeLCD
 381              		.loc 1 192 0
 382 01de 1420     		mov	r0, #20
 383 01e0 FFF7FEFF 		bl	osSleep
 384              		.loc 1 193 0
 385 01e4 3421     		mov	r1, #52
 386 01e6 0120     		mov	r0, #1
 387 01e8 FFF71AFF 		bl	writeLCD
 388              		.loc 1 194 0
 389 01ec 1420     		mov	r0, #20
 390 01ee FFF7FEFF 		bl	osSleep
 391              		.loc 1 195 0
 392 01f2 3821     		mov	r1, #56
 393 01f4 0120     		mov	r0, #1
 394 01f6 FFF713FF 		bl	writeLCD
 395              		.loc 1 196 0
 396 01fa 1420     		mov	r0, #20
 397 01fc FFF7FEFF 		bl	osSleep
 398              		.loc 1 197 0
 399 0200 2021     		mov	r1, #32
 400 0202 0120     		mov	r0, #1
 401 0204 FFF70CFF 		bl	writeLCD
 402              		.loc 1 198 0
 403 0208 1420     		mov	r0, #20
 404 020a FFF7FEFF 		bl	osSleep
 405              		.loc 1 199 0
 406 020e 4521     		mov	r1, #69
 407 0210 0120     		mov	r0, #1
 408 0212 FFF705FF 		bl	writeLCD
 409              		.loc 1 200 0
 410 0216 1420     		mov	r0, #20
 411 0218 FFF7FEFF 		bl	osSleep
 412              		.loc 1 201 0
 413 021c 6421     		mov	r1, #100
 414 021e 0120     		mov	r0, #1
 415 0220 FFF7FEFE 		bl	writeLCD
 416              		.loc 1 202 0
 417 0224 1420     		mov	r0, #20
 418 0226 FFF7FEFF 		bl	osSleep
 419              		.loc 1 203 0
 420 022a 7521     		mov	r1, #117
 421 022c 0120     		mov	r0, #1
 422 022e FFF7F7FE 		bl	writeLCD
 423              		.loc 1 204 0
 424 0232 1420     		mov	r0, #20
 425 0234 FFF7FEFF 		bl	osSleep
 426              		.loc 1 205 0
 427 0238 4221     		mov	r1, #66
 428 023a 0120     		mov	r0, #1
 429 023c FFF7F0FE 		bl	writeLCD
 430              		.loc 1 206 0
 431 0240 1420     		mov	r0, #20
ARM GAS  /cygdrive/c/DOCUME~1/mkwapisz/LOCALS~1/Temp/ccvC2JBL.s 			page 13


 432 0242 FFF7FEFF 		bl	osSleep
 433              		.loc 1 207 0
 434 0246 6F21     		mov	r1, #111
 435 0248 0120     		mov	r0, #1
 436 024a FFF7E9FE 		bl	writeLCD
 437              		.loc 1 208 0
 438 024e 1420     		mov	r0, #20
 439 0250 FFF7FEFF 		bl	osSleep
 440              		.loc 1 209 0
 441 0254 6121     		mov	r1, #97
 442 0256 0120     		mov	r0, #1
 443 0258 FFF7E2FE 		bl	writeLCD
 444              		.loc 1 210 0
 445 025c 1420     		mov	r0, #20
 446 025e FFF7FEFF 		bl	osSleep
 447              		.loc 1 211 0
 448 0262 7221     		mov	r1, #114
 449 0264 0120     		mov	r0, #1
 450 0266 FFF7DBFE 		bl	writeLCD
 451              		.loc 1 212 0
 452 026a 1420     		mov	r0, #20
 453 026c FFF7FEFF 		bl	osSleep
 454              		.loc 1 213 0
 455 0270 0120     		mov	r0, #1
 456 0272 6421     		mov	r1, #100
 457 0274 FFF7D4FE 		bl	writeLCD
 458              		.loc 1 214 0
 459 0278 3220     		mov	r0, #50
 460 027a FFF7FEFF 		bl	osSleep
 461              		.loc 1 233 0
 462 027e 0120     		mov	r0, #1
 463 0280 3EE7     		b	.L31
 464              	.L33:
 465 0282 0000     		.align	2
 466              	.L32:
 467 0284 188002E0 		.word	-536707048
 468 0288 0000FF03 		.word	67043328
 469 028c 1C8002E0 		.word	-536707044
 470 0290 088002E0 		.word	-536707064
 471 0294 0C8002E0 		.word	-536707060
 472 0298 048002E0 		.word	-536707068
 473 029c 00000000 		.word	.LC0
 474              	.LFE6:
 475              		.size	testLcd, .-testLcd
 476              		.section	.debug_frame,"",%progbits
 477              	.Lframe0:
 478 0000 0C000000 		.4byte	.LECIE0-.LSCIE0
 479              	.LSCIE0:
 480 0004 FFFFFFFF 		.4byte	0xffffffff
 481 0008 01       		.byte	0x1
 482 0009 00       		.ascii	"\000"
 483 000a 01       		.uleb128 0x1
 484 000b 7C       		.sleb128 -4
 485 000c 0E       		.byte	0xe
 486 000d 0C       		.byte	0xc
 487 000e 0D       		.uleb128 0xd
 488 000f 00       		.uleb128 0x0
ARM GAS  /cygdrive/c/DOCUME~1/mkwapisz/LOCALS~1/Temp/ccvC2JBL.s 			page 14


 489              		.align	2
 490              	.LECIE0:
 491              	.LSFDE0:
 492 0010 10000000 		.4byte	.LEFDE0-.LASFDE0
 493              	.LASFDE0:
 494 0014 00000000 		.4byte	.Lframe0
 495 0018 00000000 		.4byte	.LFB3
 496 001c 20000000 		.4byte	.LFE3-.LFB3
 497 0020 42       		.byte	0x4
 498              		.4byte	.LCFI0-.LFB3
 499 0021 0E       		.byte	0xe
 500 0022 04       		.uleb128 0x4
 501 0023 00       		.align	2
 502              	.LEFDE0:
 503              	.LSFDE2:
 504 0024 10000000 		.4byte	.LEFDE2-.LASFDE2
 505              	.LASFDE2:
 506 0028 00000000 		.4byte	.Lframe0
 507 002c 20000000 		.4byte	.LFB4
 508 0030 90000000 		.4byte	.LFE4-.LFB4
 509 0034 46       		.byte	0x4
 510              		.4byte	.LCFI1-.LFB4
 511 0035 0E       		.byte	0xe
 512 0036 04       		.uleb128 0x4
 513 0037 00       		.align	2
 514              	.LEFDE2:
 515              	.LSFDE4:
 516 0038 14000000 		.4byte	.LEFDE4-.LASFDE4
 517              	.LASFDE4:
 518 003c 00000000 		.4byte	.Lframe0
 519 0040 B0000000 		.4byte	.LFB7
 520 0044 1E000000 		.4byte	.LFE7-.LFB7
 521 0048 42       		.byte	0x4
 522              		.4byte	.LCFI2-.LFB7
 523 0049 0E       		.byte	0xe
 524 004a 08       		.uleb128 0x8
 525 004b 84       		.byte	0x84
 526 004c 02       		.uleb128 0x2
 527 004d 8E       		.byte	0x8e
 528 004e 01       		.uleb128 0x1
 529 004f 00       		.align	2
 530              	.LEFDE4:
 531              	.LSFDE6:
 532 0050 14000000 		.4byte	.LEFDE6-.LASFDE6
 533              	.LASFDE6:
 534 0054 00000000 		.4byte	.Lframe0
 535 0058 D0000000 		.4byte	.LFB6
 536 005c D0010000 		.4byte	.LFE6-.LFB6
 537 0060 42       		.byte	0x4
 538              		.4byte	.LCFI3-.LFB6
 539 0061 0E       		.byte	0xe
 540 0062 04       		.uleb128 0x4
 541 0063 8E       		.byte	0x8e
 542 0064 01       		.uleb128 0x1
 543 0065 000000   		.align	2
 544              	.LEFDE6:
 545              		.file 2 "./startup/../pre_emptive_os/api/../api/general.h"
ARM GAS  /cygdrive/c/DOCUME~1/mkwapisz/LOCALS~1/Temp/ccvC2JBL.s 			page 15


 546              		.text
 547              	.Letext0:
 548              		.section	.debug_loc,"",%progbits
 549              	.Ldebug_loc0:
 550              	.LLST0:
 551 0000 00000000 		.4byte	.LFB3-.Ltext0
 552 0004 02000000 		.4byte	.LCFI0-.Ltext0
 553 0008 0100     		.2byte	0x1
 554 000a 5D       		.byte	0x5d
 555 000b 02000000 		.4byte	.LCFI0-.Ltext0
 556 000f 20000000 		.4byte	.LFE3-.Ltext0
 557 0013 0200     		.2byte	0x2
 558 0015 7D       		.byte	0x7d
 559 0016 04       		.sleb128 4
 560 0017 00000000 		.4byte	0x0
 561 001b 00000000 		.4byte	0x0
 562              	.LLST1:
 563 001f 20000000 		.4byte	.LFB4-.Ltext0
 564 0023 26000000 		.4byte	.LCFI1-.Ltext0
 565 0027 0100     		.2byte	0x1
 566 0029 5D       		.byte	0x5d
 567 002a 26000000 		.4byte	.LCFI1-.Ltext0
 568 002e B0000000 		.4byte	.LFE4-.Ltext0
 569 0032 0200     		.2byte	0x2
 570 0034 7D       		.byte	0x7d
 571 0035 04       		.sleb128 4
 572 0036 00000000 		.4byte	0x0
 573 003a 00000000 		.4byte	0x0
 574              	.LLST2:
 575 003e 20000000 		.4byte	.LVL1-.Ltext0
 576 0042 24000000 		.4byte	.LVL3-.Ltext0
 577 0046 0100     		.2byte	0x1
 578 0048 50       		.byte	0x50
 579 0049 00000000 		.4byte	0x0
 580 004d 00000000 		.4byte	0x0
 581              	.LLST3:
 582 0051 20000000 		.4byte	.LVL1-.Ltext0
 583 0055 22000000 		.4byte	.LVL2-.Ltext0
 584 0059 0100     		.2byte	0x1
 585 005b 51       		.byte	0x51
 586 005c 28000000 		.4byte	.LVL4-.Ltext0
 587 0060 64000000 		.4byte	.LVL6-.Ltext0
 588 0064 0100     		.2byte	0x1
 589 0066 51       		.byte	0x51
 590 0067 70000000 		.4byte	.LVL8-.Ltext0
 591 006b 72000000 		.4byte	.LVL9-.Ltext0
 592 006f 0100     		.2byte	0x1
 593 0071 51       		.byte	0x51
 594 0072 00000000 		.4byte	0x0
 595 0076 00000000 		.4byte	0x0
 596              	.LLST4:
 597 007a 62000000 		.4byte	.LVL5-.Ltext0
 598 007e 64000000 		.4byte	.LVL6-.Ltext0
 599 0082 0200     		.2byte	0x2
 600 0084 73       		.byte	0x73
 601 0085 00       		.sleb128 0
 602 0086 64000000 		.4byte	.LVL6-.Ltext0
ARM GAS  /cygdrive/c/DOCUME~1/mkwapisz/LOCALS~1/Temp/ccvC2JBL.s 			page 16


 603 008a 6A000000 		.4byte	.LVL7-.Ltext0
 604 008e 0100     		.2byte	0x1
 605 0090 53       		.byte	0x53
 606 0091 6A000000 		.4byte	.LVL7-.Ltext0
 607 0095 70000000 		.4byte	.LVL8-.Ltext0
 608 0099 0200     		.2byte	0x2
 609 009b 71       		.byte	0x71
 610 009c 00       		.sleb128 0
 611 009d 70000000 		.4byte	.LVL8-.Ltext0
 612 00a1 7A000000 		.4byte	.LVL10-.Ltext0
 613 00a5 0200     		.2byte	0x2
 614 00a7 73       		.byte	0x73
 615 00a8 00       		.sleb128 0
 616 00a9 7A000000 		.4byte	.LVL10-.Ltext0
 617 00ad 7C000000 		.4byte	.LVL11-.Ltext0
 618 00b1 0100     		.2byte	0x1
 619 00b3 53       		.byte	0x53
 620 00b4 7C000000 		.4byte	.LVL11-.Ltext0
 621 00b8 88000000 		.4byte	.LVL12-.Ltext0
 622 00bc 0200     		.2byte	0x2
 623 00be 71       		.byte	0x71
 624 00bf 00       		.sleb128 0
 625 00c0 88000000 		.4byte	.LVL12-.Ltext0
 626 00c4 8E000000 		.4byte	.LVL13-.Ltext0
 627 00c8 0100     		.2byte	0x1
 628 00ca 53       		.byte	0x53
 629 00cb 8E000000 		.4byte	.LVL13-.Ltext0
 630 00cf 94000000 		.4byte	.LVL14-.Ltext0
 631 00d3 0200     		.2byte	0x2
 632 00d5 72       		.byte	0x72
 633 00d6 00       		.sleb128 0
 634 00d7 94000000 		.4byte	.LVL14-.Ltext0
 635 00db 9E000000 		.4byte	.LVL15-.Ltext0
 636 00df 0200     		.2byte	0x2
 637 00e1 71       		.byte	0x71
 638 00e2 00       		.sleb128 0
 639 00e3 9E000000 		.4byte	.LVL15-.Ltext0
 640 00e7 B0000000 		.4byte	.LFE4-.Ltext0
 641 00eb 0100     		.2byte	0x1
 642 00ed 53       		.byte	0x53
 643 00ee 00000000 		.4byte	0x0
 644 00f2 00000000 		.4byte	0x0
 645              	.LLST5:
 646 00f6 B0000000 		.4byte	.LFB7-.Ltext0
 647 00fa B2000000 		.4byte	.LCFI2-.Ltext0
 648 00fe 0100     		.2byte	0x1
 649 0100 5D       		.byte	0x5d
 650 0101 B2000000 		.4byte	.LCFI2-.Ltext0
 651 0105 CE000000 		.4byte	.LFE7-.Ltext0
 652 0109 0200     		.2byte	0x2
 653 010b 7D       		.byte	0x7d
 654 010c 08       		.sleb128 8
 655 010d 00000000 		.4byte	0x0
 656 0111 00000000 		.4byte	0x0
 657              	.LLST6:
 658 0115 B2000000 		.4byte	.LVL16-.Ltext0
 659 0119 B8000000 		.4byte	.LVL17-.Ltext0
ARM GAS  /cygdrive/c/DOCUME~1/mkwapisz/LOCALS~1/Temp/ccvC2JBL.s 			page 17


 660 011d 0100     		.2byte	0x1
 661 011f 50       		.byte	0x50
 662 0120 C0000000 		.4byte	.LVL18-.Ltext0
 663 0124 CE000000 		.4byte	.LFE7-.Ltext0
 664 0128 0100     		.2byte	0x1
 665 012a 50       		.byte	0x50
 666 012b 00000000 		.4byte	0x0
 667 012f 00000000 		.4byte	0x0
 668              	.LLST7:
 669 0133 D0000000 		.4byte	.LFB6-.Ltext0
 670 0137 D2000000 		.4byte	.LCFI3-.Ltext0
 671 013b 0100     		.2byte	0x1
 672 013d 5D       		.byte	0x5d
 673 013e D2000000 		.4byte	.LCFI3-.Ltext0
 674 0142 A0020000 		.4byte	.LFE6-.Ltext0
 675 0146 0200     		.2byte	0x2
 676 0148 7D       		.byte	0x7d
 677 0149 04       		.sleb128 4
 678 014a 00000000 		.4byte	0x0
 679 014e 00000000 		.4byte	0x0
 680              		.section	.debug_info
 681 0000 95010000 		.4byte	0x195
 682 0004 0200     		.2byte	0x2
 683 0006 00000000 		.4byte	.Ldebug_abbrev0
 684 000a 04       		.byte	0x4
 685 000b 01       		.uleb128 0x1
 686 000c 00000000 		.4byte	.Ldebug_line0
 687 0010 A0020000 		.4byte	.Letext0
 688 0014 00000000 		.4byte	.Ltext0
 689 0018 87000000 		.4byte	.LASF13
 690 001c 01       		.byte	0x1
 691 001d C1000000 		.4byte	.LASF14
 692 0021 93000000 		.4byte	.LASF15
 693 0025 02       		.uleb128 0x2
 694 0026 74553800 		.ascii	"tU8\000"
 695 002a 02       		.byte	0x2
 696 002b 47       		.byte	0x47
 697 002c 30000000 		.4byte	0x30
 698 0030 03       		.uleb128 0x3
 699 0031 2F000000 		.4byte	.LASF0
 700 0035 01       		.byte	0x1
 701 0036 08       		.byte	0x8
 702 0037 03       		.uleb128 0x3
 703 0038 4F000000 		.4byte	.LASF1
 704 003c 02       		.byte	0x2
 705 003d 07       		.byte	0x7
 706 003e 04       		.uleb128 0x4
 707 003f B7000000 		.4byte	.LASF2
 708 0043 02       		.byte	0x2
 709 0044 49       		.byte	0x49
 710 0045 49000000 		.4byte	0x49
 711 0049 03       		.uleb128 0x3
 712 004a 68000000 		.4byte	.LASF3
 713 004e 04       		.byte	0x4
 714 004f 07       		.byte	0x7
 715 0050 03       		.uleb128 0x3
 716 0051 D5000000 		.4byte	.LASF4
ARM GAS  /cygdrive/c/DOCUME~1/mkwapisz/LOCALS~1/Temp/ccvC2JBL.s 			page 18


 717 0055 01       		.byte	0x1
 718 0056 06       		.byte	0x6
 719 0057 03       		.uleb128 0x3
 720 0058 CB000000 		.4byte	.LASF5
 721 005c 02       		.byte	0x2
 722 005d 05       		.byte	0x5
 723 005e 05       		.uleb128 0x5
 724 005f 696E7400 		.ascii	"int\000"
 725 0063 04       		.byte	0x4
 726 0064 05       		.byte	0x5
 727 0065 03       		.uleb128 0x3
 728 0066 3D000000 		.4byte	.LASF6
 729 006a 04       		.byte	0x4
 730 006b 07       		.byte	0x7
 731 006c 06       		.uleb128 0x6
 732 006d 91000000 		.4byte	0x91
 733 0071 75000000 		.4byte	.LASF7
 734 0075 01       		.byte	0x1
 735 0076 30       		.byte	0x30
 736 0077 01       		.byte	0x1
 737 0078 00000000 		.4byte	.LFB3
 738 007c 20000000 		.4byte	.LFE3
 739 0080 00000000 		.4byte	.LLST0
 740 0084 07       		.uleb128 0x7
 741 0085 6900     		.ascii	"i\000"
 742 0087 01       		.byte	0x1
 743 0088 31       		.byte	0x31
 744 0089 91000000 		.4byte	0x91
 745 008d 02       		.byte	0x2
 746 008e 91       		.byte	0x91
 747 008f 7C       		.sleb128 -4
 748 0090 00       		.byte	0x0
 749 0091 08       		.uleb128 0x8
 750 0092 3E000000 		.4byte	0x3e
 751 0096 06       		.uleb128 0x6
 752 0097 DA000000 		.4byte	0xda
 753 009b 12000000 		.4byte	.LASF8
 754 009f 01       		.byte	0x1
 755 00a0 40       		.byte	0x40
 756 00a1 01       		.byte	0x1
 757 00a2 20000000 		.4byte	.LFB4
 758 00a6 B0000000 		.4byte	.LFE4
 759 00aa 1F000000 		.4byte	.LLST1
 760 00ae 09       		.uleb128 0x9
 761 00af 72656700 		.ascii	"reg\000"
 762 00b3 01       		.byte	0x1
 763 00b4 3F       		.byte	0x3f
 764 00b5 25000000 		.4byte	0x25
 765 00b9 3E000000 		.4byte	.LLST2
 766 00bd 0A       		.uleb128 0xa
 767 00be 00000000 		.4byte	.LASF9
 768 00c2 01       		.byte	0x1
 769 00c3 3F       		.byte	0x3f
 770 00c4 25000000 		.4byte	0x25
 771 00c8 51000000 		.4byte	.LLST3
 772 00cc 0B       		.uleb128 0xb
 773 00cd 6900     		.ascii	"i\000"
ARM GAS  /cygdrive/c/DOCUME~1/mkwapisz/LOCALS~1/Temp/ccvC2JBL.s 			page 19


 774 00cf 01       		.byte	0x1
 775 00d0 41       		.byte	0x41
 776 00d1 DA000000 		.4byte	0xda
 777 00d5 7A000000 		.4byte	.LLST4
 778 00d9 00       		.byte	0x0
 779 00da 08       		.uleb128 0x8
 780 00db 25000000 		.4byte	0x25
 781 00df 0C       		.uleb128 0xc
 782 00e0 11010000 		.4byte	0x111
 783 00e4 01       		.byte	0x1
 784 00e5 1B000000 		.4byte	.LASF16
 785 00e9 01       		.byte	0x1
 786 00ea EF       		.byte	0xef
 787 00eb 01       		.byte	0x1
 788 00ec B0000000 		.4byte	.LFB7
 789 00f0 CE000000 		.4byte	.LFE7
 790 00f4 F6000000 		.4byte	.LLST5
 791 00f8 09       		.uleb128 0x9
 792 00f9 73747200 		.ascii	"str\000"
 793 00fd 01       		.byte	0x1
 794 00fe EE       		.byte	0xee
 795 00ff 11010000 		.4byte	0x111
 796 0103 15010000 		.4byte	.LLST6
 797 0107 0D       		.uleb128 0xd
 798 0108 6900     		.ascii	"i\000"
 799 010a 01       		.byte	0x1
 800 010b F0       		.byte	0xf0
 801 010c 5E000000 		.4byte	0x5e
 802 0110 00       		.byte	0x0
 803 0111 0E       		.uleb128 0xe
 804 0112 04       		.byte	0x4
 805 0113 17010000 		.4byte	0x117
 806 0117 0F       		.uleb128 0xf
 807 0118 1C010000 		.4byte	0x11c
 808 011c 03       		.uleb128 0x3
 809 011d BC000000 		.4byte	.LASF10
 810 0121 01       		.byte	0x1
 811 0122 08       		.byte	0x8
 812 0123 10       		.uleb128 0x10
 813 0124 7F000000 		.4byte	.LASF17
 814 0128 01       		.byte	0x1
 815 0129 1D       		.byte	0x1d
 816 012a 01       		.byte	0x1
 817 012b 01       		.byte	0x1
 818 012c 11       		.uleb128 0x11
 819 012d 45010000 		.4byte	0x145
 820 0131 05000000 		.4byte	.LASF11
 821 0135 01       		.byte	0x1
 822 0136 5F       		.byte	0x5f
 823 0137 01       		.byte	0x1
 824 0138 01       		.byte	0x1
 825 0139 12       		.uleb128 0x12
 826 013a 62000000 		.4byte	.LASF12
 827 013e 01       		.byte	0x1
 828 013f 5E       		.byte	0x5e
 829 0140 25000000 		.4byte	0x25
 830 0144 00       		.byte	0x0
ARM GAS  /cygdrive/c/DOCUME~1/mkwapisz/LOCALS~1/Temp/ccvC2JBL.s 			page 20


 831 0145 13       		.uleb128 0x13
 832 0146 01       		.byte	0x1
 833 0147 27000000 		.4byte	.LASF18
 834 014b 01       		.byte	0x1
 835 014c 6E       		.byte	0x6e
 836 014d 01       		.byte	0x1
 837 014e D0000000 		.4byte	.LFB6
 838 0152 A0020000 		.4byte	.LFE6
 839 0156 33010000 		.4byte	.LLST7
 840 015a 14       		.uleb128 0x14
 841 015b 23010000 		.4byte	0x123
 842 015f D2000000 		.4byte	.LBB8
 843 0163 FC000000 		.4byte	.LBE8
 844 0167 01       		.byte	0x1
 845 0168 6F       		.byte	0x6f
 846 0169 15       		.uleb128 0x15
 847 016a 82010000 		.4byte	0x182
 848 016e 2C010000 		.4byte	0x12c
 849 0172 FC000000 		.4byte	.LBB10
 850 0176 FE000000 		.4byte	.LBE10
 851 017a 01       		.byte	0x1
 852 017b 70       		.byte	0x70
 853 017c 16       		.uleb128 0x16
 854 017d 39010000 		.4byte	0x139
 855 0181 00       		.byte	0x0
 856 0182 17       		.uleb128 0x17
 857 0183 2C010000 		.4byte	0x12c
 858 0187 04010000 		.4byte	.LBB12
 859 018b 0C010000 		.4byte	.LBE12
 860 018f 01       		.byte	0x1
 861 0190 75       		.byte	0x75
 862 0191 16       		.uleb128 0x16
 863 0192 39010000 		.4byte	0x139
 864 0196 00       		.byte	0x0
 865 0197 00       		.byte	0x0
 866 0198 00       		.byte	0x0
 867              		.section	.debug_abbrev
 868 0000 01       		.uleb128 0x1
 869 0001 11       		.uleb128 0x11
 870 0002 01       		.byte	0x1
 871 0003 10       		.uleb128 0x10
 872 0004 06       		.uleb128 0x6
 873 0005 12       		.uleb128 0x12
 874 0006 01       		.uleb128 0x1
 875 0007 11       		.uleb128 0x11
 876 0008 01       		.uleb128 0x1
 877 0009 25       		.uleb128 0x25
 878 000a 0E       		.uleb128 0xe
 879 000b 13       		.uleb128 0x13
 880 000c 0B       		.uleb128 0xb
 881 000d 03       		.uleb128 0x3
 882 000e 0E       		.uleb128 0xe
 883 000f 1B       		.uleb128 0x1b
 884 0010 0E       		.uleb128 0xe
 885 0011 00       		.byte	0x0
 886 0012 00       		.byte	0x0
 887 0013 02       		.uleb128 0x2
ARM GAS  /cygdrive/c/DOCUME~1/mkwapisz/LOCALS~1/Temp/ccvC2JBL.s 			page 21


 888 0014 16       		.uleb128 0x16
 889 0015 00       		.byte	0x0
 890 0016 03       		.uleb128 0x3
 891 0017 08       		.uleb128 0x8
 892 0018 3A       		.uleb128 0x3a
 893 0019 0B       		.uleb128 0xb
 894 001a 3B       		.uleb128 0x3b
 895 001b 0B       		.uleb128 0xb
 896 001c 49       		.uleb128 0x49
 897 001d 13       		.uleb128 0x13
 898 001e 00       		.byte	0x0
 899 001f 00       		.byte	0x0
 900 0020 03       		.uleb128 0x3
 901 0021 24       		.uleb128 0x24
 902 0022 00       		.byte	0x0
 903 0023 03       		.uleb128 0x3
 904 0024 0E       		.uleb128 0xe
 905 0025 0B       		.uleb128 0xb
 906 0026 0B       		.uleb128 0xb
 907 0027 3E       		.uleb128 0x3e
 908 0028 0B       		.uleb128 0xb
 909 0029 00       		.byte	0x0
 910 002a 00       		.byte	0x0
 911 002b 04       		.uleb128 0x4
 912 002c 16       		.uleb128 0x16
 913 002d 00       		.byte	0x0
 914 002e 03       		.uleb128 0x3
 915 002f 0E       		.uleb128 0xe
 916 0030 3A       		.uleb128 0x3a
 917 0031 0B       		.uleb128 0xb
 918 0032 3B       		.uleb128 0x3b
 919 0033 0B       		.uleb128 0xb
 920 0034 49       		.uleb128 0x49
 921 0035 13       		.uleb128 0x13
 922 0036 00       		.byte	0x0
 923 0037 00       		.byte	0x0
 924 0038 05       		.uleb128 0x5
 925 0039 24       		.uleb128 0x24
 926 003a 00       		.byte	0x0
 927 003b 03       		.uleb128 0x3
 928 003c 08       		.uleb128 0x8
 929 003d 0B       		.uleb128 0xb
 930 003e 0B       		.uleb128 0xb
 931 003f 3E       		.uleb128 0x3e
 932 0040 0B       		.uleb128 0xb
 933 0041 00       		.byte	0x0
 934 0042 00       		.byte	0x0
 935 0043 06       		.uleb128 0x6
 936 0044 2E       		.uleb128 0x2e
 937 0045 01       		.byte	0x1
 938 0046 01       		.uleb128 0x1
 939 0047 13       		.uleb128 0x13
 940 0048 03       		.uleb128 0x3
 941 0049 0E       		.uleb128 0xe
 942 004a 3A       		.uleb128 0x3a
 943 004b 0B       		.uleb128 0xb
 944 004c 3B       		.uleb128 0x3b
ARM GAS  /cygdrive/c/DOCUME~1/mkwapisz/LOCALS~1/Temp/ccvC2JBL.s 			page 22


 945 004d 0B       		.uleb128 0xb
 946 004e 27       		.uleb128 0x27
 947 004f 0C       		.uleb128 0xc
 948 0050 11       		.uleb128 0x11
 949 0051 01       		.uleb128 0x1
 950 0052 12       		.uleb128 0x12
 951 0053 01       		.uleb128 0x1
 952 0054 40       		.uleb128 0x40
 953 0055 06       		.uleb128 0x6
 954 0056 00       		.byte	0x0
 955 0057 00       		.byte	0x0
 956 0058 07       		.uleb128 0x7
 957 0059 34       		.uleb128 0x34
 958 005a 00       		.byte	0x0
 959 005b 03       		.uleb128 0x3
 960 005c 08       		.uleb128 0x8
 961 005d 3A       		.uleb128 0x3a
 962 005e 0B       		.uleb128 0xb
 963 005f 3B       		.uleb128 0x3b
 964 0060 0B       		.uleb128 0xb
 965 0061 49       		.uleb128 0x49
 966 0062 13       		.uleb128 0x13
 967 0063 02       		.uleb128 0x2
 968 0064 0A       		.uleb128 0xa
 969 0065 00       		.byte	0x0
 970 0066 00       		.byte	0x0
 971 0067 08       		.uleb128 0x8
 972 0068 35       		.uleb128 0x35
 973 0069 00       		.byte	0x0
 974 006a 49       		.uleb128 0x49
 975 006b 13       		.uleb128 0x13
 976 006c 00       		.byte	0x0
 977 006d 00       		.byte	0x0
 978 006e 09       		.uleb128 0x9
 979 006f 05       		.uleb128 0x5
 980 0070 00       		.byte	0x0
 981 0071 03       		.uleb128 0x3
 982 0072 08       		.uleb128 0x8
 983 0073 3A       		.uleb128 0x3a
 984 0074 0B       		.uleb128 0xb
 985 0075 3B       		.uleb128 0x3b
 986 0076 0B       		.uleb128 0xb
 987 0077 49       		.uleb128 0x49
 988 0078 13       		.uleb128 0x13
 989 0079 02       		.uleb128 0x2
 990 007a 06       		.uleb128 0x6
 991 007b 00       		.byte	0x0
 992 007c 00       		.byte	0x0
 993 007d 0A       		.uleb128 0xa
 994 007e 05       		.uleb128 0x5
 995 007f 00       		.byte	0x0
 996 0080 03       		.uleb128 0x3
 997 0081 0E       		.uleb128 0xe
 998 0082 3A       		.uleb128 0x3a
 999 0083 0B       		.uleb128 0xb
 1000 0084 3B       		.uleb128 0x3b
 1001 0085 0B       		.uleb128 0xb
ARM GAS  /cygdrive/c/DOCUME~1/mkwapisz/LOCALS~1/Temp/ccvC2JBL.s 			page 23


 1002 0086 49       		.uleb128 0x49
 1003 0087 13       		.uleb128 0x13
 1004 0088 02       		.uleb128 0x2
 1005 0089 06       		.uleb128 0x6
 1006 008a 00       		.byte	0x0
 1007 008b 00       		.byte	0x0
 1008 008c 0B       		.uleb128 0xb
 1009 008d 34       		.uleb128 0x34
 1010 008e 00       		.byte	0x0
 1011 008f 03       		.uleb128 0x3
 1012 0090 08       		.uleb128 0x8
 1013 0091 3A       		.uleb128 0x3a
 1014 0092 0B       		.uleb128 0xb
 1015 0093 3B       		.uleb128 0x3b
 1016 0094 0B       		.uleb128 0xb
 1017 0095 49       		.uleb128 0x49
 1018 0096 13       		.uleb128 0x13
 1019 0097 02       		.uleb128 0x2
 1020 0098 06       		.uleb128 0x6
 1021 0099 00       		.byte	0x0
 1022 009a 00       		.byte	0x0
 1023 009b 0C       		.uleb128 0xc
 1024 009c 2E       		.uleb128 0x2e
 1025 009d 01       		.byte	0x1
 1026 009e 01       		.uleb128 0x1
 1027 009f 13       		.uleb128 0x13
 1028 00a0 3F       		.uleb128 0x3f
 1029 00a1 0C       		.uleb128 0xc
 1030 00a2 03       		.uleb128 0x3
 1031 00a3 0E       		.uleb128 0xe
 1032 00a4 3A       		.uleb128 0x3a
 1033 00a5 0B       		.uleb128 0xb
 1034 00a6 3B       		.uleb128 0x3b
 1035 00a7 0B       		.uleb128 0xb
 1036 00a8 27       		.uleb128 0x27
 1037 00a9 0C       		.uleb128 0xc
 1038 00aa 11       		.uleb128 0x11
 1039 00ab 01       		.uleb128 0x1
 1040 00ac 12       		.uleb128 0x12
 1041 00ad 01       		.uleb128 0x1
 1042 00ae 40       		.uleb128 0x40
 1043 00af 06       		.uleb128 0x6
 1044 00b0 00       		.byte	0x0
 1045 00b1 00       		.byte	0x0
 1046 00b2 0D       		.uleb128 0xd
 1047 00b3 34       		.uleb128 0x34
 1048 00b4 00       		.byte	0x0
 1049 00b5 03       		.uleb128 0x3
 1050 00b6 08       		.uleb128 0x8
 1051 00b7 3A       		.uleb128 0x3a
 1052 00b8 0B       		.uleb128 0xb
 1053 00b9 3B       		.uleb128 0x3b
 1054 00ba 0B       		.uleb128 0xb
 1055 00bb 49       		.uleb128 0x49
 1056 00bc 13       		.uleb128 0x13
 1057 00bd 00       		.byte	0x0
 1058 00be 00       		.byte	0x0
ARM GAS  /cygdrive/c/DOCUME~1/mkwapisz/LOCALS~1/Temp/ccvC2JBL.s 			page 24


 1059 00bf 0E       		.uleb128 0xe
 1060 00c0 0F       		.uleb128 0xf
 1061 00c1 00       		.byte	0x0
 1062 00c2 0B       		.uleb128 0xb
 1063 00c3 0B       		.uleb128 0xb
 1064 00c4 49       		.uleb128 0x49
 1065 00c5 13       		.uleb128 0x13
 1066 00c6 00       		.byte	0x0
 1067 00c7 00       		.byte	0x0
 1068 00c8 0F       		.uleb128 0xf
 1069 00c9 26       		.uleb128 0x26
 1070 00ca 00       		.byte	0x0
 1071 00cb 49       		.uleb128 0x49
 1072 00cc 13       		.uleb128 0x13
 1073 00cd 00       		.byte	0x0
 1074 00ce 00       		.byte	0x0
 1075 00cf 10       		.uleb128 0x10
 1076 00d0 2E       		.uleb128 0x2e
 1077 00d1 00       		.byte	0x0
 1078 00d2 03       		.uleb128 0x3
 1079 00d3 0E       		.uleb128 0xe
 1080 00d4 3A       		.uleb128 0x3a
 1081 00d5 0B       		.uleb128 0xb
 1082 00d6 3B       		.uleb128 0x3b
 1083 00d7 0B       		.uleb128 0xb
 1084 00d8 27       		.uleb128 0x27
 1085 00d9 0C       		.uleb128 0xc
 1086 00da 20       		.uleb128 0x20
 1087 00db 0B       		.uleb128 0xb
 1088 00dc 00       		.byte	0x0
 1089 00dd 00       		.byte	0x0
 1090 00de 11       		.uleb128 0x11
 1091 00df 2E       		.uleb128 0x2e
 1092 00e0 01       		.byte	0x1
 1093 00e1 01       		.uleb128 0x1
 1094 00e2 13       		.uleb128 0x13
 1095 00e3 03       		.uleb128 0x3
 1096 00e4 0E       		.uleb128 0xe
 1097 00e5 3A       		.uleb128 0x3a
 1098 00e6 0B       		.uleb128 0xb
 1099 00e7 3B       		.uleb128 0x3b
 1100 00e8 0B       		.uleb128 0xb
 1101 00e9 27       		.uleb128 0x27
 1102 00ea 0C       		.uleb128 0xc
 1103 00eb 20       		.uleb128 0x20
 1104 00ec 0B       		.uleb128 0xb
 1105 00ed 00       		.byte	0x0
 1106 00ee 00       		.byte	0x0
 1107 00ef 12       		.uleb128 0x12
 1108 00f0 05       		.uleb128 0x5
 1109 00f1 00       		.byte	0x0
 1110 00f2 03       		.uleb128 0x3
 1111 00f3 0E       		.uleb128 0xe
 1112 00f4 3A       		.uleb128 0x3a
 1113 00f5 0B       		.uleb128 0xb
 1114 00f6 3B       		.uleb128 0x3b
 1115 00f7 0B       		.uleb128 0xb
ARM GAS  /cygdrive/c/DOCUME~1/mkwapisz/LOCALS~1/Temp/ccvC2JBL.s 			page 25


 1116 00f8 49       		.uleb128 0x49
 1117 00f9 13       		.uleb128 0x13
 1118 00fa 00       		.byte	0x0
 1119 00fb 00       		.byte	0x0
 1120 00fc 13       		.uleb128 0x13
 1121 00fd 2E       		.uleb128 0x2e
 1122 00fe 01       		.byte	0x1
 1123 00ff 3F       		.uleb128 0x3f
 1124 0100 0C       		.uleb128 0xc
 1125 0101 03       		.uleb128 0x3
 1126 0102 0E       		.uleb128 0xe
 1127 0103 3A       		.uleb128 0x3a
 1128 0104 0B       		.uleb128 0xb
 1129 0105 3B       		.uleb128 0x3b
 1130 0106 0B       		.uleb128 0xb
 1131 0107 27       		.uleb128 0x27
 1132 0108 0C       		.uleb128 0xc
 1133 0109 11       		.uleb128 0x11
 1134 010a 01       		.uleb128 0x1
 1135 010b 12       		.uleb128 0x12
 1136 010c 01       		.uleb128 0x1
 1137 010d 40       		.uleb128 0x40
 1138 010e 06       		.uleb128 0x6
 1139 010f 00       		.byte	0x0
 1140 0110 00       		.byte	0x0
 1141 0111 14       		.uleb128 0x14
 1142 0112 1D       		.uleb128 0x1d
 1143 0113 00       		.byte	0x0
 1144 0114 31       		.uleb128 0x31
 1145 0115 13       		.uleb128 0x13
 1146 0116 11       		.uleb128 0x11
 1147 0117 01       		.uleb128 0x1
 1148 0118 12       		.uleb128 0x12
 1149 0119 01       		.uleb128 0x1
 1150 011a 58       		.uleb128 0x58
 1151 011b 0B       		.uleb128 0xb
 1152 011c 59       		.uleb128 0x59
 1153 011d 0B       		.uleb128 0xb
 1154 011e 00       		.byte	0x0
 1155 011f 00       		.byte	0x0
 1156 0120 15       		.uleb128 0x15
 1157 0121 1D       		.uleb128 0x1d
 1158 0122 01       		.byte	0x1
 1159 0123 01       		.uleb128 0x1
 1160 0124 13       		.uleb128 0x13
 1161 0125 31       		.uleb128 0x31
 1162 0126 13       		.uleb128 0x13
 1163 0127 11       		.uleb128 0x11
 1164 0128 01       		.uleb128 0x1
 1165 0129 12       		.uleb128 0x12
 1166 012a 01       		.uleb128 0x1
 1167 012b 58       		.uleb128 0x58
 1168 012c 0B       		.uleb128 0xb
 1169 012d 59       		.uleb128 0x59
 1170 012e 0B       		.uleb128 0xb
 1171 012f 00       		.byte	0x0
 1172 0130 00       		.byte	0x0
ARM GAS  /cygdrive/c/DOCUME~1/mkwapisz/LOCALS~1/Temp/ccvC2JBL.s 			page 26


 1173 0131 16       		.uleb128 0x16
 1174 0132 05       		.uleb128 0x5
 1175 0133 00       		.byte	0x0
 1176 0134 31       		.uleb128 0x31
 1177 0135 13       		.uleb128 0x13
 1178 0136 00       		.byte	0x0
 1179 0137 00       		.byte	0x0
 1180 0138 17       		.uleb128 0x17
 1181 0139 1D       		.uleb128 0x1d
 1182 013a 01       		.byte	0x1
 1183 013b 31       		.uleb128 0x31
 1184 013c 13       		.uleb128 0x13
 1185 013d 11       		.uleb128 0x11
 1186 013e 01       		.uleb128 0x1
 1187 013f 12       		.uleb128 0x12
 1188 0140 01       		.uleb128 0x1
 1189 0141 58       		.uleb128 0x58
 1190 0142 0B       		.uleb128 0xb
 1191 0143 59       		.uleb128 0x59
 1192 0144 0B       		.uleb128 0xb
 1193 0145 00       		.byte	0x0
 1194 0146 00       		.byte	0x0
 1195 0147 00       		.byte	0x0
 1196              		.section	.debug_pubnames,"",%progbits
 1197 0000 2A000000 		.4byte	0x2a
 1198 0004 0200     		.2byte	0x2
 1199 0006 00000000 		.4byte	.Ldebug_info0
 1200 000a 99010000 		.4byte	0x199
 1201 000e DF000000 		.4byte	0xdf
 1202 0012 57726974 		.ascii	"WriteString\000"
 1202      65537472 
 1202      696E6700 
 1203 001e 45010000 		.4byte	0x145
 1204 0022 74657374 		.ascii	"testLcd\000"
 1204      4C636400 
 1205 002a 00000000 		.4byte	0x0
 1206              		.section	.debug_aranges,"",%progbits
 1207 0000 1C000000 		.4byte	0x1c
 1208 0004 0200     		.2byte	0x2
 1209 0006 00000000 		.4byte	.Ldebug_info0
 1210 000a 04       		.byte	0x4
 1211 000b 00       		.byte	0x0
 1212 000c 0000     		.2byte	0x0
 1213 000e 0000     		.2byte	0x0
 1214 0010 00000000 		.4byte	.Ltext0
 1215 0014 A0020000 		.4byte	.Letext0-.Ltext0
 1216 0018 00000000 		.4byte	0x0
 1217 001c 00000000 		.4byte	0x0
 1218              		.section	.debug_str,"MS",%progbits,1
 1219              	.LASF9:
 1220 0000 64617461 		.ascii	"data\000"
 1220      00
 1221              	.LASF11:
 1222 0005 6C636442 		.ascii	"lcdBacklight\000"
 1222      61636B6C 
 1222      69676874 
 1222      00
ARM GAS  /cygdrive/c/DOCUME~1/mkwapisz/LOCALS~1/Temp/ccvC2JBL.s 			page 27


 1223              	.LASF8:
 1224 0012 77726974 		.ascii	"writeLCD\000"
 1224      654C4344 
 1224      00
 1225              	.LASF16:
 1226 001b 57726974 		.ascii	"WriteString\000"
 1226      65537472 
 1226      696E6700 
 1227              	.LASF18:
 1228 0027 74657374 		.ascii	"testLcd\000"
 1228      4C636400 
 1229              	.LASF0:
 1230 002f 756E7369 		.ascii	"unsigned char\000"
 1230      676E6564 
 1230      20636861 
 1230      7200
 1231              	.LASF6:
 1232 003d 6C6F6E67 		.ascii	"long unsigned int\000"
 1232      20756E73 
 1232      69676E65 
 1232      6420696E 
 1232      7400
 1233              	.LASF1:
 1234 004f 73686F72 		.ascii	"short unsigned int\000"
 1234      7420756E 
 1234      7369676E 
 1234      65642069 
 1234      6E7400
 1235              	.LASF12:
 1236 0062 6F6E4F66 		.ascii	"onOff\000"
 1236      6600
 1237              	.LASF3:
 1238 0068 756E7369 		.ascii	"unsigned int\000"
 1238      676E6564 
 1238      20696E74 
 1238      00
 1239              	.LASF7:
 1240 0075 64656C61 		.ascii	"delay37us\000"
 1240      79333775 
 1240      7300
 1241              	.LASF17:
 1242 007f 696E6974 		.ascii	"initLCD\000"
 1242      4C434400 
 1243              	.LASF13:
 1244 0087 474E5520 		.ascii	"GNU C 4.1.1\000"
 1244      4320342E 
 1244      312E3100 
 1245              	.LASF15:
 1246 0093 2F637967 		.ascii	"/cygdrive/c/Embedded/workspace/test\000"
 1246      64726976 
 1246      652F632F 
 1246      456D6265 
 1246      64646564 
 1247              	.LASF2:
 1248 00b7 74553332 		.ascii	"tU32\000"
 1248      00
 1249              	.LASF10:
ARM GAS  /cygdrive/c/DOCUME~1/mkwapisz/LOCALS~1/Temp/ccvC2JBL.s 			page 28


 1250 00bc 63686172 		.ascii	"char\000"
 1250      00
 1251              	.LASF14:
 1252 00c1 74657374 		.ascii	"testLcd.c\000"
 1252      4C63642E 
 1252      6300
 1253              	.LASF5:
 1254 00cb 73686F72 		.ascii	"short int\000"
 1254      7420696E 
 1254      7400
 1255              	.LASF4:
 1256 00d5 7369676E 		.ascii	"signed char\000"
 1256      65642063 
 1256      68617200 
 1257              		.ident	"GCC: (GNU) 4.1.1"
ARM GAS  /cygdrive/c/DOCUME~1/mkwapisz/LOCALS~1/Temp/ccvC2JBL.s 			page 29


DEFINED SYMBOLS
                            *ABS*:00000000 testLcd.c
/cygdrive/c/DOCUME~1/mkwapisz/LOCALS~1/Temp/ccvC2JBL.s:1      .text:00000000 $t
/cygdrive/c/DOCUME~1/mkwapisz/LOCALS~1/Temp/ccvC2JBL.s:15     .text:00000000 delay37us
/cygdrive/c/DOCUME~1/mkwapisz/LOCALS~1/Temp/ccvC2JBL.s:47     .text:0000001c $d
/cygdrive/c/DOCUME~1/mkwapisz/LOCALS~1/Temp/ccvC2JBL.s:51     .text:00000020 $t
/cygdrive/c/DOCUME~1/mkwapisz/LOCALS~1/Temp/ccvC2JBL.s:54     .text:00000020 writeLCD
/cygdrive/c/DOCUME~1/mkwapisz/LOCALS~1/Temp/ccvC2JBL.s:167    .text:000000a4 $d
/cygdrive/c/DOCUME~1/mkwapisz/LOCALS~1/Temp/ccvC2JBL.s:177    .text:000000b0 WriteString
/cygdrive/c/DOCUME~1/mkwapisz/LOCALS~1/Temp/ccvC2JBL.s:174    .text:000000b0 $t
/cygdrive/c/DOCUME~1/mkwapisz/LOCALS~1/Temp/ccvC2JBL.s:217    .text:000000d0 testLcd
/cygdrive/c/DOCUME~1/mkwapisz/LOCALS~1/Temp/ccvC2JBL.s:467    .text:00000284 $d

UNDEFINED SYMBOLS
osSleep
