ARM GAS  /cygdrive/c/DOCUME~1/mkwapisz/LOCALS~1/Temp/ccSXsbVp.s 			page 1


   1              		.file	"hwinterface.c"
   8 0000 B2000000 		.text
   8      02004000 
   8      00000201 
   8      FB0E0D00 
   8      01010101 
   9              	.Ltext0:
  10              		.align	2
  11              		.global	if_setPos
  12              		.type	if_setPos, %function
  13              	if_setPos:
  14              	.LFB5:
  15              		.file 1 "hwinterface.c"
   1:hwinterface.c **** /*****************************************************************************/
   2:hwinterface.c **** #include "lpc2xxx.h"
   3:hwinterface.c **** #include "hwinterface.h"
   4:hwinterface.c **** #include "sd.h"
   5:hwinterface.c **** #include "config.h"
   6:hwinterface.c **** /*****************************************************************************/
   7:hwinterface.c **** 
   8:hwinterface.c **** //#ifndef HW_ENDPOINT_LPC2000_SPINUM
   9:hwinterface.c **** //#error "HW_ENDPOINT_LPC2000_SPINUM has to be defined in config.h"
  10:hwinterface.c **** //#endif
  11:hwinterface.c **** 
  12:hwinterface.c **** #if ( HW_ENDPOINT_LPC2000_SPINUM == 0 )
  13:hwinterface.c **** // LPC213x ### SPI0 ###
  14:hwinterface.c **** 
  15:hwinterface.c **** // SP0SPCR  Bit-Definitions
  16:hwinterface.c **** #define CPHA    3
  17:hwinterface.c **** #define CPOL    4
  18:hwinterface.c **** #define MSTR    5
  19:hwinterface.c **** // SP0SPSR  Bit-Definitions
  20:hwinterface.c **** #define SPIF	7
  21:hwinterface.c **** 
  22:hwinterface.c **** #define SPI_IODIR      IODIR0
  23:hwinterface.c **** #define SPI_SCK_PIN    4   /* Clock       P0.4  out */
  24:hwinterface.c **** #define SPI_MISO_PIN   5   /* from Card   P0.5  in  */
  25:hwinterface.c **** #define SPI_MOSI_PIN   6   /* to Card     P0.6  out */
  26:hwinterface.c **** #define SPI_SS_PIN	   7   /* Card-Select P0.7 - GPIO out */
  27:hwinterface.c **** 
  28:hwinterface.c **** #define SPI_PINSEL     PINSEL0
  29:hwinterface.c **** #define SPI_SCK_FUNCBIT   8
  30:hwinterface.c **** #define SPI_MISO_FUNCBIT  10
  31:hwinterface.c **** #define SPI_MOSI_FUNCBIT  12
  32:hwinterface.c **** #define SPI_SS_FUNCBIT    14
  33:hwinterface.c **** 
  34:hwinterface.c **** #define SPI_PRESCALE_REG  S0SPCCR
  35:hwinterface.c **** #define SPI_PRESCALE_MIN  8
  36:hwinterface.c **** 
  37:hwinterface.c **** #define SELECT_CARD()   IOCLR0 = (1<<SPI_SS_PIN)
  38:hwinterface.c **** #define UNSELECT_CARD()	IOSET0 = (1<<SPI_SS_PIN)
ARM GAS  /cygdrive/c/DOCUME~1/mkwapisz/LOCALS~1/Temp/ccSXsbVp.s 			page 2


  39:hwinterface.c **** 
  40:hwinterface.c **** #elif ( HW_ENDPOINT_LPC2000_SPINUM == 1 )
  41:hwinterface.c **** // LPC213x ### SSP ### ("SPI1")
  42:hwinterface.c **** 
  43:hwinterface.c **** // SSPCR0  Bit-Definitions
  44:hwinterface.c **** #define CPOL    6
  45:hwinterface.c **** #define CPHA    7
  46:hwinterface.c **** // SSPCR1  Bit-Defintions
  47:hwinterface.c **** #define SSE     1
  48:hwinterface.c **** #define MS      2
  49:hwinterface.c **** #define SCR     8
  50:hwinterface.c **** // SSPSR  Bit-Definitions
  51:hwinterface.c **** #define TNF     1
  52:hwinterface.c **** #define RNE     2
  53:hwinterface.c **** #define BSY		4
  54:hwinterface.c **** 
  55:hwinterface.c **** #define SPI_IODIR      IODIR0
  56:hwinterface.c **** #define SPI_SCK_PIN    17   /* Clock       P0.17  out */
  57:hwinterface.c **** #define SPI_MISO_PIN   18   /* from Card   P0.18  in  */
  58:hwinterface.c **** #define SPI_MOSI_PIN   19   /* to Card     P0.19  out */
  59:hwinterface.c **** /* Card-Select P0.20 - GPIO out during startup
  60:hwinterface.c ****    Function 03 during normal operation */
  61:hwinterface.c **** #define SPI_SS_PIN	   20   
  62:hwinterface.c **** 
  63:hwinterface.c **** #define SPI_PINSEL     PINSEL1
  64:hwinterface.c **** #define SPI_SCK_FUNCBIT   2
  65:hwinterface.c **** #define SPI_MISO_FUNCBIT  4
  66:hwinterface.c **** #define SPI_MOSI_FUNCBIT  6
  67:hwinterface.c **** #define SPI_SS_FUNCBIT    8
  68:hwinterface.c **** 
  69:hwinterface.c **** #define SPI_PRESCALE_REG  SSPCPSR
  70:hwinterface.c **** /// TODO: too fast on prototyp wires #define SPI_PRESCALE_MIN  2
  71:hwinterface.c **** #define SPI_PRESCALE_MIN  4
  72:hwinterface.c **** 
  73:hwinterface.c **** /* only needed during init: */
  74:hwinterface.c **** #define SELECT_CARD()   IOCLR0 = (1<<SPI_SS_PIN)
  75:hwinterface.c **** #define UNSELECT_CARD()	IOSET0 = (1<<SPI_SS_PIN)
  76:hwinterface.c **** 
  77:hwinterface.c **** 
  78:hwinterface.c **** #else
  79:hwinterface.c **** #error "Invalid Interface-Number"
  80:hwinterface.c **** #endif
  81:hwinterface.c **** 
  82:hwinterface.c **** 
  83:hwinterface.c **** 
  84:hwinterface.c **** 
  85:hwinterface.c **** signed char if_initInterface(hwInterface* file, char* opts)
  86:hwinterface.c **** {
  87:hwinterface.c **** 	unsigned long sc;
  88:hwinterface.c **** 	
  89:hwinterface.c **** 	if_spiInit(file); /* init at low speed */
  90:hwinterface.c **** 	
  91:hwinterface.c **** 	if(sd_Init(file)<0)	{
  92:hwinterface.c **** 		DBG((TXT("Card failed to init, breaking up...\n")));
  93:hwinterface.c **** 		return(-1);
  94:hwinterface.c **** 	}
  95:hwinterface.c **** 	if(sd_State(file)<0){
ARM GAS  /cygdrive/c/DOCUME~1/mkwapisz/LOCALS~1/Temp/ccSXsbVp.s 			page 3


  96:hwinterface.c **** 		DBG((TXT("Card didn't return the ready state, breaking up...\n")));
  97:hwinterface.c **** 		return(-2);
  98:hwinterface.c **** 	}
  99:hwinterface.c **** 	
 100:hwinterface.c **** 	sd_getDriveSize(file, &sc);
 101:hwinterface.c **** 	file->sectorCount = sc/512;
 102:hwinterface.c **** 	if( (sc%512) != 0) {
 103:hwinterface.c **** 		file->sectorCount--;
 104:hwinterface.c **** 	}
 105:hwinterface.c **** 	DBG((TXT("Drive Size is %lu Bytes (%lu Sectors)\n"), sc, file->sectorCount));
 106:hwinterface.c **** 	
 107:hwinterface.c **** 	 /* increase speed after init */
 108:hwinterface.c **** #if ( HW_ENDPOINT_LPC2000_SPINUM == 1 )
 109:hwinterface.c **** 	SSPCR0 = ((8-1)<<0) | (0<<CPOL);
 110:hwinterface.c **** #endif
 111:hwinterface.c **** 	if_spiSetSpeed(SPI_PRESCALE_MIN);
 112:hwinterface.c **** 	// if_spiSetSpeed(100); /* debug - slower */
 113:hwinterface.c **** 	
 114:hwinterface.c **** 	DBG((TXT("Init done...\n")));
 115:hwinterface.c **** 	return(0);
 116:hwinterface.c **** }
 117:hwinterface.c **** /*****************************************************************************/ 
 118:hwinterface.c **** 
 119:hwinterface.c **** signed char if_readBuf(hwInterface* file,unsigned long address,unsigned char* buf)
 120:hwinterface.c **** {
 121:hwinterface.c **** 	return(sd_readSector(file,address,buf,512));
 122:hwinterface.c **** }
 123:hwinterface.c **** /*****************************************************************************/
 124:hwinterface.c **** 
 125:hwinterface.c **** signed char if_writeBuf(hwInterface* file,unsigned long address,unsigned char* buf)
 126:hwinterface.c **** {
 127:hwinterface.c **** 	return(sd_writeSector(file,address, buf));
 128:hwinterface.c **** }
 129:hwinterface.c **** /*****************************************************************************/ 
 130:hwinterface.c **** 
 131:hwinterface.c **** signed char if_setPos(hwInterface* file,unsigned long address)
 132:hwinterface.c **** {
  16              		.loc 1 132 0
  17              		@ Function supports interworking.
  18              		@ args = 0, pretend = 0, frame = 0
  19              		@ frame_needed = 0, uses_anonymous_args = 0
  20              		@ link register save eliminated.
  21              	.LVL0:
 133:hwinterface.c **** 	return(0);
 134:hwinterface.c **** }
  22              		.loc 1 134 0
  23 0000 0000A0E3 		mov	r0, #0
  24              	.LVL1:
  25              		.loc 1 132 0
  26              		@ lr needed for prologue
  27              		.loc 1 134 0
  28 0004 1EFF2FE1 		bx	lr
  29              	.LFE5:
  30              		.size	if_setPos, .-if_setPos
  31              		.align	2
  32              		.global	if_spiInit
  33              		.type	if_spiInit, %function
ARM GAS  /cygdrive/c/DOCUME~1/mkwapisz/LOCALS~1/Temp/ccSXsbVp.s 			page 4


  34              	if_spiInit:
  35              	.LFB7:
 135:hwinterface.c **** /*****************************************************************************/ 
 136:hwinterface.c **** 
 137:hwinterface.c **** // Utility-functions which does not toogle CS.
 138:hwinterface.c **** // Only needed during card-init. During init
 139:hwinterface.c **** // the automatic chip-select is disabled for SSP
 140:hwinterface.c **** 
 141:hwinterface.c **** static unsigned char my_if_spiSend(hwInterface *iface, unsigned char outgoing)
 142:hwinterface.c **** {
 143:hwinterface.c **** 	unsigned char incoming;
 144:hwinterface.c **** 
 145:hwinterface.c **** 	// SELECT_CARD(); // not here!
 146:hwinterface.c **** 	
 147:hwinterface.c **** #if ( HW_ENDPOINT_LPC2000_SPINUM == 0 )
 148:hwinterface.c **** 	S0SPDR = outgoing;
 149:hwinterface.c **** 	while( !(S0SPSR & (1<<SPIF)) ) ;
 150:hwinterface.c **** 	incoming = S0SPDR;
 151:hwinterface.c **** #endif
 152:hwinterface.c **** #if ( HW_ENDPOINT_LPC2000_SPINUM == 1 )
 153:hwinterface.c **** 	while( !(SSPSR & (1<<TNF)) ) ;
 154:hwinterface.c **** 	SSPDR = outgoing;
 155:hwinterface.c **** 	while( !(SSPSR & (1<<RNE)) ) ;
 156:hwinterface.c **** 	incoming = SSPDR;
 157:hwinterface.c **** #endif
 158:hwinterface.c **** 
 159:hwinterface.c **** 	// UNSELECT_CARD(); // not here!
 160:hwinterface.c **** 
 161:hwinterface.c **** 	return(incoming);
 162:hwinterface.c **** }
 163:hwinterface.c **** /*****************************************************************************/ 
 164:hwinterface.c **** 
 165:hwinterface.c **** void if_spiInit(hwInterface *iface)
 166:hwinterface.c **** {
  36              		.loc 1 166 0
  37              		@ Function supports interworking.
  38              		@ args = 0, pretend = 0, frame = 0
  39              		@ frame_needed = 0, uses_anonymous_args = 0
  40              		@ link register save eliminated.
  41              	.LVL2:
 167:hwinterface.c **** 	unsigned char i; 
 168:hwinterface.c **** 
 169:hwinterface.c **** 	// setup GPIO
 170:hwinterface.c **** 	SPI_IODIR |= (1<<SPI_SCK_PIN)|(1<<SPI_MOSI_PIN)|(1<<SPI_SS_PIN);
  42              		.loc 1 170 0
  43 0008 C0209FE5 		ldr	r2, .L18
  44 000c 083092E5 		ldr	r3, [r2, #8]
  45 0010 1A3883E3 		orr	r3, r3, #1703936
  46 0014 083082E5 		str	r3, [r2, #8]
 171:hwinterface.c **** 	SPI_IODIR &= ~(1<<SPI_MISO_PIN);
  47              		.loc 1 171 0
  48 0018 083092E5 		ldr	r3, [r2, #8]
  49 001c 0137C3E3 		bic	r3, r3, #262144
  50 0020 083082E5 		str	r3, [r2, #8]
 172:hwinterface.c **** 	
 173:hwinterface.c **** 	// set Chip-Select high - unselect card
 174:hwinterface.c **** 	UNSELECT_CARD();
ARM GAS  /cygdrive/c/DOCUME~1/mkwapisz/LOCALS~1/Temp/ccSXsbVp.s 			page 5


  51              		.loc 1 174 0
  52 0024 0136A0E3 		mov	r3, #1048576
  53 0028 043082E5 		str	r3, [r2, #4]
 175:hwinterface.c **** 
 176:hwinterface.c **** 	// reset Pin-Functions	
 177:hwinterface.c **** 	SPI_PINSEL &= ~( (3<<SPI_SCK_FUNCBIT) | (3<<SPI_MISO_FUNCBIT) |
  54              		.loc 1 177 0
  55 002c 012982E2 		add	r2, r2, #16384
  56 0030 043092E5 		ldr	r3, [r2, #4]
  57 0034 FF3FC3E3 		bic	r3, r3, #1020
  58 0038 043082E5 		str	r3, [r2, #4]
 178:hwinterface.c **** 		(3<<SPI_MOSI_FUNCBIT) | (3<<SPI_SS_FUNCBIT) );
 179:hwinterface.c **** 
 180:hwinterface.c **** #if ( HW_ENDPOINT_LPC2000_SPINUM == 0 )
 181:hwinterface.c **** 	DBG((TXT("spiInit for SPI(0)\n")));
 182:hwinterface.c **** 	SPI_PINSEL |= ( (1<<SPI_SCK_FUNCBIT) | (1<<SPI_MISO_FUNCBIT) |
 183:hwinterface.c **** 		(1<<SPI_MOSI_FUNCBIT) );
 184:hwinterface.c **** 	// enable SPI-Master
 185:hwinterface.c **** 	S0SPCR = (1<<MSTR)|(0<<CPOL); // TODO: check CPOL
 186:hwinterface.c **** #endif
 187:hwinterface.c **** 
 188:hwinterface.c **** #if ( HW_ENDPOINT_LPC2000_SPINUM == 1 )
 189:hwinterface.c **** 	DBG((TXT("spiInit for SSP/SPI1\n")));
 190:hwinterface.c **** 	// setup Pin-Functions - keep automatic CS disabled during init
 191:hwinterface.c **** 	SPI_PINSEL |= ( (2<<SPI_SCK_FUNCBIT) | (2<<SPI_MISO_FUNCBIT) |
  59              		.loc 1 191 0
  60 003c 043092E5 		ldr	r3, [r2, #4]
  61 0040 A83083E3 		orr	r3, r3, #168
  62 0044 043082E5 		str	r3, [r2, #4]
 192:hwinterface.c **** 		(2<<SPI_MOSI_FUNCBIT) | (0<<SPI_SS_FUNCBIT) );
 193:hwinterface.c **** 	// enable SPI-Master - slowest speed
 194:hwinterface.c **** 	SSPCR0 = ((8-1)<<0) | (0<<CPOL) | (0x20<<SCR); //  (0xff<<SCR);
  63              		.loc 1 194 0
  64 0048 84109FE5 		ldr	r1, .L18+4
  65 004c 84309FE5 		ldr	r3, .L18+8
  66 0050 003081E5 		str	r3, [r1, #0]
 195:hwinterface.c **** 	SSPCR1 = (1<<SSE);
  67              		.loc 1 195 0
  68 0054 0230A0E3 		mov	r3, #2
  69 0058 043081E5 		str	r3, [r1, #4]
  70              	.LBB8:
  71              	.LBB9:
 196:hwinterface.c **** #endif
 197:hwinterface.c **** 	
 198:hwinterface.c **** 	// low speed during init
 199:hwinterface.c **** 	if_spiSetSpeed(254); 
 200:hwinterface.c **** 
 201:hwinterface.c **** 	/* Send 20 spi commands with card not selected */
 202:hwinterface.c **** 	for(i=0;i<21;i++)
 203:hwinterface.c **** 		my_if_spiSend(iface,0xff);
 204:hwinterface.c **** 
 205:hwinterface.c **** #if ( HW_ENDPOINT_LPC2000_SPINUM == 0 )
 206:hwinterface.c **** 	// SPI0 does not offer automatic CS for slaves on LPC2138 
 207:hwinterface.c **** 	// ( the SSEL-Pin is input-only )
 208:hwinterface.c **** 	// SELECT_CARD();
 209:hwinterface.c **** #endif
 210:hwinterface.c **** 
ARM GAS  /cygdrive/c/DOCUME~1/mkwapisz/LOCALS~1/Temp/ccSXsbVp.s 			page 6


 211:hwinterface.c **** #if ( HW_ENDPOINT_LPC2000_SPINUM == 1 )
 212:hwinterface.c **** 	// enable automatic slave CS for SSP
 213:hwinterface.c **** 	SSPCR1 &= ~(1<<SSE); // disable interface
 214:hwinterface.c **** 	SPI_PINSEL |= ( (2<<SPI_SCK_FUNCBIT) | (2<<SPI_MISO_FUNCBIT) |
 215:hwinterface.c **** 		(2<<SPI_MOSI_FUNCBIT) | (2<<SPI_SS_FUNCBIT) );
 216:hwinterface.c **** 	SSPCR1 |= (1<<SSE); // enable interface
 217:hwinterface.c **** #endif
 218:hwinterface.c **** 	
 219:hwinterface.c **** }
 220:hwinterface.c **** /*****************************************************************************/
 221:hwinterface.c **** 
 222:hwinterface.c **** void if_spiSetSpeed(euint8 speed)
 223:hwinterface.c **** {
 224:hwinterface.c **** 	speed &= 0xFE;
 225:hwinterface.c **** 	if ( speed < SPI_PRESCALE_MIN  ) speed = SPI_PRESCALE_MIN ;
 226:hwinterface.c **** 	SPI_PRESCALE_REG = speed;
  72              		.loc 1 226 0
  73 005c FC3083E2 		add	r3, r3, #252
  74 0060 103081E5 		str	r3, [r1, #16]
  75              	.LBE9:
  76              	.LBE8:
  77              		.loc 1 166 0
  78              		@ lr needed for prologue
  79              	.LBB10:
  80              	.LBB11:
  81              		.loc 1 226 0
  82 0064 0020A0E3 		mov	r2, #0
  83              	.LVL3:
  84              	.L17:
  85              	.LBE11:
  86              	.LBE10:
  87              	.LBB12:
  88              	.LBB13:
  89              		.loc 1 153 0
  90 0068 64109FE5 		ldr	r1, .L18+4
  91 006c 0C3091E5 		ldr	r3, [r1, #12]
  92 0070 020013E3 		tst	r3, #2
  93 0074 FBFFFF0A 		beq	.L17
  94              		.loc 1 154 0
  95 0078 FF30A0E3 		mov	r3, #255
  96 007c 083081E5 		str	r3, [r1, #8]
  97              	.L6:
  98              		.loc 1 155 0
  99 0080 4C109FE5 		ldr	r1, .L18+4
 100 0084 0C3091E5 		ldr	r3, [r1, #12]
 101 0088 040013E3 		tst	r3, #4
 102 008c FBFFFF0A 		beq	.L6
 103              	.LBE13:
 104              	.LBE12:
 105              		.loc 1 202 0
 106 0090 013082E2 		add	r3, r2, #1
 107 0094 FF2003E2 		and	r2, r3, #255
 108 0098 140052E3 		cmp	r2, #20
 109              	.LBB14:
 110              	.LBB15:
 111              		.loc 1 156 0
 112 009c 083091E5 		ldr	r3, [r1, #8]
ARM GAS  /cygdrive/c/DOCUME~1/mkwapisz/LOCALS~1/Temp/ccSXsbVp.s 			page 7


 113              	.LBE15:
 114              	.LBE14:
 115              		.loc 1 202 0
 116 00a0 F0FFFF9A 		bls	.L17
 117              		.loc 1 213 0
 118 00a4 043091E5 		ldr	r3, [r1, #4]
 119 00a8 0230C3E3 		bic	r3, r3, #2
 120 00ac 043081E5 		str	r3, [r1, #4]
 121              		.loc 1 214 0
 122 00b0 24209FE5 		ldr	r2, .L18+12
 123              	.LVL4:
 124 00b4 043092E5 		ldr	r3, [r2, #4]
 125 00b8 AA3F83E3 		orr	r3, r3, #680
 126 00bc 043082E5 		str	r3, [r2, #4]
 127              		.loc 1 216 0
 128 00c0 043091E5 		ldr	r3, [r1, #4]
 129 00c4 023083E3 		orr	r3, r3, #2
 130 00c8 043081E5 		str	r3, [r1, #4]
 131              		.loc 1 219 0
 132 00cc 1EFF2FE1 		bx	lr
 133              	.L19:
 134              		.align	2
 135              	.L18:
 136 00d0 008002E0 		.word	-536707072
 137 00d4 008006E0 		.word	-536444928
 138 00d8 07200000 		.word	8199
 139 00dc 00C002E0 		.word	-536690688
 140              	.LFE7:
 141              		.size	if_spiInit, .-if_spiInit
 142              		.align	2
 143              		.global	if_spiSetSpeed
 144              		.type	if_spiSetSpeed, %function
 145              	if_spiSetSpeed:
 146              	.LFB8:
 147              		.loc 1 223 0
 148              		@ Function supports interworking.
 149              		@ args = 0, pretend = 0, frame = 0
 150              		@ frame_needed = 0, uses_anonymous_args = 0
 151              		@ link register save eliminated.
 152              	.LVL5:
 153              		.loc 1 224 0
 154 00e0 FE0000E2 		and	r0, r0, #254
 155              	.LVL6:
 156              		.loc 1 225 0
 157 00e4 030050E3 		cmp	r0, #3
 158              		.loc 1 226 0
 159 00e8 08309FE5 		ldr	r3, .L24
 160              		.loc 1 225 0
 161 00ec 0400A093 		movls	r0, #4
 162              		.loc 1 223 0
 163              		@ lr needed for prologue
 164              		.loc 1 226 0
 165 00f0 100083E5 		str	r0, [r3, #16]
 227:hwinterface.c **** }
 166              		.loc 1 227 0
 167 00f4 1EFF2FE1 		bx	lr
 168              	.L25:
ARM GAS  /cygdrive/c/DOCUME~1/mkwapisz/LOCALS~1/Temp/ccSXsbVp.s 			page 8


 169              		.align	2
 170              	.L24:
 171 00f8 008006E0 		.word	-536444928
 172              	.LFE8:
 173              		.size	if_spiSetSpeed, .-if_spiSetSpeed
 174              		.align	2
 175              		.global	if_spiSend
 176              		.type	if_spiSend, %function
 177              	if_spiSend:
 178              	.LFB9:
 228:hwinterface.c **** 
 229:hwinterface.c **** /*****************************************************************************/
 230:hwinterface.c **** 
 231:hwinterface.c **** unsigned char if_spiSend(hwInterface *iface, unsigned char outgoing)
 232:hwinterface.c **** {
 179              		.loc 1 232 0
 180              		@ Function supports interworking.
 181              		@ args = 0, pretend = 0, frame = 0
 182              		@ frame_needed = 0, uses_anonymous_args = 0
 183              		@ link register save eliminated.
 184              	.LVL7:
 185              		@ lr needed for prologue
 186 00fc FF1001E2 		and	r1, r1, #255
 187              	.L28:
 233:hwinterface.c **** 	unsigned char incoming;
 234:hwinterface.c **** 
 235:hwinterface.c **** #if ( HW_ENDPOINT_LPC2000_SPINUM == 0 )
 236:hwinterface.c **** 	SELECT_CARD();
 237:hwinterface.c **** 	S0SPDR = outgoing;
 238:hwinterface.c **** 	while( !(S0SPSR & (1<<SPIF)) ) ;
 239:hwinterface.c **** 	incoming = S0SPDR;
 240:hwinterface.c **** 	UNSELECT_CARD();
 241:hwinterface.c **** #endif
 242:hwinterface.c **** 
 243:hwinterface.c **** #if ( HW_ENDPOINT_LPC2000_SPINUM == 1 )
 244:hwinterface.c **** 	// SELECT_CARD();  // done by hardware
 245:hwinterface.c **** 	while( !(SSPSR & (1<<TNF)) ) ;
 188              		.loc 1 245 0
 189 0100 28209FE5 		ldr	r2, .L37
 190 0104 0C3092E5 		ldr	r3, [r2, #12]
 191 0108 020013E3 		tst	r3, #2
 192 010c FBFFFF0A 		beq	.L28
 246:hwinterface.c **** 	SSPDR = outgoing;
 193              		.loc 1 246 0
 194 0110 081082E5 		str	r1, [r2, #8]
 195              	.L30:
 247:hwinterface.c **** 	while( !(SSPSR & (1<<RNE)) ) ;
 196              		.loc 1 247 0
 197 0114 14209FE5 		ldr	r2, .L37
 198 0118 0C3092E5 		ldr	r3, [r2, #12]
 199 011c 040013E3 		tst	r3, #4
 200 0120 FBFFFF0A 		beq	.L30
 248:hwinterface.c **** 	incoming = SSPDR;
 201              		.loc 1 248 0
 202 0124 080092E5 		ldr	r0, [r2, #8]
 203              	.LVL8:
 204 0128 FF0000E2 		and	r0, r0, #255
ARM GAS  /cygdrive/c/DOCUME~1/mkwapisz/LOCALS~1/Temp/ccSXsbVp.s 			page 9


 249:hwinterface.c **** 	// UNSELECT_CARD();  // done by hardware
 250:hwinterface.c **** #endif
 251:hwinterface.c **** 
 252:hwinterface.c **** 	
 253:hwinterface.c **** 
 254:hwinterface.c **** 	return(incoming);
 255:hwinterface.c **** }
 205              		.loc 1 255 0
 206 012c 1EFF2FE1 		bx	lr
 207              	.L38:
 208              		.align	2
 209              	.L37:
 210 0130 008006E0 		.word	-536444928
 211              	.LFE9:
 212              		.size	if_spiSend, .-if_spiSend
 213              		.align	2
 214              		.global	if_writeBuf
 215              		.type	if_writeBuf, %function
 216              	if_writeBuf:
 217              	.LFB4:
 218              		.loc 1 126 0
 219              		@ Function supports interworking.
 220              		@ args = 0, pretend = 0, frame = 0
 221              		@ frame_needed = 0, uses_anonymous_args = 0
 222              	.LVL9:
 223 0134 04E02DE5 		str	lr, [sp, #-4]!
 224              	.LCFI0:
 225              		.loc 1 127 0
 226 0138 FEFFFFEB 		bl	sd_writeSector
 227              	.LVL10:
 228 013c 000CA0E1 		mov	r0, r0, asl #24
 229              		.loc 1 128 0
 230 0140 400CA0E1 		mov	r0, r0, asr #24
 231 0144 04E09DE4 		ldr	lr, [sp], #4
 232 0148 1EFF2FE1 		bx	lr
 233              	.LFE4:
 234              		.size	if_writeBuf, .-if_writeBuf
 235              		.align	2
 236              		.global	if_readBuf
 237              		.type	if_readBuf, %function
 238              	if_readBuf:
 239              	.LFB3:
 240              		.loc 1 120 0
 241              		@ Function supports interworking.
 242              		@ args = 0, pretend = 0, frame = 0
 243              		@ frame_needed = 0, uses_anonymous_args = 0
 244              	.LVL11:
 245 014c 04E02DE5 		str	lr, [sp, #-4]!
 246              	.LCFI1:
 247              		.loc 1 121 0
 248 0150 023CA0E3 		mov	r3, #512
 249 0154 FEFFFFEB 		bl	sd_readSector
 250              	.LVL12:
 251 0158 000CA0E1 		mov	r0, r0, asl #24
 252              		.loc 1 122 0
 253 015c 400CA0E1 		mov	r0, r0, asr #24
 254 0160 04E09DE4 		ldr	lr, [sp], #4
ARM GAS  /cygdrive/c/DOCUME~1/mkwapisz/LOCALS~1/Temp/ccSXsbVp.s 			page 10


 255 0164 1EFF2FE1 		bx	lr
 256              	.LFE3:
 257              		.size	if_readBuf, .-if_readBuf
 258              		.align	2
 259              		.global	if_initInterface
 260              		.type	if_initInterface, %function
 261              	if_initInterface:
 262              	.LFB2:
 263              		.loc 1 86 0
 264              		@ Function supports interworking.
 265              		@ args = 0, pretend = 0, frame = 4
 266              		@ frame_needed = 0, uses_anonymous_args = 0
 267              	.LVL13:
 268 0168 10402DE9 		stmfd	sp!, {r4, lr}
 269              	.LCFI2:
 270 016c 0040A0E1 		mov	r4, r0
 271 0170 04D04DE2 		sub	sp, sp, #4
 272              	.LCFI3:
 273              		.loc 1 89 0
 274 0174 FEFFFFEB 		bl	if_spiInit
 275              	.LVL14:
 276              		.loc 1 91 0
 277 0178 0400A0E1 		mov	r0, r4
 278 017c FEFFFFEB 		bl	sd_Init
 279 0180 800010E3 		tst	r0, #128
 280 0184 0030E0E3 		mvn	r3, #0
 281              		.loc 1 95 0
 282 0188 0400A0E1 		mov	r0, r4
 283              		.loc 1 91 0
 284 018c 1400001A 		bne	.L46
 285              	.LVL15:
 286              		.loc 1 95 0
 287 0190 FEFFFFEB 		bl	sd_State
 288              	.LVL16:
 289 0194 800010E3 		tst	r0, #128
 290              		.loc 1 100 0
 291 0198 0D10A0E1 		mov	r1, sp
 292 019c 0400A0E1 		mov	r0, r4
 293              		.loc 1 95 0
 294 01a0 0130E0E3 		mvn	r3, #1
 295 01a4 0E00001A 		bne	.L46
 296              	.LVL17:
 297              		.loc 1 100 0
 298 01a8 FEFFFFEB 		bl	sd_getDriveSize
 299              	.LVL18:
 300              	.LVL19:
 301              		.loc 1 101 0
 302 01ac 00209DE5 		ldr	r2, [sp, #0]
 303              		.loc 1 102 0
 304 01b0 823BA0E1 		mov	r3, r2, asl #23
 305 01b4 A33BA0E1 		mov	r3, r3, lsr #23
 306              		.loc 1 101 0
 307 01b8 A224A0E1 		mov	r2, r2, lsr #9
 308              		.loc 1 109 0
 309 01bc 30109FE5 		ldr	r1, .L52
 310              		.loc 1 102 0
 311 01c0 000053E3 		cmp	r3, #0
ARM GAS  /cygdrive/c/DOCUME~1/mkwapisz/LOCALS~1/Temp/ccSXsbVp.s 			page 11


 312              		.loc 1 103 0
 313 01c4 013042E2 		sub	r3, r2, #1
 314              		.loc 1 101 0
 315 01c8 002084E5 		str	r2, [r4, #0]
 316              		.loc 1 103 0
 317 01cc 00308415 		strne	r3, [r4, #0]
 318              		.loc 1 109 0
 319 01d0 0730A0E3 		mov	r3, #7
 320 01d4 003081E5 		str	r3, [r1, #0]
 321              	.LBB18:
 322              	.LBB19:
 323              		.loc 1 226 0
 324 01d8 0430A0E3 		mov	r3, #4
 325 01dc 103081E5 		str	r3, [r1, #16]
 326 01e0 0030A0E3 		mov	r3, #0
 327              	.LVL20:
 328              	.L46:
 329              	.LBE19:
 330              	.LBE18:
 331              		.loc 1 116 0
 332 01e4 0300A0E1 		mov	r0, r3
 333 01e8 04D08DE2 		add	sp, sp, #4
 334 01ec 1040BDE8 		ldmfd	sp!, {r4, lr}
 335 01f0 1EFF2FE1 		bx	lr
 336              	.L53:
 337              		.align	2
 338              	.L52:
 339 01f4 008006E0 		.word	-536444928
 340              	.LFE2:
 341              		.size	if_initInterface, .-if_initInterface
 342              		.section	.debug_frame,"",%progbits
 343              	.Lframe0:
 344 0000 0C000000 		.4byte	.LECIE0-.LSCIE0
 345              	.LSCIE0:
 346 0004 FFFFFFFF 		.4byte	0xffffffff
 347 0008 01       		.byte	0x1
 348 0009 00       		.ascii	"\000"
 349 000a 01       		.uleb128 0x1
 350 000b 7C       		.sleb128 -4
 351 000c 0E       		.byte	0xe
 352 000d 0C       		.byte	0xc
 353 000e 0D       		.uleb128 0xd
 354 000f 00       		.uleb128 0x0
 355              		.align	2
 356              	.LECIE0:
 357              	.LSFDE0:
 358 0010 0C000000 		.4byte	.LEFDE0-.LASFDE0
 359              	.LASFDE0:
 360 0014 00000000 		.4byte	.Lframe0
 361 0018 00000000 		.4byte	.LFB5
 362 001c 08000000 		.4byte	.LFE5-.LFB5
 363              		.align	2
 364              	.LEFDE0:
 365              	.LSFDE2:
 366 0020 0C000000 		.4byte	.LEFDE2-.LASFDE2
 367              	.LASFDE2:
 368 0024 00000000 		.4byte	.Lframe0
ARM GAS  /cygdrive/c/DOCUME~1/mkwapisz/LOCALS~1/Temp/ccSXsbVp.s 			page 12


 369 0028 08000000 		.4byte	.LFB7
 370 002c D8000000 		.4byte	.LFE7-.LFB7
 371              		.align	2
 372              	.LEFDE2:
 373              	.LSFDE4:
 374 0030 0C000000 		.4byte	.LEFDE4-.LASFDE4
 375              	.LASFDE4:
 376 0034 00000000 		.4byte	.Lframe0
 377 0038 E0000000 		.4byte	.LFB8
 378 003c 1C000000 		.4byte	.LFE8-.LFB8
 379              		.align	2
 380              	.LEFDE4:
 381              	.LSFDE6:
 382 0040 0C000000 		.4byte	.LEFDE6-.LASFDE6
 383              	.LASFDE6:
 384 0044 00000000 		.4byte	.Lframe0
 385 0048 FC000000 		.4byte	.LFB9
 386 004c 38000000 		.4byte	.LFE9-.LFB9
 387              		.align	2
 388              	.LEFDE6:
 389              	.LSFDE8:
 390 0050 14000000 		.4byte	.LEFDE8-.LASFDE8
 391              	.LASFDE8:
 392 0054 00000000 		.4byte	.Lframe0
 393 0058 34010000 		.4byte	.LFB4
 394 005c 18000000 		.4byte	.LFE4-.LFB4
 395 0060 44       		.byte	0x4
 396              		.4byte	.LCFI0-.LFB4
 397 0061 0E       		.byte	0xe
 398 0062 04       		.uleb128 0x4
 399 0063 8E       		.byte	0x8e
 400 0064 01       		.uleb128 0x1
 401 0065 000000   		.align	2
 402              	.LEFDE8:
 403              	.LSFDE10:
 404 0068 14000000 		.4byte	.LEFDE10-.LASFDE10
 405              	.LASFDE10:
 406 006c 00000000 		.4byte	.Lframe0
 407 0070 4C010000 		.4byte	.LFB3
 408 0074 1C000000 		.4byte	.LFE3-.LFB3
 409 0078 44       		.byte	0x4
 410              		.4byte	.LCFI1-.LFB3
 411 0079 0E       		.byte	0xe
 412 007a 04       		.uleb128 0x4
 413 007b 8E       		.byte	0x8e
 414 007c 01       		.uleb128 0x1
 415 007d 000000   		.align	2
 416              	.LEFDE10:
 417              	.LSFDE12:
 418 0080 18000000 		.4byte	.LEFDE12-.LASFDE12
 419              	.LASFDE12:
 420 0084 00000000 		.4byte	.Lframe0
 421 0088 68010000 		.4byte	.LFB2
 422 008c 90000000 		.4byte	.LFE2-.LFB2
 423 0090 44       		.byte	0x4
 424              		.4byte	.LCFI2-.LFB2
 425 0091 0E       		.byte	0xe
ARM GAS  /cygdrive/c/DOCUME~1/mkwapisz/LOCALS~1/Temp/ccSXsbVp.s 			page 13


 426 0092 08       		.uleb128 0x8
 427 0093 8E       		.byte	0x8e
 428 0094 01       		.uleb128 0x1
 429 0095 84       		.byte	0x84
 430 0096 02       		.uleb128 0x2
 431 0097 48       		.byte	0x4
 432              		.4byte	.LCFI3-.LCFI2
 433 0098 0E       		.byte	0xe
 434 0099 0C       		.uleb128 0xc
 435 009a 0000     		.align	2
 436              	.LEFDE12:
 437              		.file 2 "types.h"
 438              		.file 3 "hwinterface.h"
 439              		.text
 440              	.Letext0: