ARM GAS  /cygdrive/c/DOCUME~1/mkwapisz/LOCALS~1/Temp/cc3xUnzD.s 			page 1


   1              		.file	"sd.c"
   8 0000 EB000000 		.text
   8      02002C00 
   8      00000201 
   8      FB0E0D00 
   8      01010101 
   9              	.Ltext0:
  10              		.align	2
  11              		.global	sd_Resp8bError
  12              		.type	sd_Resp8bError, %function
  13              	sd_Resp8bError:
  14              	.LFB6:
  15              		.file 1 "sd.c"
   1:sd.c          **** /*****************************************************************************/
   2:sd.c          **** #include "sd.h"
   3:sd.c          **** /*****************************************************************************/
   4:sd.c          **** 
   5:sd.c          **** signed char sd_Init(hwInterface *iface)
   6:sd.c          **** {
   7:sd.c          **** 	signed short i;
   8:sd.c          **** 	unsigned char resp;
   9:sd.c          **** 	
  10:sd.c          **** 	/* Try to send reset command up to 100 times */
  11:sd.c          **** 	i=100;
  12:sd.c          **** 	do{
  13:sd.c          **** 		sd_Command(iface,0, 0, 0);
  14:sd.c          **** 		resp=sd_Resp8b(iface);
  15:sd.c          **** 	}
  16:sd.c          **** 	while(resp!=1 && i--);
  17:sd.c          **** 	
  18:sd.c          **** 	if(resp!=1){
  19:sd.c          **** 		if(resp==0xff){
  20:sd.c          **** 			return(-1);
  21:sd.c          **** 		}
  22:sd.c          **** 		else{
  23:sd.c          **** 			sd_Resp8bError(iface,resp);
  24:sd.c          **** 			return(-2);
  25:sd.c          **** 		}
  26:sd.c          **** 	}
  27:sd.c          **** 
  28:sd.c          **** 	/* Wait till card is ready initialising (returns 0 on CMD1) */
  29:sd.c          **** 	/* Try up to 32000 times. */
  30:sd.c          **** 	i=32000;
  31:sd.c          **** 	do{
  32:sd.c          **** 		sd_Command(iface,1, 0, 0);
  33:sd.c          **** 		
  34:sd.c          **** 		resp=sd_Resp8b(iface);
  35:sd.c          **** 		if(resp!=0)
  36:sd.c          **** 			sd_Resp8bError(iface,resp);
  37:sd.c          **** 	}
  38:sd.c          **** 	while(resp==1 && i--);
ARM GAS  /cygdrive/c/DOCUME~1/mkwapisz/LOCALS~1/Temp/cc3xUnzD.s 			page 2


  39:sd.c          **** 	
  40:sd.c          **** 	if(resp!=0){
  41:sd.c          **** 		sd_Resp8bError(iface,resp);
  42:sd.c          **** 		return(-3);
  43:sd.c          **** 	}
  44:sd.c          **** 	
  45:sd.c          **** 	return(0);
  46:sd.c          **** }
  47:sd.c          **** /*****************************************************************************/
  48:sd.c          **** 
  49:sd.c          **** void sd_Command(hwInterface *iface,unsigned char cmd, unsigned short paramx, unsigned short paramy)
  50:sd.c          **** {
  51:sd.c          **** 	if_spiSend(iface,0xff);
  52:sd.c          **** 
  53:sd.c          **** 	if_spiSend(iface,0x40 | cmd);
  54:sd.c          **** 	if_spiSend(iface,(euint8) (paramx >> 8)); /* MSB of parameter x */
  55:sd.c          **** 	if_spiSend(iface,(euint8) (paramx)); /* LSB of parameter x */
  56:sd.c          **** 	if_spiSend(iface,(euint8) (paramy >> 8)); /* MSB of parameter y */
  57:sd.c          **** 	if_spiSend(iface,(euint8) (paramy)); /* LSB of parameter y */
  58:sd.c          **** 
  59:sd.c          **** 	if_spiSend(iface,0x95); /* Checksum (should be only valid for first command (0) */
  60:sd.c          **** 
  61:sd.c          **** 	if_spiSend(iface,0xff); /* eat empty command - response */
  62:sd.c          **** }
  63:sd.c          **** /*****************************************************************************/
  64:sd.c          **** 
  65:sd.c          **** unsigned char sd_Resp8b(hwInterface *iface)
  66:sd.c          **** {
  67:sd.c          **** 	unsigned char i;
  68:sd.c          **** 	unsigned char resp;
  69:sd.c          **** 	
  70:sd.c          **** 	/* Respone will come after 1 - 8 pings */
  71:sd.c          **** 	for(i=0;i<8;i++){
  72:sd.c          **** 		resp = if_spiSend(iface,0xff);
  73:sd.c          **** 		if(resp != 0xff)
  74:sd.c          **** 			return(resp);
  75:sd.c          **** 	}
  76:sd.c          **** 		
  77:sd.c          **** 	return(resp);
  78:sd.c          **** }
  79:sd.c          **** /*****************************************************************************/
  80:sd.c          **** 
  81:sd.c          **** unsigned short sd_Resp16b(hwInterface *iface)
  82:sd.c          **** {
  83:sd.c          **** 	unsigned short resp;
  84:sd.c          **** 	
  85:sd.c          **** 	resp = ( sd_Resp8b(iface) << 8 ) & 0xff00;
  86:sd.c          **** 	resp |= if_spiSend(iface,0xff);
  87:sd.c          **** 	
  88:sd.c          **** 	return(resp);
  89:sd.c          **** }
  90:sd.c          **** /*****************************************************************************/
  91:sd.c          **** 
  92:sd.c          **** void sd_Resp8bError(hwInterface *iface,unsigned char value)
  93:sd.c          **** {
  16              		.loc 1 93 0
  17              		@ Function supports interworking.
ARM GAS  /cygdrive/c/DOCUME~1/mkwapisz/LOCALS~1/Temp/cc3xUnzD.s 			page 3


  18              		@ args = 0, pretend = 0, frame = 0
  19              		@ frame_needed = 0, uses_anonymous_args = 0
  20              		@ link register save eliminated.
  21              	.LVL0:
  22              		@ lr needed for prologue
  94:sd.c          **** 	switch(value)
  95:sd.c          **** 	{
  96:sd.c          **** 		case 0x40:
  97:sd.c          **** 			DBG((TXT("Argument out of bounds.\n")));
  98:sd.c          **** 			break;
  99:sd.c          **** 		case 0x20:
 100:sd.c          **** 			DBG((TXT("Address out of bounds.\n")));
 101:sd.c          **** 			break;
 102:sd.c          **** 		case 0x10:
 103:sd.c          **** 			DBG((TXT("Error during erase sequence.\n")));
 104:sd.c          **** 			break;
 105:sd.c          **** 		case 0x08:
 106:sd.c          **** 			DBG((TXT("CRC failed.\n")));
 107:sd.c          **** 			break;
 108:sd.c          **** 		case 0x04:
 109:sd.c          **** 			DBG((TXT("Illegal command.\n")));
 110:sd.c          **** 			break;
 111:sd.c          **** 		case 0x02:
 112:sd.c          **** 			DBG((TXT("Erase reset (see SanDisk docs p5-13).\n")));
 113:sd.c          **** 			break;
 114:sd.c          **** 		case 0x01:
 115:sd.c          **** 			DBG((TXT("Card is initialising.\n")));
 116:sd.c          **** 			break;
 117:sd.c          **** 		default:
 118:sd.c          **** 			DBG((TXT("Unknown error 0x%x (see SanDisk docs p5-13).\n"),value));
 119:sd.c          **** 			break;
 120:sd.c          **** 	}
 121:sd.c          **** }
  23              		.loc 1 121 0
  24 0000 1EFF2FE1 		bx	lr
  25              	.LFE6:
  26              		.size	sd_Resp8bError, .-sd_Resp8bError
  27              		.align	2
  28              		.global	sd_Resp8b
  29              		.type	sd_Resp8b, %function
  30              	sd_Resp8b:
  31              	.LFB4:
  32              		.loc 1 66 0
  33              		@ Function supports interworking.
  34              		@ args = 0, pretend = 0, frame = 0
  35              		@ frame_needed = 0, uses_anonymous_args = 0
  36              	.LVL1:
  37 0004 30402DE9 		stmfd	sp!, {r4, r5, lr}
  38              	.LCFI0:
  39              		.loc 1 66 0
  40 0008 0050A0E1 		mov	r5, r0
  41 000c 0040A0E3 		mov	r4, #0
  42              	.LVL2:
  43              	.LVL3:
  44              	.L4:
  45              		.loc 1 72 0
  46 0010 0500A0E1 		mov	r0, r5
ARM GAS  /cygdrive/c/DOCUME~1/mkwapisz/LOCALS~1/Temp/cc3xUnzD.s 			page 4


  47 0014 FF10A0E3 		mov	r1, #255
  48 0018 FEFFFFEB 		bl	if_spiSend
  49              		.loc 1 71 0
  50 001c 013084E2 		add	r3, r4, #1
  51              		.loc 1 73 0
  52 0020 FF0050E3 		cmp	r0, #255
  53              		.loc 1 71 0
  54 0024 FF4003E2 		and	r4, r3, #255
  55              		.loc 1 73 0
  56 0028 0100001A 		bne	.L7
  57              		.loc 1 71 0
  58 002c 080054E3 		cmp	r4, #8
  59 0030 F6FFFF1A 		bne	.L4
  60              	.L7:
  61              		.loc 1 78 0
  62 0034 3040BDE8 		ldmfd	sp!, {r4, r5, lr}
  63 0038 1EFF2FE1 		bx	lr
  64              	.LFE4:
  65              		.size	sd_Resp8b, .-sd_Resp8b
  66              		.align	2
  67              		.global	sd_Resp16b
  68              		.type	sd_Resp16b, %function
  69              	sd_Resp16b:
  70              	.LFB5:
  71              		.loc 1 82 0
  72              		@ Function supports interworking.
  73              		@ args = 0, pretend = 0, frame = 0
  74              		@ frame_needed = 0, uses_anonymous_args = 0
  75              	.LVL4:
  76 003c 30402DE9 		stmfd	sp!, {r4, r5, lr}
  77              	.LCFI1:
  78              		.loc 1 82 0
  79 0040 0050A0E1 		mov	r5, r0
  80              		.loc 1 85 0
  81 0044 FEFFFFEB 		bl	sd_Resp8b
  82              	.LVL5:
  83              		.loc 1 86 0
  84 0048 FF10A0E3 		mov	r1, #255
  85              		.loc 1 85 0
  86 004c 004CA0E1 		mov	r4, r0, asl #24
  87              		.loc 1 86 0
  88 0050 0500A0E1 		mov	r0, r5
  89 0054 FEFFFFEB 		bl	if_spiSend
  90              		.loc 1 85 0
  91 0058 2448A0E1 		mov	r4, r4, lsr #16
  92              	.LVL6:
  93              		.loc 1 86 0
  94 005c 004084E1 		orr	r4, r4, r0
  95              	.LVL7:
  96 0060 0448A0E1 		mov	r4, r4, asl #16
  97              		.loc 1 89 0
  98 0064 2408A0E1 		mov	r0, r4, lsr #16
  99 0068 3040BDE8 		ldmfd	sp!, {r4, r5, lr}
 100 006c 1EFF2FE1 		bx	lr
 101              	.LFE5:
 102              		.size	sd_Resp16b, .-sd_Resp16b
 103              		.align	2
ARM GAS  /cygdrive/c/DOCUME~1/mkwapisz/LOCALS~1/Temp/cc3xUnzD.s 			page 5


 104              		.global	sd_Command
 105              		.type	sd_Command, %function
 106              	sd_Command:
 107              	.LFB3:
 108              		.loc 1 50 0
 109              		@ Function supports interworking.
 110              		@ args = 0, pretend = 0, frame = 0
 111              		@ frame_needed = 0, uses_anonymous_args = 0
 112              	.LVL8:
 113 0070 F0402DE9 		stmfd	sp!, {r4, r5, r6, r7, lr}
 114              	.LCFI2:
 115              		.loc 1 50 0
 116 0074 0060A0E1 		mov	r6, r0
 117 0078 FF5001E2 		and	r5, r1, #255
 118              		.loc 1 51 0
 119 007c FF10A0E3 		mov	r1, #255
 120              	.LVL9:
 121              		.loc 1 50 0
 122 0080 0248A0E1 		mov	r4, r2, asl #16
 123 0084 0378A0E1 		mov	r7, r3, asl #16
 124              		.loc 1 51 0
 125 0088 FEFFFFEB 		bl	if_spiSend
 126              	.LVL10:
 127              		.loc 1 53 0
 128 008c 401085E3 		orr	r1, r5, #64
 129 0090 0600A0E1 		mov	r0, r6
 130 0094 FEFFFFEB 		bl	if_spiSend
 131              		.loc 1 54 0
 132 0098 241CA0E1 		mov	r1, r4, lsr #24
 133              		.loc 1 50 0
 134 009c 2448A0E1 		mov	r4, r4, lsr #16
 135              	.LVL11:
 136              		.loc 1 54 0
 137 00a0 0600A0E1 		mov	r0, r6
 138              		.loc 1 55 0
 139 00a4 FF4004E2 		and	r4, r4, #255
 140              	.LVL12:
 141              		.loc 1 54 0
 142 00a8 FEFFFFEB 		bl	if_spiSend
 143              		.loc 1 55 0
 144 00ac 0410A0E1 		mov	r1, r4
 145 00b0 0600A0E1 		mov	r0, r6
 146 00b4 FEFFFFEB 		bl	if_spiSend
 147              		.loc 1 56 0
 148 00b8 271CA0E1 		mov	r1, r7, lsr #24
 149              		.loc 1 50 0
 150 00bc 2778A0E1 		mov	r7, r7, lsr #16
 151              	.LVL13:
 152              		.loc 1 56 0
 153 00c0 0600A0E1 		mov	r0, r6
 154              		.loc 1 57 0
 155 00c4 FF7007E2 		and	r7, r7, #255
 156              	.LVL14:
 157              		.loc 1 56 0
 158 00c8 FEFFFFEB 		bl	if_spiSend
 159              		.loc 1 57 0
 160 00cc 0710A0E1 		mov	r1, r7
ARM GAS  /cygdrive/c/DOCUME~1/mkwapisz/LOCALS~1/Temp/cc3xUnzD.s 			page 6


 161 00d0 0600A0E1 		mov	r0, r6
 162 00d4 FEFFFFEB 		bl	if_spiSend
 163              		.loc 1 59 0
 164 00d8 0600A0E1 		mov	r0, r6
 165 00dc 9510A0E3 		mov	r1, #149
 166 00e0 FEFFFFEB 		bl	if_spiSend
 167              		.loc 1 61 0
 168 00e4 0600A0E1 		mov	r0, r6
 169 00e8 FF10A0E3 		mov	r1, #255
 170 00ec FEFFFFEB 		bl	if_spiSend
 171              		.loc 1 62 0
 172 00f0 F040BDE8 		ldmfd	sp!, {r4, r5, r6, r7, lr}
 173 00f4 1EFF2FE1 		bx	lr
 174              	.LFE3:
 175              		.size	sd_Command, .-sd_Command
 176              		.align	2
 177              		.global	sd_getDriveSize
 178              		.type	sd_getDriveSize, %function
 179              	sd_getDriveSize:
 180              	.LFB10:
 122:sd.c          **** /*****************************************************************************/
 123:sd.c          **** 
 124:sd.c          **** signed char sd_State(hwInterface *iface)
 125:sd.c          **** {
 126:sd.c          **** 	short value;
 127:sd.c          **** 	
 128:sd.c          **** 	sd_Command(iface,13, 0, 0);
 129:sd.c          **** 	value=sd_Resp16b(iface);
 130:sd.c          **** 
 131:sd.c          **** 	switch(value)
 132:sd.c          **** 	{
 133:sd.c          **** 		case 0x000:
 134:sd.c          **** 			return(1);
 135:sd.c          **** 			break;
 136:sd.c          **** 		case 0x0001:
 137:sd.c          **** 			DBG((TXT("Card is Locked.\n")));
 138:sd.c          **** 			break;
 139:sd.c          **** 		case 0x0002:
 140:sd.c          **** 			DBG((TXT("WP Erase Skip, Lock/Unlock Cmd Failed.\n")));
 141:sd.c          **** 			break;
 142:sd.c          **** 		case 0x0004:
 143:sd.c          **** 			DBG((TXT("General / Unknown error -- card broken?.\n")));
 144:sd.c          **** 			break;
 145:sd.c          **** 		case 0x0008:
 146:sd.c          **** 			DBG((TXT("Internal card controller error.\n")));
 147:sd.c          **** 			break;
 148:sd.c          **** 		case 0x0010:
 149:sd.c          **** 			DBG((TXT("Card internal ECC was applied, but failed to correct the data.\n")));
 150:sd.c          **** 			break;
 151:sd.c          **** 		case 0x0020:
 152:sd.c          **** 			DBG((TXT("Write protect violation.\n")));
 153:sd.c          **** 			break;
 154:sd.c          **** 		case 0x0040:
 155:sd.c          **** 			DBG((TXT("An invalid selection, sectors for erase.\n")));
 156:sd.c          **** 			break;
 157:sd.c          **** 		case 0x0080:
 158:sd.c          **** 			DBG((TXT("Out of Range, CSD_Overwrite.\n")));
ARM GAS  /cygdrive/c/DOCUME~1/mkwapisz/LOCALS~1/Temp/cc3xUnzD.s 			page 7


 159:sd.c          **** 			break;
 160:sd.c          **** 		default:
 161:sd.c          **** 			if(value>0x00FF)
 162:sd.c          **** 				sd_Resp8bError(iface,(euint8) (value>>8));
 163:sd.c          **** 			else
 164:sd.c          **** 				DBG((TXT("Unknown error: 0x%x (see SanDisk docs p5-14).\n"),value));
 165:sd.c          **** 			break;
 166:sd.c          **** 	}
 167:sd.c          **** 	return(-1);
 168:sd.c          **** }
 169:sd.c          **** /*****************************************************************************/
 170:sd.c          **** 
 171:sd.c          **** /* ****************************************************************************
 172:sd.c          ****  * WAIT ?? -- FIXME
 173:sd.c          ****  * CMDWRITE
 174:sd.c          ****  * WAIT
 175:sd.c          ****  * CARD RESP
 176:sd.c          ****  * WAIT
 177:sd.c          ****  * DATA BLOCK OUT
 178:sd.c          ****  *      START BLOCK
 179:sd.c          ****  *      DATA
 180:sd.c          ****  *      CHKS (2B)
 181:sd.c          ****  * BUSY...
 182:sd.c          ****  */
 183:sd.c          **** 
 184:sd.c          **** signed char sd_writeSector(hwInterface *iface,unsigned long address, unsigned char* buf)
 185:sd.c          **** {
 186:sd.c          **** 	unsigned long place;
 187:sd.c          **** 	unsigned short i;
 188:sd.c          **** 	unsigned short t=0;
 189:sd.c          **** 	
 190:sd.c          **** 	/*DBG((TXT("Trying to write %u to sector %u.\n"),(void *)&buf,address));*/
 191:sd.c          **** 	place=512*address;
 192:sd.c          **** 	sd_Command(iface,CMDWRITE, (euint16) (place >> 16), (euint16) place);
 193:sd.c          **** 
 194:sd.c          **** 	sd_Resp8b(iface); /* Card response */
 195:sd.c          **** 
 196:sd.c          **** 	if_spiSend(iface,0xfe); /* Start block */
 197:sd.c          **** 	for(i=0;i<512;i++) 
 198:sd.c          **** 		if_spiSend(iface,buf[i]); /* Send data */
 199:sd.c          **** 	if_spiSend(iface,0xff); /* Checksum part 1 */
 200:sd.c          **** 	if_spiSend(iface,0xff); /* Checksum part 2 */
 201:sd.c          **** 
 202:sd.c          **** 	if_spiSend(iface,0xff);
 203:sd.c          **** 
 204:sd.c          **** 	while(if_spiSend(iface,0xff)!=0xff){
 205:sd.c          **** 		t++;
 206:sd.c          **** 		/* Removed NOP */
 207:sd.c          **** 	}
 208:sd.c          **** 	/*DBG((TXT("Nopp'ed %u times.\n"),t));*/
 209:sd.c          **** 
 210:sd.c          **** 	return(0);
 211:sd.c          **** }
 212:sd.c          **** /*****************************************************************************/
 213:sd.c          **** 
 214:sd.c          **** /* ****************************************************************************
 215:sd.c          ****  * WAIT ?? -- FIXME
ARM GAS  /cygdrive/c/DOCUME~1/mkwapisz/LOCALS~1/Temp/cc3xUnzD.s 			page 8


 216:sd.c          ****  * CMDCMD
 217:sd.c          ****  * WAIT
 218:sd.c          ****  * CARD RESP
 219:sd.c          ****  * WAIT
 220:sd.c          ****  * DATA BLOCK IN
 221:sd.c          ****  * 		START BLOCK
 222:sd.c          ****  * 		DATA
 223:sd.c          ****  * 		CHKS (2B)
 224:sd.c          ****  */
 225:sd.c          **** 
 226:sd.c          **** signed char sd_readSector(hwInterface *iface,unsigned long address, unsigned char* buf, unsigned sh
 227:sd.c          **** {
 228:sd.c          **** 	unsigned char cardresp;
 229:sd.c          **** 	unsigned char firstblock;
 230:sd.c          **** 	unsigned char c;
 231:sd.c          **** 	unsigned short fb_timeout = 0xffff;
 232:sd.c          **** 	unsigned long i;
 233:sd.c          **** 	unsigned long place;
 234:sd.c          **** 
 235:sd.c          **** 	/*DBG((TXT("sd_readSector::Trying to read sector %u and store it at %p.\n"),address,&buf[0]));*/
 236:sd.c          **** 	place=512*address;
 237:sd.c          **** 	sd_Command(iface,CMDREAD, (euint16) (place >> 16), (euint16) place);
 238:sd.c          **** 	
 239:sd.c          **** 	cardresp=sd_Resp8b(iface); /* Card response */ 
 240:sd.c          **** 
 241:sd.c          **** 	/* Wait for startblock */
 242:sd.c          **** 	do
 243:sd.c          **** 		firstblock=sd_Resp8b(iface); 
 244:sd.c          **** 	while(firstblock==0xff && fb_timeout--);
 245:sd.c          **** 
 246:sd.c          **** 	if(cardresp!=0x00 || firstblock!=0xfe){
 247:sd.c          **** 		sd_Resp8bError(iface,firstblock);
 248:sd.c          **** 		return(-1);
 249:sd.c          **** 	}
 250:sd.c          **** 	
 251:sd.c          **** 	for(i=0;i<512;i++){
 252:sd.c          **** 		c = if_spiSend(iface,0xff);
 253:sd.c          **** 		if(i<len)
 254:sd.c          **** 			buf[i] = c;
 255:sd.c          **** 	}
 256:sd.c          **** 
 257:sd.c          **** 	/* Checksum (2 byte) - ignore for now */
 258:sd.c          **** 	if_spiSend(iface,0xff);
 259:sd.c          **** 	if_spiSend(iface,0xff);
 260:sd.c          **** 
 261:sd.c          **** 	return(0);
 262:sd.c          **** }
 263:sd.c          **** /*****************************************************************************/
 264:sd.c          **** 
 265:sd.c          **** /* ****************************************************************************
 266:sd.c          ****  calculates size of card from CSD 
 267:sd.c          ****  (extension by Martin Thomas, inspired by code from Holger Klabunde)
 268:sd.c          ****  */
 269:sd.c          **** signed char sd_getDriveSize(hwInterface *iface, unsigned long* drive_size )
 270:sd.c          **** {
 181              		.loc 1 270 0
 182              		@ Function supports interworking.
ARM GAS  /cygdrive/c/DOCUME~1/mkwapisz/LOCALS~1/Temp/cc3xUnzD.s 			page 9


 183              		@ args = 0, pretend = 0, frame = 16
 184              		@ frame_needed = 0, uses_anonymous_args = 0
 185              	.LVL15:
 186 00f8 70402DE9 		stmfd	sp!, {r4, r5, r6, lr}
 187              	.LCFI3:
 271:sd.c          **** 	unsigned char cardresp, i, by;
 272:sd.c          **** 	unsigned char iob[16];
 273:sd.c          **** 	unsigned short c_size, c_size_mult, read_bl_len;
 274:sd.c          **** 	
 275:sd.c          **** 	sd_Command(iface, CMDREADCSD, 0, 0);
 188              		.loc 1 275 0
 189 00fc 0020A0E3 		mov	r2, #0
 190              		.loc 1 270 0
 191 0100 0160A0E1 		mov	r6, r1
 192 0104 10D04DE2 		sub	sp, sp, #16
 193              	.LCFI4:
 194              		.loc 1 275 0
 195 0108 0230A0E1 		mov	r3, r2
 196 010c 0910A0E3 		mov	r1, #9
 197              	.LVL16:
 198              		.loc 1 270 0
 199 0110 0050A0E1 		mov	r5, r0
 200              		.loc 1 275 0
 201 0114 FEFFFFEB 		bl	sd_Command
 202              	.LVL17:
 203              	.L17:
 276:sd.c          **** 	
 277:sd.c          **** 	do {
 278:sd.c          **** 		cardresp = sd_Resp8b(iface);
 204              		.loc 1 278 0
 205 0118 0500A0E1 		mov	r0, r5
 206 011c FEFFFFEB 		bl	sd_Resp8b
 279:sd.c          **** 	} while ( cardresp != 0xFE );
 207              		.loc 1 279 0
 208 0120 FE0050E3 		cmp	r0, #254
 209 0124 FBFFFF1A 		bne	.L17
 210 0128 0040A0E3 		mov	r4, #0
 211              	.L19:
 280:sd.c          **** 
 281:sd.c          **** 	DBG((TXT("CSD:")));
 282:sd.c          **** 	for( i=0; i<16; i++) {
 283:sd.c          **** 		iob[i] = sd_Resp8b(iface);
 212              		.loc 1 283 0
 213 012c 0500A0E1 		mov	r0, r5
 214 0130 FEFFFFEB 		bl	sd_Resp8b
 215 0134 0D00C4E7 		strb	r0, [r4, sp]
 216 0138 014084E2 		add	r4, r4, #1
 217              		.loc 1 282 0
 218 013c 100054E3 		cmp	r4, #16
 219 0140 F9FFFF1A 		bne	.L19
 284:sd.c          **** 		DBG((TXT(" %02x"), iob[i]));
 285:sd.c          **** 	}
 286:sd.c          **** 	DBG((TXT("\n")));
 287:sd.c          **** 
 288:sd.c          **** 	if_spiSend(iface,0xff);
 220              		.loc 1 288 0
 221 0144 FF10A0E3 		mov	r1, #255
ARM GAS  /cygdrive/c/DOCUME~1/mkwapisz/LOCALS~1/Temp/cc3xUnzD.s 			page 10


 222 0148 0500A0E1 		mov	r0, r5
 223 014c FEFFFFEB 		bl	if_spiSend
 289:sd.c          **** 	if_spiSend(iface,0xff);
 224              		.loc 1 289 0
 225 0150 0500A0E1 		mov	r0, r5
 226 0154 FF10A0E3 		mov	r1, #255
 227 0158 FEFFFFEB 		bl	if_spiSend
 290:sd.c          **** 	
 291:sd.c          **** 	c_size = iob[6] & 0x03; // bits 1..0
 292:sd.c          **** 	c_size <<= 10;
 293:sd.c          **** 	c_size += (euint16)iob[7]<<2;
 294:sd.c          **** 	c_size += iob[8]>>6;
 295:sd.c          **** 
 296:sd.c          **** 	by= iob[5] & 0x0F;
 297:sd.c          **** 	read_bl_len = 1;
 298:sd.c          **** 	read_bl_len <<= by;
 299:sd.c          **** 
 300:sd.c          **** 	by=iob[9] & 0x03;
 301:sd.c          **** 	by <<= 1;
 302:sd.c          **** 	by += iob[10] >> 7;
 303:sd.c          **** 	
 304:sd.c          **** 	c_size_mult = 1;
 305:sd.c          **** 	c_size_mult <<= (2+by);
 306:sd.c          **** 	
 307:sd.c          **** 	*drive_size = (euint32)(c_size+1) * (euint32)c_size_mult * (euint32)read_bl_len;
 228              		.loc 1 307 0
 229 015c 0510DDE5 		ldrb	r1, [sp, #5]	@ zero_extendqisi2
 230 0160 0100A0E3 		mov	r0, #1
 231 0164 0F1001E2 		and	r1, r1, #15
 232 0168 1011A0E1 		mov	r1, r0, asl r1
 233              		.loc 1 300 0
 234 016c 0920DDE5 		ldrb	r2, [sp, #9]	@ zero_extendqisi2
 235              		.loc 1 307 0
 236 0170 0A30DDE5 		ldrb	r3, [sp, #10]	@ zero_extendqisi2
 237              		.loc 1 300 0
 238 0174 032002E2 		and	r2, r2, #3
 239              	.LVL18:
 240              		.loc 1 307 0
 241 0178 A333A0E1 		mov	r3, r3, lsr #7
 242 017c 823083E0 		add	r3, r3, r2, asl #1
 243 0180 023083E2 		add	r3, r3, #2
 244 0184 1003A0E1 		mov	r0, r0, asl r3
 245              		.loc 1 293 0
 246 0188 0730DDE5 		ldrb	r3, [sp, #7]	@ zero_extendqisi2
 247              		.loc 1 291 0
 248 018c 0620DDE5 		ldrb	r2, [sp, #6]	@ zero_extendqisi2
 249              	.LVL19:
 250              		.loc 1 293 0
 251 0190 08C0DDE5 		ldrb	ip, [sp, #8]	@ zero_extendqisi2
 252 0194 0331A0E1 		mov	r3, r3, asl #2
 253 0198 2C3383E0 		add	r3, r3, ip, lsr #6
 254              	.LVL20:
 255              		.loc 1 291 0
 256 019c 032002E2 		and	r2, r2, #3
 257              	.LVL21:
 258              		.loc 1 307 0
 259 01a0 023583E0 		add	r3, r3, r2, asl #10
ARM GAS  /cygdrive/c/DOCUME~1/mkwapisz/LOCALS~1/Temp/cc3xUnzD.s 			page 11


 260              	.LVL22:
 261 01a4 0118A0E1 		mov	r1, r1, asl #16
 262 01a8 2118A0E1 		mov	r1, r1, lsr #16
 263 01ac 013083E2 		add	r3, r3, #1
 264 01b0 910303E0 		mul	r3, r1, r3
 265 01b4 0008A0E1 		mov	r0, r0, asl #16
 266 01b8 2008A0E1 		mov	r0, r0, lsr #16
 267 01bc 900303E0 		mul	r3, r0, r3
 308:sd.c          **** 	
 309:sd.c          **** 	return 0;
 310:sd.c          **** }
 268              		.loc 1 310 0
 269 01c0 0000A0E3 		mov	r0, #0
 270              		.loc 1 307 0
 271 01c4 003086E5 		str	r3, [r6, #0]
 272              		.loc 1 310 0
 273 01c8 10D08DE2 		add	sp, sp, #16
 274 01cc 7040BDE8 		ldmfd	sp!, {r4, r5, r6, lr}
 275 01d0 1EFF2FE1 		bx	lr
 276              	.LFE10:
 277              		.size	sd_getDriveSize, .-sd_getDriveSize
 278              		.align	2
 279              		.global	sd_writeSector
 280              		.type	sd_writeSector, %function
 281              	sd_writeSector:
 282              	.LFB8:
 283              		.loc 1 185 0
 284              		@ Function supports interworking.
 285              		@ args = 0, pretend = 0, frame = 0
 286              		@ frame_needed = 0, uses_anonymous_args = 0
 287              	.LVL23:
 288              		.loc 1 192 0
 289 01d4 813CA0E1 		mov	r3, r1, asl #25
 290              		.loc 1 191 0
 291 01d8 8114A0E1 		mov	r1, r1, asl #9
 292              	.LVL24:
 293              		.loc 1 185 0
 294 01dc 70402DE9 		stmfd	sp!, {r4, r5, r6, lr}
 295              	.LCFI5:
 296              		.loc 1 192 0
 297 01e0 2338A0E1 		mov	r3, r3, lsr #16
 298              		.loc 1 185 0
 299 01e4 0040A0E1 		mov	r4, r0
 300 01e8 0260A0E1 		mov	r6, r2
 301              		.loc 1 192 0
 302 01ec 2128A0E1 		mov	r2, r1, lsr #16
 303              	.LVL25:
 304 01f0 1810A0E3 		mov	r1, #24
 305              	.LVL26:
 306 01f4 FEFFFFEB 		bl	sd_Command
 307              	.LVL27:
 308              		.loc 1 194 0
 309 01f8 0400A0E1 		mov	r0, r4
 310 01fc FEFFFFEB 		bl	sd_Resp8b
 311              		.loc 1 196 0
 312 0200 0400A0E1 		mov	r0, r4
 313 0204 FE10A0E3 		mov	r1, #254
ARM GAS  /cygdrive/c/DOCUME~1/mkwapisz/LOCALS~1/Temp/cc3xUnzD.s 			page 12


 314 0208 FEFFFFEB 		bl	if_spiSend
 315 020c 0050A0E3 		mov	r5, #0
 316              	.L27:
 317              		.loc 1 198 0
 318 0210 0610D5E7 		ldrb	r1, [r5, r6]	@ zero_extendqisi2
 319 0214 0400A0E1 		mov	r0, r4
 320 0218 015085E2 		add	r5, r5, #1
 321 021c FEFFFFEB 		bl	if_spiSend
 322              		.loc 1 197 0
 323 0220 020C55E3 		cmp	r5, #512
 324 0224 F9FFFF1A 		bne	.L27
 325              		.loc 1 199 0
 326 0228 FF10A0E3 		mov	r1, #255
 327 022c 0400A0E1 		mov	r0, r4
 328 0230 FEFFFFEB 		bl	if_spiSend
 329              		.loc 1 200 0
 330 0234 FF10A0E3 		mov	r1, #255
 331 0238 0400A0E1 		mov	r0, r4
 332 023c FEFFFFEB 		bl	if_spiSend
 333              		.loc 1 202 0
 334 0240 0400A0E1 		mov	r0, r4
 335 0244 FF10A0E3 		mov	r1, #255
 336 0248 FEFFFFEB 		bl	if_spiSend
 337              	.L29:
 338              		.loc 1 204 0
 339 024c 0400A0E1 		mov	r0, r4
 340 0250 FF10A0E3 		mov	r1, #255
 341 0254 FEFFFFEB 		bl	if_spiSend
 342 0258 FF0050E3 		cmp	r0, #255
 343 025c FAFFFF1A 		bne	.L29
 344              		.loc 1 211 0
 345 0260 0000A0E3 		mov	r0, #0
 346 0264 7040BDE8 		ldmfd	sp!, {r4, r5, r6, lr}
 347 0268 1EFF2FE1 		bx	lr
 348              	.LFE8:
 349              		.size	sd_writeSector, .-sd_writeSector
 350              		.align	2
 351              		.global	sd_readSector
 352              		.type	sd_readSector, %function
 353              	sd_readSector:
 354              	.LFB9:
 355              		.loc 1 227 0
 356              		@ Function supports interworking.
 357              		@ args = 0, pretend = 0, frame = 0
 358              		@ frame_needed = 0, uses_anonymous_args = 0
 359              	.LVL28:
 360              		.loc 1 237 0
 361 026c 81CCA0E1 		mov	ip, r1, asl #25
 362              		.loc 1 236 0
 363 0270 8114A0E1 		mov	r1, r1, asl #9
 364              	.LVL29:
 365              		.loc 1 227 0
 366 0274 F0412DE9 		stmfd	sp!, {r4, r5, r6, r7, r8, lr}
 367              	.LCFI6:
 368              		.loc 1 227 0
 369 0278 03E8A0E1 		mov	lr, r3, asl #16
 370 027c 0050A0E1 		mov	r5, r0
ARM GAS  /cygdrive/c/DOCUME~1/mkwapisz/LOCALS~1/Temp/cc3xUnzD.s 			page 13


 371              		.loc 1 237 0
 372 0280 2C38A0E1 		mov	r3, ip, lsr #16
 373              	.LVL30:
 374              		.loc 1 227 0
 375 0284 0280A0E1 		mov	r8, r2
 376              		.loc 1 237 0
 377 0288 2128A0E1 		mov	r2, r1, lsr #16
 378              	.LVL31:
 379 028c 1110A0E3 		mov	r1, #17
 380              	.LVL32:
 381              		.loc 1 227 0
 382 0290 2E78A0E1 		mov	r7, lr, lsr #16
 383              	.LVL33:
 384              		.loc 1 237 0
 385 0294 FEFFFFEB 		bl	sd_Command
 386              	.LVL34:
 387              		.loc 1 239 0
 388 0298 0500A0E1 		mov	r0, r5
 389 029c FEFFFFEB 		bl	sd_Resp8b
 390 02a0 8C609FE5 		ldr	r6, .L51
 391              	.LVL35:
 392 02a4 0040A0E1 		mov	r4, r0
 393              	.LVL36:
 394              	.LVL37:
 395              	.L37:
 396              		.loc 1 243 0
 397 02a8 0500A0E1 		mov	r0, r5
 398              	.LVL38:
 399 02ac FEFFFFEB 		bl	sd_Resp8b
 400              		.loc 1 244 0
 401 02b0 013046E2 		sub	r3, r6, #1
 402              	.LVL39:
 403 02b4 FF0050E3 		cmp	r0, #255
 404 02b8 0338A0E1 		mov	r3, r3, asl #16
 405 02bc 0300001A 		bne	.L38
 406 02c0 010873E3 		cmn	r3, #65536
 407 02c4 2368A0E1 		mov	r6, r3, lsr #16
 408 02c8 1600000A 		beq	.L40
 409 02cc F5FFFFEA 		b	.L37
 410              	.L38:
 411              		.loc 1 246 0
 412 02d0 FE0050E3 		cmp	r0, #254
 413 02d4 00005403 		cmpeq	r4, #0
 414 02d8 0030A003 		moveq	r3, #0
 415 02dc 0130A013 		movne	r3, #1
 416 02e0 1000001A 		bne	.L40
 417 02e4 0340A0E1 		mov	r4, r3
 418              	.LVL40:
 419              	.L42:
 420              		.loc 1 252 0
 421 02e8 0500A0E1 		mov	r0, r5
 422              	.LVL41:
 423 02ec FF10A0E3 		mov	r1, #255
 424 02f0 FEFFFFEB 		bl	if_spiSend
 425              		.loc 1 253 0
 426 02f4 070054E1 		cmp	r4, r7
 427              		.loc 1 254 0
ARM GAS  /cygdrive/c/DOCUME~1/mkwapisz/LOCALS~1/Temp/cc3xUnzD.s 			page 14


 428 02f8 0800C437 		strccb	r0, [r4, r8]
 429              		.loc 1 251 0
 430 02fc 014084E2 		add	r4, r4, #1
 431 0300 020C54E3 		cmp	r4, #512
 432 0304 F7FFFF1A 		bne	.L42
 433              		.loc 1 258 0
 434 0308 FF10A0E3 		mov	r1, #255
 435 030c 0500A0E1 		mov	r0, r5
 436 0310 FEFFFFEB 		bl	if_spiSend
 437              		.loc 1 259 0
 438 0314 0500A0E1 		mov	r0, r5
 439 0318 FF10A0E3 		mov	r1, #255
 440 031c FEFFFFEB 		bl	if_spiSend
 441 0320 0000A0E3 		mov	r0, #0
 442 0324 000000EA 		b	.L46
 443              	.LVL42:
 444              	.L40:
 445              		.loc 1 261 0
 446 0328 0000E0E3 		mvn	r0, #0
 447              	.LVL43:
 448              	.L46:
 449              		.loc 1 262 0
 450 032c F041BDE8 		ldmfd	sp!, {r4, r5, r6, r7, r8, lr}
 451 0330 1EFF2FE1 		bx	lr
 452              	.L52:
 453              		.align	2
 454              	.L51:
 455 0334 FFFF0000 		.word	65535
 456              	.LFE9:
 457              		.size	sd_readSector, .-sd_readSector
 458              		.align	2
 459              		.global	sd_State
 460              		.type	sd_State, %function
 461              	sd_State:
 462              	.LFB7:
 463              		.loc 1 125 0
 464              		@ Function supports interworking.
 465              		@ args = 0, pretend = 0, frame = 0
 466              		@ frame_needed = 0, uses_anonymous_args = 0
 467              	.LVL44:
 468              		.loc 1 128 0
 469 0338 0020A0E3 		mov	r2, #0
 470              		.loc 1 125 0
 471 033c 10402DE9 		stmfd	sp!, {r4, lr}
 472              	.LCFI7:
 473              		.loc 1 128 0
 474 0340 0D10A0E3 		mov	r1, #13
 475 0344 0230A0E1 		mov	r3, r2
 476              		.loc 1 125 0
 477 0348 0040A0E1 		mov	r4, r0
 478              		.loc 1 128 0
 479 034c FEFFFFEB 		bl	sd_Command
 480              	.LVL45:
 481              		.loc 1 129 0
 482 0350 0400A0E1 		mov	r0, r4
 483 0354 FEFFFFEB 		bl	sd_Resp16b
 484              		.loc 1 131 0
ARM GAS  /cygdrive/c/DOCUME~1/mkwapisz/LOCALS~1/Temp/cc3xUnzD.s 			page 15


 485 0358 0008B0E1 		movs	r0, r0, asl #16
 486              		.loc 1 168 0
 487 035c 0000E013 		mvnne	r0, #0
 488 0360 0100A003 		moveq	r0, #1
 489 0364 1040BDE8 		ldmfd	sp!, {r4, lr}
 490 0368 1EFF2FE1 		bx	lr
 491              	.LFE7:
 492              		.size	sd_State, .-sd_State
 493              		.align	2
 494              		.global	sd_Init
 495              		.type	sd_Init, %function
 496              	sd_Init:
 497              	.LFB2:
 498              		.loc 1 6 0
 499              		@ Function supports interworking.
 500              		@ args = 0, pretend = 0, frame = 0
 501              		@ frame_needed = 0, uses_anonymous_args = 0
 502              	.LVL46:
 503 036c 30402DE9 		stmfd	sp!, {r4, r5, lr}
 504              	.LCFI8:
 505              		.loc 1 6 0
 506 0370 0040A0E1 		mov	r4, r0
 507 0374 6450A0E3 		mov	r5, #100
 508              	.LVL47:
 509              	.LVL48:
 510              	.L59:
 511              		.loc 1 13 0
 512 0378 0010A0E3 		mov	r1, #0
 513 037c 0130A0E1 		mov	r3, r1
 514 0380 0120A0E1 		mov	r2, r1
 515 0384 0400A0E1 		mov	r0, r4
 516 0388 FEFFFFEB 		bl	sd_Command
 517              		.loc 1 14 0
 518 038c 0400A0E1 		mov	r0, r4
 519 0390 FEFFFFEB 		bl	sd_Resp8b
 520              		.loc 1 16 0
 521 0394 013045E2 		sub	r3, r5, #1
 522 0398 0338A0E1 		mov	r3, r3, asl #16
 523 039c 010050E3 		cmp	r0, #1
 524 03a0 2358A0E1 		mov	r5, r3, lsr #16
 525 03a4 0500000A 		beq	.L60
 526 03a8 010873E3 		cmn	r3, #65536
 527 03ac F1FFFF1A 		bne	.L59
 528              		.loc 1 19 0
 529 03b0 FF0050E3 		cmp	r0, #255
 530 03b4 0100E013 		mvnne	r0, #1
 531 03b8 0000E003 		mvneq	r0, #0
 532 03bc 120000EA 		b	.L65
 533              	.L60:
 534 03c0 7D5CA0E3 		mov	r5, #32000
 535              	.LVL49:
 536              	.LVL50:
 537              	.L66:
 538              		.loc 1 32 0
 539 03c4 0020A0E3 		mov	r2, #0
 540 03c8 0230A0E1 		mov	r3, r2
 541 03cc 0110A0E3 		mov	r1, #1
ARM GAS  /cygdrive/c/DOCUME~1/mkwapisz/LOCALS~1/Temp/cc3xUnzD.s 			page 16


 542 03d0 0400A0E1 		mov	r0, r4
 543              	.LVL51:
 544 03d4 FEFFFFEB 		bl	sd_Command
 545              		.loc 1 34 0
 546 03d8 0400A0E1 		mov	r0, r4
 547 03dc FEFFFFEB 		bl	sd_Resp8b
 548              		.loc 1 38 0
 549 03e0 013045E2 		sub	r3, r5, #1
 550              	.LVL52:
 551 03e4 010050E3 		cmp	r0, #1
 552 03e8 0338A0E1 		mov	r3, r3, asl #16
 553 03ec 0300001A 		bne	.L67
 554 03f0 010873E3 		cmn	r3, #65536
 555 03f4 2358A0E1 		mov	r5, r3, lsr #16
 556 03f8 0200000A 		beq	.L69
 557 03fc F0FFFFEA 		b	.L66
 558              	.L67:
 559              		.loc 1 40 0
 560 0400 000050E3 		cmp	r0, #0
 561 0404 0000000A 		beq	.L65
 562              	.L69:
 563 0408 0200E0E3 		mvn	r0, #2
 564              	.LVL53:
 565              	.L65:
 566              	.LVL54:
 567              		.loc 1 46 0
 568 040c 3040BDE8 		ldmfd	sp!, {r4, r5, lr}
 569 0410 1EFF2FE1 		bx	lr
 570              	.LFE2:
 571              		.size	sd_Init, .-sd_Init
 572              		.section	.debug_frame,"",%progbits
 573              	.Lframe0:
 574 0000 0C000000 		.4byte	.LECIE0-.LSCIE0
 575              	.LSCIE0:
 576 0004 FFFFFFFF 		.4byte	0xffffffff
 577 0008 01       		.byte	0x1
 578 0009 00       		.ascii	"\000"
 579 000a 01       		.uleb128 0x1
 580 000b 7C       		.sleb128 -4
 581 000c 0E       		.byte	0xe
 582 000d 0C       		.byte	0xc
 583 000e 0D       		.uleb128 0xd
 584 000f 00       		.uleb128 0x0
 585              		.align	2
 586              	.LECIE0:
 587              	.LSFDE0:
 588 0010 0C000000 		.4byte	.LEFDE0-.LASFDE0
 589              	.LASFDE0:
 590 0014 00000000 		.4byte	.Lframe0
 591 0018 00000000 		.4byte	.LFB6
 592 001c 04000000 		.4byte	.LFE6-.LFB6
 593              		.align	2
 594              	.LEFDE0:
 595              	.LSFDE2:
 596 0020 18000000 		.4byte	.LEFDE2-.LASFDE2
 597              	.LASFDE2:
 598 0024 00000000 		.4byte	.Lframe0
ARM GAS  /cygdrive/c/DOCUME~1/mkwapisz/LOCALS~1/Temp/cc3xUnzD.s 			page 17


 599 0028 04000000 		.4byte	.LFB4
 600 002c 38000000 		.4byte	.LFE4-.LFB4
 601 0030 44       		.byte	0x4
 602              		.4byte	.LCFI0-.LFB4
 603 0031 0E       		.byte	0xe
 604 0032 0C       		.uleb128 0xc
 605 0033 8E       		.byte	0x8e
 606 0034 01       		.uleb128 0x1
 607 0035 85       		.byte	0x85
 608 0036 02       		.uleb128 0x2
 609 0037 84       		.byte	0x84
 610 0038 03       		.uleb128 0x3
 611 0039 000000   		.align	2
 612              	.LEFDE2:
 613              	.LSFDE4:
 614 003c 18000000 		.4byte	.LEFDE4-.LASFDE4
 615              	.LASFDE4:
 616 0040 00000000 		.4byte	.Lframe0
 617 0044 3C000000 		.4byte	.LFB5
 618 0048 34000000 		.4byte	.LFE5-.LFB5
 619 004c 44       		.byte	0x4
 620              		.4byte	.LCFI1-.LFB5
 621 004d 0E       		.byte	0xe
 622 004e 0C       		.uleb128 0xc
 623 004f 8E       		.byte	0x8e
 624 0050 01       		.uleb128 0x1
 625 0051 85       		.byte	0x85
 626 0052 02       		.uleb128 0x2
 627 0053 84       		.byte	0x84
 628 0054 03       		.uleb128 0x3
 629 0055 000000   		.align	2
 630              	.LEFDE4:
 631              	.LSFDE6:
 632 0058 1C000000 		.4byte	.LEFDE6-.LASFDE6
 633              	.LASFDE6:
 634 005c 00000000 		.4byte	.Lframe0
 635 0060 70000000 		.4byte	.LFB3
 636 0064 88000000 		.4byte	.LFE3-.LFB3
 637 0068 44       		.byte	0x4
 638              		.4byte	.LCFI2-.LFB3
 639 0069 0E       		.byte	0xe
 640 006a 14       		.uleb128 0x14
 641 006b 8E       		.byte	0x8e
 642 006c 01       		.uleb128 0x1
 643 006d 87       		.byte	0x87
 644 006e 02       		.uleb128 0x2
 645 006f 86       		.byte	0x86
 646 0070 03       		.uleb128 0x3
 647 0071 85       		.byte	0x85
 648 0072 04       		.uleb128 0x4
 649 0073 84       		.byte	0x84
 650 0074 05       		.uleb128 0x5
 651 0075 000000   		.align	2
 652              	.LEFDE6:
 653              	.LSFDE8:
 654 0078 1C000000 		.4byte	.LEFDE8-.LASFDE8
 655              	.LASFDE8:
ARM GAS  /cygdrive/c/DOCUME~1/mkwapisz/LOCALS~1/Temp/cc3xUnzD.s 			page 18


 656 007c 00000000 		.4byte	.Lframe0
 657 0080 F8000000 		.4byte	.LFB10
 658 0084 DC000000 		.4byte	.LFE10-.LFB10
 659 0088 44       		.byte	0x4
 660              		.4byte	.LCFI3-.LFB10
 661 0089 0E       		.byte	0xe
 662 008a 10       		.uleb128 0x10
 663 008b 8E       		.byte	0x8e
 664 008c 01       		.uleb128 0x1
 665 008d 86       		.byte	0x86
 666 008e 02       		.uleb128 0x2
 667 008f 85       		.byte	0x85
 668 0090 03       		.uleb128 0x3
 669 0091 84       		.byte	0x84
 670 0092 04       		.uleb128 0x4
 671 0093 4C       		.byte	0x4
 672              		.4byte	.LCFI4-.LCFI3
 673 0094 0E       		.byte	0xe
 674 0095 20       		.uleb128 0x20
 675 0096 0000     		.align	2
 676              	.LEFDE8:
 677              	.LSFDE10:
 678 0098 18000000 		.4byte	.LEFDE10-.LASFDE10
 679              	.LASFDE10:
 680 009c 00000000 		.4byte	.Lframe0
 681 00a0 D4010000 		.4byte	.LFB8
 682 00a4 98000000 		.4byte	.LFE8-.LFB8
 683 00a8 4C       		.byte	0x4
 684              		.4byte	.LCFI5-.LFB8
 685 00a9 0E       		.byte	0xe
 686 00aa 10       		.uleb128 0x10
 687 00ab 8E       		.byte	0x8e
 688 00ac 01       		.uleb128 0x1
 689 00ad 86       		.byte	0x86
 690 00ae 02       		.uleb128 0x2
 691 00af 85       		.byte	0x85
 692 00b0 03       		.uleb128 0x3
 693 00b1 84       		.byte	0x84
 694 00b2 04       		.uleb128 0x4
 695 00b3 00       		.align	2
 696              	.LEFDE10:
 697              	.LSFDE12:
 698 00b4 1C000000 		.4byte	.LEFDE12-.LASFDE12
 699              	.LASFDE12:
 700 00b8 00000000 		.4byte	.Lframe0
 701 00bc 6C020000 		.4byte	.LFB9
 702 00c0 CC000000 		.4byte	.LFE9-.LFB9
 703 00c4 4C       		.byte	0x4
 704              		.4byte	.LCFI6-.LFB9
 705 00c5 0E       		.byte	0xe
 706 00c6 18       		.uleb128 0x18
 707 00c7 8E       		.byte	0x8e
 708 00c8 01       		.uleb128 0x1
 709 00c9 88       		.byte	0x88
 710 00ca 02       		.uleb128 0x2
 711 00cb 87       		.byte	0x87
 712 00cc 03       		.uleb128 0x3
ARM GAS  /cygdrive/c/DOCUME~1/mkwapisz/LOCALS~1/Temp/cc3xUnzD.s 			page 19


 713 00cd 86       		.byte	0x86
 714 00ce 04       		.uleb128 0x4
 715 00cf 85       		.byte	0x85
 716 00d0 05       		.uleb128 0x5
 717 00d1 84       		.byte	0x84
 718 00d2 06       		.uleb128 0x6
 719 00d3 00       		.align	2
 720              	.LEFDE12:
 721              	.LSFDE14:
 722 00d4 14000000 		.4byte	.LEFDE14-.LASFDE14
 723              	.LASFDE14:
 724 00d8 00000000 		.4byte	.Lframe0
 725 00dc 38030000 		.4byte	.LFB7
 726 00e0 34000000 		.4byte	.LFE7-.LFB7
 727 00e4 48       		.byte	0x4
 728              		.4byte	.LCFI7-.LFB7
 729 00e5 0E       		.byte	0xe
 730 00e6 08       		.uleb128 0x8
 731 00e7 8E       		.byte	0x8e
 732 00e8 01       		.uleb128 0x1
 733 00e9 84       		.byte	0x84
 734 00ea 02       		.uleb128 0x2
 735 00eb 00       		.align	2
 736              	.LEFDE14:
 737              	.LSFDE16:
 738 00ec 18000000 		.4byte	.LEFDE16-.LASFDE16
 739              	.LASFDE16:
 740 00f0 00000000 		.4byte	.Lframe0
 741 00f4 6C030000 		.4byte	.LFB2
 742 00f8 A8000000 		.4byte	.LFE2-.LFB2
 743 00fc 44       		.byte	0x4
 744              		.4byte	.LCFI8-.LFB2
 745 00fd 0E       		.byte	0xe
 746 00fe 0C       		.uleb128 0xc
 747 00ff 8E       		.byte	0x8e
 748 0100 01       		.uleb128 0x1
 749 0101 85       		.byte	0x85
 750 0102 02       		.uleb128 0x2
 751 0103 84       		.byte	0x84
 752 0104 03       		.uleb128 0x3
 753 0105 000000   		.align	2
 754              	.LEFDE16:
 755              		.file 2 "hwinterface.h"
 756              		.text
 757              	.Letext0: