ARM GAS  /cygdrive/c/DOCUME~1/mkwapisz/LOCALS~1/Temp/ccxvxtIe.s 			page 1


   1              		.file	"file.c"
   8 0000 15020000 		.text
   8      02007600 
   8      00000201 
   8      FB0E0D00 
   8      01010101 
   9              	.Ltext0:
  10              		.align	2
  11              		.global	file_setpos
  12              		.type	file_setpos, %function
  13              	file_setpos:
  14              	.LFB5:
  15              		.file 1 "file.c"
   1:file.c        **** /*****************************************************************************/
   2:file.c        **** #include "file.h"
   3:file.c        **** /*****************************************************************************/
   4:file.c        **** 
   5:file.c        **** /* ****************************************************************************  
   6:file.c        ****  * unsigned long file_fread(File *file,unsigned long offset, unsigned long size,unsigned char *buf)
   7:file.c        ****  * Description: This function reads 'size' bytes from 'file' starting at
   8:file.c        ****  * 'offset' and puts the result in '*buf'.
   9:file.c        ****  * Return value: amount of bytes actually read (can differ from the given
  10:file.c        ****  * size when the file was smaller
  11:file.c        **** */
  12:file.c        **** unsigned long file_fread(File *file,unsigned long offset, unsigned long size,unsigned char *buf)
  13:file.c        **** {
  14:file.c        **** 	unsigned long bytes_read=0,size_left=size,coffset=offset;
  15:file.c        **** 	unsigned long cclus,csec,cbyte;
  16:file.c        **** 	unsigned long rclus,rsec;
  17:file.c        **** 	unsigned long btr;
  18:file.c        **** 	unsigned char *tbuf;
  19:file.c        **** 		
  20:file.c        **** 	if(!file_getAttr(file,FILE_STATUS_OPEN))return(0);
  21:file.c        **** 	
  22:file.c        **** 	if(offset>=file->FileSize)
  23:file.c        **** 		size_left=0; /* Offset check */
  24:file.c        **** 	
  25:file.c        **** 	if( (offset+size > file->FileSize) && size_left!=0)
  26:file.c        **** 		size_left=file->FileSize-offset;
  27:file.c        **** 	
  28:file.c        **** 	while(size_left>0){
  29:file.c        **** 	
  30:file.c        **** 		cclus = coffset/(512*file->fs->volumeId.SectorsPerCluster);
  31:file.c        **** 		csec = (coffset/(512))%file->fs->volumeId.SectorsPerCluster;
  32:file.c        **** 		cbyte = coffset%512;
  33:file.c        **** 		
  34:file.c        **** 		if(cbyte!=0 || size_left<512){
  35:file.c        **** 			btr = 512-(coffset%512)>=size_left?size_left:512-(coffset%512);
  36:file.c        **** 		}else{
  37:file.c        **** 			btr = 512;
  38:file.c        **** 		}
ARM GAS  /cygdrive/c/DOCUME~1/mkwapisz/LOCALS~1/Temp/ccxvxtIe.s 			page 2


  39:file.c        **** 
  40:file.c        **** 		if((fat_LogicToDiscCluster(file->fs,&(file->Cache),cclus))!=0){
  41:file.c        **** 			return(0);
  42:file.c        **** 		}
  43:file.c        **** 		rclus=file->Cache.DiscCluster;
  44:file.c        **** 		rsec=fs_clusterToSector(file->fs,rclus);
  45:file.c        **** 		
  46:file.c        **** 		
  47:file.c        **** 		if(btr==512){
  48:file.c        **** 			/*part_readBuf(file->fs->part,rsec+csec,buf+bytes_read);*/
  49:file.c        **** 			part_directSectorRead(file->fs->part,rsec+csec,buf+bytes_read);
  50:file.c        **** 		}else{
  51:file.c        **** 			/*part_readBuf(file->fs->part,rsec+csec,tbuf);*/
  52:file.c        **** 			tbuf = part_getSect(file->fs->part,rsec+csec,IOM_MODE_READONLY);
  53:file.c        **** 			memCpy(tbuf+(coffset%512),buf+bytes_read,btr);
  54:file.c        **** 			part_relSect(file->fs->part,tbuf);
  55:file.c        **** 		}
  56:file.c        **** 		
  57:file.c        **** 		coffset+=btr;
  58:file.c        **** 		bytes_read+=btr;
  59:file.c        **** 		size_left-=btr;
  60:file.c        **** 	}
  61:file.c        **** 		
  62:file.c        **** 	return(bytes_read);
  63:file.c        **** }
  64:file.c        **** /*****************************************************************************/
  65:file.c        **** 
  66:file.c        **** /* ****************************************************************************  
  67:file.c        ****  * unsigned long file_read (File *file,unsigned long size,unsigned char *buf)
  68:file.c        ****  * Description: This function reads from a file, taking the FilePtr into account
  69:file.c        ****  * and advancing it according to the freadcall.
  70:file.c        ****  * Return value: Value obtained from fread
  71:file.c        **** */
  72:file.c        **** unsigned long file_read(File *file,unsigned long size,unsigned char *buf)
  73:file.c        **** {
  74:file.c        **** 	unsigned long r;
  75:file.c        **** 	
  76:file.c        **** 	r=file_fread(file,file->FilePtr,size,buf);
  77:file.c        **** 	file->FilePtr+=r;
  78:file.c        **** 	return(r);
  79:file.c        **** }
  80:file.c        **** /*****************************************************************************/
  81:file.c        **** 
  82:file.c        **** /* ****************************************************************************  
  83:file.c        ****  * unsigned long file_write(File *file, unsigned long size,unsigned char *buf)
  84:file.c        ****  * Description: This function writes to a file, taking FilePtr into account
  85:file.c        ****  * and advancing it according to the fwritecall.
  86:file.c        ****  * Return value: Value obtained from fread
  87:file.c        **** */
  88:file.c        **** unsigned long file_write(File *file, unsigned long size,unsigned char *buf)
  89:file.c        **** {
  90:file.c        **** 	unsigned long r;
  91:file.c        **** 	
  92:file.c        **** 	r=file_fwrite(file,file->FilePtr,size,buf);
  93:file.c        **** 	file->FilePtr+=r;
  94:file.c        **** 	return(r);
  95:file.c        **** }
ARM GAS  /cygdrive/c/DOCUME~1/mkwapisz/LOCALS~1/Temp/ccxvxtIe.s 			page 3


  96:file.c        **** /*****************************************************************************/
  97:file.c        **** 
  98:file.c        **** /* ****************************************************************************  
  99:file.c        ****  * esint16 file_setpos(File *file,unsigned long pos)
 100:file.c        ****  * Description: This function does a sanity check on the requested position
 101:file.c        ****  * and changes the fileptr accordingly.
 102:file.c        ****  * Return value: 0 on success and -1 on failure.
 103:file.c        **** */
 104:file.c        **** esint16 file_setpos(File *file,unsigned long pos)
 105:file.c        **** {
  16              		.loc 1 105 0
  17              		@ Function supports interworking.
  18              		@ args = 0, pretend = 0, frame = 0
  19              		@ frame_needed = 0, uses_anonymous_args = 0
  20              		@ link register save eliminated.
  21              	.LVL0:
 106:file.c        **** 	if(pos<=file->FileSize){
  22              		.loc 1 106 0
  23 0000 4C3090E5 		ldr	r3, [r0, #76]
  24 0004 030051E1 		cmp	r1, r3
  25 0008 0030E0E3 		mvn	r3, #0
 107:file.c        **** 		file->FilePtr=pos;
  26              		.loc 1 107 0
  27 000c 0030A093 		movls	r3, #0
  28 0010 48108095 		strls	r1, [r0, #72]
 108:file.c        **** 		return(0);
 109:file.c        **** 	}
 110:file.c        **** 	return(-1);
 111:file.c        **** }
  29              		.loc 1 111 0
  30 0014 0300A0E1 		mov	r0, r3
  31              	.LVL1:
  32              		.loc 1 105 0
  33              		@ lr needed for prologue
  34              		.loc 1 111 0
  35 0018 1EFF2FE1 		bx	lr
  36              	.LFE5:
  37              		.size	file_setpos, .-file_setpos
  38              		.align	2
  39              		.global	file_initFile
  40              		.type	file_initFile, %function
  41              	file_initFile:
  42              	.LFB9:
 112:file.c        **** /*****************************************************************************/
 113:file.c        **** 
 114:file.c        **** /* ****************************************************************************  
 115:file.c        ****  * unsigned long file_fwrite(File* file,unsigned long offset,unsigned long size,unsigned char* buf)
 116:file.c        ****  * Description: This function writes to a file, at offset 'offset' and size 'size'.
 117:file.c        ****  * It also updates the FileSize in the object, and discstructure.
 118:file.c        ****  * Return value: Bytes actually written.
 119:file.c        **** */
 120:file.c        **** unsigned long file_fwrite(File* file,unsigned long offset,unsigned long size,unsigned char* buf)
 121:file.c        **** {
 122:file.c        **** 	unsigned long need_cluster;
 123:file.c        **** 	unsigned long cclus,csec,cbyte;
 124:file.c        **** 	unsigned long size_left=size,bytes_written=0;
 125:file.c        **** 	unsigned long rclus,rsec;
ARM GAS  /cygdrive/c/DOCUME~1/mkwapisz/LOCALS~1/Temp/ccxvxtIe.s 			page 4


 126:file.c        **** 	unsigned long coffset=offset;
 127:file.c        **** 	unsigned short btr;
 128:file.c        **** 	unsigned char *tbuf;
 129:file.c        **** 
 130:file.c        **** 	if(!file_getAttr(file,FILE_STATUS_OPEN) || !file_getAttr(file,FILE_STATUS_WRITE))return(0);
 131:file.c        **** 	
 132:file.c        **** 	if(offset>file->FileSize){
 133:file.c        **** 		offset=file->FileSize;
 134:file.c        **** 	}
 135:file.c        **** 	
 136:file.c        **** 	need_cluster = file_requiredCluster(file,offset,size);
 137:file.c        **** 	
 138:file.c        **** 	if(need_cluster){
 139:file.c        **** 		if(fat_allocClusterChain(file->fs,&(file->Cache),need_cluster+CLUSTER_PREALLOC_FILE)!=0){
 140:file.c        **** 			return(0);
 141:file.c        **** 		}
 142:file.c        **** 	}
 143:file.c        **** 	
 144:file.c        **** 	while(size_left>0){
 145:file.c        **** 	
 146:file.c        **** 		cclus = coffset/(512*file->fs->volumeId.SectorsPerCluster);
 147:file.c        **** 		csec = (coffset/(512))%file->fs->volumeId.SectorsPerCluster;
 148:file.c        **** 		cbyte = coffset%512;
 149:file.c        **** 		
 150:file.c        **** 		if(cbyte!=0 || size_left<512){
 151:file.c        **** 			btr = 512-(coffset%512)>=size_left?size_left:512-(coffset%512);
 152:file.c        **** 		}else{
 153:file.c        **** 			btr = 512;
 154:file.c        **** 		}
 155:file.c        **** 
 156:file.c        **** 		if((fat_LogicToDiscCluster(file->fs,&(file->Cache),cclus))!=0){
 157:file.c        **** 			file->FileSize+=bytes_written;
 158:file.c        **** 			dir_setFileSize(file->fs,&(file->Location),file->FileSize);
 159:file.c        **** 			return(bytes_written);
 160:file.c        **** 		}
 161:file.c        **** 		rclus=file->Cache.DiscCluster;
 162:file.c        **** 		rsec=fs_clusterToSector(file->fs,rclus);
 163:file.c        **** 		
 164:file.c        **** 		if(btr==512){
 165:file.c        **** 			/*part_writeBuf(file->fs->part,rsec+csec,buf+bytes_written);*/
 166:file.c        **** 			part_directSectorWrite(file->fs->part,rsec+csec,buf+bytes_written);
 167:file.c        **** 		}else{
 168:file.c        **** 			/*part_readBuf(file->fs->part,rsec+csec,tbuf);*/
 169:file.c        **** 			tbuf = part_getSect(file->fs->part,rsec+csec,IOM_MODE_READWRITE);
 170:file.c        **** 			memCpy(buf+bytes_written,tbuf+(coffset%512),btr);
 171:file.c        **** 			/*part_writeBuf(file->fs->part,rsec+csec,tbuf);*/
 172:file.c        **** 			part_relSect(file->fs->part,tbuf);
 173:file.c        **** 		}
 174:file.c        **** 		
 175:file.c        **** 		coffset+=btr;
 176:file.c        **** 		bytes_written+=btr;
 177:file.c        **** 		size_left-=btr;
 178:file.c        **** 	}
 179:file.c        **** 	
 180:file.c        **** 	if(bytes_written>file->FileSize-offset){
 181:file.c        **** 		file->FileSize+=bytes_written-(file->FileSize-offset);
 182:file.c        ****     }
ARM GAS  /cygdrive/c/DOCUME~1/mkwapisz/LOCALS~1/Temp/ccxvxtIe.s 			page 5


 183:file.c        **** 	
 184:file.c        **** 	return(bytes_written);	
 185:file.c        **** }
 186:file.c        **** 
 187:file.c        **** /* ***************************************************************************\
 188:file.c        ****  * signed char file_fopen(FileSystem *fs,File* file,char* filename)      
 189:file.c        ****  * Description: This functions opens a file.                               
 190:file.c        ****  * This function is about to be redesigned. No Docs.                       
 191:file.c        ****  * Return value:
 192:file.c        **** */
 193:file.c        **** signed char file_fopen(File* file,FileSystem *fs,char* filename,char mode)
 194:file.c        **** {
 195:file.c        ****     FileLocation loc;
 196:file.c        ****     FileRecord wtmp;
 197:file.c        ****     char fatfilename[11];
 198:file.c        ****     unsigned long sec;
 199:file.c        **** 
 200:file.c        ****     dir_getFatFileName(filename,fatfilename);
 201:file.c        **** 	
 202:file.c        ****     switch(mode)
 203:file.c        **** 	{
 204:file.c        ****         case MODE_READ:
 205:file.c        ****             if(fs_findFile(fs,filename,&loc,0)==1)
 206:file.c        **** 			{
 207:file.c        ****                 dir_getFileStructure(fs,&(file->DirEntry), &loc);
 208:file.c        ****                 file_initFile(file,fs,&loc);
 209:file.c        **** 				file_setAttr(file,FILE_STATUS_OPEN,1);
 210:file.c        **** 				file_setAttr(file,FILE_STATUS_WRITE,0);
 211:file.c        ****                 return(0);
 212:file.c        ****             }
 213:file.c        ****             return(-1);
 214:file.c        ****             break;
 215:file.c        ****         case MODE_WRITE:
 216:file.c        ****             if(fs_findFile(fs,filename,&loc,&sec)) /* File may NOT exist, but parent HAS to exist *
 217:file.c        **** 			{
 218:file.c        ****                 return(-2);
 219:file.c        **** 			}
 220:file.c        **** 			if(sec==0){ /* Parent dir does not exist */
 221:file.c        ****  				return(-4);
 222:file.c        **** 			}
 223:file.c        ****             if(fs_findFreeFile(fs,filename,&loc,0))
 224:file.c        **** 			{
 225:file.c        ****                 dir_createDefaultEntry(fs,&wtmp,fatfilename);
 226:file.c        ****                 dir_createDirectoryEntry(fs,&wtmp,&loc);
 227:file.c        ****                 memCpy(&wtmp,&(file->DirEntry),sizeof(wtmp));
 228:file.c        **** 				file_initFile(file,fs,&loc);
 229:file.c        ****                 sec=fs_getNextFreeCluster(file->fs,fs_giveFreeClusterHint(file->fs));
 230:file.c        ****                 dir_setFirstCluster(file->fs,&(file->Location),sec);
 231:file.c        ****                 fs_setFirstClusterInDirEntry(&(file->DirEntry),sec);
 232:file.c        ****                 fs_initClusterChain(fs,&(file->Cache),sec);
 233:file.c        ****                 fat_setNextClusterAddress(fs,sec,fat_giveEocMarker(fs));
 234:file.c        **** 				file_setAttr(file,FILE_STATUS_OPEN,1);
 235:file.c        **** 				file_setAttr(file,FILE_STATUS_WRITE,1);
 236:file.c        ****             	return(0);
 237:file.c        **** 			}
 238:file.c        ****             else
 239:file.c        **** 			{
ARM GAS  /cygdrive/c/DOCUME~1/mkwapisz/LOCALS~1/Temp/ccxvxtIe.s 			page 6


 240:file.c        ****                 return(-3);
 241:file.c        **** 			}
 242:file.c        ****             break;
 243:file.c        ****         case MODE_APPEND:
 244:file.c        **** 			if(fs_findFile(fs,filename,&loc,0)==1) /* File exists */
 245:file.c        **** 			{
 246:file.c        **** 				dir_getFileStructure(fs,&(file->DirEntry), &loc);
 247:file.c        **** 				file_initFile(file,fs,&loc);
 248:file.c        **** 				if(file->Cache.FirstCluster==0){
 249:file.c        **** 					sec=fs_getNextFreeCluster(file->fs,fs_giveFreeClusterHint(file->fs));
 250:file.c        **** 					dir_setFirstCluster(file->fs,&(file->Location),sec);
 251:file.c        **** 					fs_setFirstClusterInDirEntry(&(file->DirEntry),sec);
 252:file.c        **** 					fat_setNextClusterAddress(fs,sec,fat_giveEocMarker(fs));
 253:file.c        **** 					file_initFile(file,fs,&loc);
 254:file.c        **** 				}
 255:file.c        **** 				file_setpos(file,file->FileSize);
 256:file.c        **** 				file_setAttr(file,FILE_STATUS_OPEN,1);
 257:file.c        **** 				file_setAttr(file,FILE_STATUS_WRITE,1);
 258:file.c        **** 			}
 259:file.c        **** 			else /* File does not excist */
 260:file.c        **** 			{
 261:file.c        **** 				if(fs_findFreeFile(fs,filename,&loc,0))
 262:file.c        **** 				{
 263:file.c        **** 					dir_createDefaultEntry(fs,&wtmp,fatfilename);
 264:file.c        **** 					dir_createDirectoryEntry(fs,&wtmp,&loc);
 265:file.c        **** 					memCpy(&wtmp,&(file->DirEntry),sizeof(wtmp));
 266:file.c        **** 					file_initFile(file,fs,&loc);
 267:file.c        **** 					sec=fs_getNextFreeCluster(file->fs,fs_giveFreeClusterHint(file->fs));
 268:file.c        **** 					dir_setFirstCluster(file->fs,&(file->Location),sec);
 269:file.c        **** 	                fs_setFirstClusterInDirEntry(&(file->DirEntry),sec);
 270:file.c        ****     	            fs_initClusterChain(fs,&(file->Cache),sec);
 271:file.c        **** 					fat_setNextClusterAddress(fs,sec,fat_giveEocMarker(fs));
 272:file.c        **** 					file_setAttr(file,FILE_STATUS_OPEN,1);
 273:file.c        **** 					file_setAttr(file,FILE_STATUS_WRITE,1);
 274:file.c        **** 				}
 275:file.c        **** 				else
 276:file.c        **** 				{
 277:file.c        **** 					return(-3);
 278:file.c        **** 				}
 279:file.c        **** 			}
 280:file.c        **** 			return(0);
 281:file.c        ****             break;
 282:file.c        ****         default:
 283:file.c        ****             return(-4);
 284:file.c        ****             break;
 285:file.c        ****     }
 286:file.c        ****     return(-5);
 287:file.c        **** }
 288:file.c        **** /*****************************************************************************/
 289:file.c        **** 
 290:file.c        **** /* ****************************************************************************  
 291:file.c        ****  * signed char file_fclose(File *file)
 292:file.c        ****  * Description: This function closes a file, by clearing the object.
 293:file.c        ****  * Return value: 0 on success.
 294:file.c        **** */
 295:file.c        **** signed char file_fclose(File *file)
 296:file.c        **** {
ARM GAS  /cygdrive/c/DOCUME~1/mkwapisz/LOCALS~1/Temp/ccxvxtIe.s 			page 7


 297:file.c        **** 	if(fs_hasTimeSupport()){
 298:file.c        **** 		file->DirEntry.AccessDate = time_getDate();
 299:file.c        **** 		if(file_getAttr(file,FILE_STATUS_WRITE)){
 300:file.c        **** 			file->DirEntry.FileSize = file->FileSize;
 301:file.c        **** 			file->DirEntry.WriteDate = file->DirEntry.AccessDate;
 302:file.c        **** 			file->DirEntry.WriteTime = time_getTime();
 303:file.c        **** 		}
 304:file.c        **** 		dir_updateDirectoryEntry(file->fs,&(file->DirEntry),&(file->Location));
 305:file.c        **** 	}else{
 306:file.c        **** 		if(file_getAttr(file,FILE_STATUS_WRITE)){
 307:file.c        **** 			dir_setFileSize(file->fs,&(file->Location),file->FileSize);
 308:file.c        **** 		}
 309:file.c        **** 	}
 310:file.c        **** 	
 311:file.c        **** 	memClr(file,sizeof(*file));
 312:file.c        **** 	file_setAttr(file,FILE_STATUS_OPEN,0);
 313:file.c        **** 	file_setAttr(file,FILE_STATUS_WRITE,0);
 314:file.c        **** 	return(0);
 315:file.c        **** }
 316:file.c        **** 
 317:file.c        **** 
 318:file.c        **** /* ****************************************************************************  
 319:file.c        ****  * void file_initFile(File *file, FileSystem *fs, FileLocation *loc)
 320:file.c        ****  * Description: This function initialises a new file object, by filling in
 321:file.c        ****  * the fs pointer, filesize (note, that DirEntry must already be filled in)
 322:file.c        ****  * and known cache parameters.
 323:file.c        ****  * Return value: void
 324:file.c        **** */
 325:file.c        **** void file_initFile(File *file, FileSystem *fs, FileLocation *loc)
 326:file.c        **** {
  43              		.loc 1 326 0
  44              		@ Function supports interworking.
  45              		@ args = 0, pretend = 0, frame = 0
  46              		@ frame_needed = 0, uses_anonymous_args = 0
  47              	.LVL2:
  48 001c 04E02DE5 		str	lr, [sp, #-4]!
  49              	.LCFI0:
 327:file.c        **** 	file->fs=fs;
 328:file.c        **** 	file->FileSize=file->DirEntry.FileSize;
  50              		.loc 1 328 0
  51 0020 1C3090E5 		ldr	r3, [r0, #28]
 329:file.c        **** 	file->FilePtr=0;
  52              		.loc 1 329 0
  53 0024 00C0A0E3 		mov	ip, #0
  54              		.loc 1 328 0
  55 0028 4C3080E5 		str	r3, [r0, #76]
  56              		.loc 1 327 0
  57 002c 281080E5 		str	r1, [r0, #40]
  58              		.loc 1 329 0
  59 0030 48C080E5 		str	ip, [r0, #72]
 330:file.c        **** 	file->Location.Sector=loc->Sector;
 331:file.c        **** 	file->Location.Offset=loc->Offset;
 332:file.c        **** 	file->Cache.Linear=0;
 333:file.c        **** 	file->Cache.FirstCluster=(((unsigned long)file->DirEntry.FirstClusterHigh)<<16)+ 
  60              		.loc 1 333 0
  61 0034 B411D0E1 		ldrh	r1, [r0, #20]
  62              	.LVL3:
ARM GAS  /cygdrive/c/DOCUME~1/mkwapisz/LOCALS~1/Temp/ccxvxtIe.s 			page 8


  63 0038 BA31D0E1 		ldrh	r3, [r0, #26]
  64              		.loc 1 331 0
  65 003c 04E0D2E5 		ldrb	lr, [r2, #4]	@ zero_extendqisi2
  66              		.loc 1 330 0
  67 0040 002092E5 		ldr	r2, [r2, #0]
  68              	.LVL4:
  69              		.loc 1 333 0
  70 0044 013883E0 		add	r3, r3, r1, asl #16
 334:file.c        **** 	                                    file->DirEntry.FirstClusterLow;
 335:file.c        **** 	file->Cache.LastCluster=0; 
 336:file.c        **** 	file->Cache.LogicCluster=0;
 337:file.c        **** 	file->Cache.DiscCluster=file->Cache.FirstCluster;
  71              		.loc 1 337 0
  72 0048 343080E5 		str	r3, [r0, #52]
  73              		.loc 1 330 0
  74 004c 202080E5 		str	r2, [r0, #32]
  75              		.loc 1 331 0
  76 0050 24E0C0E5 		strb	lr, [r0, #36]
  77              		.loc 1 336 0
  78 0054 30C080E5 		str	ip, [r0, #48]
  79              		.loc 1 332 0
  80 0058 2CC0C0E5 		strb	ip, [r0, #44]
  81              		.loc 1 333 0
  82 005c 383080E5 		str	r3, [r0, #56]
  83              		.loc 1 335 0
  84 0060 3CC080E5 		str	ip, [r0, #60]
 338:file.c        **** }
  85              		.loc 1 338 0
  86 0064 04E09DE4 		ldr	lr, [sp], #4
  87 0068 1EFF2FE1 		bx	lr
  88              	.LFE9:
  89              		.size	file_initFile, .-file_initFile
  90              		.align	2
  91              		.global	file_validateChar
  92              		.type	file_validateChar, %function
  93              	file_validateChar:
  94              	.LFB11:
 339:file.c        **** /*****************************************************************************/
 340:file.c        **** 
 341:file.c        **** /* ****************************************************************************  
 342:file.c        ****  * unsigned char* file_normalToFatName(char* filename,char* fatfilename)
 343:file.c        ****  * Description: This function converts a human readable filename (limited to 
 344:file.c        ****  * 8.3 char character) to a valid FAT (not VFAT) filename. Invalid characters are 
 345:file.c        ****  * changed to capital X and only the first 11 characters are used.
 346:file.c        ****  * Furthermore all letters are capitalised.
 347:file.c        ****  * Return value: pointer after the filename
 348:file.c        **** */
 349:file.c        **** char* file_normalToFatName(char* filename,char* fatfilename)
 350:file.c        **** {
 351:file.c        **** 	unsigned char c,dot=0,vc=0;
 352:file.c        **** 	
 353:file.c        **** 	for(c=0;c<11;c++)fatfilename[c]=' ';
 354:file.c        **** 	
 355:file.c        **** 	c=0;
 356:file.c        **** 	
 357:file.c        **** 	if(*filename == '.'){
 358:file.c        **** 		fatfilename[0]='.';
ARM GAS  /cygdrive/c/DOCUME~1/mkwapisz/LOCALS~1/Temp/ccxvxtIe.s 			page 9


 359:file.c        **** 		vc++; 
 360:file.c        **** 		if(*(filename+1) == '.'){
 361:file.c        **** 			fatfilename[1]='.';
 362:file.c        **** 			filename+=2;
 363:file.c        **** 		}else{
 364:file.c        **** 			filename++;
 365:file.c        **** 		}
 366:file.c        **** 	}else{
 367:file.c        **** 		while(*filename != '\0' && *filename != ' ' && *filename != '/'){
 368:file.c        **** 			if(*filename=='.' && !dot){
 369:file.c        **** 				dot=1;
 370:file.c        **** 				c=8;
 371:file.c        **** 			}else{
 372:file.c        **** 				if(dot){
 373:file.c        **** 					if(c<=10){
 374:file.c        **** 						fatfilename[c]=file_validateChar(*filename);
 375:file.c        **** 						c++; 
 376:file.c        **** 					}
 377:file.c        **** 				}else{
 378:file.c        **** 					if(c<=7){
 379:file.c        **** 						fatfilename[c]=file_validateChar(*filename);
 380:file.c        **** 						c++; vc++;
 381:file.c        **** 					}
 382:file.c        **** 				}
 383:file.c        **** 			}
 384:file.c        **** 			filename++;
 385:file.c        **** 		}
 386:file.c        **** 	}
 387:file.c        **** 	
 388:file.c        **** 	if(vc>0){
 389:file.c        **** 		if(*filename=='\0'){
 390:file.c        **** 			return(filename);
 391:file.c        **** 		}else{
 392:file.c        **** 			return(filename+1);
 393:file.c        **** 		}
 394:file.c        **** 	}else{
 395:file.c        **** 		return(0);
 396:file.c        **** 	}
 397:file.c        **** }
 398:file.c        **** /*****************************************************************************/
 399:file.c        **** 
 400:file.c        **** /* ****************************************************************************  
 401:file.c        ****  *
 402:file.c        ****  * Description: This function takes the character c, and if it is not a       *
 403:file.c        ****  * valid FAT Filename character returns X. If it is a lowercase letter the    *
 404:file.c        ****  * uppercase equivalent is returned. The remaining characters are returned    *
 405:file.c        ****  * as they are.      
 406:file.c        ****  * Return value: The validated char
 407:file.c        **** */
 408:file.c        **** unsigned char file_validateChar(unsigned char c)
 409:file.c        **** {
  95              		.loc 1 409 0
  96              		@ Function supports interworking.
  97              		@ args = 0, pretend = 0, frame = 0
  98              		@ frame_needed = 0, uses_anonymous_args = 0
  99              		@ link register save eliminated.
 100              	.LVL5:
ARM GAS  /cygdrive/c/DOCUME~1/mkwapisz/LOCALS~1/Temp/ccxvxtIe.s 			page 10


 101 006c FF0000E2 		and	r0, r0, #255
 410:file.c        ****     if( (c<0x20) || (c>0x20&&c<0x30&&c!='-') || (c>0x39&&c<0x41) || (c>0x5A&&c<0x61&&c!='_') ||	(c>
 102              		.loc 1 410 0
 103 0070 1F0050E3 		cmp	r0, #31
 104              		.loc 1 409 0
 105              		@ lr needed for prologue
 106              		.loc 1 410 0
 107 0074 213040E2 		sub	r3, r0, #33
 108 0078 1A00009A 		bls	.L9
 109 007c 0E0053E3 		cmp	r3, #14
 110 0080 0030A083 		movhi	r3, #0
 111 0084 0130A093 		movls	r3, #1
 112 0088 2D0050E3 		cmp	r0, #45
 113 008c 0030A003 		moveq	r3, #0
 114 0090 000053E3 		cmp	r3, #0
 115 0094 3A2040E2 		sub	r2, r0, #58
 116 0098 1200001A 		bne	.L9
 117 009c 060052E3 		cmp	r2, #6
 118 00a0 5B3040E2 		sub	r3, r0, #91
 119 00a4 0F00009A 		bls	.L9
 120 00a8 050053E3 		cmp	r3, #5
 121 00ac 0030A083 		movhi	r3, #0
 122 00b0 0130A093 		movls	r3, #1
 123 00b4 5F0050E3 		cmp	r0, #95
 124 00b8 0030A003 		moveq	r3, #0
 125 00bc 000053E3 		cmp	r3, #0
 126 00c0 0800001A 		bne	.L9
 127 00c4 7E0050E3 		cmp	r0, #126
 128 00c8 7A005013 		cmpne	r0, #122
 411:file.c        **** 		return(0x58);
 412:file.c        ****     if( c>=0x61 && c<=0x7A )
 129              		.loc 1 412 0
 130 00cc 612040E2 		sub	r2, r0, #97
 131              		.loc 1 410 0
 132 00d0 0400008A 		bhi	.L9
 413:file.c        **** 		return(c-32);
 133              		.loc 1 413 0
 134 00d4 203040E2 		sub	r3, r0, #32
 135              		.loc 1 412 0
 136 00d8 190052E3 		cmp	r2, #25
 137              		.loc 1 413 0
 138 00dc FF3003E2 		and	r3, r3, #255
 414:file.c        **** 
 415:file.c        **** 	return(c);
 139              		.loc 1 415 0
 140 00e0 0030A081 		movhi	r3, r0
 141 00e4 000000EA 		b	.L17
 142              	.L9:
 143 00e8 5830A0E3 		mov	r3, #88
 144              	.L17:
 416:file.c        **** }
 145              		.loc 1 416 0
 146 00ec 0300A0E1 		mov	r0, r3
 147              	.LVL6:
 148 00f0 1EFF2FE1 		bx	lr
 149              	.LFE11:
 150              		.size	file_validateChar, .-file_validateChar
ARM GAS  /cygdrive/c/DOCUME~1/mkwapisz/LOCALS~1/Temp/ccxvxtIe.s 			page 11


 151              		.align	2
 152              		.global	file_normalToFatName
 153              		.type	file_normalToFatName, %function
 154              	file_normalToFatName:
 155              	.LFB10:
 156              		.loc 1 350 0
 157              		@ Function supports interworking.
 158              		@ args = 0, pretend = 0, frame = 0
 159              		@ frame_needed = 0, uses_anonymous_args = 0
 160              	.LVL7:
 161 00f4 F0412DE9 		stmfd	sp!, {r4, r5, r6, r7, r8, lr}
 162              	.LCFI1:
 163              		.loc 1 350 0
 164 00f8 0020A0E3 		mov	r2, #0
 165 00fc 0040A0E1 		mov	r4, r0
 166 0100 0160A0E1 		mov	r6, r1
 167              	.LVL8:
 168              	.L20:
 169              		.loc 1 353 0
 170 0104 2030A0E3 		mov	r3, #32
 171 0108 0630C2E7 		strb	r3, [r2, r6]
 172 010c 012082E2 		add	r2, r2, #1
 173 0110 0B0052E3 		cmp	r2, #11
 174 0114 FAFFFF1A 		bne	.L20
 175              		.loc 1 357 0
 176 0118 0030D4E5 		ldrb	r3, [r4, #0]	@ zero_extendqisi2
 177 011c 2E0053E3 		cmp	r3, #46
 178 0120 0050A013 		movne	r5, #0
 179              	.LVL9:
 180 0124 0580A011 		movne	r8, r5
 181              	.LVL10:
 182 0128 0570A011 		movne	r7, r5
 183              	.LVL11:
 184 012c 2000001A 		bne	.L24
 185              		.loc 1 358 0
 186 0130 0030C6E5 		strb	r3, [r6, #0]
 187              		.loc 1 360 0
 188 0134 0120D4E5 		ldrb	r2, [r4, #1]	@ zero_extendqisi2
 189 0138 2E0052E3 		cmp	r2, #46
 190 013c 013084E2 		add	r3, r4, #1
 191              	.LVL12:
 192              		.loc 1 362 0
 193 0140 02308402 		addeq	r3, r4, #2
 194              		.loc 1 392 0
 195 0144 0340A0E1 		mov	r4, r3
 196              		.loc 1 361 0
 197 0148 0120C605 		streqb	r2, [r6, #1]
 198 014c 220000EA 		b	.L37
 199              	.LVL13:
 200              	.L27:
 201              		.loc 1 368 0
 202 0150 2E0050E3 		cmp	r0, #46
 203 0154 0030A013 		movne	r3, #0
 204 0158 01300302 		andeq	r3, r3, #1
 205 015c 000053E3 		cmp	r3, #0
 206 0160 0850A013 		movne	r5, #8
 207 0164 0180A013 		movne	r8, #1
ARM GAS  /cygdrive/c/DOCUME~1/mkwapisz/LOCALS~1/Temp/ccxvxtIe.s 			page 12


 208 0168 1000001A 		bne	.L30
 209              		.loc 1 372 0
 210 016c 000058E3 		cmp	r8, #0
 211 0170 0600000A 		beq	.L31
 212              		.loc 1 373 0
 213 0174 0A0055E3 		cmp	r5, #10
 214 0178 0C00008A 		bhi	.L30
 215              		.loc 1 374 0
 216 017c FEFFFFEB 		bl	file_validateChar
 217              		.loc 1 375 0
 218 0180 013085E2 		add	r3, r5, #1
 219              		.loc 1 374 0
 220 0184 0500C6E7 		strb	r0, [r6, r5]
 221              		.loc 1 375 0
 222 0188 FF5003E2 		and	r5, r3, #255
 223 018c 070000EA 		b	.L30
 224              	.LVL14:
 225              	.L31:
 226              		.loc 1 378 0
 227 0190 070055E3 		cmp	r5, #7
 228 0194 0500008A 		bhi	.L30
 229              		.loc 1 379 0
 230 0198 FEFFFFEB 		bl	file_validateChar
 231              		.loc 1 380 0
 232 019c 012085E2 		add	r2, r5, #1
 233 01a0 013087E2 		add	r3, r7, #1
 234              		.loc 1 379 0
 235 01a4 0500C6E7 		strb	r0, [r6, r5]
 236              		.loc 1 380 0
 237 01a8 FF7003E2 		and	r7, r3, #255
 238 01ac FF5002E2 		and	r5, r2, #255
 239              	.LVL15:
 240              	.L30:
 241              		.loc 1 384 0
 242 01b0 014084E2 		add	r4, r4, #1
 243              	.LVL16:
 244              	.L24:
 245              		.loc 1 367 0
 246 01b4 0000D4E5 		ldrb	r0, [r4, #0]	@ zero_extendqisi2
 247 01b8 000050E3 		cmp	r0, #0
 248 01bc 20005013 		cmpne	r0, #32
 249              		.loc 1 368 0
 250 01c0 013028E2 		eor	r3, r8, #1
 251              		.loc 1 367 0
 252 01c4 0100000A 		beq	.L35
 253 01c8 2F0050E3 		cmp	r0, #47
 254 01cc DFFFFF1A 		bne	.L27
 255              	.L35:
 256              		.loc 1 388 0
 257 01d0 000057E3 		cmp	r7, #0
 258 01d4 0740A001 		moveq	r4, r7
 259 01d8 0200000A 		beq	.L39
 260              	.LVL17:
 261              	.L37:
 262              		.loc 1 389 0
 263 01dc 0030D4E5 		ldrb	r3, [r4, #0]	@ zero_extendqisi2
 264              	.LVL18:
ARM GAS  /cygdrive/c/DOCUME~1/mkwapisz/LOCALS~1/Temp/ccxvxtIe.s 			page 13


 265 01e0 000053E3 		cmp	r3, #0
 266              		.loc 1 392 0
 267 01e4 01408412 		addne	r4, r4, #1
 268              	.L39:
 269              		.loc 1 397 0
 270 01e8 0400A0E1 		mov	r0, r4
 271 01ec F041BDE8 		ldmfd	sp!, {r4, r5, r6, r7, r8, lr}
 272 01f0 1EFF2FE1 		bx	lr
 273              	.LFE10:
 274              		.size	file_normalToFatName, .-file_normalToFatName
 275              		.align	2
 276              		.global	file_setAttr
 277              		.type	file_setAttr, %function
 278              	file_setAttr:
 279              	.LFB12:
 417:file.c        **** /*****************************************************************************/
 418:file.c        **** 
 419:file.c        **** /* ****************************************************************************  
 420:file.c        ****  * void ioman_setAttr(IOManager *ioman,unsigned short bufplace,unsigned char attribute,unsigned cha
 421:file.c        ****  * Description: This sets the attribute of 'bufplace' to the given value (binary).
 422:file.c        ****  *
 423:file.c        ****  * Return value: void
 424:file.c        **** */
 425:file.c        **** void file_setAttr(File* file,unsigned char attribute,unsigned char val)
 426:file.c        **** {
 280              		.loc 1 426 0
 281              		@ Function supports interworking.
 282              		@ args = 0, pretend = 0, frame = 0
 283              		@ frame_needed = 0, uses_anonymous_args = 0
 284              		@ link register save eliminated.
 285              	.LVL19:
 427:file.c        **** 	if(val){
 286              		.loc 1 427 0
 287 01f4 FF0012E3 		tst	r2, #255
 288              		.loc 1 426 0
 289 01f8 FF2001E2 		and	r2, r1, #255
 290              	.LVL20:
 291 01fc 4410D0E5 		ldrb	r1, [r0, #68]	@ zero_extendqisi2
 292              	.LVL21:
 428:file.c        **** 		file->FileStatus|=1<<attribute;
 293              		.loc 1 428 0
 294 0200 0130A013 		movne	r3, #1
 429:file.c        **** 	}else{
 430:file.c        **** 		file->FileStatus&=~(1<<attribute);
 295              		.loc 1 430 0
 296 0204 0130A003 		moveq	r3, #1
 297              		.loc 1 428 0
 298 0208 13328111 		orrne	r3, r1, r3, asl r2
 299              		.loc 1 430 0
 300 020c 1332C101 		biceq	r3, r1, r3, asl r2
 301              		.loc 1 426 0
 302              		@ lr needed for prologue
 303              		.loc 1 430 0
 304 0210 4430C0E5 		strb	r3, [r0, #68]
 305 0214 1EFF2FE1 		bx	lr
 306              	.LFE12:
 307              		.size	file_setAttr, .-file_setAttr
ARM GAS  /cygdrive/c/DOCUME~1/mkwapisz/LOCALS~1/Temp/ccxvxtIe.s 			page 14


 308              		.align	2
 309              		.global	file_getAttr
 310              		.type	file_getAttr, %function
 311              	file_getAttr:
 312              	.LFB13:
 431:file.c        **** 	}
 432:file.c        **** }
 433:file.c        **** /*****************************************************************************/
 434:file.c        **** 
 435:file.c        **** /* ****************************************************************************  
 436:file.c        ****  * unsigned char ioman_getAttr(IOManager *ioman,unsigned short bufplace,unsigned char attribute)
 437:file.c        ****  * Description: This function retrieves an attribute from the bufstat array.
 438:file.c        ****  * It returns nonzero when it attribute is true and 0 when it is false.
 439:file.c        ****  * Please note, I said "nonzero", not 1.
 440:file.c        ****  * Return value: Attribute.
 441:file.c        **** */
 442:file.c        **** unsigned char file_getAttr(File* file,unsigned char attribute)
 443:file.c        **** {
 313              		.loc 1 443 0
 314              		@ Function supports interworking.
 315              		@ args = 0, pretend = 0, frame = 0
 316              		@ frame_needed = 0, uses_anonymous_args = 0
 317              		@ link register save eliminated.
 318              	.LVL22:
 319 0218 4430D0E5 		ldrb	r3, [r0, #68]	@ zero_extendqisi2
 320 021c FF1001E2 		and	r1, r1, #255
 444:file.c        **** 	return(file->FileStatus&(1<<attribute));
 445:file.c        **** }
 321              		.loc 1 445 0
 322 0220 0100A0E3 		mov	r0, #1
 323              	.LVL23:
 324 0224 100103E0 		and	r0, r3, r0, asl r1
 325              		.loc 1 443 0
 326              		@ lr needed for prologue
 327              		.loc 1 445 0
 328 0228 1EFF2FE1 		bx	lr
 329              	.LFE13:
 330              		.size	file_getAttr, .-file_getAttr
 331              		.global	__udivsi3
 332              		.align	2
 333              		.global	file_requiredCluster
 334              		.type	file_requiredCluster, %function
 335              	file_requiredCluster:
 336              	.LFB14:
 446:file.c        **** /*****************************************************************************/
 447:file.c        **** 
 448:file.c        **** unsigned long file_requiredCluster(File *file,unsigned long offset, unsigned long size)
 449:file.c        **** {
 337              		.loc 1 449 0
 338              		@ Function supports interworking.
 339              		@ args = 0, pretend = 0, frame = 0
 340              		@ frame_needed = 0, uses_anonymous_args = 0
 341              	.LVL24:
 450:file.c        **** 	unsigned long clusters_required,clustersize;
 451:file.c        **** 	unsigned long hc;
 452:file.c        **** 
 453:file.c        **** 	if((offset+size)>file->FileSize){
ARM GAS  /cygdrive/c/DOCUME~1/mkwapisz/LOCALS~1/Temp/ccxvxtIe.s 			page 15


 342              		.loc 1 453 0
 343 022c 4C3090E5 		ldr	r3, [r0, #76]
 344              		.loc 1 449 0
 345 0230 F0452DE9 		stmfd	sp!, {r4, r5, r6, r7, r8, sl, lr}
 346              	.LCFI2:
 347              		.loc 1 453 0
 348 0234 02A081E0 		add	sl, r1, r2
 349 0238 03005AE1 		cmp	sl, r3
 350              		.loc 1 449 0
 351 023c 0040A0E1 		mov	r4, r0
 352 0240 0270A0E1 		mov	r7, r2
 353 0244 0180A0E1 		mov	r8, r1
 354              		.loc 1 453 0
 355 0248 1D00009A 		bls	.L53
 356              	.LVL25:
 454:file.c        **** 		if(file->Cache.ClusterCount==0){ /* Number of cluster unknown */
 357              		.loc 1 454 0
 358 024c 406090E5 		ldr	r6, [r0, #64]
 359              	.LVL26:
 360 0250 000056E3 		cmp	r6, #0
 361 0254 0400001A 		bne	.L55
 362              	.LVL27:
 455:file.c        **** 			hc = fat_countClustersInChain(file->fs,file->Cache.FirstCluster);
 363              		.loc 1 455 0
 364 0258 381090E5 		ldr	r1, [r0, #56]
 365 025c 280090E5 		ldr	r0, [r0, #40]
 366              	.LVL28:
 367 0260 FEFFFFEB 		bl	fat_countClustersInChain
 456:file.c        **** 			file->Cache.ClusterCount = hc;
 368              		.loc 1 456 0
 369 0264 400084E5 		str	r0, [r4, #64]
 370              		.loc 1 455 0
 371 0268 0060A0E1 		mov	r6, r0
 372              	.LVL29:
 373              	.L55:
 457:file.c        **** 		}else{
 458:file.c        **** 			hc = file->Cache.ClusterCount; /* This better be right */
 459:file.c        **** 		}
 460:file.c        **** 		clustersize = file->fs->volumeId.BytesPerSector * file->fs->volumeId.SectorsPerCluster;
 374              		.loc 1 460 0
 375 026c 283094E5 		ldr	r3, [r4, #40]
 376 0270 0620D3E5 		ldrb	r2, [r3, #6]	@ zero_extendqisi2
 377 0274 B430D3E1 		ldrh	r3, [r3, #4]
 378 0278 920305E0 		mul	r5, r2, r3
 379              	.LVL30:
 461:file.c        **** 		if((size-file->FileSize+offset)>
 380              		.loc 1 461 0
 381 027c 4C4094E5 		ldr	r4, [r4, #76]
 382              	.LVL31:
 383 0280 050084E0 		add	r0, r4, r5
 384              	.LVL32:
 385 0284 0510A0E1 		mov	r1, r5
 386 0288 010040E2 		sub	r0, r0, #1
 387 028c FEFFFFEB 		bl	__udivsi3
 388 0290 060060E0 		rsb	r0, r0, r6
 389 0294 950003E0 		mul	r3, r5, r0
 390 0298 074064E0 		rsb	r4, r4, r7
ARM GAS  /cygdrive/c/DOCUME~1/mkwapisz/LOCALS~1/Temp/ccxvxtIe.s 			page 16


 391 029c 084084E0 		add	r4, r4, r8
 392 02a0 030054E1 		cmp	r4, r3
 462:file.c        **** 		   ((hc-((file->FileSize+clustersize-1)/clustersize))*clustersize)){
 463:file.c        **** 			clusters_required = (((offset+size)-(hc*clustersize))+clustersize-1)/clustersize;
 393              		.loc 1 463 0
 394 02a4 0510A0E1 		mov	r1, r5
 395              		.loc 1 461 0
 396 02a8 0500009A 		bls	.L53
 397              	.LVL33:
 398              		.loc 1 463 0
 399 02ac 950600E0 		mul	r0, r5, r6
 400 02b0 0A0060E0 		rsb	r0, r0, sl
 401 02b4 050080E0 		add	r0, r0, r5
 402 02b8 010040E2 		sub	r0, r0, #1
 403 02bc FEFFFFEB 		bl	__udivsi3
 404              	.LVL34:
 405 02c0 000000EA 		b	.L58
 406              	.LVL35:
 407              	.L53:
 408 02c4 0000A0E3 		mov	r0, #0
 409              	.LVL36:
 410              	.L58:
 411              	.LVL37:
 464:file.c        **** 		}else{
 465:file.c        **** 			clusters_required = 0;
 466:file.c        **** 		}
 467:file.c        **** 	}else{
 468:file.c        **** 		clusters_required = 0;
 469:file.c        **** 	}
 470:file.c        **** 	return(clusters_required);
 471:file.c        **** }
 412              		.loc 1 471 0
 413 02c8 F045BDE8 		ldmfd	sp!, {r4, r5, r6, r7, r8, sl, lr}
 414 02cc 1EFF2FE1 		bx	lr
 415              	.LFE14:
 416              		.size	file_requiredCluster, .-file_requiredCluster
 417              		.global	__umodsi3
 418              		.align	2
 419              		.global	file_fwrite
 420              		.type	file_fwrite, %function
 421              	file_fwrite:
 422              	.LFB6:
 423              		.loc 1 121 0
 424              		@ Function supports interworking.
 425              		@ args = 0, pretend = 0, frame = 8
 426              		@ frame_needed = 0, uses_anonymous_args = 0
 427              	.LVL38:
 428 02d0 F04F2DE9 		stmfd	sp!, {r4, r5, r6, r7, r8, r9, sl, fp, lr}
 429              	.LCFI3:
 430              	.LBB8:
 431              	.LBB9:
 432              		.loc 1 444 0
 433 02d4 44C0D0E5 		ldrb	ip, [r0, #68]	@ zero_extendqisi2
 434              	.LBE9:
 435              	.LBE8:
 436              		.loc 1 121 0
 437 02d8 08D04DE2 		sub	sp, sp, #8
ARM GAS  /cygdrive/c/DOCUME~1/mkwapisz/LOCALS~1/Temp/ccxvxtIe.s 			page 17


 438              	.LCFI4:
 439              		.loc 1 130 0
 440 02dc 01001CE3 		tst	ip, #1
 441              		.loc 1 121 0
 442 02e0 0050A0E1 		mov	r5, r0
 443 02e4 0140A0E1 		mov	r4, r1
 444 02e8 00308DE5 		str	r3, [sp, #0]
 445 02ec 0260A0E1 		mov	r6, r2
 446              		.loc 1 130 0
 447 02f0 5B00000A 		beq	.L61
 448              	.LVL39:
 449 02f4 02001CE3 		tst	ip, #2
 450 02f8 5900000A 		beq	.L61
 451 02fc 4C3090E5 		ldr	r3, [r0, #76]
 452 0300 030051E1 		cmp	r1, r3
 453 0304 0130A031 		movcc	r3, r1
 454              		.loc 1 136 0
 455 0308 0310A0E1 		mov	r1, r3
 456              	.LVL40:
 457              		.loc 1 130 0
 458 030c 04308DE5 		str	r3, [sp, #4]
 459              		.loc 1 136 0
 460 0310 FEFFFFEB 		bl	file_requiredCluster
 461              	.LVL41:
 462              		.loc 1 138 0
 463 0314 000050E3 		cmp	r0, #0
 464              	.LVL42:
 465 0318 0500000A 		beq	.L64
 466              		.loc 1 139 0
 467 031c 0020A0E1 		mov	r2, r0
 468 0320 2C1085E2 		add	r1, r5, #44
 469 0324 280095E5 		ldr	r0, [r5, #40]
 470              	.LVL43:
 471 0328 FEFFFFEB 		bl	fat_allocClusterChain
 472              	.LVL44:
 473 032c 0008B0E1 		movs	r0, r0, asl #16
 474 0330 4B00001A 		bne	.L61
 475              	.LVL45:
 476              	.L64:
 477 0334 0690A0E1 		mov	r9, r6
 478              	.LVL46:
 479 0338 04A0A0E1 		mov	sl, r4
 480              	.LVL47:
 481 033c 00B0A0E3 		mov	fp, #0
 482              	.LVL48:
 483 0340 320000EA 		b	.L66
 484              	.LVL49:
 485              	.L67:
 486              		.loc 1 146 0
 487 0344 284095E5 		ldr	r4, [r5, #40]
 488              	.LVL50:
 489              		.loc 1 150 0
 490 0348 020C59E3 		cmp	r9, #512
 491 034c 00005823 		cmpcs	r8, #0
 492              		.loc 1 146 0
 493 0350 0660D4E5 		ldrb	r6, [r4, #6]	@ zero_extendqisi2
 494              	.LVL51:
ARM GAS  /cygdrive/c/DOCUME~1/mkwapisz/LOCALS~1/Temp/ccxvxtIe.s 			page 18


 495              		.loc 1 150 0
 496 0354 0300000A 		beq	.L70
 497              		.loc 1 151 0
 498 0358 030059E1 		cmp	r9, r3
 499 035c 0930A031 		movcc	r3, r9
 500 0360 0338A0E1 		mov	r3, r3, asl #16
 501 0364 2378A0E1 		mov	r7, r3, lsr #16
 502              	.L70:
 503              		.loc 1 156 0
 504 0368 8614A0E1 		mov	r1, r6, asl #9
 505 036c 0A00A0E1 		mov	r0, sl
 506              	.LVL52:
 507 0370 FEFFFFEB 		bl	__udivsi3
 508 0374 2C1085E2 		add	r1, r5, #44
 509 0378 0020A0E1 		mov	r2, r0
 510 037c 0400A0E1 		mov	r0, r4
 511 0380 FEFFFFEB 		bl	fat_LogicToDiscCluster
 512 0384 0008B0E1 		movs	r0, r0, asl #16
 513              		.loc 1 147 0
 514 0388 0610A0E1 		mov	r1, r6
 515 038c AA04A0E1 		mov	r0, sl, lsr #9
 516              		.loc 1 156 0
 517 0390 2C00001A 		bne	.L80
 518              		.loc 1 147 0
 519 0394 FEFFFFEB 		bl	__umodsi3
 520              		.loc 1 162 0
 521 0398 341095E5 		ldr	r1, [r5, #52]
 522              		.loc 1 147 0
 523 039c 0040A0E1 		mov	r4, r0
 524              	.LVL53:
 525              		.loc 1 162 0
 526 03a0 280095E5 		ldr	r0, [r5, #40]
 527 03a4 FEFFFFEB 		bl	fs_clusterToSector
 528 03a8 00C09DE5 		ldr	ip, [sp, #0]
 529 03ac 043080E0 		add	r3, r0, r4
 530              		.loc 1 164 0
 531 03b0 020C57E3 		cmp	r7, #512
 532              		.loc 1 169 0
 533 03b4 0220A0E3 		mov	r2, #2
 534 03b8 0310A0E1 		mov	r1, r3
 535 03bc 280095E5 		ldr	r0, [r5, #40]
 536 03c0 0B608CE0 		add	r6, ip, fp
 537              		.loc 1 164 0
 538 03c4 0300001A 		bne	.L74
 539              		.loc 1 166 0
 540 03c8 0620A0E1 		mov	r2, r6
 541 03cc 000090E5 		ldr	r0, [r0, #0]
 542 03d0 FEFFFFEB 		bl	part_directSectorWrite
 543 03d4 0A0000EA 		b	.L76
 544              	.L74:
 545              		.loc 1 169 0
 546 03d8 000090E5 		ldr	r0, [r0, #0]
 547 03dc FEFFFFEB 		bl	part_getSect
 548 03e0 0040A0E1 		mov	r4, r0
 549              	.LVL54:
 550              		.loc 1 170 0
 551 03e4 081084E0 		add	r1, r4, r8
ARM GAS  /cygdrive/c/DOCUME~1/mkwapisz/LOCALS~1/Temp/ccxvxtIe.s 			page 19


 552 03e8 0600A0E1 		mov	r0, r6
 553 03ec 0720A0E1 		mov	r2, r7
 554 03f0 FEFFFFEB 		bl	memCpy
 555              		.loc 1 172 0
 556 03f4 283095E5 		ldr	r3, [r5, #40]
 557 03f8 0410A0E1 		mov	r1, r4
 558 03fc 000093E5 		ldr	r0, [r3, #0]
 559 0400 FEFFFFEB 		bl	part_relSect
 560              	.LVL55:
 561              	.L76:
 562              		.loc 1 177 0
 563 0404 099067E0 		rsb	r9, r7, r9
 564              		.loc 1 175 0
 565 0408 07A08AE0 		add	sl, sl, r7
 566              		.loc 1 176 0
 567 040c 07B08BE0 		add	fp, fp, r7
 568              	.LVL56:
 569              	.L66:
 570              		.loc 1 148 0
 571 0410 8A8BA0E1 		mov	r8, sl, asl #23
 572 0414 A88BA0E1 		mov	r8, r8, lsr #23
 573              		.loc 1 144 0
 574 0418 000059E3 		cmp	r9, #0
 575              		.loc 1 151 0
 576 041c 023C68E2 		rsb	r3, r8, #512
 577              		.loc 1 150 0
 578 0420 027CA0E3 		mov	r7, #512
 579              		.loc 1 144 0
 580 0424 C6FFFF1A 		bne	.L67
 581              		.loc 1 180 0
 582 0428 04309DE5 		ldr	r3, [sp, #4]
 583 042c 4C2095E5 		ldr	r2, [r5, #76]
 584 0430 021063E0 		rsb	r1, r3, r2
 585 0434 01005BE1 		cmp	fp, r1
 586              		.loc 1 181 0
 587 0438 0B306180 		rsbhi	r3, r1, fp
 588 043c 03308280 		addhi	r3, r2, r3
 589 0440 4C308585 		strhi	r3, [r5, #76]
 590 0444 070000EA 		b	.L73
 591              	.LVL57:
 592              	.L80:
 593              		.loc 1 157 0
 594 0448 4C2095E5 		ldr	r2, [r5, #76]
 595 044c 0B2082E0 		add	r2, r2, fp
 596 0450 4C2085E5 		str	r2, [r5, #76]
 597              		.loc 1 158 0
 598 0454 201085E2 		add	r1, r5, #32
 599 0458 280095E5 		ldr	r0, [r5, #40]
 600 045c FEFFFFEB 		bl	dir_setFileSize
 601 0460 000000EA 		b	.L73
 602              	.LVL58:
 603              	.L61:
 604              		.loc 1 181 0
 605 0464 00B0A0E3 		mov	fp, #0
 606              	.LVL59:
 607              	.L73:
 608              		.loc 1 185 0
ARM GAS  /cygdrive/c/DOCUME~1/mkwapisz/LOCALS~1/Temp/ccxvxtIe.s 			page 20


 609 0468 0B00A0E1 		mov	r0, fp
 610              	.LVL60:
 611 046c 08D08DE2 		add	sp, sp, #8
 612 0470 F04FBDE8 		ldmfd	sp!, {r4, r5, r6, r7, r8, r9, sl, fp, lr}
 613 0474 1EFF2FE1 		bx	lr
 614              	.LFE6:
 615              		.size	file_fwrite, .-file_fwrite
 616              		.align	2
 617              		.global	file_write
 618              		.type	file_write, %function
 619              	file_write:
 620              	.LFB4:
 621              		.loc 1 89 0
 622              		@ Function supports interworking.
 623              		@ args = 0, pretend = 0, frame = 0
 624              		@ frame_needed = 0, uses_anonymous_args = 0
 625              	.LVL61:
 626 0478 10402DE9 		stmfd	sp!, {r4, lr}
 627              	.LCFI5:
 628              		.loc 1 89 0
 629 047c 0230A0E1 		mov	r3, r2
 630              		.loc 1 92 0
 631 0480 0120A0E1 		mov	r2, r1
 632              	.LVL62:
 633 0484 481090E5 		ldr	r1, [r0, #72]
 634              	.LVL63:
 635              		.loc 1 89 0
 636 0488 0040A0E1 		mov	r4, r0
 637              		.loc 1 92 0
 638 048c FEFFFFEB 		bl	file_fwrite
 639              	.LVL64:
 640              		.loc 1 93 0
 641 0490 483094E5 		ldr	r3, [r4, #72]
 642 0494 003083E0 		add	r3, r3, r0
 643 0498 483084E5 		str	r3, [r4, #72]
 644              		.loc 1 95 0
 645 049c 1040BDE8 		ldmfd	sp!, {r4, lr}
 646 04a0 1EFF2FE1 		bx	lr
 647              	.LFE4:
 648              		.size	file_write, .-file_write
 649              		.align	2
 650              		.global	file_fread
 651              		.type	file_fread, %function
 652              	file_fread:
 653              	.LFB2:
 654              		.loc 1 13 0
 655              		@ Function supports interworking.
 656              		@ args = 0, pretend = 0, frame = 4
 657              		@ frame_needed = 0, uses_anonymous_args = 0
 658              	.LVL65:
 659 04a4 F04F2DE9 		stmfd	sp!, {r4, r5, r6, r7, r8, r9, sl, fp, lr}
 660              	.LCFI6:
 661 04a8 0050A0E1 		mov	r5, r0
 662              		.loc 1 20 0
 663 04ac 4400D0E5 		ldrb	r0, [r0, #68]	@ zero_extendqisi2
 664              	.LVL66:
 665              		.loc 1 13 0
ARM GAS  /cygdrive/c/DOCUME~1/mkwapisz/LOCALS~1/Temp/ccxvxtIe.s 			page 21


 666 04b0 04D04DE2 		sub	sp, sp, #4
 667              	.LCFI7:
 668              		.loc 1 20 0
 669 04b4 010010E3 		tst	r0, #1
 670              		.loc 1 13 0
 671 04b8 02C0A0E1 		mov	ip, r2
 672 04bc 0100A0E1 		mov	r0, r1
 673 04c0 00308DE5 		str	r3, [sp, #0]
 674              		.loc 1 20 0
 675 04c4 4400000A 		beq	.L84
 676              	.LVL67:
 677              		.loc 1 22 0
 678 04c8 4C2095E5 		ldr	r2, [r5, #76]
 679 04cc 020051E1 		cmp	r1, r2
 680 04d0 0090A023 		movcs	r9, #0
 681              	.LVL68:
 682 04d4 0400002A 		bcs	.L88
 683              	.LVL69:
 684              		.loc 1 25 0
 685 04d8 0C3081E0 		add	r3, r1, ip
 686 04dc 00005CE3 		cmp	ip, #0
 687 04e0 02005311 		cmpne	r3, r2
 688 04e4 0C90A091 		movls	r9, ip
 689              		.loc 1 26 0
 690 04e8 02906180 		rsbhi	r9, r1, r2
 691              	.LVL70:
 692              	.L88:
 693 04ec 00A0A0E1 		mov	sl, r0
 694              	.LVL71:
 695 04f0 00B0A0E3 		mov	fp, #0
 696              	.LVL72:
 697 04f4 310000EA 		b	.L91
 698              	.LVL73:
 699              	.L92:
 700              		.loc 1 30 0
 701 04f8 284095E5 		ldr	r4, [r5, #40]
 702              	.LVL74:
 703              		.loc 1 34 0
 704 04fc 020C59E3 		cmp	r9, #512
 705 0500 00005723 		cmpcs	r7, #0
 706              		.loc 1 30 0
 707 0504 0660D4E5 		ldrb	r6, [r4, #6]	@ zero_extendqisi2
 708              		.loc 1 34 0
 709 0508 0200000A 		beq	.L95
 710              		.loc 1 35 0
 711 050c 030059E1 		cmp	r9, r3
 712 0510 0980A031 		movcc	r8, r9
 713 0514 0380A021 		movcs	r8, r3
 714              	.L95:
 715              		.loc 1 40 0
 716 0518 8614A0E1 		mov	r1, r6, asl #9
 717 051c 0A00A0E1 		mov	r0, sl
 718              	.LVL75:
 719 0520 FEFFFFEB 		bl	__udivsi3
 720              	.LVL76:
 721 0524 2C1085E2 		add	r1, r5, #44
 722 0528 0020A0E1 		mov	r2, r0
ARM GAS  /cygdrive/c/DOCUME~1/mkwapisz/LOCALS~1/Temp/ccxvxtIe.s 			page 22


 723 052c 0400A0E1 		mov	r0, r4
 724 0530 FEFFFFEB 		bl	fat_LogicToDiscCluster
 725 0534 0008B0E1 		movs	r0, r0, asl #16
 726              		.loc 1 31 0
 727 0538 0610A0E1 		mov	r1, r6
 728 053c AA04A0E1 		mov	r0, sl, lsr #9
 729              		.loc 1 40 0
 730 0540 2500001A 		bne	.L84
 731              		.loc 1 31 0
 732 0544 FEFFFFEB 		bl	__umodsi3
 733              		.loc 1 44 0
 734 0548 341095E5 		ldr	r1, [r5, #52]
 735              		.loc 1 31 0
 736 054c 0040A0E1 		mov	r4, r0
 737              	.LVL77:
 738              		.loc 1 44 0
 739 0550 280095E5 		ldr	r0, [r5, #40]
 740 0554 FEFFFFEB 		bl	fs_clusterToSector
 741 0558 00C09DE5 		ldr	ip, [sp, #0]
 742 055c 043080E0 		add	r3, r0, r4
 743              		.loc 1 47 0
 744 0560 020C58E3 		cmp	r8, #512
 745              		.loc 1 52 0
 746 0564 0120A0E3 		mov	r2, #1
 747 0568 0310A0E1 		mov	r1, r3
 748 056c 280095E5 		ldr	r0, [r5, #40]
 749 0570 0B608CE0 		add	r6, ip, fp
 750              		.loc 1 47 0
 751 0574 0300001A 		bne	.L97
 752              		.loc 1 49 0
 753 0578 0620A0E1 		mov	r2, r6
 754 057c 000090E5 		ldr	r0, [r0, #0]
 755 0580 FEFFFFEB 		bl	part_directSectorRead
 756 0584 0A0000EA 		b	.L99
 757              	.L97:
 758              		.loc 1 52 0
 759 0588 000090E5 		ldr	r0, [r0, #0]
 760 058c FEFFFFEB 		bl	part_getSect
 761              		.loc 1 53 0
 762 0590 0610A0E1 		mov	r1, r6
 763              		.loc 1 52 0
 764 0594 0040A0E1 		mov	r4, r0
 765              	.LVL78:
 766              		.loc 1 53 0
 767 0598 0820A0E1 		mov	r2, r8
 768 059c 070080E0 		add	r0, r0, r7
 769 05a0 FEFFFFEB 		bl	memCpy
 770              		.loc 1 54 0
 771 05a4 283095E5 		ldr	r3, [r5, #40]
 772 05a8 0410A0E1 		mov	r1, r4
 773 05ac 000093E5 		ldr	r0, [r3, #0]
 774 05b0 FEFFFFEB 		bl	part_relSect
 775              	.LVL79:
 776              	.L99:
 777              		.loc 1 59 0
 778 05b4 099068E0 		rsb	r9, r8, r9
 779              		.loc 1 57 0
ARM GAS  /cygdrive/c/DOCUME~1/mkwapisz/LOCALS~1/Temp/ccxvxtIe.s 			page 23


 780 05b8 08A08AE0 		add	sl, sl, r8
 781              		.loc 1 58 0
 782 05bc 08B08BE0 		add	fp, fp, r8
 783              	.LVL80:
 784              	.L91:
 785              		.loc 1 32 0
 786 05c0 8A7BA0E1 		mov	r7, sl, asl #23
 787 05c4 A77BA0E1 		mov	r7, r7, lsr #23
 788              		.loc 1 28 0
 789 05c8 000059E3 		cmp	r9, #0
 790              		.loc 1 35 0
 791 05cc 023C67E2 		rsb	r3, r7, #512
 792              		.loc 1 34 0
 793 05d0 028CA0E3 		mov	r8, #512
 794              		.loc 1 28 0
 795 05d4 C7FFFF1A 		bne	.L92
 796 05d8 000000EA 		b	.L100
 797              	.LVL81:
 798              	.L84:
 799 05dc 00B0A0E3 		mov	fp, #0
 800              	.LVL82:
 801              	.L100:
 802              		.loc 1 63 0
 803 05e0 0B00A0E1 		mov	r0, fp
 804              	.LVL83:
 805 05e4 04D08DE2 		add	sp, sp, #4
 806 05e8 F04FBDE8 		ldmfd	sp!, {r4, r5, r6, r7, r8, r9, sl, fp, lr}
 807 05ec 1EFF2FE1 		bx	lr
 808              	.LFE2:
 809              		.size	file_fread, .-file_fread
 810              		.align	2
 811              		.global	file_read
 812              		.type	file_read, %function
 813              	file_read:
 814              	.LFB3:
 815              		.loc 1 73 0
 816              		@ Function supports interworking.
 817              		@ args = 0, pretend = 0, frame = 0
 818              		@ frame_needed = 0, uses_anonymous_args = 0
 819              	.LVL84:
 820 05f0 10402DE9 		stmfd	sp!, {r4, lr}
 821              	.LCFI8:
 822              		.loc 1 73 0
 823 05f4 0230A0E1 		mov	r3, r2
 824              		.loc 1 76 0
 825 05f8 0120A0E1 		mov	r2, r1
 826              	.LVL85:
 827 05fc 481090E5 		ldr	r1, [r0, #72]
 828              	.LVL86:
 829              		.loc 1 73 0
 830 0600 0040A0E1 		mov	r4, r0
 831              		.loc 1 76 0
 832 0604 FEFFFFEB 		bl	file_fread
 833              	.LVL87:
 834              		.loc 1 77 0
 835 0608 483094E5 		ldr	r3, [r4, #72]
 836 060c 003083E0 		add	r3, r3, r0
ARM GAS  /cygdrive/c/DOCUME~1/mkwapisz/LOCALS~1/Temp/ccxvxtIe.s 			page 24


 837 0610 483084E5 		str	r3, [r4, #72]
 838              		.loc 1 79 0
 839 0614 1040BDE8 		ldmfd	sp!, {r4, lr}
 840 0618 1EFF2FE1 		bx	lr
 841              	.LFE3:
 842              		.size	file_read, .-file_read
 843              		.align	2
 844              		.global	file_fclose
 845              		.type	file_fclose, %function
 846              	file_fclose:
 847              	.LFB8:
 848              		.loc 1 296 0
 849              		@ Function supports interworking.
 850              		@ args = 0, pretend = 0, frame = 0
 851              		@ frame_needed = 0, uses_anonymous_args = 0
 852              	.LVL88:
 853 061c 10402DE9 		stmfd	sp!, {r4, lr}
 854              	.LCFI9:
 855              		.loc 1 296 0
 856 0620 0040A0E1 		mov	r4, r0
 857              		.loc 1 297 0
 858 0624 FEFFFFEB 		bl	fs_hasTimeSupport
 859              	.LVL89:
 860 0628 000050E3 		cmp	r0, #0
 861              		.loc 1 304 0
 862 062c 0410A0E1 		mov	r1, r4
 863 0630 202084E2 		add	r2, r4, #32
 864 0634 4430D4E5 		ldrb	r3, [r4, #68]	@ zero_extendqisi2
 865              		.loc 1 297 0
 866 0638 0900000A 		beq	.L105
 867              		.loc 1 299 0
 868 063c 020013E3 		tst	r3, #2
 869              		.loc 1 300 0
 870 0640 4C309415 		ldrne	r3, [r4, #76]
 871              		.loc 1 298 0
 872 0644 0000A0E3 		mov	r0, #0	@ movhi
 873 0648 B201C4E1 		strh	r0, [r4, #18]	@ movhi
 874              		.loc 1 301 0
 875 064c B801C411 		strneh	r0, [r4, #24]	@ movhi
 876              		.loc 1 302 0
 877 0650 B601C411 		strneh	r0, [r4, #22]	@ movhi
 878              		.loc 1 300 0
 879 0654 1C308415 		strne	r3, [r4, #28]
 880              		.loc 1 304 0
 881 0658 280094E5 		ldr	r0, [r4, #40]
 882 065c FEFFFFEB 		bl	dir_updateDirectoryEntry
 883 0660 040000EA 		b	.L109
 884              	.LVL90:
 885              	.L105:
 886              		.loc 1 306 0
 887 0664 020013E3 		tst	r3, #2
 888              		.loc 1 307 0
 889 0668 201084E2 		add	r1, r4, #32
 890              		.loc 1 306 0
 891              		.loc 1 307 0
 892 066c 4C209415 		ldrne	r2, [r4, #76]
 893 0670 28009415 		ldrne	r0, [r4, #40]
ARM GAS  /cygdrive/c/DOCUME~1/mkwapisz/LOCALS~1/Temp/ccxvxtIe.s 			page 25


 894 0674 FEFFFF1B 		blne	dir_setFileSize
 895              	.L109:
 896              		.loc 1 311 0
 897 0678 0400A0E1 		mov	r0, r4
 898 067c 5010A0E3 		mov	r1, #80
 899 0680 FEFFFFEB 		bl	memClr
 900              		.loc 1 312 0
 901 0684 0010A0E3 		mov	r1, #0
 902 0688 0400A0E1 		mov	r0, r4
 903 068c 0120A0E1 		mov	r2, r1
 904 0690 FEFFFFEB 		bl	file_setAttr
 905              		.loc 1 313 0
 906 0694 0400A0E1 		mov	r0, r4
 907 0698 0110A0E3 		mov	r1, #1
 908 069c 0020A0E3 		mov	r2, #0
 909 06a0 FEFFFFEB 		bl	file_setAttr
 910              		.loc 1 315 0
 911 06a4 0000A0E3 		mov	r0, #0
 912 06a8 1040BDE8 		ldmfd	sp!, {r4, lr}
 913 06ac 1EFF2FE1 		bx	lr
 914              	.LFE8:
 915              		.size	file_fclose, .-file_fclose
 916              		.align	2
 917              		.global	file_fopen
 918              		.type	file_fopen, %function
 919              	file_fopen:
 920              	.LFB7:
 921              		.loc 1 194 0
 922              		@ Function supports interworking.
 923              		@ args = 0, pretend = 0, frame = 56
 924              		@ frame_needed = 0, uses_anonymous_args = 0
 925              	.LVL91:
 926 06b0 F0472DE9 		stmfd	sp!, {r4, r5, r6, r7, r8, r9, sl, lr}
 927              	.LCFI10:
 928 06b4 38D04DE2 		sub	sp, sp, #56
 929              	.LCFI11:
 930              		.loc 1 200 0
 931 06b8 21908DE2 		add	r9, sp, #33
 932              		.loc 1 194 0
 933 06bc FF4003E2 		and	r4, r3, #255
 934 06c0 0050A0E1 		mov	r5, r0
 935 06c4 0160A0E1 		mov	r6, r1
 936              		.loc 1 200 0
 937 06c8 0200A0E1 		mov	r0, r2
 938              	.LVL92:
 939 06cc 0910A0E1 		mov	r1, r9
 940              	.LVL93:
 941              		.loc 1 194 0
 942 06d0 0270A0E1 		mov	r7, r2
 943              		.loc 1 200 0
 944 06d4 FEFFFFEB 		bl	dir_getFatFileName
 945              	.LVL94:
 946              		.loc 1 202 0
 947 06d8 720054E3 		cmp	r4, #114
 948 06dc 0400000A 		beq	.L115
 949 06e0 770054E3 		cmp	r4, #119
 950 06e4 1D00000A 		beq	.L116
ARM GAS  /cygdrive/c/DOCUME~1/mkwapisz/LOCALS~1/Temp/ccxvxtIe.s 			page 26


 951 06e8 610054E3 		cmp	r4, #97
 952 06ec D500001A 		bne	.L113
 953 06f0 610000EA 		b	.L114
 954              	.L115:
 955              		.loc 1 205 0
 956 06f4 2C808DE2 		add	r8, sp, #44
 957 06f8 0710A0E1 		mov	r1, r7
 958 06fc 0600A0E1 		mov	r0, r6
 959 0700 0820A0E1 		mov	r2, r8
 960 0704 0030A0E3 		mov	r3, #0
 961 0708 FEFFFFEB 		bl	fs_findFile
 962 070c 000CA0E1 		mov	r0, r0, asl #24
 963 0710 404CA0E1 		mov	r4, r0, asr #24
 964              	.LVL95:
 965 0714 010054E3 		cmp	r4, #1
 966 0718 0000E013 		mvnne	r0, #0
 967 071c CC00001A 		bne	.L119
 968              		.loc 1 207 0
 969 0720 0600A0E1 		mov	r0, r6
 970 0724 0510A0E1 		mov	r1, r5
 971 0728 0820A0E1 		mov	r2, r8
 972 072c FEFFFFEB 		bl	dir_getFileStructure
 973              		.loc 1 208 0
 974 0730 0500A0E1 		mov	r0, r5
 975 0734 0610A0E1 		mov	r1, r6
 976 0738 0820A0E1 		mov	r2, r8
 977 073c FEFFFFEB 		bl	file_initFile
 978              		.loc 1 209 0
 979 0740 0500A0E1 		mov	r0, r5
 980 0744 0420A0E1 		mov	r2, r4
 981 0748 0010A0E3 		mov	r1, #0
 982 074c FEFFFFEB 		bl	file_setAttr
 983              		.loc 1 210 0
 984 0750 0500A0E1 		mov	r0, r5
 985 0754 0410A0E1 		mov	r1, r4
 986 0758 0020A0E3 		mov	r2, #0
 987 075c 7E0000EA 		b	.L131
 988              	.LVL96:
 989              	.L116:
 990              		.loc 1 216 0
 991 0760 2C808DE2 		add	r8, sp, #44
 992 0764 0600A0E1 		mov	r0, r6
 993 0768 0710A0E1 		mov	r1, r7
 994 076c 0820A0E1 		mov	r2, r8
 995 0770 34308DE2 		add	r3, sp, #52
 996 0774 FEFFFFEB 		bl	fs_findFile
 997 0778 FFA010E2 		ands	sl, r0, #255
 998 077c 0100E013 		mvnne	r0, #1
 999 0780 B300001A 		bne	.L119
 1000              	.LVL97:
 1001              		.loc 1 220 0
 1002 0784 34309DE5 		ldr	r3, [sp, #52]
 1003 0788 000053E3 		cmp	r3, #0
 1004 078c AD00000A 		beq	.L113
 1005              	.LVL98:
 1006              		.loc 1 223 0
 1007 0790 0710A0E1 		mov	r1, r7
ARM GAS  /cygdrive/c/DOCUME~1/mkwapisz/LOCALS~1/Temp/ccxvxtIe.s 			page 27


 1008 0794 0600A0E1 		mov	r0, r6
 1009 0798 0820A0E1 		mov	r2, r8
 1010 079c 0A30A0E1 		mov	r3, sl
 1011              	.LVL99:
 1012 07a0 FEFFFFEB 		bl	fs_findFreeFile
 1013 07a4 0008B0E1 		movs	r0, r0, asl #16
 1014 07a8 A800000A 		beq	.L123
 1015              		.loc 1 225 0
 1016 07ac 0920A0E1 		mov	r2, r9
 1017 07b0 0600A0E1 		mov	r0, r6
 1018 07b4 0D10A0E1 		mov	r1, sp
 1019 07b8 FEFFFFEB 		bl	dir_createDefaultEntry
 1020              		.loc 1 226 0
 1021 07bc 0600A0E1 		mov	r0, r6
 1022 07c0 0D10A0E1 		mov	r1, sp
 1023 07c4 0820A0E1 		mov	r2, r8
 1024 07c8 FEFFFFEB 		bl	dir_createDirectoryEntry
 1025              		.loc 1 227 0
 1026 07cc 0D00A0E1 		mov	r0, sp
 1027 07d0 0510A0E1 		mov	r1, r5
 1028 07d4 2020A0E3 		mov	r2, #32
 1029 07d8 FEFFFFEB 		bl	memCpy
 1030              		.loc 1 228 0
 1031 07dc 0820A0E1 		mov	r2, r8
 1032 07e0 0610A0E1 		mov	r1, r6
 1033 07e4 0500A0E1 		mov	r0, r5
 1034 07e8 FEFFFFEB 		bl	file_initFile
 1035              		.loc 1 229 0
 1036 07ec 284095E5 		ldr	r4, [r5, #40]
 1037              	.LVL100:
 1038 07f0 0400A0E1 		mov	r0, r4
 1039 07f4 FEFFFFEB 		bl	fs_giveFreeClusterHint
 1040 07f8 0010A0E1 		mov	r1, r0
 1041 07fc 0400A0E1 		mov	r0, r4
 1042 0800 FEFFFFEB 		bl	fs_getNextFreeCluster
 1043              		.loc 1 230 0
 1044 0804 201085E2 		add	r1, r5, #32
 1045              		.loc 1 229 0
 1046 0808 0030A0E1 		mov	r3, r0
 1047              		.loc 1 230 0
 1048 080c 0020A0E1 		mov	r2, r0
 1049 0810 280095E5 		ldr	r0, [r5, #40]
 1050              		.loc 1 229 0
 1051 0814 34308DE5 		str	r3, [sp, #52]
 1052              		.loc 1 230 0
 1053 0818 FEFFFFEB 		bl	dir_setFirstCluster
 1054              		.loc 1 231 0
 1055 081c 0500A0E1 		mov	r0, r5
 1056 0820 34109DE5 		ldr	r1, [sp, #52]
 1057 0824 FEFFFFEB 		bl	fs_setFirstClusterInDirEntry
 1058              		.loc 1 232 0
 1059 0828 2C1085E2 		add	r1, r5, #44
 1060 082c 34209DE5 		ldr	r2, [sp, #52]
 1061 0830 0600A0E1 		mov	r0, r6
 1062 0834 FEFFFFEB 		bl	fs_initClusterChain
 1063              		.loc 1 233 0
 1064 0838 0600A0E1 		mov	r0, r6
ARM GAS  /cygdrive/c/DOCUME~1/mkwapisz/LOCALS~1/Temp/ccxvxtIe.s 			page 28


 1065 083c 34409DE5 		ldr	r4, [sp, #52]
 1066 0840 FEFFFFEB 		bl	fat_giveEocMarker
 1067 0844 0410A0E1 		mov	r1, r4
 1068 0848 0020A0E1 		mov	r2, r0
 1069 084c 0600A0E1 		mov	r0, r6
 1070 0850 FEFFFFEB 		bl	fat_setNextClusterAddress
 1071              		.loc 1 234 0
 1072 0854 0500A0E1 		mov	r0, r5
 1073 0858 0A10A0E1 		mov	r1, sl
 1074 085c 0120A0E3 		mov	r2, #1
 1075 0860 FEFFFFEB 		bl	file_setAttr
 1076              		.loc 1 235 0
 1077 0864 0110A0E3 		mov	r1, #1
 1078 0868 0500A0E1 		mov	r0, r5
 1079 086c 0120A0E1 		mov	r2, r1
 1080 0870 FEFFFFEB 		bl	file_setAttr
 1081 0874 0A00A0E1 		mov	r0, sl
 1082 0878 750000EA 		b	.L119
 1083              	.LVL101:
 1084              	.L114:
 1085              		.loc 1 244 0
 1086 087c 2C808DE2 		add	r8, sp, #44
 1087 0880 0600A0E1 		mov	r0, r6
 1088 0884 0710A0E1 		mov	r1, r7
 1089 0888 0820A0E1 		mov	r2, r8
 1090 088c 0030A0E3 		mov	r3, #0
 1091 0890 FEFFFFEB 		bl	fs_findFile
 1092 0894 000CA0E1 		mov	r0, r0, asl #24
 1093 0898 40ACA0E1 		mov	sl, r0, asr #24
 1094 089c 01005AE3 		cmp	sl, #1
 1095 08a0 3000001A 		bne	.L125
 1096              		.loc 1 246 0
 1097 08a4 0600A0E1 		mov	r0, r6
 1098 08a8 0510A0E1 		mov	r1, r5
 1099 08ac 0820A0E1 		mov	r2, r8
 1100 08b0 FEFFFFEB 		bl	dir_getFileStructure
 1101              		.loc 1 247 0
 1102 08b4 0500A0E1 		mov	r0, r5
 1103 08b8 0610A0E1 		mov	r1, r6
 1104 08bc 0820A0E1 		mov	r2, r8
 1105 08c0 FEFFFFEB 		bl	file_initFile
 1106              		.loc 1 248 0
 1107 08c4 383095E5 		ldr	r3, [r5, #56]
 1108 08c8 000053E3 		cmp	r3, #0
 1109 08cc 1900001A 		bne	.L127
 1110              		.loc 1 249 0
 1111 08d0 284095E5 		ldr	r4, [r5, #40]
 1112              	.LVL102:
 1113 08d4 0400A0E1 		mov	r0, r4
 1114 08d8 FEFFFFEB 		bl	fs_giveFreeClusterHint
 1115 08dc 0010A0E1 		mov	r1, r0
 1116 08e0 0400A0E1 		mov	r0, r4
 1117 08e4 FEFFFFEB 		bl	fs_getNextFreeCluster
 1118              		.loc 1 250 0
 1119 08e8 201085E2 		add	r1, r5, #32
 1120              		.loc 1 249 0
 1121 08ec 0030A0E1 		mov	r3, r0
ARM GAS  /cygdrive/c/DOCUME~1/mkwapisz/LOCALS~1/Temp/ccxvxtIe.s 			page 29


 1122              		.loc 1 250 0
 1123 08f0 0020A0E1 		mov	r2, r0
 1124 08f4 280095E5 		ldr	r0, [r5, #40]
 1125              		.loc 1 249 0
 1126 08f8 34308DE5 		str	r3, [sp, #52]
 1127              	.LVL103:
 1128              		.loc 1 250 0
 1129 08fc FEFFFFEB 		bl	dir_setFirstCluster
 1130              		.loc 1 251 0
 1131 0900 34109DE5 		ldr	r1, [sp, #52]
 1132 0904 0500A0E1 		mov	r0, r5
 1133 0908 FEFFFFEB 		bl	fs_setFirstClusterInDirEntry
 1134              		.loc 1 252 0
 1135 090c 0600A0E1 		mov	r0, r6
 1136 0910 34409DE5 		ldr	r4, [sp, #52]
 1137 0914 FEFFFFEB 		bl	fat_giveEocMarker
 1138 0918 0410A0E1 		mov	r1, r4
 1139 091c 0020A0E1 		mov	r2, r0
 1140 0920 0600A0E1 		mov	r0, r6
 1141 0924 FEFFFFEB 		bl	fat_setNextClusterAddress
 1142              		.loc 1 253 0
 1143 0928 0500A0E1 		mov	r0, r5
 1144 092c 0610A0E1 		mov	r1, r6
 1145 0930 0820A0E1 		mov	r2, r8
 1146 0934 FEFFFFEB 		bl	file_initFile
 1147              	.LVL104:
 1148              	.L127:
 1149              	.LBB16:
 1150              	.LBB17:
 1151              		.loc 1 107 0
 1152 0938 4C3095E5 		ldr	r3, [r5, #76]
 1153              	.LBE17:
 1154              	.LBE16:
 1155              		.loc 1 256 0
 1156 093c 0500A0E1 		mov	r0, r5
 1157 0940 0010A0E3 		mov	r1, #0
 1158              	.LBB18:
 1159              	.LBB19:
 1160              		.loc 1 107 0
 1161 0944 483085E5 		str	r3, [r5, #72]
 1162              	.LBE19:
 1163              	.LBE18:
 1164              		.loc 1 256 0
 1165 0948 0A20A0E1 		mov	r2, sl
 1166 094c FEFFFFEB 		bl	file_setAttr
 1167              		.loc 1 257 0
 1168 0950 0500A0E1 		mov	r0, r5
 1169 0954 0A10A0E1 		mov	r1, sl
 1170              	.LVL105:
 1171              	.L132:
 1172 0958 0120A0E1 		mov	r2, r1
 1173              	.L131:
 1174 095c FEFFFFEB 		bl	file_setAttr
 1175              	.LVL106:
 1176 0960 0000A0E3 		mov	r0, #0
 1177 0964 3A0000EA 		b	.L119
 1178              	.LVL107:
ARM GAS  /cygdrive/c/DOCUME~1/mkwapisz/LOCALS~1/Temp/ccxvxtIe.s 			page 30


 1179              	.L125:
 1180              		.loc 1 261 0
 1181 0968 0710A0E1 		mov	r1, r7
 1182 096c 0600A0E1 		mov	r0, r6
 1183 0970 0820A0E1 		mov	r2, r8
 1184 0974 0030A0E3 		mov	r3, #0
 1185 0978 FEFFFFEB 		bl	fs_findFreeFile
 1186 097c 0008B0E1 		movs	r0, r0, asl #16
 1187 0980 3200000A 		beq	.L123
 1188              		.loc 1 263 0
 1189 0984 0920A0E1 		mov	r2, r9
 1190 0988 0600A0E1 		mov	r0, r6
 1191 098c 0D10A0E1 		mov	r1, sp
 1192 0990 FEFFFFEB 		bl	dir_createDefaultEntry
 1193              		.loc 1 264 0
 1194 0994 0600A0E1 		mov	r0, r6
 1195 0998 0D10A0E1 		mov	r1, sp
 1196 099c 0820A0E1 		mov	r2, r8
 1197 09a0 FEFFFFEB 		bl	dir_createDirectoryEntry
 1198              		.loc 1 265 0
 1199 09a4 0D00A0E1 		mov	r0, sp
 1200 09a8 0510A0E1 		mov	r1, r5
 1201 09ac 2020A0E3 		mov	r2, #32
 1202 09b0 FEFFFFEB 		bl	memCpy
 1203              		.loc 1 266 0
 1204 09b4 0820A0E1 		mov	r2, r8
 1205 09b8 0610A0E1 		mov	r1, r6
 1206 09bc 0500A0E1 		mov	r0, r5
 1207 09c0 FEFFFFEB 		bl	file_initFile
 1208              		.loc 1 267 0
 1209 09c4 284095E5 		ldr	r4, [r5, #40]
 1210              	.LVL108:
 1211 09c8 0400A0E1 		mov	r0, r4
 1212 09cc FEFFFFEB 		bl	fs_giveFreeClusterHint
 1213 09d0 0010A0E1 		mov	r1, r0
 1214 09d4 0400A0E1 		mov	r0, r4
 1215 09d8 FEFFFFEB 		bl	fs_getNextFreeCluster
 1216              		.loc 1 268 0
 1217 09dc 201085E2 		add	r1, r5, #32
 1218              		.loc 1 267 0
 1219 09e0 0030A0E1 		mov	r3, r0
 1220              		.loc 1 268 0
 1221 09e4 0020A0E1 		mov	r2, r0
 1222 09e8 280095E5 		ldr	r0, [r5, #40]
 1223              		.loc 1 267 0
 1224 09ec 34308DE5 		str	r3, [sp, #52]
 1225              	.LVL109:
 1226              		.loc 1 268 0
 1227 09f0 FEFFFFEB 		bl	dir_setFirstCluster
 1228              		.loc 1 269 0
 1229 09f4 0500A0E1 		mov	r0, r5
 1230 09f8 34109DE5 		ldr	r1, [sp, #52]
 1231 09fc FEFFFFEB 		bl	fs_setFirstClusterInDirEntry
 1232              		.loc 1 270 0
 1233 0a00 2C1085E2 		add	r1, r5, #44
 1234 0a04 34209DE5 		ldr	r2, [sp, #52]
 1235 0a08 0600A0E1 		mov	r0, r6
ARM GAS  /cygdrive/c/DOCUME~1/mkwapisz/LOCALS~1/Temp/ccxvxtIe.s 			page 31


 1236 0a0c FEFFFFEB 		bl	fs_initClusterChain
 1237              		.loc 1 271 0
 1238 0a10 0600A0E1 		mov	r0, r6
 1239 0a14 34409DE5 		ldr	r4, [sp, #52]
 1240 0a18 FEFFFFEB 		bl	fat_giveEocMarker
 1241 0a1c 0410A0E1 		mov	r1, r4
 1242 0a20 0020A0E1 		mov	r2, r0
 1243 0a24 0600A0E1 		mov	r0, r6
 1244 0a28 FEFFFFEB 		bl	fat_setNextClusterAddress
 1245              		.loc 1 272 0
 1246 0a2c 0500A0E1 		mov	r0, r5
 1247 0a30 0010A0E3 		mov	r1, #0
 1248 0a34 0120A0E3 		mov	r2, #1
 1249 0a38 FEFFFFEB 		bl	file_setAttr
 1250              		.loc 1 273 0
 1251 0a3c 0500A0E1 		mov	r0, r5
 1252 0a40 0110A0E3 		mov	r1, #1
 1253 0a44 C3FFFFEA 		b	.L132
 1254              	.LVL110:
 1255              	.L113:
 1256 0a48 0300E0E3 		mvn	r0, #3
 1257 0a4c 000000EA 		b	.L119
 1258              	.LVL111:
 1259              	.L123:
 1260 0a50 0200E0E3 		mvn	r0, #2
 1261              	.LVL112:
 1262              	.L119:
 1263              		.loc 1 287 0
 1264 0a54 38D08DE2 		add	sp, sp, #56
 1265 0a58 F047BDE8 		ldmfd	sp!, {r4, r5, r6, r7, r8, r9, sl, lr}
 1266 0a5c 1EFF2FE1 		bx	lr
 1267              	.LFE7:
 1268              		.size	file_fopen, .-file_fopen
 1269              		.section	.debug_frame,"",%progbits
 1270              	.Lframe0:
 1271 0000 0C000000 		.4byte	.LECIE0-.LSCIE0
 1272              	.LSCIE0:
 1273 0004 FFFFFFFF 		.4byte	0xffffffff
 1274 0008 01       		.byte	0x1
 1275 0009 00       		.ascii	"\000"
 1276 000a 01       		.uleb128 0x1
 1277 000b 7C       		.sleb128 -4
 1278 000c 0E       		.byte	0xe
 1279 000d 0C       		.byte	0xc
 1280 000e 0D       		.uleb128 0xd
 1281 000f 00       		.uleb128 0x0
 1282              		.align	2
 1283              	.LECIE0:
 1284              	.LSFDE0:
 1285 0010 0C000000 		.4byte	.LEFDE0-.LASFDE0
 1286              	.LASFDE0:
 1287 0014 00000000 		.4byte	.Lframe0
 1288 0018 00000000 		.4byte	.LFB5
 1289 001c 1C000000 		.4byte	.LFE5-.LFB5
 1290              		.align	2
 1291              	.LEFDE0:
 1292              	.LSFDE2:
ARM GAS  /cygdrive/c/DOCUME~1/mkwapisz/LOCALS~1/Temp/ccxvxtIe.s 			page 32


 1293 0020 14000000 		.4byte	.LEFDE2-.LASFDE2
 1294              	.LASFDE2:
 1295 0024 00000000 		.4byte	.Lframe0
 1296 0028 1C000000 		.4byte	.LFB9
 1297 002c 50000000 		.4byte	.LFE9-.LFB9
 1298 0030 44       		.byte	0x4
 1299              		.4byte	.LCFI0-.LFB9
 1300 0031 0E       		.byte	0xe
 1301 0032 04       		.uleb128 0x4
 1302 0033 8E       		.byte	0x8e
 1303 0034 01       		.uleb128 0x1
 1304 0035 000000   		.align	2
 1305              	.LEFDE2:
 1306              	.LSFDE4:
 1307 0038 0C000000 		.4byte	.LEFDE4-.LASFDE4
 1308              	.LASFDE4:
 1309 003c 00000000 		.4byte	.Lframe0
 1310 0040 6C000000 		.4byte	.LFB11
 1311 0044 88000000 		.4byte	.LFE11-.LFB11
 1312              		.align	2
 1313              	.LEFDE4:
 1314              	.LSFDE6:
 1315 0048 1C000000 		.4byte	.LEFDE6-.LASFDE6
 1316              	.LASFDE6:
 1317 004c 00000000 		.4byte	.Lframe0
 1318 0050 F4000000 		.4byte	.LFB10
 1319 0054 00010000 		.4byte	.LFE10-.LFB10
 1320 0058 44       		.byte	0x4
 1321              		.4byte	.LCFI1-.LFB10
 1322 0059 0E       		.byte	0xe
 1323 005a 18       		.uleb128 0x18
 1324 005b 8E       		.byte	0x8e
 1325 005c 01       		.uleb128 0x1
 1326 005d 88       		.byte	0x88
 1327 005e 02       		.uleb128 0x2
 1328 005f 87       		.byte	0x87
 1329 0060 03       		.uleb128 0x3
 1330 0061 86       		.byte	0x86
 1331 0062 04       		.uleb128 0x4
 1332 0063 85       		.byte	0x85
 1333 0064 05       		.uleb128 0x5
 1334 0065 84       		.byte	0x84
 1335 0066 06       		.uleb128 0x6
 1336 0067 00       		.align	2
 1337              	.LEFDE6:
 1338              	.LSFDE8:
 1339 0068 0C000000 		.4byte	.LEFDE8-.LASFDE8
 1340              	.LASFDE8:
 1341 006c 00000000 		.4byte	.Lframe0
 1342 0070 F4010000 		.4byte	.LFB12
 1343 0074 24000000 		.4byte	.LFE12-.LFB12
 1344              		.align	2
 1345              	.LEFDE8:
 1346              	.LSFDE10:
 1347 0078 0C000000 		.4byte	.LEFDE10-.LASFDE10
 1348              	.LASFDE10:
 1349 007c 00000000 		.4byte	.Lframe0
ARM GAS  /cygdrive/c/DOCUME~1/mkwapisz/LOCALS~1/Temp/ccxvxtIe.s 			page 33


 1350 0080 18020000 		.4byte	.LFB13
 1351 0084 14000000 		.4byte	.LFE13-.LFB13
 1352              		.align	2
 1353              	.LEFDE10:
 1354              	.LSFDE12:
 1355 0088 20000000 		.4byte	.LEFDE12-.LASFDE12
 1356              	.LASFDE12:
 1357 008c 00000000 		.4byte	.Lframe0
 1358 0090 2C020000 		.4byte	.LFB14
 1359 0094 A4000000 		.4byte	.LFE14-.LFB14
 1360 0098 48       		.byte	0x4
 1361              		.4byte	.LCFI2-.LFB14
 1362 0099 0E       		.byte	0xe
 1363 009a 1C       		.uleb128 0x1c
 1364 009b 8E       		.byte	0x8e
 1365 009c 01       		.uleb128 0x1
 1366 009d 8A       		.byte	0x8a
 1367 009e 02       		.uleb128 0x2
 1368 009f 88       		.byte	0x88
 1369 00a0 03       		.uleb128 0x3
 1370 00a1 87       		.byte	0x87
 1371 00a2 04       		.uleb128 0x4
 1372 00a3 86       		.byte	0x86
 1373 00a4 05       		.uleb128 0x5
 1374 00a5 85       		.byte	0x85
 1375 00a6 06       		.uleb128 0x6
 1376 00a7 84       		.byte	0x84
 1377 00a8 07       		.uleb128 0x7
 1378 00a9 000000   		.align	2
 1379              	.LEFDE12:
 1380              	.LSFDE14:
 1381 00ac 24000000 		.4byte	.LEFDE14-.LASFDE14
 1382              	.LASFDE14:
 1383 00b0 00000000 		.4byte	.Lframe0
 1384 00b4 D0020000 		.4byte	.LFB6
 1385 00b8 A8010000 		.4byte	.LFE6-.LFB6
 1386 00bc 44       		.byte	0x4
 1387              		.4byte	.LCFI3-.LFB6
 1388 00bd 0E       		.byte	0xe
 1389 00be 24       		.uleb128 0x24
 1390 00bf 48       		.byte	0x4
 1391              		.4byte	.LCFI4-.LCFI3
 1392 00c0 0E       		.byte	0xe
 1393 00c1 2C       		.uleb128 0x2c
 1394 00c2 8E       		.byte	0x8e
 1395 00c3 01       		.uleb128 0x1
 1396 00c4 8B       		.byte	0x8b
 1397 00c5 02       		.uleb128 0x2
 1398 00c6 8A       		.byte	0x8a
 1399 00c7 03       		.uleb128 0x3
 1400 00c8 89       		.byte	0x89
 1401 00c9 04       		.uleb128 0x4
 1402 00ca 88       		.byte	0x88
 1403 00cb 05       		.uleb128 0x5
 1404 00cc 87       		.byte	0x87
 1405 00cd 06       		.uleb128 0x6
 1406 00ce 86       		.byte	0x86
ARM GAS  /cygdrive/c/DOCUME~1/mkwapisz/LOCALS~1/Temp/ccxvxtIe.s 			page 34


 1407 00cf 07       		.uleb128 0x7
 1408 00d0 85       		.byte	0x85
 1409 00d1 08       		.uleb128 0x8
 1410 00d2 84       		.byte	0x84
 1411 00d3 09       		.uleb128 0x9
 1412              		.align	2
 1413              	.LEFDE14:
 1414              	.LSFDE16:
 1415 00d4 14000000 		.4byte	.LEFDE16-.LASFDE16
 1416              	.LASFDE16:
 1417 00d8 00000000 		.4byte	.Lframe0
 1418 00dc 78040000 		.4byte	.LFB4
 1419 00e0 2C000000 		.4byte	.LFE4-.LFB4
 1420 00e4 44       		.byte	0x4
 1421              		.4byte	.LCFI5-.LFB4
 1422 00e5 0E       		.byte	0xe
 1423 00e6 08       		.uleb128 0x8
 1424 00e7 8E       		.byte	0x8e
 1425 00e8 01       		.uleb128 0x1
 1426 00e9 84       		.byte	0x84
 1427 00ea 02       		.uleb128 0x2
 1428 00eb 00       		.align	2
 1429              	.LEFDE16:
 1430              	.LSFDE18:
 1431 00ec 24000000 		.4byte	.LEFDE18-.LASFDE18
 1432              	.LASFDE18:
 1433 00f0 00000000 		.4byte	.Lframe0
 1434 00f4 A4040000 		.4byte	.LFB2
 1435 00f8 4C010000 		.4byte	.LFE2-.LFB2
 1436 00fc 44       		.byte	0x4
 1437              		.4byte	.LCFI6-.LFB2
 1438 00fd 0E       		.byte	0xe
 1439 00fe 24       		.uleb128 0x24
 1440 00ff 8E       		.byte	0x8e
 1441 0100 01       		.uleb128 0x1
 1442 0101 8B       		.byte	0x8b
 1443 0102 02       		.uleb128 0x2
 1444 0103 8A       		.byte	0x8a
 1445 0104 03       		.uleb128 0x3
 1446 0105 89       		.byte	0x89
 1447 0106 04       		.uleb128 0x4
 1448 0107 88       		.byte	0x88
 1449 0108 05       		.uleb128 0x5
 1450 0109 87       		.byte	0x87
 1451 010a 06       		.uleb128 0x6
 1452 010b 86       		.byte	0x86
 1453 010c 07       		.uleb128 0x7
 1454 010d 85       		.byte	0x85
 1455 010e 08       		.uleb128 0x8
 1456 010f 84       		.byte	0x84
 1457 0110 09       		.uleb128 0x9
 1458 0111 4C       		.byte	0x4
 1459              		.4byte	.LCFI7-.LCFI6
 1460 0112 0E       		.byte	0xe
 1461 0113 28       		.uleb128 0x28
 1462              		.align	2
 1463              	.LEFDE18:
ARM GAS  /cygdrive/c/DOCUME~1/mkwapisz/LOCALS~1/Temp/ccxvxtIe.s 			page 35


 1464              	.LSFDE20:
 1465 0114 14000000 		.4byte	.LEFDE20-.LASFDE20
 1466              	.LASFDE20:
 1467 0118 00000000 		.4byte	.Lframe0
 1468 011c F0050000 		.4byte	.LFB3
 1469 0120 2C000000 		.4byte	.LFE3-.LFB3
 1470 0124 44       		.byte	0x4
 1471              		.4byte	.LCFI8-.LFB3
 1472 0125 0E       		.byte	0xe
 1473 0126 08       		.uleb128 0x8
 1474 0127 8E       		.byte	0x8e
 1475 0128 01       		.uleb128 0x1
 1476 0129 84       		.byte	0x84
 1477 012a 02       		.uleb128 0x2
 1478 012b 00       		.align	2
 1479              	.LEFDE20:
 1480              	.LSFDE22:
 1481 012c 14000000 		.4byte	.LEFDE22-.LASFDE22
 1482              	.LASFDE22:
 1483 0130 00000000 		.4byte	.Lframe0
 1484 0134 1C060000 		.4byte	.LFB8
 1485 0138 94000000 		.4byte	.LFE8-.LFB8
 1486 013c 44       		.byte	0x4
 1487              		.4byte	.LCFI9-.LFB8
 1488 013d 0E       		.byte	0xe
 1489 013e 08       		.uleb128 0x8
 1490 013f 8E       		.byte	0x8e
 1491 0140 01       		.uleb128 0x1
 1492 0141 84       		.byte	0x84
 1493 0142 02       		.uleb128 0x2
 1494 0143 00       		.align	2
 1495              	.LEFDE22:
 1496              	.LSFDE24:
 1497 0144 24000000 		.4byte	.LEFDE24-.LASFDE24
 1498              	.LASFDE24:
 1499 0148 00000000 		.4byte	.Lframe0
 1500 014c B0060000 		.4byte	.LFB7
 1501 0150 B0030000 		.4byte	.LFE7-.LFB7
 1502 0154 44       		.byte	0x4
 1503              		.4byte	.LCFI10-.LFB7
 1504 0155 0E       		.byte	0xe
 1505 0156 20       		.uleb128 0x20
 1506 0157 44       		.byte	0x4
 1507              		.4byte	.LCFI11-.LCFI10
 1508 0158 0E       		.byte	0xe
 1509 0159 58       		.uleb128 0x58
 1510 015a 8E       		.byte	0x8e
 1511 015b 01       		.uleb128 0x1
 1512 015c 8A       		.byte	0x8a
 1513 015d 02       		.uleb128 0x2
 1514 015e 89       		.byte	0x89
 1515 015f 03       		.uleb128 0x3
 1516 0160 88       		.byte	0x88
 1517 0161 04       		.uleb128 0x4
 1518 0162 87       		.byte	0x87
 1519 0163 05       		.uleb128 0x5
 1520 0164 86       		.byte	0x86
ARM GAS  /cygdrive/c/DOCUME~1/mkwapisz/LOCALS~1/Temp/ccxvxtIe.s 			page 36


 1521 0165 06       		.uleb128 0x6
 1522 0166 85       		.byte	0x85
 1523 0167 07       		.uleb128 0x7
 1524 0168 84       		.byte	0x84
 1525 0169 08       		.uleb128 0x8
 1526 016a 0000     		.align	2
 1527              	.LEFDE24:
 1528              		.file 2 "file.h"
 1529              		.file 3 "fs.h"
 1530              		.file 4 "partition.h"
 1531              		.file 5 "disc.h"
 1532              		.file 6 "ioman.h"
 1533              		.file 7 "../mmc/hwinterface.h"
 1534              		.file 8 "../mmc/types.h"
 1535              		.text
 1536              	.Letext0: