ARM GAS  /cygdrive/c/DOCUME~1/mkwapisz/LOCALS~1/Temp/ccK7czfo.s 			page 1


   1              		.code	16
   2              		.file	"testMMC.c"
   3              		.section	.debug_abbrev,"",%progbits
   4              	.Ldebug_abbrev0:
   5              		.section	.debug_info,"",%progbits
   6              	.Ldebug_info0:
   7              		.section	.debug_line,"",%progbits
   8              	.Ldebug_line0:
   9 0000 37010000 		.text
   9      0200AD00 
   9      00000201 
   9      FB0E0D00 
   9      01010101 
  10              	.Ltext0:
  11              		.section	.rodata.str1.4,"aMS",%progbits,1
  12 0001 000000   		.align	2
  13              	.LC11:
  14 0004 4552523A 		.ascii	"ERR:file\000"
  14      66696C65 
  14      00
  15              		.text
  16              		.align	2
  17              		.global	testMMC
  18              		.code 16
  19              		.thumb_func
  20              		.type	testMMC, %function
  21              	testMMC:
  22              	.LFB5:
  23              		.file 1 "testMMC.c"
   1:testMMC.c     **** /******************************************************************************
   2:testMMC.c     ****  *
   3:testMMC.c     ****  * Copyright:
   4:testMMC.c     ****  *    (C) 2000 - 2005 Embedded Artists AB
   5:testMMC.c     ****  *
   6:testMMC.c     ****  *****************************************************************************/
   7:testMMC.c     **** 
   8:testMMC.c     **** 
   9:testMMC.c     **** #include <stdio.h>
  10:testMMC.c     **** #include <efs.h>
  11:testMMC.c     **** #include <ls.h>
  12:testMMC.c     **** #include <string.h>
  13:testMMC.c     **** #include <lpc2xxx.h>
  14:testMMC.c     **** #include <consol.h>
  15:testMMC.c     **** #include "mp3shared.h"
  16:testMMC.c     **** 
  17:testMMC.c     **** #define JOYSTICK_UP 17
  18:testMMC.c     **** #define JOYSTICK_RIGHT 18
  19:testMMC.c     **** #define JOYSTICK_LEFT 19
  20:testMMC.c     **** #define JOYSTICK_DOWN 20
  21:testMMC.c     **** #define JOYSTICK_GND 16
  22:testMMC.c     **** 
  23:testMMC.c     **** SongInfo currentSongInfo;
  24:testMMC.c     **** unsigned char mmcInitialized;
  25:testMMC.c     **** unsigned char changeLeft;
  26:testMMC.c     **** unsigned char changeRight;
  27:testMMC.c     **** unsigned char rewindForward;
  28:testMMC.c     **** unsigned char rewindBackward;
ARM GAS  /cygdrive/c/DOCUME~1/mkwapisz/LOCALS~1/Temp/ccK7czfo.s 			page 2


  29:testMMC.c     **** unsigned int isError;
  30:testMMC.c     **** char* error;
  31:testMMC.c     **** 
  32:testMMC.c     **** /////////////////////////////
  33:testMMC.c     **** unsigned char id3TagSize = 128;
  34:testMMC.c     **** 				unsigned long fileSize;
  35:testMMC.c     **** 				unsigned char readSize = 12;
  36:testMMC.c     **** 				unsigned char myName[13];
  37:testMMC.c     **** 				unsigned char myAuthor[13];
  38:testMMC.c     **** 				unsigned long titleOffset = 3;
  39:testMMC.c     **** 				unsigned long authorOffset = 33;
  40:testMMC.c     **** //////////////////////////////
  41:testMMC.c     **** 
  42:testMMC.c     **** EmbeddedFileSystem  efs;
  43:testMMC.c     **** EmbeddedFile        file;
  44:testMMC.c     **** DirList             list;
  45:testMMC.c     **** unsigned char       file_name[13];
  46:testMMC.c     **** unsigned int        size;
  47:testMMC.c     **** 
  48:testMMC.c     **** unsigned char files[256][13];
  49:testMMC.c     **** 
  50:testMMC.c     **** void format_file_name(unsigned char *dest, unsigned char *src)
  51:testMMC.c     **** {
  52:testMMC.c     **** 	unsigned char i, k;
  53:testMMC.c     **** 
  54:testMMC.c     **** 	for (i = 7; i>0 && (src[i] == 0x20); i--);
  55:testMMC.c     **** 
  56:testMMC.c     **** 	strncpy(dest, src, i + 1);
  57:testMMC.c     **** 	dest[i + 1] = '.';
  58:testMMC.c     **** 
  59:testMMC.c     **** 	for (k = 2; k>0 && (src[8 + k] == 0x20); k--);
  60:testMMC.c     **** 
  61:testMMC.c     **** 	strncpy(&dest[i + 2], &src[8], k + 1);
  62:testMMC.c     **** 	dest[i + 5] = '\0';
  63:testMMC.c     **** }
  64:testMMC.c     **** 
  65:testMMC.c     **** char* initMMC(void)
  66:testMMC.c     **** {
  67:testMMC.c     **** 		char* error01 = "ERR:filesys-1";
  68:testMMC.c     **** 		char* error01b = "ERR:filesys-2";
  69:testMMC.c     **** 		char* error01c = "ERR:filesys-3";
  70:testMMC.c     **** 		char* error01d = "ERR:filesys-4";
  71:testMMC.c     **** 
  72:testMMC.c     **** 		char* error010 = "ERR:filesys-10";
  73:testMMC.c     **** 		char* error011 = "ERR:filesys-11";
  74:testMMC.c     **** 		char* error012 = "ERR:filesys-12";
  75:testMMC.c     **** 		char* error013 = "ERR:filesys-13";
  76:testMMC.c     **** 		char* error014 = "ERR:filesys-14";
  77:testMMC.c     **** 		char* error015 = "ERR:filesys-15";
  78:testMMC.c     **** 		char* error016 = "ERR:filesys-16";
  79:testMMC.c     **** 		char* error017 = "ERR:filesys-17";
  80:testMMC.c     **** 
  81:testMMC.c     **** 		char* error02 = "ERR:dir";
  82:testMMC.c     **** 		signed int returnValue;
  83:testMMC.c     **** 		//initialize SPI?
  84:testMMC.c     **** 		returnValue = efs_init(&efs, "\\");
  85:testMMC.c     **** 
ARM GAS  /cygdrive/c/DOCUME~1/mkwapisz/LOCALS~1/Temp/ccK7czfo.s 			page 3


  86:testMMC.c     **** 		if (returnValue == -1)
  87:testMMC.c     **** 		{
  88:testMMC.c     **** 			DBG((TXT("Could not open filesystem.\n")));
  89:testMMC.c     **** 			return error01;
  90:testMMC.c     **** 		}
  91:testMMC.c     **** 		if (returnValue == -2)
  92:testMMC.c     **** 			{
  93:testMMC.c     **** 				DBG((TXT("Could not open filesystem.\n")));
  94:testMMC.c     **** 				return error01b;
  95:testMMC.c     **** 			}
  96:testMMC.c     **** 		if (returnValue == -3)
  97:testMMC.c     **** 			{
  98:testMMC.c     **** 				DBG((TXT("Could not open filesystem.\n")));
  99:testMMC.c     **** 				return error01c;
 100:testMMC.c     **** 			}
 101:testMMC.c     **** 		if (returnValue == -4)
 102:testMMC.c     **** 			{
 103:testMMC.c     **** 				DBG((TXT("Could not open filesystem.\n")));
 104:testMMC.c     **** 				return error01d;
 105:testMMC.c     **** 			}
 106:testMMC.c     **** 
 107:testMMC.c     **** 		if (returnValue == -10)
 108:testMMC.c     **** 				{
 109:testMMC.c     **** 					DBG((TXT("Could not open filesystem.\n")));
 110:testMMC.c     **** 					return error010;
 111:testMMC.c     **** 				}
 112:testMMC.c     **** 		if (returnValue == -11)
 113:testMMC.c     **** 				{
 114:testMMC.c     **** 					DBG((TXT("Could not open filesystem.\n")));
 115:testMMC.c     **** 					return error011;
 116:testMMC.c     **** 				}
 117:testMMC.c     **** 		if (returnValue == -12)
 118:testMMC.c     **** 				{
 119:testMMC.c     **** 					DBG((TXT("Could not open filesystem.\n")));
 120:testMMC.c     **** 					return error012;
 121:testMMC.c     **** 				}
 122:testMMC.c     **** 		if (returnValue == -13)
 123:testMMC.c     **** 				{
 124:testMMC.c     **** 					DBG((TXT("Could not open filesystem.\n")));
 125:testMMC.c     **** 					return error013;
 126:testMMC.c     **** 				}
 127:testMMC.c     **** 		if (returnValue == -14)
 128:testMMC.c     **** 				{
 129:testMMC.c     **** 					DBG((TXT("Could not open filesystem.\n")));
 130:testMMC.c     **** 					return error014;
 131:testMMC.c     **** 				}
 132:testMMC.c     **** 		if (returnValue == -15)
 133:testMMC.c     **** 				{
 134:testMMC.c     **** 					DBG((TXT("Could not open filesystem.\n")));
 135:testMMC.c     **** 					return error015;
 136:testMMC.c     **** 				}
 137:testMMC.c     **** 		if (returnValue == -16)
 138:testMMC.c     **** 				{
 139:testMMC.c     **** 					DBG((TXT("Could not open filesystem.\n")));
 140:testMMC.c     **** 					return error016;
 141:testMMC.c     **** 				}
 142:testMMC.c     **** 		if (returnValue == -17)
ARM GAS  /cygdrive/c/DOCUME~1/mkwapisz/LOCALS~1/Temp/ccK7czfo.s 			page 4


 143:testMMC.c     **** 				{
 144:testMMC.c     **** 					DBG((TXT("Could not open filesystem.\n")));
 145:testMMC.c     **** 					return error017;
 146:testMMC.c     **** 				}
 147:testMMC.c     **** 
 148:testMMC.c     **** 		if (ls_openDir(&list, &(efs.myFs), "/") != 0)
 149:testMMC.c     **** 		{
 150:testMMC.c     **** 			DBG((TXT("Could not open the selected directory.\n")));
 151:testMMC.c     **** 			return error02;
 152:testMMC.c     **** 		}
 153:testMMC.c     **** 	mmcInitialized = 1;
 154:testMMC.c     **** 	return "OK";
 155:testMMC.c     **** }
 156:testMMC.c     **** 
 157:testMMC.c     **** void getFileNames(void)
 158:testMMC.c     **** {
 159:testMMC.c     **** //		if(mmcInitialized == 0)
 160:testMMC.c     **** //		{
 161:testMMC.c     **** //			char* toReturn = initMMC();
 162:testMMC.c     **** //			if(!(toReturn[0] == 'O' && toReturn[1] == 'K')) return;
 163:testMMC.c     **** //		}
 164:testMMC.c     **** 
 165:testMMC.c     **** 		//unsigned char       file_name[13];
 166:testMMC.c     **** 		int i = 0;
 167:testMMC.c     **** 		while (ls_getNext(&list) == 0)
 168:testMMC.c     **** 		{
 169:testMMC.c     **** 			if ((list.currentEntry.FileName[8] == 'M') &&
 170:testMMC.c     **** 				(list.currentEntry.FileName[9] == 'P') &&
 171:testMMC.c     **** 				(list.currentEntry.FileName[10] == '3'))
 172:testMMC.c     **** 			{
 173:testMMC.c     **** 				DBG((TXT("Filename: %.11s (%li bytes)\n"), list.currentEntry.FileName, list.currentEntry.FileSi
 174:testMMC.c     **** 
 175:testMMC.c     **** 				format_file_name(file_name, list.currentEntry.FileName);
 176:testMMC.c     **** 				int j;
 177:testMMC.c     **** 				for(j = 0; j < 13; j++) files[i][j] = file_name[j];
 178:testMMC.c     **** 				i++;
 179:testMMC.c     **** 			}
 180:testMMC.c     **** 		}
 181:testMMC.c     **** 
 182:testMMC.c     **** }
 183:testMMC.c     **** 
 184:testMMC.c     **** void testMMC(char* name)
 185:testMMC.c     **** {
  24              		.loc 1 185 0
  25 0000 F0B5     		push	{r4, r5, r6, r7, lr}
  26              	.LCFI0:
  27              	.LVL0:
  28              		.loc 1 185 0
  29 0002 021C     		mov	r2, r0
 186:testMMC.c     **** 	unsigned char* error03 = "ERR:file";
 187:testMMC.c     **** 			if (file_fopen(&file, &efs.myFs, name, 'r') == 0)
  30              		.loc 1 187 0
  31 0004 2149     		ldr	r1, .L9
  32 0006 2248     		ldr	r0, .L9+4
  33              	.LVL1:
  34 0008 7223     		mov	r3, #114
  35 000a FFF7FEFF 		bl	file_fopen
ARM GAS  /cygdrive/c/DOCUME~1/mkwapisz/LOCALS~1/Temp/ccK7czfo.s 			page 5


  36              	.LVL2:
  37 000e 0006     		lsl	r0, r0, #24
  38 0010 0028     		cmp	r0, #0
  39 0012 35D1     		bne	.L2
  40              	.LBB2:
 188:testMMC.c     **** 			{
 189:testMMC.c     **** 				// stream data to playback?
 190:testMMC.c     **** 				DBG((TXT("File successfully opened!.\n")));
 191:testMMC.c     **** 				int i;
 192:testMMC.c     **** 				for(i = 0; i < readSize; i++)
  41              		.loc 1 192 0
  42 0014 1F4B     		ldr	r3, .L9+8
  43 0016 1B78     		ldrb	r3, [r3]
  44 0018 1F4C     		ldr	r4, .L9+12
  45 001a 9C46     		mov	ip, r3
  46 001c 0021     		mov	r1, #0
  47              	.LVL3:
  48 001e 05E0     		b	.L4
  49              	.L5:
 193:testMMC.c     **** 				{
 194:testMMC.c     **** 					myName[i] = '\0';
 195:testMMC.c     **** 					myAuthor[i] = '\0';
  50              		.loc 1 195 0
  51 0020 1E4D     		ldr	r5, .L9+16
  52              		.loc 1 194 0
  53 0022 0022     		mov	r2, #0
  54              		.loc 1 195 0
  55 0024 4B19     		add	r3, r1, r5
  56 0026 1A70     		strb	r2, [r3]
  57              		.loc 1 194 0
  58 0028 CA55     		strb	r2, [r1, r7]
  59              		.loc 1 192 0
  60 002a 0131     		add	r1, r1, #1
  61              	.L4:
  62 002c 271C     		mov	r7, r4
  63 002e 6145     		cmp	r1, ip
  64 0030 F6DB     		blt	.L5
 196:testMMC.c     **** 				}
 197:testMMC.c     **** 				myName[12] = '\0';
  65              		.loc 1 197 0
  66 0032 0023     		mov	r3, #0
 198:testMMC.c     **** 				myAuthor[12] = '\0';
 199:testMMC.c     **** 				fileSize = file.FileSize;
 200:testMMC.c     **** 				file_fread(&file,(fileSize - id3TagSize) + titleOffset, readSize,myName);
  67              		.loc 1 200 0
  68 0034 1A4D     		ldr	r5, .L9+20
  69              		.loc 1 197 0
  70 0036 2373     		strb	r3, [r4, #12]
  71              		.loc 1 198 0
  72 0038 184A     		ldr	r2, .L9+16
  73              		.loc 1 199 0
  74 003a 154C     		ldr	r4, .L9+4
  75 003c 194E     		ldr	r6, .L9+24
  76 003e E16C     		ldr	r1, [r4, #76]
  77              	.LVL4:
  78              		.loc 1 198 0
  79 0040 1373     		strb	r3, [r2, #12]
ARM GAS  /cygdrive/c/DOCUME~1/mkwapisz/LOCALS~1/Temp/ccK7czfo.s 			page 6


  80              		.loc 1 200 0
  81 0042 2B78     		ldrb	r3, [r5]
  82              		.loc 1 199 0
  83 0044 3160     		str	r1, [r6]
  84              		.loc 1 200 0
  85 0046 C91A     		sub	r1, r1, r3
  86 0048 174B     		ldr	r3, .L9+28
  87 004a 1B68     		ldr	r3, [r3]
  88 004c 6246     		mov	r2, ip
  89 004e C918     		add	r1, r1, r3
  90 0050 201C     		mov	r0, r4
  91 0052 3B1C     		mov	r3, r7
  92 0054 FFF7FEFF 		bl	file_fread
 201:testMMC.c     **** 				file_fread(&file,(fileSize - id3TagSize) +  authorOffset, readSize, myAuthor);
  93              		.loc 1 201 0
  94 0058 2B78     		ldrb	r3, [r5]
  95 005a 3168     		ldr	r1, [r6]
  96 005c C91A     		sub	r1, r1, r3
  97 005e 134B     		ldr	r3, .L9+32
  98 0060 1B68     		ldr	r3, [r3]
  99 0062 C918     		add	r1, r1, r3
 100 0064 0B4B     		ldr	r3, .L9+8
 101 0066 201C     		mov	r0, r4
 102 0068 1A78     		ldrb	r2, [r3]
 103 006a 0C4B     		ldr	r3, .L9+16
 104 006c FFF7FEFF 		bl	file_fread
 202:testMMC.c     **** 
 203:testMMC.c     **** 				currentSongInfo.name = myName;
 105              		.loc 1 203 0
 106 0070 0F4B     		ldr	r3, .L9+36
 204:testMMC.c     **** 				currentSongInfo.author = myAuthor;
 107              		.loc 1 204 0
 108 0072 0A4D     		ldr	r5, .L9+16
 109              		.loc 1 203 0
 110 0074 1F60     		str	r7, [r3]
 111              		.loc 1 204 0
 112 0076 5D60     		str	r5, [r3, #4]
 205:testMMC.c     **** 				file_fclose(&file);
 113              		.loc 1 205 0
 114 0078 201C     		mov	r0, r4
 115 007a FFF7FEFF 		bl	file_fclose
 116 007e 02E0     		b	.L8
 117              	.L2:
 118              	.LBE2:
 119              		.loc 1 186 0
 120 0080 0C4A     		ldr	r2, .L9+40
 121              	.LVL5:
 206:testMMC.c     **** 			}
 207:testMMC.c     **** 			else
 208:testMMC.c     **** 			{
 209:testMMC.c     **** 				DBG((TXT("Could not open file.\n")));
 210:testMMC.c     **** 				currentSongInfo.name = error03;
 122              		.loc 1 210 0
 123 0082 0B4B     		ldr	r3, .L9+36
 124 0084 1A60     		str	r2, [r3]
 125              	.L8:
 211:testMMC.c     **** 			}
ARM GAS  /cygdrive/c/DOCUME~1/mkwapisz/LOCALS~1/Temp/ccK7czfo.s 			page 7


 212:testMMC.c     **** 	//fs_umount(&(efs.myFs));
 213:testMMC.c     **** }
 126              		.loc 1 213 0
 127              		@ sp needed for prologue
 128 0086 F0BC     		pop	{r4, r5, r6, r7}
 129 0088 01BC     		pop	{r0}
 130 008a 0047     		bx	r0
 131              	.L10:
 132              		.align	2
 133              	.L9:
 134 008c 84020000 		.word	efs+644
 135 0090 00000000 		.word	file
 136 0094 00000000 		.word	readSize
 137 0098 00000000 		.word	myName
 138 009c 00000000 		.word	myAuthor
 139 00a0 00000000 		.word	id3TagSize
 140 00a4 00000000 		.word	fileSize
 141 00a8 00000000 		.word	titleOffset
 142 00ac 00000000 		.word	authorOffset
 143 00b0 00000000 		.word	currentSongInfo
 144 00b4 04000000 		.word	.LC11
 145              	.LFE5:
 146              		.size	testMMC, .-testMMC
 147              		.section	.rodata.str1.4
 148 000d 000000   		.align	2
 149              	.LC16:
 150 0010 5C00     		.ascii	"\\\000"
 151 0012 0000     		.align	2
 152              	.LC18:
 153 0014 4552523A 		.ascii	"ERR:filesys-1\000"
 153      66696C65 
 153      7379732D 
 153      3100
 154 0022 0000     		.align	2
 155              	.LC20:
 156 0024 4552523A 		.ascii	"ERR:filesys-2\000"
 156      66696C65 
 156      7379732D 
 156      3200
 157 0032 0000     		.align	2
 158              	.LC22:
 159 0034 4552523A 		.ascii	"ERR:filesys-3\000"
 159      66696C65 
 159      7379732D 
 159      3300
 160 0042 0000     		.align	2
 161              	.LC24:
 162 0044 4552523A 		.ascii	"ERR:filesys-4\000"
 162      66696C65 
 162      7379732D 
 162      3400
 163 0052 0000     		.align	2
 164              	.LC26:
 165 0054 4552523A 		.ascii	"ERR:filesys-10\000"
 165      66696C65 
 165      7379732D 
 165      313000
ARM GAS  /cygdrive/c/DOCUME~1/mkwapisz/LOCALS~1/Temp/ccK7czfo.s 			page 8


 166 0063 00       		.align	2
 167              	.LC28:
 168 0064 4552523A 		.ascii	"ERR:filesys-11\000"
 168      66696C65 
 168      7379732D 
 168      313100
 169 0073 00       		.align	2
 170              	.LC30:
 171 0074 4552523A 		.ascii	"ERR:filesys-12\000"
 171      66696C65 
 171      7379732D 
 171      313200
 172 0083 00       		.align	2
 173              	.LC32:
 174 0084 4552523A 		.ascii	"ERR:filesys-13\000"
 174      66696C65 
 174      7379732D 
 174      313300
 175 0093 00       		.align	2
 176              	.LC34:
 177 0094 4552523A 		.ascii	"ERR:filesys-14\000"
 177      66696C65 
 177      7379732D 
 177      313400
 178 00a3 00       		.align	2
 179              	.LC36:
 180 00a4 4552523A 		.ascii	"ERR:filesys-15\000"
 180      66696C65 
 180      7379732D 
 180      313500
 181 00b3 00       		.align	2
 182              	.LC38:
 183 00b4 4552523A 		.ascii	"ERR:filesys-16\000"
 183      66696C65 
 183      7379732D 
 183      313600
 184 00c3 00       		.align	2
 185              	.LC40:
 186 00c4 4552523A 		.ascii	"ERR:filesys-17\000"
 186      66696C65 
 186      7379732D 
 186      313700
 187 00d3 00       		.align	2
 188              	.LC44:
 189 00d4 2F00     		.ascii	"/\000"
 190 00d6 0000     		.align	2
 191              	.LC46:
 192 00d8 4552523A 		.ascii	"ERR:dir\000"
 192      64697200 
 193              		.align	2
 194              	.LC49:
 195 00e0 4F4B00   		.ascii	"OK\000"
 196              		.text
 197              		.align	2
 198              		.global	initMMC
 199              		.code 16
 200              		.thumb_func
ARM GAS  /cygdrive/c/DOCUME~1/mkwapisz/LOCALS~1/Temp/ccK7czfo.s 			page 9


 201              		.type	initMMC, %function
 202              	initMMC:
 203              	.LFB3:
 204              		.loc 1 66 0
 205 00b8 00B5     		push	{lr}
 206              	.LCFI1:
 207              		.loc 1 84 0
 208 00ba 2548     		ldr	r0, .L40
 209 00bc 2549     		ldr	r1, .L40+4
 210 00be FFF7FEFF 		bl	efs_init
 211              	.LVL6:
 212              		.loc 1 86 0
 213 00c2 431C     		add	r3, r0, #1
 214 00c4 01D1     		bne	.L12
 215 00c6 2448     		ldr	r0, .L40+8
 216              	.LVL7:
 217 00c8 40E0     		b	.L14
 218              	.LVL8:
 219              	.L12:
 220              		.loc 1 91 0
 221 00ca 831C     		add	r3, r0, #2
 222 00cc 01D1     		bne	.L15
 223 00ce 2348     		ldr	r0, .L40+12
 224              	.LVL9:
 225 00d0 3CE0     		b	.L14
 226              	.LVL10:
 227              	.L15:
 228              		.loc 1 96 0
 229 00d2 C31C     		add	r3, r0, #3
 230 00d4 01D1     		bne	.L17
 231 00d6 2248     		ldr	r0, .L40+16
 232              	.LVL11:
 233 00d8 38E0     		b	.L14
 234              	.LVL12:
 235              	.L17:
 236              		.loc 1 101 0
 237 00da 031D     		add	r3, r0, #4
 238 00dc 01D1     		bne	.L19
 239 00de 2148     		ldr	r0, .L40+20
 240              	.LVL13:
 241 00e0 34E0     		b	.L14
 242              	.LVL14:
 243              	.L19:
 244              		.loc 1 107 0
 245 00e2 031C     		mov	r3, r0
 246 00e4 0A33     		add	r3, r3, #10
 247 00e6 01D1     		bne	.L21
 248 00e8 1F48     		ldr	r0, .L40+24
 249              	.LVL15:
 250 00ea 2FE0     		b	.L14
 251              	.LVL16:
 252              	.L21:
 253              		.loc 1 112 0
 254 00ec 031C     		mov	r3, r0
 255 00ee 0B33     		add	r3, r3, #11
 256 00f0 01D1     		bne	.L23
 257 00f2 1E48     		ldr	r0, .L40+28
ARM GAS  /cygdrive/c/DOCUME~1/mkwapisz/LOCALS~1/Temp/ccK7czfo.s 			page 10


 258              	.LVL17:
 259 00f4 2AE0     		b	.L14
 260              	.LVL18:
 261              	.L23:
 262              		.loc 1 117 0
 263 00f6 031C     		mov	r3, r0
 264 00f8 0C33     		add	r3, r3, #12
 265 00fa 01D1     		bne	.L25
 266 00fc 1C48     		ldr	r0, .L40+32
 267              	.LVL19:
 268 00fe 25E0     		b	.L14
 269              	.LVL20:
 270              	.L25:
 271              		.loc 1 122 0
 272 0100 031C     		mov	r3, r0
 273 0102 0D33     		add	r3, r3, #13
 274 0104 01D1     		bne	.L27
 275 0106 1B48     		ldr	r0, .L40+36
 276              	.LVL21:
 277 0108 20E0     		b	.L14
 278              	.LVL22:
 279              	.L27:
 280              		.loc 1 127 0
 281 010a 031C     		mov	r3, r0
 282 010c 0E33     		add	r3, r3, #14
 283 010e 01D1     		bne	.L29
 284 0110 1948     		ldr	r0, .L40+40
 285              	.LVL23:
 286 0112 1BE0     		b	.L14
 287              	.LVL24:
 288              	.L29:
 289              		.loc 1 132 0
 290 0114 031C     		mov	r3, r0
 291 0116 0F33     		add	r3, r3, #15
 292 0118 01D1     		bne	.L31
 293 011a 1848     		ldr	r0, .L40+44
 294              	.LVL25:
 295 011c 16E0     		b	.L14
 296              	.LVL26:
 297              	.L31:
 298              		.loc 1 137 0
 299 011e 031C     		mov	r3, r0
 300 0120 1033     		add	r3, r3, #16
 301 0122 01D1     		bne	.L33
 302 0124 1648     		ldr	r0, .L40+48
 303              	.LVL27:
 304 0126 11E0     		b	.L14
 305              	.LVL28:
 306              	.L33:
 307              		.loc 1 142 0
 308 0128 1130     		add	r0, r0, #17
 309 012a 01D1     		bne	.L35
 310              	.LVL29:
 311 012c 1548     		ldr	r0, .L40+52
 312              	.LVL30:
 313 012e 0DE0     		b	.L14
 314              	.LVL31:
ARM GAS  /cygdrive/c/DOCUME~1/mkwapisz/LOCALS~1/Temp/ccK7czfo.s 			page 11


 315              	.L35:
 316              		.loc 1 148 0
 317 0130 1548     		ldr	r0, .L40+56
 318 0132 1649     		ldr	r1, .L40+60
 319 0134 164A     		ldr	r2, .L40+64
 320 0136 FFF7FEFF 		bl	ls_openDir
 321 013a 0006     		lsl	r0, r0, #24
 322 013c 0028     		cmp	r0, #0
 323 013e 01D0     		beq	.L37
 324 0140 1448     		ldr	r0, .L40+68
 325              	.LVL32:
 326 0142 03E0     		b	.L14
 327              	.LVL33:
 328              	.L37:
 329              		.loc 1 153 0
 330 0144 144A     		ldr	r2, .L40+72
 331 0146 0123     		mov	r3, #1
 332 0148 1370     		strb	r3, [r2]
 333 014a 1448     		ldr	r0, .L40+76
 334              	.LVL34:
 335              	.L14:
 336              	.LVL35:
 337              		.loc 1 155 0
 338              		@ sp needed for prologue
 339 014c 02BC     		pop	{r1}
 340 014e 0847     		bx	r1
 341              	.L41:
 342              		.align	2
 343              	.L40:
 344 0150 00000000 		.word	efs
 345 0154 10000000 		.word	.LC16
 346 0158 14000000 		.word	.LC18
 347 015c 24000000 		.word	.LC20
 348 0160 34000000 		.word	.LC22
 349 0164 44000000 		.word	.LC24
 350 0168 54000000 		.word	.LC26
 351 016c 64000000 		.word	.LC28
 352 0170 74000000 		.word	.LC30
 353 0174 84000000 		.word	.LC32
 354 0178 94000000 		.word	.LC34
 355 017c A4000000 		.word	.LC36
 356 0180 B4000000 		.word	.LC38
 357 0184 C4000000 		.word	.LC40
 358 0188 00000000 		.word	list
 359 018c 84020000 		.word	efs+644
 360 0190 D4000000 		.word	.LC44
 361 0194 D8000000 		.word	.LC46
 362 0198 00000000 		.word	mmcInitialized
 363 019c E0000000 		.word	.LC49
 364              	.LFE3:
 365              		.size	initMMC, .-initMMC
 366              		.align	2
 367              		.global	format_file_name
 368              		.code 16
 369              		.thumb_func
 370              		.type	format_file_name, %function
 371              	format_file_name:
ARM GAS  /cygdrive/c/DOCUME~1/mkwapisz/LOCALS~1/Temp/ccK7czfo.s 			page 12


 372              	.LFB2:
 373              		.loc 1 51 0
 374 01a0 70B5     		push	{r4, r5, r6, lr}
 375              	.LCFI2:
 376              	.LVL36:
 377              		.loc 1 51 0
 378 01a2 061C     		mov	r6, r0
 379 01a4 0D1C     		mov	r5, r1
 380 01a6 CA1D     		add	r2, r1, #7
 381 01a8 0724     		mov	r4, #7
 382              	.LVL37:
 383 01aa 05E0     		b	.L43
 384              	.LVL38:
 385              	.L44:
 386              		.loc 1 54 0
 387 01ac 631E     		sub	r3, r4, #1
 388 01ae 1B06     		lsl	r3, r3, #24
 389 01b0 1C0E     		lsr	r4, r3, #24
 390 01b2 013A     		sub	r2, r2, #1
 391 01b4 002C     		cmp	r4, #0
 392 01b6 02D0     		beq	.L45
 393              	.L43:
 394 01b8 1378     		ldrb	r3, [r2]
 395 01ba 202B     		cmp	r3, #32
 396 01bc F6D0     		beq	.L44
 397              	.L45:
 398              		.loc 1 56 0
 399 01be 621C     		add	r2, r4, #1
 400 01c0 301C     		mov	r0, r6
 401 01c2 291C     		mov	r1, r5
 402 01c4 FFF7FEFF 		bl	strncpy
 403              	.LVL39:
 404              		.loc 1 57 0
 405 01c8 3419     		add	r4, r6, r4
 406              	.LVL40:
 407 01ca 2E23     		mov	r3, #46
 408 01cc 6370     		strb	r3, [r4, #1]
 409              		.loc 1 59 0
 410 01ce AA7A     		ldrb	r2, [r5, #10]
 411 01d0 202A     		cmp	r2, #32
 412 01d2 01D0     		beq	.L46
 413 01d4 0222     		mov	r2, #2
 414              	.LVL41:
 415 01d6 03E0     		b	.L48
 416              	.LVL42:
 417              	.L46:
 418 01d8 6B7A     		ldrb	r3, [r5, #9]
 419 01da 5340     		eor	r3, r3, r2
 420 01dc 5B42     		neg	r3, r3
 421 01de DA0F     		lsr	r2, r3, #31
 422              	.LVL43:
 423              	.L48:
 424              		.loc 1 61 0
 425 01e0 291C     		mov	r1, r5
 426 01e2 A01C     		add	r0, r4, #2
 427 01e4 0831     		add	r1, r1, #8
 428 01e6 0132     		add	r2, r2, #1
ARM GAS  /cygdrive/c/DOCUME~1/mkwapisz/LOCALS~1/Temp/ccK7czfo.s 			page 13


 429              	.LVL44:
 430 01e8 FFF7FEFF 		bl	strncpy
 431              		.loc 1 62 0
 432 01ec 0023     		mov	r3, #0
 433 01ee 6371     		strb	r3, [r4, #5]
 434              		.loc 1 63 0
 435              		@ sp needed for prologue
 436              	.LVL45:
 437              	.LVL46:
 438 01f0 70BC     		pop	{r4, r5, r6}
 439 01f2 01BC     		pop	{r0}
 440 01f4 0047     		bx	r0
 441              	.LFE2:
 442              		.size	format_file_name, .-format_file_name
 443 01f6 0000     		.align	2
 444              		.global	getFileNames
 445              		.code 16
 446              		.thumb_func
 447              		.type	getFileNames, %function
 448              	getFileNames:
 449              	.LFB4:
 450              		.loc 1 158 0
 451 01f8 70B5     		push	{r4, r5, r6, lr}
 452              	.LCFI3:
 453 01fa 0026     		mov	r6, #0
 454 01fc 16E0     		b	.L67
 455              	.L54:
 456              		.loc 1 169 0
 457 01fe 104A     		ldr	r2, .L68
 458 0200 2B69     		ldr	r3, [r5, #16]
 459 0202 1340     		and	r3, r3, r2
 460 0204 0F4A     		ldr	r2, .L68+4
 461 0206 9342     		cmp	r3, r2
 462 0208 10D1     		bne	.L67
 463              	.LBB3:
 464              		.loc 1 175 0
 465 020a 0F4C     		ldr	r4, .L68+8
 466 020c 291C     		mov	r1, r5
 467 020e 0831     		add	r1, r1, #8
 468 0210 201C     		mov	r0, r4
 469 0212 FFF7FEFF 		bl	format_file_name
 470 0216 0D4B     		ldr	r3, .L68+12
 471 0218 211C     		mov	r1, r4
 472 021a F218     		add	r2, r6, r3
 473 021c 0D31     		add	r1, r1, #13
 474              	.L56:
 475              		.loc 1 177 0
 476 021e 2378     		ldrb	r3, [r4]
 477 0220 0134     		add	r4, r4, #1
 478 0222 1370     		strb	r3, [r2]
 479 0224 0132     		add	r2, r2, #1
 480 0226 8C42     		cmp	r4, r1
 481 0228 F9D1     		bne	.L56
 482 022a 0D36     		add	r6, r6, #13
 483              	.L67:
 484              	.LBE3:
 485              		.loc 1 167 0
ARM GAS  /cygdrive/c/DOCUME~1/mkwapisz/LOCALS~1/Temp/ccK7czfo.s 			page 14


 486 022c 084D     		ldr	r5, .L68+16
 487 022e 281C     		mov	r0, r5
 488 0230 FFF7FEFF 		bl	ls_getNext
 489 0234 0006     		lsl	r0, r0, #24
 490 0236 0028     		cmp	r0, #0
 491 0238 E1D0     		beq	.L54
 492              		.loc 1 182 0
 493              		@ sp needed for prologue
 494 023a 70BC     		pop	{r4, r5, r6}
 495 023c 01BC     		pop	{r0}
 496 023e 0047     		bx	r0
 497              	.L69:
 498              		.align	2
 499              	.L68:
 500 0240 FFFFFF00 		.word	16777215
 501 0244 4D503300 		.word	3362893
 502 0248 00000000 		.word	file_name
 503 024c 00000000 		.word	files
 504 0250 00000000 		.word	list
 505              	.LFE4:
 506              		.size	getFileNames, .-getFileNames
 507              		.section	.rodata.str1.4
 508 00e3 00       		.subsection	-1
 509              		.align	2
 510              	.LC60:
 511 0000 00       		.ascii	"\000"
 512              		.text
 513              		.align	2
 514              		.global	MMCproc
 515              		.code 16
 516              		.thumb_func
 517              		.type	MMCproc, %function
 518              	MMCproc:
 519              	.LFB6:
 214:testMMC.c     **** 
 215:testMMC.c     **** void MMCproc(void)
 216:testMMC.c     **** {
 520              		.loc 1 216 0
 521 0254 30B5     		push	{r4, r5, lr}
 522              	.LCFI4:
 217:testMMC.c     **** 			char* toReturn;
 218:testMMC.c     **** 			toReturn = initMMC();
 523              		.loc 1 218 0
 524 0256 FFF7FEFF 		bl	initMMC
 219:testMMC.c     **** 			mmcInitialized = 1;
 525              		.loc 1 219 0
 526 025a 344A     		ldr	r2, .L90
 527 025c 0121     		mov	r1, #1
 528 025e 1170     		strb	r1, [r2]
 529              	.LVL47:
 220:testMMC.c     **** 			if(!(toReturn[0] == 'O' && toReturn[1] == 'K'))
 530              		.loc 1 220 0
 531 0260 0378     		ldrb	r3, [r0]
 532 0262 4F2B     		cmp	r3, #79
 533 0264 02D1     		bne	.L71
 534 0266 4378     		ldrb	r3, [r0, #1]
 535 0268 4B2B     		cmp	r3, #75
ARM GAS  /cygdrive/c/DOCUME~1/mkwapisz/LOCALS~1/Temp/ccK7czfo.s 			page 15


 536 026a 05D0     		beq	.L73
 537              	.L71:
 221:testMMC.c     **** 			{
 222:testMMC.c     **** 				isError = 1;
 538              		.loc 1 222 0
 539 026c 304B     		ldr	r3, .L90+4
 540 026e 1960     		str	r1, [r3]
 223:testMMC.c     **** 				error = toReturn;
 541              		.loc 1 223 0
 542 0270 304B     		ldr	r3, .L90+8
 543 0272 1860     		str	r0, [r3]
 224:testMMC.c     **** 				mmcInitialized = 0;
 544              		.loc 1 224 0
 545 0274 0023     		mov	r3, #0
 546 0276 1370     		strb	r3, [r2]
 547              	.L73:
 548 0278 2F4C     		ldr	r4, .L90+12
 549 027a 3049     		ldr	r1, .L90+16
 550 027c 304B     		ldr	r3, .L90+20
 551 027e 6218     		add	r2, r4, r1
 552              	.L74:
 225:testMMC.c     **** 			}
 226:testMMC.c     **** 	int i;
 227:testMMC.c     **** 	for(i = 0; i < 99; i++)
 228:testMMC.c     **** 	{
 229:testMMC.c     **** 		files[i][0] = "";
 553              		.loc 1 229 0
 554 0280 2370     		strb	r3, [r4]
 555 0282 0D34     		add	r4, r4, #13
 556              		.loc 1 227 0
 557 0284 9442     		cmp	r4, r2
 558 0286 FBD1     		bne	.L74
 230:testMMC.c     **** 	}
 231:testMMC.c     **** 	getFileNames();
 559              		.loc 1 231 0
 560 0288 FFF7FEFF 		bl	getFileNames
 561              	.LVL48:
 232:testMMC.c     **** 	testMMC(&files[currentSongInfo.ID][0]);
 562              		.loc 1 232 0
 563 028c 2D4B     		ldr	r3, .L90+24
 564 028e 1B7B     		ldrb	r3, [r3, #12]
 565 0290 5800     		lsl	r0, r3, #1
 566 0292 C018     		add	r0, r0, r3
 567 0294 2C4A     		ldr	r2, .L90+28
 568 0296 8000     		lsl	r0, r0, #2
 569 0298 C018     		add	r0, r0, r3
 570 029a A318     		add	r3, r4, r2
 571 029c C018     		add	r0, r0, r3
 572 029e FFF7FEFF 		bl	testMMC
 573              	.L76:
 233:testMMC.c     **** /*
 234:testMMC.c     **** 	IODIR0 &= ~(1<<JOYSTICK_RIGHT);
 235:testMMC.c     **** 	IOCLR0 |= (1<<JOYSTICK_RIGHT);*/
 236:testMMC.c     **** 	while(1)
 237:testMMC.c     **** 	{
 238:testMMC.c     **** 		if(changeLeft == 1)
 574              		.loc 1 238 0
ARM GAS  /cygdrive/c/DOCUME~1/mkwapisz/LOCALS~1/Temp/ccK7czfo.s 			page 16


 575 02a2 2A4C     		ldr	r4, .L90+32
 576 02a4 2378     		ldrb	r3, [r4]
 577 02a6 012B     		cmp	r3, #1
 578 02a8 01D1     		bne	.L77
 239:testMMC.c     **** 		{
 240:testMMC.c     **** 			changeLeft = 0;
 579              		.loc 1 240 0
 580 02aa 0023     		mov	r3, #0
 581 02ac 2370     		strb	r3, [r4]
 582              	.L77:
 241:testMMC.c     **** 		}
 242:testMMC.c     **** 		if((IOPIN0 & (1<<JOYSTICK_RIGHT)) == 0)
 583              		.loc 1 242 0
 584 02ae 284D     		ldr	r5, .L90+36
 585 02b0 2B68     		ldr	r3, [r5]
 586 02b2 5903     		lsl	r1, r3, #13
 587 02b4 13D4     		bmi	.L79
 243:testMMC.c     **** 		{
 244:testMMC.c     **** 			 //kurwa modulo
 245:testMMC.c     **** 			 file_fclose(&file);
 588              		.loc 1 245 0
 589 02b6 2748     		ldr	r0, .L90+40
 590 02b8 FFF7FEFF 		bl	file_fclose
 246:testMMC.c     **** 			 currentSongInfo.ID = (currentSongInfo.ID++ % 3);
 591              		.loc 1 246 0
 592 02bc 214A     		ldr	r2, .L90+24
 593 02be 137B     		ldrb	r3, [r2, #12]
 594 02c0 0133     		add	r3, r3, #1
 595 02c2 1B06     		lsl	r3, r3, #24
 596 02c4 1B0E     		lsr	r3, r3, #24
 247:testMMC.c     **** 			 testMMC(&files[currentSongInfo.ID][0]);
 597              		.loc 1 247 0
 598 02c6 5800     		lsl	r0, r3, #1
 599 02c8 C018     		add	r0, r0, r3
 600 02ca 8000     		lsl	r0, r0, #2
 601              		.loc 1 246 0
 602 02cc 1373     		strb	r3, [r2, #12]
 603              		.loc 1 247 0
 604 02ce C018     		add	r0, r0, r3
 605 02d0 194B     		ldr	r3, .L90+12
 606 02d2 C018     		add	r0, r0, r3
 607 02d4 FFF7FEFF 		bl	testMMC
 248:testMMC.c     **** 			 changeRight=1;
 608              		.loc 1 248 0
 609 02d8 1F4A     		ldr	r2, .L90+44
 610 02da 0123     		mov	r3, #1
 611 02dc 1370     		strb	r3, [r2]
 612              	.L79:
 249:testMMC.c     **** 		}
 250:testMMC.c     **** 
 251:testMMC.c     **** 		if((IOPIN0 & (1<<JOYSTICK_LEFT)) == 0)
 613              		.loc 1 251 0
 614 02de 2B68     		ldr	r3, [r5]
 615 02e0 1A03     		lsl	r2, r3, #12
 616 02e2 12D4     		bmi	.L81
 252:testMMC.c     **** 				{
 253:testMMC.c     **** 					 //modulo
ARM GAS  /cygdrive/c/DOCUME~1/mkwapisz/LOCALS~1/Temp/ccK7czfo.s 			page 17


 254:testMMC.c     **** 					 file_fclose(&file);
 617              		.loc 1 254 0
 618 02e4 1B48     		ldr	r0, .L90+40
 619 02e6 FFF7FEFF 		bl	file_fclose
 255:testMMC.c     **** 					 currentSongInfo.ID = (currentSongInfo.ID-- % 3);
 620              		.loc 1 255 0
 621 02ea 164A     		ldr	r2, .L90+24
 622 02ec 137B     		ldrb	r3, [r2, #12]
 623 02ee 013B     		sub	r3, r3, #1
 624 02f0 1B06     		lsl	r3, r3, #24
 625 02f2 1B0E     		lsr	r3, r3, #24
 256:testMMC.c     **** 					 testMMC(&files[currentSongInfo.ID][0]);
 626              		.loc 1 256 0
 627 02f4 5800     		lsl	r0, r3, #1
 628 02f6 C018     		add	r0, r0, r3
 629 02f8 8000     		lsl	r0, r0, #2
 630              		.loc 1 255 0
 631 02fa 1373     		strb	r3, [r2, #12]
 632              		.loc 1 256 0
 633 02fc C018     		add	r0, r0, r3
 634 02fe 0E4B     		ldr	r3, .L90+12
 635 0300 C018     		add	r0, r0, r3
 636 0302 FFF7FEFF 		bl	testMMC
 257:testMMC.c     **** 					 changeLeft=1;
 637              		.loc 1 257 0
 638 0306 0123     		mov	r3, #1
 639 0308 2370     		strb	r3, [r4]
 640              	.L81:
 258:testMMC.c     **** 				}
 259:testMMC.c     **** 		if(rewindForward == 1)
 641              		.loc 1 259 0
 642 030a 144A     		ldr	r2, .L90+48
 643 030c 1378     		ldrb	r3, [r2]
 644 030e 012B     		cmp	r3, #1
 645 0310 01D1     		bne	.L83
 260:testMMC.c     **** 		{
 261:testMMC.c     **** 			rewindForward = 0;
 646              		.loc 1 261 0
 647 0312 0023     		mov	r3, #0
 648 0314 1370     		strb	r3, [r2]
 649              	.L83:
 262:testMMC.c     **** 		}
 263:testMMC.c     **** 		if(rewindBackward == 1)
 650              		.loc 1 263 0
 651 0316 124A     		ldr	r2, .L90+52
 652 0318 1378     		ldrb	r3, [r2]
 653 031a 012B     		cmp	r3, #1
 654 031c 01D1     		bne	.L85
 264:testMMC.c     **** 		{
 265:testMMC.c     **** 			rewindBackward = 0;
 655              		.loc 1 265 0
 656 031e 0023     		mov	r3, #0
 657 0320 1370     		strb	r3, [r2]
 658              	.L85:
 266:testMMC.c     **** 		}
 267:testMMC.c     **** 
 268:testMMC.c     **** 		 osSleep(50);
ARM GAS  /cygdrive/c/DOCUME~1/mkwapisz/LOCALS~1/Temp/ccK7czfo.s 			page 18


 659              		.loc 1 268 0
 660 0322 3220     		mov	r0, #50
 661 0324 FFF7FEFF 		bl	osSleep
 662 0328 BBE7     		b	.L76
 663              	.L91:
 664 032a 0000     		.align	2
 665              	.L90:
 666 032c 00000000 		.word	mmcInitialized
 667 0330 00000000 		.word	isError
 668 0334 00000000 		.word	error
 669 0338 00000000 		.word	files
 670 033c 07050000 		.word	1287
 671 0340 00000000 		.word	.LC60
 672 0344 00000000 		.word	currentSongInfo
 673 0348 F9FAFFFF 		.word	-1287
 674 034c 00000000 		.word	changeLeft
 675 0350 008002E0 		.word	-536707072
 676 0354 00000000 		.word	file
 677 0358 00000000 		.word	changeRight
 678 035c 00000000 		.word	rewindForward
 679 0360 00000000 		.word	rewindBackward
 680              	.LFE6:
 681              		.size	MMCproc, .-MMCproc
 682              		.global	id3TagSize
 683              		.data
 684              		.type	id3TagSize, %object
 685              		.size	id3TagSize, 1
 686              	id3TagSize:
 687 0000 80       		.byte	-128
 688              		.global	readSize
 689              		.type	readSize, %object
 690              		.size	readSize, 1
 691              	readSize:
 692 0001 0C       		.byte	12
 693              		.global	titleOffset
 694 0002 0000     		.align	2
 695              		.type	titleOffset, %object
 696              		.size	titleOffset, 4
 697              	titleOffset:
 698 0004 03000000 		.word	3
 699              		.global	authorOffset
 700              		.align	2
 701              		.type	authorOffset, %object
 702              		.size	authorOffset, 4
 703              	authorOffset:
 704 0008 21000000 		.word	33
 705              		.comm	currentSongInfo,16,4
 706              		.comm	mmcInitialized,1,1
 707              		.comm	changeLeft,1,1
 708              		.comm	changeRight,1,1
 709              		.comm	rewindForward,1,1
 710              		.comm	rewindBackward,1,1
 711              		.comm	isError,4,4
 712              		.comm	error,4,4
 713              		.comm	fileSize,4,4
 714              		.comm	myName,13,1
 715              		.comm	myAuthor,13,1
ARM GAS  /cygdrive/c/DOCUME~1/mkwapisz/LOCALS~1/Temp/ccK7czfo.s 			page 19


 716              		.comm	efs,708,4
 717              		.comm	file,80,4
 718              		.comm	list,52,4
 719              		.comm	file_name,13,1
 720              		.comm	size,4,4
 721              		.comm	files,3328,1
 722              		.section	.debug_frame,"",%progbits
 723              	.Lframe0:
 724 0000 0C000000 		.4byte	.LECIE0-.LSCIE0
 725              	.LSCIE0:
 726 0004 FFFFFFFF 		.4byte	0xffffffff
 727 0008 01       		.byte	0x1
 728 0009 00       		.ascii	"\000"
 729 000a 01       		.uleb128 0x1
 730 000b 7C       		.sleb128 -4
 731 000c 0E       		.byte	0xe
 732 000d 0C       		.byte	0xc
 733 000e 0D       		.uleb128 0xd
 734 000f 00       		.uleb128 0x0
 735              		.align	2
 736              	.LECIE0:
 737              	.LSFDE0:
 738 0010 1C000000 		.4byte	.LEFDE0-.LASFDE0
 739              	.LASFDE0:
 740 0014 00000000 		.4byte	.Lframe0
 741 0018 00000000 		.4byte	.LFB5
 742 001c B8000000 		.4byte	.LFE5-.LFB5
 743 0020 42       		.byte	0x4
 744              		.4byte	.LCFI0-.LFB5
 745 0021 0E       		.byte	0xe
 746 0022 14       		.uleb128 0x14
 747 0023 84       		.byte	0x84
 748 0024 05       		.uleb128 0x5
 749 0025 85       		.byte	0x85
 750 0026 04       		.uleb128 0x4
 751 0027 86       		.byte	0x86
 752 0028 03       		.uleb128 0x3
 753 0029 87       		.byte	0x87
 754 002a 02       		.uleb128 0x2
 755 002b 8E       		.byte	0x8e
 756 002c 01       		.uleb128 0x1
 757 002d 000000   		.align	2
 758              	.LEFDE0:
 759              	.LSFDE2:
 760 0030 14000000 		.4byte	.LEFDE2-.LASFDE2
 761              	.LASFDE2:
 762 0034 00000000 		.4byte	.Lframe0
 763 0038 B8000000 		.4byte	.LFB3
 764 003c E8000000 		.4byte	.LFE3-.LFB3
 765 0040 42       		.byte	0x4
 766              		.4byte	.LCFI1-.LFB3
 767 0041 0E       		.byte	0xe
 768 0042 04       		.uleb128 0x4
 769 0043 8E       		.byte	0x8e
 770 0044 01       		.uleb128 0x1
 771 0045 000000   		.align	2
 772              	.LEFDE2:
ARM GAS  /cygdrive/c/DOCUME~1/mkwapisz/LOCALS~1/Temp/ccK7czfo.s 			page 20


 773              	.LSFDE4:
 774 0048 18000000 		.4byte	.LEFDE4-.LASFDE4
 775              	.LASFDE4:
 776 004c 00000000 		.4byte	.Lframe0
 777 0050 A0010000 		.4byte	.LFB2
 778 0054 56000000 		.4byte	.LFE2-.LFB2
 779 0058 42       		.byte	0x4
 780              		.4byte	.LCFI2-.LFB2
 781 0059 0E       		.byte	0xe
 782 005a 10       		.uleb128 0x10
 783 005b 84       		.byte	0x84
 784 005c 04       		.uleb128 0x4
 785 005d 85       		.byte	0x85
 786 005e 03       		.uleb128 0x3
 787 005f 86       		.byte	0x86
 788 0060 02       		.uleb128 0x2
 789 0061 8E       		.byte	0x8e
 790 0062 01       		.uleb128 0x1
 791 0063 00       		.align	2
 792              	.LEFDE4:
 793              	.LSFDE6:
 794 0064 18000000 		.4byte	.LEFDE6-.LASFDE6
 795              	.LASFDE6:
 796 0068 00000000 		.4byte	.Lframe0
 797 006c F8010000 		.4byte	.LFB4
 798 0070 5C000000 		.4byte	.LFE4-.LFB4
 799 0074 42       		.byte	0x4
 800              		.4byte	.LCFI3-.LFB4
 801 0075 0E       		.byte	0xe
 802 0076 10       		.uleb128 0x10
 803 0077 84       		.byte	0x84
 804 0078 04       		.uleb128 0x4
 805 0079 85       		.byte	0x85
 806 007a 03       		.uleb128 0x3
 807 007b 86       		.byte	0x86
 808 007c 02       		.uleb128 0x2
 809 007d 8E       		.byte	0x8e
 810 007e 01       		.uleb128 0x1
 811 007f 00       		.align	2
 812              	.LEFDE6:
 813              	.LSFDE8:
 814 0080 18000000 		.4byte	.LEFDE8-.LASFDE8
 815              	.LASFDE8:
 816 0084 00000000 		.4byte	.Lframe0
 817 0088 54020000 		.4byte	.LFB6
 818 008c 10010000 		.4byte	.LFE6-.LFB6
 819 0090 42       		.byte	0x4
 820              		.4byte	.LCFI4-.LFB6
 821 0091 0E       		.byte	0xe
 822 0092 0C       		.uleb128 0xc
 823 0093 84       		.byte	0x84
 824 0094 03       		.uleb128 0x3
 825 0095 85       		.byte	0x85
 826 0096 02       		.uleb128 0x2
 827 0097 8E       		.byte	0x8e
 828 0098 01       		.uleb128 0x1
 829 0099 000000   		.align	2
ARM GAS  /cygdrive/c/DOCUME~1/mkwapisz/LOCALS~1/Temp/ccK7czfo.s 			page 21


 830              	.LEFDE8:
 831              		.file 2 "mp3shared.h"
 832              		.file 3 "./filesys/efs.h"
 833              		.file 4 "./filesys/../mmc/hwinterface.h"
 834              		.file 5 "./filesys/ioman.h"
 835              		.file 6 "./filesys/../mmc/types.h"
 836              		.file 7 "./filesys/disc.h"
 837              		.file 8 "./filesys/partition.h"
 838              		.file 9 "./filesys/fs.h"
 839              		.file 10 "./filesys/file.h"
 840              		.file 11 "./filesys/ls.h"
 841              		.text
 842              	.Letext0:
 843              		.section	.debug_loc,"",%progbits
 844              	.Ldebug_loc0:
 845              	.LLST0:
 846 0000 00000000 		.4byte	.LFB5-.Ltext0
 847 0004 02000000 		.4byte	.LCFI0-.Ltext0
 848 0008 0100     		.2byte	0x1
 849 000a 5D       		.byte	0x5d
 850 000b 02000000 		.4byte	.LCFI0-.Ltext0
 851 000f B8000000 		.4byte	.LFE5-.Ltext0
 852 0013 0200     		.2byte	0x2
 853 0015 7D       		.byte	0x7d
 854 0016 14       		.sleb128 20
 855 0017 00000000 		.4byte	0x0
 856 001b 00000000 		.4byte	0x0
 857              	.LLST1:
 858 001f 02000000 		.4byte	.LVL0-.Ltext0
 859 0023 08000000 		.4byte	.LVL1-.Ltext0
 860 0027 0100     		.2byte	0x1
 861 0029 50       		.byte	0x50
 862 002a 08000000 		.4byte	.LVL1-.Ltext0
 863 002e 0E000000 		.4byte	.LVL2-.Ltext0
 864 0032 0100     		.2byte	0x1
 865 0034 52       		.byte	0x52
 866 0035 00000000 		.4byte	0x0
 867 0039 00000000 		.4byte	0x0
 868              	.LLST2:
 869 003d 1E000000 		.4byte	.LVL3-.Ltext0
 870 0041 40000000 		.4byte	.LVL4-.Ltext0
 871 0045 0100     		.2byte	0x1
 872 0047 51       		.byte	0x51
 873 0048 00000000 		.4byte	0x0
 874 004c 00000000 		.4byte	0x0
 875              	.LLST3:
 876 0050 B8000000 		.4byte	.LFB3-.Ltext0
 877 0054 BA000000 		.4byte	.LCFI1-.Ltext0
 878 0058 0100     		.2byte	0x1
 879 005a 5D       		.byte	0x5d
 880 005b BA000000 		.4byte	.LCFI1-.Ltext0
 881 005f A0010000 		.4byte	.LFE3-.Ltext0
 882 0063 0200     		.2byte	0x2
 883 0065 7D       		.byte	0x7d
 884 0066 04       		.sleb128 4
 885 0067 00000000 		.4byte	0x0
 886 006b 00000000 		.4byte	0x0
ARM GAS  /cygdrive/c/DOCUME~1/mkwapisz/LOCALS~1/Temp/ccK7czfo.s 			page 22


 887              	.LLST4:
 888 006f C8000000 		.4byte	.LVL7-.Ltext0
 889 0073 CA000000 		.4byte	.LVL8-.Ltext0
 890 0077 0100     		.2byte	0x1
 891 0079 50       		.byte	0x50
 892 007a D0000000 		.4byte	.LVL9-.Ltext0
 893 007e D2000000 		.4byte	.LVL10-.Ltext0
 894 0082 0100     		.2byte	0x1
 895 0084 50       		.byte	0x50
 896 0085 D8000000 		.4byte	.LVL11-.Ltext0
 897 0089 DA000000 		.4byte	.LVL12-.Ltext0
 898 008d 0100     		.2byte	0x1
 899 008f 50       		.byte	0x50
 900 0090 E0000000 		.4byte	.LVL13-.Ltext0
 901 0094 E2000000 		.4byte	.LVL14-.Ltext0
 902 0098 0100     		.2byte	0x1
 903 009a 50       		.byte	0x50
 904 009b EA000000 		.4byte	.LVL15-.Ltext0
 905 009f EC000000 		.4byte	.LVL16-.Ltext0
 906 00a3 0100     		.2byte	0x1
 907 00a5 50       		.byte	0x50
 908 00a6 F4000000 		.4byte	.LVL17-.Ltext0
 909 00aa F6000000 		.4byte	.LVL18-.Ltext0
 910 00ae 0100     		.2byte	0x1
 911 00b0 50       		.byte	0x50
 912 00b1 FE000000 		.4byte	.LVL19-.Ltext0
 913 00b5 00010000 		.4byte	.LVL20-.Ltext0
 914 00b9 0100     		.2byte	0x1
 915 00bb 50       		.byte	0x50
 916 00bc 08010000 		.4byte	.LVL21-.Ltext0
 917 00c0 0A010000 		.4byte	.LVL22-.Ltext0
 918 00c4 0100     		.2byte	0x1
 919 00c6 50       		.byte	0x50
 920 00c7 12010000 		.4byte	.LVL23-.Ltext0
 921 00cb 14010000 		.4byte	.LVL24-.Ltext0
 922 00cf 0100     		.2byte	0x1
 923 00d1 50       		.byte	0x50
 924 00d2 1C010000 		.4byte	.LVL25-.Ltext0
 925 00d6 1E010000 		.4byte	.LVL26-.Ltext0
 926 00da 0100     		.2byte	0x1
 927 00dc 50       		.byte	0x50
 928 00dd 26010000 		.4byte	.LVL27-.Ltext0
 929 00e1 28010000 		.4byte	.LVL28-.Ltext0
 930 00e5 0100     		.2byte	0x1
 931 00e7 50       		.byte	0x50
 932 00e8 2E010000 		.4byte	.LVL30-.Ltext0
 933 00ec 30010000 		.4byte	.LVL31-.Ltext0
 934 00f0 0100     		.2byte	0x1
 935 00f2 50       		.byte	0x50
 936 00f3 42010000 		.4byte	.LVL32-.Ltext0
 937 00f7 44010000 		.4byte	.LVL33-.Ltext0
 938 00fb 0100     		.2byte	0x1
 939 00fd 50       		.byte	0x50
 940 00fe 4C010000 		.4byte	.LVL34-.Ltext0
 941 0102 4C010000 		.4byte	.LVL35-.Ltext0
 942 0106 0100     		.2byte	0x1
 943 0108 50       		.byte	0x50
ARM GAS  /cygdrive/c/DOCUME~1/mkwapisz/LOCALS~1/Temp/ccK7czfo.s 			page 23


 944 0109 00000000 		.4byte	0x0
 945 010d 00000000 		.4byte	0x0
 946              	.LLST5:
 947 0111 C2000000 		.4byte	.LVL6-.Ltext0
 948 0115 C8000000 		.4byte	.LVL7-.Ltext0
 949 0119 0100     		.2byte	0x1
 950 011b 50       		.byte	0x50
 951 011c CA000000 		.4byte	.LVL8-.Ltext0
 952 0120 D0000000 		.4byte	.LVL9-.Ltext0
 953 0124 0100     		.2byte	0x1
 954 0126 50       		.byte	0x50
 955 0127 D2000000 		.4byte	.LVL10-.Ltext0
 956 012b D8000000 		.4byte	.LVL11-.Ltext0
 957 012f 0100     		.2byte	0x1
 958 0131 50       		.byte	0x50
 959 0132 DA000000 		.4byte	.LVL12-.Ltext0
 960 0136 E0000000 		.4byte	.LVL13-.Ltext0
 961 013a 0100     		.2byte	0x1
 962 013c 50       		.byte	0x50
 963 013d E2000000 		.4byte	.LVL14-.Ltext0
 964 0141 EA000000 		.4byte	.LVL15-.Ltext0
 965 0145 0100     		.2byte	0x1
 966 0147 50       		.byte	0x50
 967 0148 EC000000 		.4byte	.LVL16-.Ltext0
 968 014c F4000000 		.4byte	.LVL17-.Ltext0
 969 0150 0100     		.2byte	0x1
 970 0152 50       		.byte	0x50
 971 0153 F6000000 		.4byte	.LVL18-.Ltext0
 972 0157 FE000000 		.4byte	.LVL19-.Ltext0
 973 015b 0100     		.2byte	0x1
 974 015d 50       		.byte	0x50
 975 015e 00010000 		.4byte	.LVL20-.Ltext0
 976 0162 08010000 		.4byte	.LVL21-.Ltext0
 977 0166 0100     		.2byte	0x1
 978 0168 50       		.byte	0x50
 979 0169 0A010000 		.4byte	.LVL22-.Ltext0
 980 016d 12010000 		.4byte	.LVL23-.Ltext0
 981 0171 0100     		.2byte	0x1
 982 0173 50       		.byte	0x50
 983 0174 14010000 		.4byte	.LVL24-.Ltext0
 984 0178 1C010000 		.4byte	.LVL25-.Ltext0
 985 017c 0100     		.2byte	0x1
 986 017e 50       		.byte	0x50
 987 017f 1E010000 		.4byte	.LVL26-.Ltext0
 988 0183 26010000 		.4byte	.LVL27-.Ltext0
 989 0187 0100     		.2byte	0x1
 990 0189 50       		.byte	0x50
 991 018a 28010000 		.4byte	.LVL28-.Ltext0
 992 018e 2C010000 		.4byte	.LVL29-.Ltext0
 993 0192 0100     		.2byte	0x1
 994 0194 50       		.byte	0x50
 995 0195 00000000 		.4byte	0x0
 996 0199 00000000 		.4byte	0x0
 997              	.LLST6:
 998 019d A0010000 		.4byte	.LFB2-.Ltext0
 999 01a1 A2010000 		.4byte	.LCFI2-.Ltext0
 1000 01a5 0100     		.2byte	0x1
ARM GAS  /cygdrive/c/DOCUME~1/mkwapisz/LOCALS~1/Temp/ccK7czfo.s 			page 24


 1001 01a7 5D       		.byte	0x5d
 1002 01a8 A2010000 		.4byte	.LCFI2-.Ltext0
 1003 01ac F6010000 		.4byte	.LFE2-.Ltext0
 1004 01b0 0200     		.2byte	0x2
 1005 01b2 7D       		.byte	0x7d
 1006 01b3 10       		.sleb128 16
 1007 01b4 00000000 		.4byte	0x0
 1008 01b8 00000000 		.4byte	0x0
 1009              	.LLST7:
 1010 01bc A2010000 		.4byte	.LVL36-.Ltext0
 1011 01c0 AC010000 		.4byte	.LVL38-.Ltext0
 1012 01c4 0100     		.2byte	0x1
 1013 01c6 50       		.byte	0x50
 1014 01c7 AC010000 		.4byte	.LVL38-.Ltext0
 1015 01cb F0010000 		.4byte	.LVL46-.Ltext0
 1016 01cf 0100     		.2byte	0x1
 1017 01d1 56       		.byte	0x56
 1018 01d2 00000000 		.4byte	0x0
 1019 01d6 00000000 		.4byte	0x0
 1020              	.LLST8:
 1021 01da A2010000 		.4byte	.LVL36-.Ltext0
 1022 01de C8010000 		.4byte	.LVL39-.Ltext0
 1023 01e2 0100     		.2byte	0x1
 1024 01e4 51       		.byte	0x51
 1025 01e5 C8010000 		.4byte	.LVL39-.Ltext0
 1026 01e9 F0010000 		.4byte	.LVL45-.Ltext0
 1027 01ed 0100     		.2byte	0x1
 1028 01ef 55       		.byte	0x55
 1029 01f0 00000000 		.4byte	0x0
 1030 01f4 00000000 		.4byte	0x0
 1031              	.LLST9:
 1032 01f8 AA010000 		.4byte	.LVL37-.Ltext0
 1033 01fc CA010000 		.4byte	.LVL40-.Ltext0
 1034 0200 0100     		.2byte	0x1
 1035 0202 54       		.byte	0x54
 1036 0203 00000000 		.4byte	0x0
 1037 0207 00000000 		.4byte	0x0
 1038              	.LLST10:
 1039 020b D6010000 		.4byte	.LVL41-.Ltext0
 1040 020f D8010000 		.4byte	.LVL42-.Ltext0
 1041 0213 0100     		.2byte	0x1
 1042 0215 52       		.byte	0x52
 1043 0216 E0010000 		.4byte	.LVL43-.Ltext0
 1044 021a E8010000 		.4byte	.LVL44-.Ltext0
 1045 021e 0100     		.2byte	0x1
 1046 0220 52       		.byte	0x52
 1047 0221 00000000 		.4byte	0x0
 1048 0225 00000000 		.4byte	0x0
 1049              	.LLST11:
 1050 0229 F8010000 		.4byte	.LFB4-.Ltext0
 1051 022d FA010000 		.4byte	.LCFI3-.Ltext0
 1052 0231 0100     		.2byte	0x1
 1053 0233 5D       		.byte	0x5d
 1054 0234 FA010000 		.4byte	.LCFI3-.Ltext0
 1055 0238 54020000 		.4byte	.LFE4-.Ltext0
 1056 023c 0200     		.2byte	0x2
 1057 023e 7D       		.byte	0x7d
ARM GAS  /cygdrive/c/DOCUME~1/mkwapisz/LOCALS~1/Temp/ccK7czfo.s 			page 25


 1058 023f 10       		.sleb128 16
 1059 0240 00000000 		.4byte	0x0
 1060 0244 00000000 		.4byte	0x0
 1061              	.LLST12:
 1062 0248 54020000 		.4byte	.LFB6-.Ltext0
 1063 024c 56020000 		.4byte	.LCFI4-.Ltext0
 1064 0250 0100     		.2byte	0x1
 1065 0252 5D       		.byte	0x5d
 1066 0253 56020000 		.4byte	.LCFI4-.Ltext0
 1067 0257 64030000 		.4byte	.LFE6-.Ltext0
 1068 025b 0200     		.2byte	0x2
 1069 025d 7D       		.byte	0x7d
 1070 025e 0C       		.sleb128 12
 1071 025f 00000000 		.4byte	0x0
 1072 0263 00000000 		.4byte	0x0
 1073              	.LLST13:
 1074 0267 60020000 		.4byte	.LVL47-.Ltext0
 1075 026b 8C020000 		.4byte	.LVL48-.Ltext0
 1076 026f 0100     		.2byte	0x1
 1077 0271 50       		.byte	0x50
 1078 0272 00000000 		.4byte	0x0
 1079 0276 00000000 		.4byte	0x0
 1080              		.section	.debug_info
 1081 0000 220B0000 		.4byte	0xb22
 1082 0004 0200     		.2byte	0x2
 1083 0006 00000000 		.4byte	.Ldebug_abbrev0
 1084 000a 04       		.byte	0x4
 1085 000b 01       		.uleb128 0x1
 1086 000c 00000000 		.4byte	.Ldebug_line0
 1087 0010 64030000 		.4byte	.Letext0
 1088 0014 00000000 		.4byte	.Ltext0
 1089 0018 CC040000 		.4byte	.LASF148
 1090 001c 01       		.byte	0x1
 1091 001d E0020000 		.4byte	.LASF149
 1092 0021 F3000000 		.4byte	.LASF150
 1093 0025 02       		.uleb128 0x2
 1094 0026 89020000 		.4byte	.LASF0
 1095 002a 04       		.byte	0x4
 1096 002b 07       		.byte	0x7
 1097 002c 03       		.uleb128 0x3
 1098 002d 696E7400 		.ascii	"int\000"
 1099 0031 04       		.byte	0x4
 1100 0032 05       		.byte	0x5
 1101 0033 02       		.uleb128 0x2
 1102 0034 93010000 		.4byte	.LASF1
 1103 0038 04       		.byte	0x4
 1104 0039 05       		.byte	0x5
 1105 003a 02       		.uleb128 0x2
 1106 003b 2B010000 		.4byte	.LASF2
 1107 003f 08       		.byte	0x8
 1108 0040 05       		.byte	0x5
 1109 0041 02       		.uleb128 0x2
 1110 0042 65020000 		.4byte	.LASF3
 1111 0046 04       		.byte	0x4
 1112 0047 07       		.byte	0x7
 1113 0048 02       		.uleb128 0x2
 1114 0049 89020000 		.4byte	.LASF0
ARM GAS  /cygdrive/c/DOCUME~1/mkwapisz/LOCALS~1/Temp/ccK7czfo.s 			page 26


 1115 004d 04       		.byte	0x4
 1116 004e 07       		.byte	0x7
 1117 004f 02       		.uleb128 0x2
 1118 0050 AA040000 		.4byte	.LASF4
 1119 0054 01       		.byte	0x1
 1120 0055 08       		.byte	0x8
 1121 0056 04       		.uleb128 0x4
 1122 0057 04       		.byte	0x4
 1123 0058 4F000000 		.4byte	0x4f
 1124 005c 02       		.uleb128 0x2
 1125 005d FE040000 		.4byte	.LASF5
 1126 0061 02       		.byte	0x2
 1127 0062 05       		.byte	0x5
 1128 0063 04       		.uleb128 0x4
 1129 0064 04       		.byte	0x4
 1130 0065 69000000 		.4byte	0x69
 1131 0069 02       		.uleb128 0x2
 1132 006a 6B050000 		.4byte	.LASF6
 1133 006e 01       		.byte	0x1
 1134 006f 08       		.byte	0x8
 1135 0070 05       		.uleb128 0x5
 1136 0071 80000000 		.4byte	0x80
 1137 0075 4F000000 		.4byte	0x4f
 1138 0079 06       		.uleb128 0x6
 1139 007a 48000000 		.4byte	0x48
 1140 007e 02       		.byte	0x2
 1141 007f 00       		.byte	0x0
 1142 0080 05       		.uleb128 0x5
 1143 0081 90000000 		.4byte	0x90
 1144 0085 4F000000 		.4byte	0x4f
 1145 0089 06       		.uleb128 0x6
 1146 008a 48000000 		.4byte	0x48
 1147 008e 00       		.byte	0x0
 1148 008f 00       		.byte	0x0
 1149 0090 02       		.uleb128 0x2
 1150 0091 BA020000 		.4byte	.LASF7
 1151 0095 02       		.byte	0x2
 1152 0096 07       		.byte	0x7
 1153 0097 02       		.uleb128 0x2
 1154 0098 AB000000 		.4byte	.LASF8
 1155 009c 08       		.byte	0x8
 1156 009d 07       		.byte	0x7
 1157 009e 02       		.uleb128 0x2
 1158 009f 39010000 		.4byte	.LASF9
 1159 00a3 01       		.byte	0x1
 1160 00a4 06       		.byte	0x6
 1161 00a5 07       		.uleb128 0x7
 1162 00a6 B7030000 		.4byte	.LASF10
 1163 00aa 06       		.byte	0x6
 1164 00ab 61       		.byte	0x61
 1165 00ac 4F000000 		.4byte	0x4f
 1166 00b0 08       		.uleb128 0x8
 1167 00b1 CB000000 		.4byte	0xcb
 1168 00b5 BE030000 		.4byte	.LASF11
 1169 00b9 04       		.byte	0x4
 1170 00ba 04       		.byte	0x4
 1171 00bb 13       		.byte	0x13
ARM GAS  /cygdrive/c/DOCUME~1/mkwapisz/LOCALS~1/Temp/ccK7czfo.s 			page 27


 1172 00bc 09       		.uleb128 0x9
 1173 00bd 19030000 		.4byte	.LASF13
 1174 00c1 04       		.byte	0x4
 1175 00c2 15       		.byte	0x15
 1176 00c3 33000000 		.4byte	0x33
 1177 00c7 02       		.byte	0x2
 1178 00c8 23       		.byte	0x23
 1179 00c9 00       		.uleb128 0x0
 1180 00ca 00       		.byte	0x0
 1181 00cb 07       		.uleb128 0x7
 1182 00cc BE030000 		.4byte	.LASF11
 1183 00d0 04       		.byte	0x4
 1184 00d1 17       		.byte	0x17
 1185 00d2 B0000000 		.4byte	0xb0
 1186 00d6 08       		.uleb128 0x8
 1187 00d7 0D010000 		.4byte	0x10d
 1188 00db A1030000 		.4byte	.LASF12
 1189 00df 08       		.byte	0x8
 1190 00e0 05       		.byte	0x5
 1191 00e1 13       		.byte	0x13
 1192 00e2 09       		.uleb128 0x9
 1193 00e3 82020000 		.4byte	.LASF14
 1194 00e7 05       		.byte	0x5
 1195 00e8 14       		.byte	0x14
 1196 00e9 25000000 		.4byte	0x25
 1197 00ed 02       		.byte	0x2
 1198 00ee 23       		.byte	0x23
 1199 00ef 00       		.uleb128 0x0
 1200 00f0 09       		.uleb128 0x9
 1201 00f1 DE050000 		.4byte	.LASF15
 1202 00f5 05       		.byte	0x5
 1203 00f6 15       		.byte	0x15
 1204 00f7 4F000000 		.4byte	0x4f
 1205 00fb 02       		.byte	0x2
 1206 00fc 23       		.byte	0x23
 1207 00fd 04       		.uleb128 0x4
 1208 00fe 09       		.uleb128 0x9
 1209 00ff A4050000 		.4byte	.LASF16
 1210 0103 05       		.byte	0x5
 1211 0104 16       		.byte	0x16
 1212 0105 4F000000 		.4byte	0x4f
 1213 0109 02       		.byte	0x2
 1214 010a 23       		.byte	0x23
 1215 010b 05       		.uleb128 0x5
 1216 010c 00       		.byte	0x0
 1217 010d 07       		.uleb128 0x7
 1218 010e A1030000 		.4byte	.LASF12
 1219 0112 05       		.byte	0x5
 1220 0113 18       		.byte	0x18
 1221 0114 D6000000 		.4byte	0xd6
 1222 0118 0A       		.uleb128 0xa
 1223 0119 CE010000 		.4byte	0x1ce
 1224 011d 77030000 		.4byte	.LASF17
 1225 0121 3002     		.2byte	0x230
 1226 0123 05       		.byte	0x5
 1227 0124 1A       		.byte	0x1a
 1228 0125 09       		.uleb128 0x9
ARM GAS  /cygdrive/c/DOCUME~1/mkwapisz/LOCALS~1/Temp/ccK7czfo.s 			page 28


 1229 0126 F1050000 		.4byte	.LASF18
 1230 012a 05       		.byte	0x5
 1231 012b 1B       		.byte	0x1b
 1232 012c CE010000 		.4byte	0x1ce
 1233 0130 02       		.byte	0x2
 1234 0131 23       		.byte	0x23
 1235 0132 00       		.uleb128 0x0
 1236 0133 09       		.uleb128 0x9
 1237 0134 33060000 		.4byte	.LASF19
 1238 0138 05       		.byte	0x5
 1239 0139 1D       		.byte	0x1d
 1240 013a 56000000 		.4byte	0x56
 1241 013e 02       		.byte	0x2
 1242 013f 23       		.byte	0x23
 1243 0140 04       		.uleb128 0x4
 1244 0141 09       		.uleb128 0x9
 1245 0142 81030000 		.4byte	.LASF20
 1246 0146 05       		.byte	0x5
 1247 0147 1E       		.byte	0x1e
 1248 0148 90000000 		.4byte	0x90
 1249 014c 02       		.byte	0x2
 1250 014d 23       		.byte	0x23
 1251 014e 08       		.uleb128 0x8
 1252 014f 09       		.uleb128 0x9
 1253 0150 61000000 		.4byte	.LASF21
 1254 0154 05       		.byte	0x5
 1255 0155 1F       		.byte	0x1f
 1256 0156 90000000 		.4byte	0x90
 1257 015a 02       		.byte	0x2
 1258 015b 23       		.byte	0x23
 1259 015c 0A       		.uleb128 0xa
 1260 015d 09       		.uleb128 0x9
 1261 015e 3F040000 		.4byte	.LASF22
 1262 0162 05       		.byte	0x5
 1263 0163 21       		.byte	0x21
 1264 0164 A5000000 		.4byte	0xa5
 1265 0168 02       		.byte	0x2
 1266 0169 23       		.byte	0x23
 1267 016a 0C       		.uleb128 0xc
 1268 016b 09       		.uleb128 0x9
 1269 016c F7050000 		.4byte	.LASF23
 1270 0170 05       		.byte	0x5
 1271 0171 23       		.byte	0x23
 1272 0172 D4010000 		.4byte	0x1d4
 1273 0176 02       		.byte	0x2
 1274 0177 23       		.byte	0x23
 1275 0178 10       		.uleb128 0x10
 1276 0179 09       		.uleb128 0x9
 1277 017a 82020000 		.4byte	.LASF14
 1278 017e 05       		.byte	0x5
 1279 017f 25       		.byte	0x25
 1280 0180 EA010000 		.4byte	0x1ea
 1281 0184 02       		.byte	0x2
 1282 0185 23       		.byte	0x23
 1283 0186 28       		.uleb128 0x28
 1284 0187 09       		.uleb128 0x9
 1285 0188 DE050000 		.4byte	.LASF15
ARM GAS  /cygdrive/c/DOCUME~1/mkwapisz/LOCALS~1/Temp/ccK7czfo.s 			page 29


 1286 018c 05       		.byte	0x5
 1287 018d 26       		.byte	0x26
 1288 018e 80000000 		.4byte	0x80
 1289 0192 02       		.byte	0x2
 1290 0193 23       		.byte	0x23
 1291 0194 2C       		.uleb128 0x2c
 1292 0195 09       		.uleb128 0x9
 1293 0196 A4050000 		.4byte	.LASF16
 1294 019a 05       		.byte	0x5
 1295 019b 27       		.byte	0x27
 1296 019c 80000000 		.4byte	0x80
 1297 01a0 02       		.byte	0x2
 1298 01a1 23       		.byte	0x23
 1299 01a2 2D       		.uleb128 0x2d
 1300 01a3 09       		.uleb128 0x9
 1301 01a4 30030000 		.4byte	.LASF24
 1302 01a8 05       		.byte	0x5
 1303 01a9 28       		.byte	0x28
 1304 01aa 80000000 		.4byte	0x80
 1305 01ae 02       		.byte	0x2
 1306 01af 23       		.byte	0x23
 1307 01b0 2E       		.uleb128 0x2e
 1308 01b1 09       		.uleb128 0x9
 1309 01b2 08060000 		.4byte	.LASF25
 1310 01b6 05       		.byte	0x5
 1311 01b7 29       		.byte	0x29
 1312 01b8 80000000 		.4byte	0x80
 1313 01bc 02       		.byte	0x2
 1314 01bd 23       		.byte	0x23
 1315 01be 2F       		.uleb128 0x2f
 1316 01bf 09       		.uleb128 0x9
 1317 01c0 A7010000 		.4byte	.LASF26
 1318 01c4 05       		.byte	0x5
 1319 01c5 2B       		.byte	0x2b
 1320 01c6 FA010000 		.4byte	0x1fa
 1321 01ca 02       		.byte	0x2
 1322 01cb 23       		.byte	0x23
 1323 01cc 30       		.uleb128 0x30
 1324 01cd 00       		.byte	0x0
 1325 01ce 04       		.uleb128 0x4
 1326 01cf 04       		.byte	0x4
 1327 01d0 CB000000 		.4byte	0xcb
 1328 01d4 05       		.uleb128 0x5
 1329 01d5 EA010000 		.4byte	0x1ea
 1330 01d9 0D010000 		.4byte	0x10d
 1331 01dd 06       		.uleb128 0x6
 1332 01de 48000000 		.4byte	0x48
 1333 01e2 00       		.byte	0x0
 1334 01e3 06       		.uleb128 0x6
 1335 01e4 48000000 		.4byte	0x48
 1336 01e8 02       		.byte	0x2
 1337 01e9 00       		.byte	0x0
 1338 01ea 05       		.uleb128 0x5
 1339 01eb FA010000 		.4byte	0x1fa
 1340 01ef 25000000 		.4byte	0x25
 1341 01f3 06       		.uleb128 0x6
 1342 01f4 48000000 		.4byte	0x48
ARM GAS  /cygdrive/c/DOCUME~1/mkwapisz/LOCALS~1/Temp/ccK7czfo.s 			page 30


 1343 01f8 00       		.byte	0x0
 1344 01f9 00       		.byte	0x0
 1345 01fa 05       		.uleb128 0x5
 1346 01fb 0B020000 		.4byte	0x20b
 1347 01ff 4F000000 		.4byte	0x4f
 1348 0203 0B       		.uleb128 0xb
 1349 0204 48000000 		.4byte	0x48
 1350 0208 FF01     		.2byte	0x1ff
 1351 020a 00       		.byte	0x0
 1352 020b 07       		.uleb128 0x7
 1353 020c 77030000 		.4byte	.LASF17
 1354 0210 05       		.byte	0x5
 1355 0211 2E       		.byte	0x2e
 1356 0212 18010000 		.4byte	0x118
 1357 0216 08       		.uleb128 0x8
 1358 0217 77020000 		.4byte	0x277
 1359 021b 00040000 		.4byte	.LASF27
 1360 021f 10       		.byte	0x10
 1361 0220 07       		.byte	0x7
 1362 0221 0E       		.byte	0xe
 1363 0222 09       		.uleb128 0x9
 1364 0223 62050000 		.4byte	.LASF28
 1365 0227 07       		.byte	0x7
 1366 0228 0F       		.byte	0xf
 1367 0229 4F000000 		.4byte	0x4f
 1368 022d 02       		.byte	0x2
 1369 022e 23       		.byte	0x23
 1370 022f 00       		.uleb128 0x0
 1371 0230 09       		.uleb128 0x9
 1372 0231 57040000 		.4byte	.LASF29
 1373 0235 07       		.byte	0x7
 1374 0236 10       		.byte	0x10
 1375 0237 70000000 		.4byte	0x70
 1376 023b 02       		.byte	0x2
 1377 023c 23       		.byte	0x23
 1378 023d 01       		.uleb128 0x1
 1379 023e 09       		.uleb128 0x9
 1380 023f 81000000 		.4byte	.LASF30
 1381 0243 07       		.byte	0x7
 1382 0244 11       		.byte	0x11
 1383 0245 4F000000 		.4byte	0x4f
 1384 0249 02       		.byte	0x2
 1385 024a 23       		.byte	0x23
 1386 024b 04       		.uleb128 0x4
 1387 024c 09       		.uleb128 0x9
 1388 024d 7A020000 		.4byte	.LASF31
 1389 0251 07       		.byte	0x7
 1390 0252 12       		.byte	0x12
 1391 0253 70000000 		.4byte	0x70
 1392 0257 02       		.byte	0x2
 1393 0258 23       		.byte	0x23
 1394 0259 05       		.uleb128 0x5
 1395 025a 09       		.uleb128 0x9
 1396 025b 42060000 		.4byte	.LASF32
 1397 025f 07       		.byte	0x7
 1398 0260 13       		.byte	0x13
 1399 0261 25000000 		.4byte	0x25
ARM GAS  /cygdrive/c/DOCUME~1/mkwapisz/LOCALS~1/Temp/ccK7czfo.s 			page 31


 1400 0265 02       		.byte	0x2
 1401 0266 23       		.byte	0x23
 1402 0267 08       		.uleb128 0x8
 1403 0268 09       		.uleb128 0x9
 1404 0269 25030000 		.4byte	.LASF33
 1405 026d 07       		.byte	0x7
 1406 026e 14       		.byte	0x14
 1407 026f 25000000 		.4byte	0x25
 1408 0273 02       		.byte	0x2
 1409 0274 23       		.byte	0x23
 1410 0275 0C       		.uleb128 0xc
 1411 0276 00       		.byte	0x0
 1412 0277 07       		.uleb128 0x7
 1413 0278 00040000 		.4byte	.LASF27
 1414 027c 07       		.byte	0x7
 1415 027d 16       		.byte	0x16
 1416 027e 16020000 		.4byte	0x216
 1417 0282 0C       		.uleb128 0xc
 1418 0283 B5020000 		.4byte	0x2b5
 1419 0287 48       		.byte	0x48
 1420 0288 07       		.byte	0x7
 1421 0289 1A       		.byte	0x1a
 1422 028a 09       		.uleb128 0x9
 1423 028b 00000000 		.4byte	.LASF34
 1424 028f 07       		.byte	0x7
 1425 0290 1B       		.byte	0x1b
 1426 0291 B5020000 		.4byte	0x2b5
 1427 0295 02       		.byte	0x2
 1428 0296 23       		.byte	0x23
 1429 0297 00       		.uleb128 0x0
 1430 0298 09       		.uleb128 0x9
 1431 0299 3F040000 		.4byte	.LASF22
 1432 029d 07       		.byte	0x7
 1433 029e 1C       		.byte	0x1c
 1434 029f A5000000 		.4byte	0xa5
 1435 02a3 02       		.byte	0x2
 1436 02a4 23       		.byte	0x23
 1437 02a5 04       		.uleb128 0x4
 1438 02a6 09       		.uleb128 0x9
 1439 02a7 08050000 		.4byte	.LASF35
 1440 02ab 07       		.byte	0x7
 1441 02ac 1D       		.byte	0x1d
 1442 02ad BB020000 		.4byte	0x2bb
 1443 02b1 02       		.byte	0x2
 1444 02b2 23       		.byte	0x23
 1445 02b3 08       		.uleb128 0x8
 1446 02b4 00       		.byte	0x0
 1447 02b5 04       		.uleb128 0x4
 1448 02b6 04       		.byte	0x4
 1449 02b7 0B020000 		.4byte	0x20b
 1450 02bb 05       		.uleb128 0x5
 1451 02bc CB020000 		.4byte	0x2cb
 1452 02c0 77020000 		.4byte	0x277
 1453 02c4 06       		.uleb128 0x6
 1454 02c5 48000000 		.4byte	0x48
 1455 02c9 03       		.byte	0x3
 1456 02ca 00       		.byte	0x0
ARM GAS  /cygdrive/c/DOCUME~1/mkwapisz/LOCALS~1/Temp/ccK7czfo.s 			page 32


 1457 02cb 07       		.uleb128 0x7
 1458 02cc 13050000 		.4byte	.LASF36
 1459 02d0 07       		.byte	0x7
 1460 02d1 1E       		.byte	0x1e
 1461 02d2 82020000 		.4byte	0x282
 1462 02d6 08       		.uleb128 0x8
 1463 02d7 FF020000 		.4byte	0x2ff
 1464 02db 6E000000 		.4byte	.LASF37
 1465 02df 08       		.byte	0x8
 1466 02e0 08       		.byte	0x8
 1467 02e1 12       		.byte	0x12
 1468 02e2 09       		.uleb128 0x9
 1469 02e3 79050000 		.4byte	.LASF38
 1470 02e7 08       		.byte	0x8
 1471 02e8 13       		.byte	0x13
 1472 02e9 FF020000 		.4byte	0x2ff
 1473 02ed 02       		.byte	0x2
 1474 02ee 23       		.byte	0x23
 1475 02ef 00       		.uleb128 0x0
 1476 02f0 09       		.uleb128 0x9
 1477 02f1 DE030000 		.4byte	.LASF39
 1478 02f5 08       		.byte	0x8
 1479 02f6 14       		.byte	0x14
 1480 02f7 9E000000 		.4byte	0x9e
 1481 02fb 02       		.byte	0x2
 1482 02fc 23       		.byte	0x23
 1483 02fd 04       		.uleb128 0x4
 1484 02fe 00       		.byte	0x0
 1485 02ff 04       		.uleb128 0x4
 1486 0300 04       		.byte	0x4
 1487 0301 CB020000 		.4byte	0x2cb
 1488 0305 07       		.uleb128 0x7
 1489 0306 6E000000 		.4byte	.LASF37
 1490 030a 08       		.byte	0x8
 1491 030b 16       		.byte	0x16
 1492 030c D6020000 		.4byte	0x2d6
 1493 0310 08       		.uleb128 0x8
 1494 0311 A9030000 		.4byte	0x3a9
 1495 0315 B1050000 		.4byte	.LASF40
 1496 0319 1C       		.byte	0x1c
 1497 031a 09       		.byte	0x9
 1498 031b 14       		.byte	0x14
 1499 031c 09       		.uleb128 0x9
 1500 031d 06000000 		.4byte	.LASF41
 1501 0321 09       		.byte	0x9
 1502 0322 15       		.byte	0x15
 1503 0323 90000000 		.4byte	0x90
 1504 0327 02       		.byte	0x2
 1505 0328 23       		.byte	0x23
 1506 0329 00       		.uleb128 0x0
 1507 032a 09       		.uleb128 0x9
 1508 032b 15000000 		.4byte	.LASF42
 1509 032f 09       		.byte	0x9
 1510 0330 16       		.byte	0x16
 1511 0331 4F000000 		.4byte	0x4f
 1512 0335 02       		.byte	0x2
 1513 0336 23       		.byte	0x23
ARM GAS  /cygdrive/c/DOCUME~1/mkwapisz/LOCALS~1/Temp/ccK7czfo.s 			page 33


 1514 0337 02       		.uleb128 0x2
 1515 0338 09       		.uleb128 0x9
 1516 0339 27000000 		.4byte	.LASF43
 1517 033d 09       		.byte	0x9
 1518 033e 17       		.byte	0x17
 1519 033f 90000000 		.4byte	0x90
 1520 0343 02       		.byte	0x2
 1521 0344 23       		.byte	0x23
 1522 0345 04       		.uleb128 0x4
 1523 0346 09       		.uleb128 0x9
 1524 0347 B8040000 		.4byte	.LASF44
 1525 034b 09       		.byte	0x9
 1526 034c 18       		.byte	0x18
 1527 034d 4F000000 		.4byte	0x4f
 1528 0351 02       		.byte	0x2
 1529 0352 23       		.byte	0x23
 1530 0353 06       		.uleb128 0x6
 1531 0354 09       		.uleb128 0x9
 1532 0355 1E060000 		.4byte	.LASF45
 1533 0359 09       		.byte	0x9
 1534 035a 19       		.byte	0x19
 1535 035b 90000000 		.4byte	0x90
 1536 035f 02       		.byte	0x2
 1537 0360 23       		.byte	0x23
 1538 0361 08       		.uleb128 0x8
 1539 0362 09       		.uleb128 0x9
 1540 0363 53000000 		.4byte	.LASF46
 1541 0367 09       		.byte	0x9
 1542 0368 1A       		.byte	0x1a
 1543 0369 90000000 		.4byte	0x90
 1544 036d 02       		.byte	0x2
 1545 036e 23       		.byte	0x23
 1546 036f 0A       		.uleb128 0xa
 1547 0370 09       		.uleb128 0x9
 1548 0371 B9010000 		.4byte	.LASF47
 1549 0375 09       		.byte	0x9
 1550 0376 1B       		.byte	0x1b
 1551 0377 90000000 		.4byte	0x90
 1552 037b 02       		.byte	0x2
 1553 037c 23       		.byte	0x23
 1554 037d 0C       		.uleb128 0xc
 1555 037e 09       		.uleb128 0x9
 1556 037f 7E050000 		.4byte	.LASF48
 1557 0383 09       		.byte	0x9
 1558 0384 1C       		.byte	0x1c
 1559 0385 25000000 		.4byte	0x25
 1560 0389 02       		.byte	0x2
 1561 038a 23       		.byte	0x23
 1562 038b 10       		.uleb128 0x10
 1563 038c 09       		.uleb128 0x9
 1564 038d 51050000 		.4byte	.LASF49
 1565 0391 09       		.byte	0x9
 1566 0392 1D       		.byte	0x1d
 1567 0393 25000000 		.4byte	0x25
 1568 0397 02       		.byte	0x2
 1569 0398 23       		.byte	0x23
 1570 0399 14       		.uleb128 0x14
ARM GAS  /cygdrive/c/DOCUME~1/mkwapisz/LOCALS~1/Temp/ccK7czfo.s 			page 34


 1571 039a 09       		.uleb128 0x9
 1572 039b 0F040000 		.4byte	.LASF50
 1573 039f 09       		.byte	0x9
 1574 03a0 1E       		.byte	0x1e
 1575 03a1 25000000 		.4byte	0x25
 1576 03a5 02       		.byte	0x2
 1577 03a6 23       		.byte	0x23
 1578 03a7 18       		.uleb128 0x18
 1579 03a8 00       		.byte	0x0
 1580 03a9 07       		.uleb128 0x7
 1581 03aa B1050000 		.4byte	.LASF40
 1582 03ae 09       		.byte	0x9
 1583 03af 20       		.byte	0x20
 1584 03b0 10030000 		.4byte	0x310
 1585 03b4 08       		.uleb128 0x8
 1586 03b5 4D040000 		.4byte	0x44d
 1587 03b9 E3010000 		.4byte	.LASF51
 1588 03bd 40       		.byte	0x40
 1589 03be 09       		.byte	0x9
 1590 03bf 22       		.byte	0x22
 1591 03c0 09       		.uleb128 0x9
 1592 03c1 98050000 		.4byte	.LASF52
 1593 03c5 09       		.byte	0x9
 1594 03c6 23       		.byte	0x23
 1595 03c7 4D040000 		.4byte	0x44d
 1596 03cb 02       		.byte	0x2
 1597 03cc 23       		.byte	0x23
 1598 03cd 00       		.uleb128 0x0
 1599 03ce 09       		.uleb128 0x9
 1600 03cf 95000000 		.4byte	.LASF53
 1601 03d3 09       		.byte	0x9
 1602 03d4 24       		.byte	0x24
 1603 03d5 A9030000 		.4byte	0x3a9
 1604 03d9 02       		.byte	0x2
 1605 03da 23       		.byte	0x23
 1606 03db 04       		.uleb128 0x4
 1607 03dc 09       		.uleb128 0x9
 1608 03dd 3A020000 		.4byte	.LASF54
 1609 03e1 09       		.byte	0x9
 1610 03e2 25       		.byte	0x25
 1611 03e3 25000000 		.4byte	0x25
 1612 03e7 02       		.byte	0x2
 1613 03e8 23       		.byte	0x23
 1614 03e9 20       		.uleb128 0x20
 1615 03ea 09       		.uleb128 0x9
 1616 03eb 30050000 		.4byte	.LASF55
 1617 03ef 09       		.byte	0x9
 1618 03f0 26       		.byte	0x26
 1619 03f1 25000000 		.4byte	0x25
 1620 03f5 02       		.byte	0x2
 1621 03f6 23       		.byte	0x23
 1622 03f7 24       		.uleb128 0x24
 1623 03f8 09       		.uleb128 0x9
 1624 03f9 E5050000 		.4byte	.LASF56
 1625 03fd 09       		.byte	0x9
 1626 03fe 27       		.byte	0x27
 1627 03ff 25000000 		.4byte	0x25
ARM GAS  /cygdrive/c/DOCUME~1/mkwapisz/LOCALS~1/Temp/ccK7czfo.s 			page 35


 1628 0403 02       		.byte	0x2
 1629 0404 23       		.byte	0x23
 1630 0405 28       		.uleb128 0x28
 1631 0406 09       		.uleb128 0x9
 1632 0407 18050000 		.4byte	.LASF57
 1633 040b 09       		.byte	0x9
 1634 040c 28       		.byte	0x28
 1635 040d 25000000 		.4byte	0x25
 1636 0411 02       		.byte	0x2
 1637 0412 23       		.byte	0x23
 1638 0413 2C       		.uleb128 0x2c
 1639 0414 09       		.uleb128 0x9
 1640 0415 F5020000 		.4byte	.LASF58
 1641 0419 09       		.byte	0x9
 1642 041a 29       		.byte	0x29
 1643 041b 25000000 		.4byte	0x25
 1644 041f 02       		.byte	0x2
 1645 0420 23       		.byte	0x23
 1646 0421 30       		.uleb128 0x30
 1647 0422 09       		.uleb128 0x9
 1648 0423 CD050000 		.4byte	.LASF59
 1649 0427 09       		.byte	0x9
 1650 0428 2A       		.byte	0x2a
 1651 0429 25000000 		.4byte	0x25
 1652 042d 02       		.byte	0x2
 1653 042e 23       		.byte	0x23
 1654 042f 34       		.uleb128 0x34
 1655 0430 09       		.uleb128 0x9
 1656 0431 EE040000 		.4byte	.LASF60
 1657 0435 09       		.byte	0x9
 1658 0436 2B       		.byte	0x2b
 1659 0437 25000000 		.4byte	0x25
 1660 043b 02       		.byte	0x2
 1661 043c 23       		.byte	0x23
 1662 043d 38       		.uleb128 0x38
 1663 043e 09       		.uleb128 0x9
 1664 043f 81000000 		.4byte	.LASF30
 1665 0443 09       		.byte	0x9
 1666 0444 2C       		.byte	0x2c
 1667 0445 4F000000 		.4byte	0x4f
 1668 0449 02       		.byte	0x2
 1669 044a 23       		.byte	0x23
 1670 044b 3C       		.uleb128 0x3c
 1671 044c 00       		.byte	0x0
 1672 044d 04       		.uleb128 0x4
 1673 044e 04       		.byte	0x4
 1674 044f 05030000 		.4byte	0x305
 1675 0453 07       		.uleb128 0x7
 1676 0454 E3010000 		.4byte	.LASF51
 1677 0458 09       		.byte	0x9
 1678 0459 2E       		.byte	0x2e
 1679 045a B4030000 		.4byte	0x3b4
 1680 045e 08       		.uleb128 0x8
 1681 045f 95040000 		.4byte	0x495
 1682 0463 EE010000 		.4byte	.LASF61
 1683 0467 08       		.byte	0x8
 1684 0468 09       		.byte	0x9
ARM GAS  /cygdrive/c/DOCUME~1/mkwapisz/LOCALS~1/Temp/ccK7czfo.s 			page 36


 1685 0469 30       		.byte	0x30
 1686 046a 09       		.uleb128 0x9
 1687 046b 9A030000 		.4byte	.LASF62
 1688 046f 09       		.byte	0x9
 1689 0470 31       		.byte	0x31
 1690 0471 25000000 		.4byte	0x25
 1691 0475 02       		.byte	0x2
 1692 0476 23       		.byte	0x23
 1693 0477 00       		.uleb128 0x0
 1694 0478 09       		.uleb128 0x9
 1695 0479 9D050000 		.4byte	.LASF63
 1696 047d 09       		.byte	0x9
 1697 047e 32       		.byte	0x32
 1698 047f 4F000000 		.4byte	0x4f
 1699 0483 02       		.byte	0x2
 1700 0484 23       		.byte	0x23
 1701 0485 04       		.uleb128 0x4
 1702 0486 09       		.uleb128 0x9
 1703 0487 0F020000 		.4byte	.LASF64
 1704 048b 09       		.byte	0x9
 1705 048c 33       		.byte	0x33
 1706 048d 4F000000 		.4byte	0x4f
 1707 0491 02       		.byte	0x2
 1708 0492 23       		.byte	0x23
 1709 0493 05       		.uleb128 0x5
 1710 0494 00       		.byte	0x0
 1711 0495 07       		.uleb128 0x7
 1712 0496 EE010000 		.4byte	.LASF61
 1713 049a 09       		.byte	0x9
 1714 049b 35       		.byte	0x35
 1715 049c 5E040000 		.4byte	0x45e
 1716 04a0 08       		.uleb128 0x8
 1717 04a1 01050000 		.4byte	0x501
 1718 04a5 58020000 		.4byte	.LASF65
 1719 04a9 18       		.byte	0x18
 1720 04aa 09       		.byte	0x9
 1721 04ab 37       		.byte	0x37
 1722 04ac 09       		.uleb128 0x9
 1723 04ad DC010000 		.4byte	.LASF66
 1724 04b1 09       		.byte	0x9
 1725 04b2 38       		.byte	0x38
 1726 04b3 4F000000 		.4byte	0x4f
 1727 04b7 02       		.byte	0x2
 1728 04b8 23       		.byte	0x23
 1729 04b9 00       		.uleb128 0x0
 1730 04ba 09       		.uleb128 0x9
 1731 04bb 4B020000 		.4byte	.LASF67
 1732 04bf 09       		.byte	0x9
 1733 04c0 39       		.byte	0x39
 1734 04c1 33000000 		.4byte	0x33
 1735 04c5 02       		.byte	0x2
 1736 04c6 23       		.byte	0x23
 1737 04c7 04       		.uleb128 0x4
 1738 04c8 09       		.uleb128 0x9
 1739 04c9 74010000 		.4byte	.LASF68
 1740 04cd 09       		.byte	0x9
 1741 04ce 3A       		.byte	0x3a
ARM GAS  /cygdrive/c/DOCUME~1/mkwapisz/LOCALS~1/Temp/ccK7czfo.s 			page 37


 1742 04cf 25000000 		.4byte	0x25
 1743 04d3 02       		.byte	0x2
 1744 04d4 23       		.byte	0x23
 1745 04d5 08       		.uleb128 0x8
 1746 04d6 09       		.uleb128 0x9
 1747 04d7 24040000 		.4byte	.LASF69
 1748 04db 09       		.byte	0x9
 1749 04dc 3B       		.byte	0x3b
 1750 04dd 25000000 		.4byte	0x25
 1751 04e1 02       		.byte	0x2
 1752 04e2 23       		.byte	0x23
 1753 04e3 0C       		.uleb128 0xc
 1754 04e4 09       		.uleb128 0x9
 1755 04e5 D2030000 		.4byte	.LASF70
 1756 04e9 09       		.byte	0x9
 1757 04ea 3C       		.byte	0x3c
 1758 04eb 25000000 		.4byte	0x25
 1759 04ef 02       		.byte	0x2
 1760 04f0 23       		.byte	0x23
 1761 04f1 10       		.uleb128 0x10
 1762 04f2 09       		.uleb128 0x9
 1763 04f3 61040000 		.4byte	.LASF71
 1764 04f7 09       		.byte	0x9
 1765 04f8 3D       		.byte	0x3d
 1766 04f9 25000000 		.4byte	0x25
 1767 04fd 02       		.byte	0x2
 1768 04fe 23       		.byte	0x23
 1769 04ff 14       		.uleb128 0x14
 1770 0500 00       		.byte	0x0
 1771 0501 07       		.uleb128 0x7
 1772 0502 58020000 		.4byte	.LASF65
 1773 0506 09       		.byte	0x9
 1774 0507 3F       		.byte	0x3f
 1775 0508 A0040000 		.4byte	0x4a0
 1776 050c 08       		.uleb128 0x8
 1777 050d C1050000 		.4byte	0x5c1
 1778 0511 FB010000 		.4byte	.LASF72
 1779 0515 20       		.byte	0x20
 1780 0516 09       		.byte	0x9
 1781 0517 41       		.byte	0x41
 1782 0518 09       		.uleb128 0x9
 1783 0519 91030000 		.4byte	.LASF73
 1784 051d 09       		.byte	0x9
 1785 051e 42       		.byte	0x42
 1786 051f C1050000 		.4byte	0x5c1
 1787 0523 02       		.byte	0x2
 1788 0524 23       		.byte	0x23
 1789 0525 00       		.uleb128 0x0
 1790 0526 09       		.uleb128 0x9
 1791 0527 C3050000 		.4byte	.LASF74
 1792 052b 09       		.byte	0x9
 1793 052c 43       		.byte	0x43
 1794 052d 4F000000 		.4byte	0x4f
 1795 0531 02       		.byte	0x2
 1796 0532 23       		.byte	0x23
 1797 0533 0B       		.uleb128 0xb
 1798 0534 09       		.uleb128 0x9
ARM GAS  /cygdrive/c/DOCUME~1/mkwapisz/LOCALS~1/Temp/ccK7czfo.s 			page 38


 1799 0535 9C010000 		.4byte	.LASF75
 1800 0539 09       		.byte	0x9
 1801 053a 44       		.byte	0x44
 1802 053b 4F000000 		.4byte	0x4f
 1803 053f 02       		.byte	0x2
 1804 0540 23       		.byte	0x23
 1805 0541 0C       		.uleb128 0xc
 1806 0542 09       		.uleb128 0x9
 1807 0543 45010000 		.4byte	.LASF76
 1808 0547 09       		.byte	0x9
 1809 0548 45       		.byte	0x45
 1810 0549 4F000000 		.4byte	0x4f
 1811 054d 02       		.byte	0x2
 1812 054e 23       		.byte	0x23
 1813 054f 0D       		.uleb128 0xd
 1814 0550 09       		.uleb128 0x9
 1815 0551 CD020000 		.4byte	.LASF77
 1816 0555 09       		.byte	0x9
 1817 0556 46       		.byte	0x46
 1818 0557 90000000 		.4byte	0x90
 1819 055b 02       		.byte	0x2
 1820 055c 23       		.byte	0x23
 1821 055d 0E       		.uleb128 0xe
 1822 055e 09       		.uleb128 0x9
 1823 055f 24020000 		.4byte	.LASF78
 1824 0563 09       		.byte	0x9
 1825 0564 47       		.byte	0x47
 1826 0565 90000000 		.4byte	0x90
 1827 0569 02       		.byte	0x2
 1828 056a 23       		.byte	0x23
 1829 056b 10       		.uleb128 0x10
 1830 056c 09       		.uleb128 0x9
 1831 056d C2000000 		.4byte	.LASF79
 1832 0571 09       		.byte	0x9
 1833 0572 48       		.byte	0x48
 1834 0573 90000000 		.4byte	0x90
 1835 0577 02       		.byte	0x2
 1836 0578 23       		.byte	0x23
 1837 0579 12       		.uleb128 0x12
 1838 057a 09       		.uleb128 0x9
 1839 057b 4B030000 		.4byte	.LASF80
 1840 057f 09       		.byte	0x9
 1841 0580 49       		.byte	0x49
 1842 0581 90000000 		.4byte	0x90
 1843 0585 02       		.byte	0x2
 1844 0586 23       		.byte	0x23
 1845 0587 14       		.uleb128 0x14
 1846 0588 09       		.uleb128 0x9
 1847 0589 4D040000 		.4byte	.LASF81
 1848 058d 09       		.byte	0x9
 1849 058e 4A       		.byte	0x4a
 1850 058f 90000000 		.4byte	0x90
 1851 0593 02       		.byte	0x2
 1852 0594 23       		.byte	0x23
 1853 0595 16       		.uleb128 0x16
 1854 0596 09       		.uleb128 0x9
 1855 0597 47050000 		.4byte	.LASF82
ARM GAS  /cygdrive/c/DOCUME~1/mkwapisz/LOCALS~1/Temp/ccK7czfo.s 			page 39


 1856 059b 09       		.byte	0x9
 1857 059c 4B       		.byte	0x4b
 1858 059d 90000000 		.4byte	0x90
 1859 05a1 02       		.byte	0x2
 1860 05a2 23       		.byte	0x23
 1861 05a3 18       		.uleb128 0x18
 1862 05a4 09       		.uleb128 0x9
 1863 05a5 CD000000 		.4byte	.LASF83
 1864 05a9 09       		.byte	0x9
 1865 05aa 4C       		.byte	0x4c
 1866 05ab 90000000 		.4byte	0x90
 1867 05af 02       		.byte	0x2
 1868 05b0 23       		.byte	0x23
 1869 05b1 1A       		.uleb128 0x1a
 1870 05b2 09       		.uleb128 0x9
 1871 05b3 D3010000 		.4byte	.LASF84
 1872 05b7 09       		.byte	0x9
 1873 05b8 4D       		.byte	0x4d
 1874 05b9 25000000 		.4byte	0x25
 1875 05bd 02       		.byte	0x2
 1876 05be 23       		.byte	0x23
 1877 05bf 1C       		.uleb128 0x1c
 1878 05c0 00       		.byte	0x0
 1879 05c1 05       		.uleb128 0x5
 1880 05c2 D1050000 		.4byte	0x5d1
 1881 05c6 4F000000 		.4byte	0x4f
 1882 05ca 06       		.uleb128 0x6
 1883 05cb 48000000 		.4byte	0x48
 1884 05cf 0A       		.byte	0xa
 1885 05d0 00       		.byte	0x0
 1886 05d1 07       		.uleb128 0x7
 1887 05d2 FB010000 		.4byte	.LASF72
 1888 05d6 09       		.byte	0x9
 1889 05d7 4F       		.byte	0x4f
 1890 05d8 0C050000 		.4byte	0x50c
 1891 05dc 08       		.uleb128 0x8
 1892 05dd 4A060000 		.4byte	0x64a
 1893 05e1 8E010000 		.4byte	.LASF85
 1894 05e5 50       		.byte	0x50
 1895 05e6 0A       		.byte	0xa
 1896 05e7 15       		.byte	0x15
 1897 05e8 09       		.uleb128 0x9
 1898 05e9 57010000 		.4byte	.LASF86
 1899 05ed 0A       		.byte	0xa
 1900 05ee 16       		.byte	0x16
 1901 05ef D1050000 		.4byte	0x5d1
 1902 05f3 02       		.byte	0x2
 1903 05f4 23       		.byte	0x23
 1904 05f5 00       		.uleb128 0x0
 1905 05f6 09       		.uleb128 0x9
 1906 05f7 CA010000 		.4byte	.LASF87
 1907 05fb 0A       		.byte	0xa
 1908 05fc 17       		.byte	0x17
 1909 05fd 95040000 		.4byte	0x495
 1910 0601 02       		.byte	0x2
 1911 0602 23       		.byte	0x23
 1912 0603 20       		.uleb128 0x20
ARM GAS  /cygdrive/c/DOCUME~1/mkwapisz/LOCALS~1/Temp/ccK7czfo.s 			page 40


 1913 0604 0D       		.uleb128 0xd
 1914 0605 667300   		.ascii	"fs\000"
 1915 0608 0A       		.byte	0xa
 1916 0609 18       		.byte	0x18
 1917 060a 4A060000 		.4byte	0x64a
 1918 060e 02       		.byte	0x2
 1919 060f 23       		.byte	0x23
 1920 0610 28       		.uleb128 0x28
 1921 0611 09       		.uleb128 0x9
 1922 0612 2D060000 		.4byte	.LASF88
 1923 0616 0A       		.byte	0xa
 1924 0617 19       		.byte	0x19
 1925 0618 01050000 		.4byte	0x501
 1926 061c 02       		.byte	0x2
 1927 061d 23       		.byte	0x23
 1928 061e 2C       		.uleb128 0x2c
 1929 061f 09       		.uleb128 0x9
 1930 0620 AC030000 		.4byte	.LASF89
 1931 0624 0A       		.byte	0xa
 1932 0625 1A       		.byte	0x1a
 1933 0626 4F000000 		.4byte	0x4f
 1934 062a 02       		.byte	0x2
 1935 062b 23       		.byte	0x23
 1936 062c 44       		.uleb128 0x44
 1937 062d 09       		.uleb128 0x9
 1938 062e 3F050000 		.4byte	.LASF90
 1939 0632 0A       		.byte	0xa
 1940 0633 1B       		.byte	0x1b
 1941 0634 25000000 		.4byte	0x25
 1942 0638 02       		.byte	0x2
 1943 0639 23       		.byte	0x23
 1944 063a 48       		.uleb128 0x48
 1945 063b 09       		.uleb128 0x9
 1946 063c D3010000 		.4byte	.LASF84
 1947 0640 0A       		.byte	0xa
 1948 0641 1C       		.byte	0x1c
 1949 0642 25000000 		.4byte	0x25
 1950 0646 02       		.byte	0x2
 1951 0647 23       		.byte	0x23
 1952 0648 4C       		.uleb128 0x4c
 1953 0649 00       		.byte	0x0
 1954 064a 04       		.uleb128 0x4
 1955 064b 04       		.byte	0x4
 1956 064c 53040000 		.4byte	0x453
 1957 0650 07       		.uleb128 0x7
 1958 0651 8E010000 		.4byte	.LASF85
 1959 0655 0A       		.byte	0xa
 1960 0656 1E       		.byte	0x1e
 1961 0657 DC050000 		.4byte	0x5dc
 1962 065b 07       		.uleb128 0x7
 1963 065c 4C060000 		.4byte	.LASF91
 1964 0660 03       		.byte	0x3
 1965 0661 0F       		.byte	0xf
 1966 0662 50060000 		.4byte	0x650
 1967 0666 0E       		.uleb128 0xe
 1968 0667 B9060000 		.4byte	0x6b9
 1969 066b C402     		.2byte	0x2c4
ARM GAS  /cygdrive/c/DOCUME~1/mkwapisz/LOCALS~1/Temp/ccK7czfo.s 			page 41


 1970 066d 03       		.byte	0x3
 1971 066e 11       		.byte	0x11
 1972 066f 09       		.uleb128 0x9
 1973 0670 AA050000 		.4byte	.LASF92
 1974 0674 03       		.byte	0x3
 1975 0675 12       		.byte	0x12
 1976 0676 CB000000 		.4byte	0xcb
 1977 067a 02       		.byte	0x2
 1978 067b 23       		.byte	0x23
 1979 067c 00       		.uleb128 0x0
 1980 067d 09       		.uleb128 0x9
 1981 067e 3A060000 		.4byte	.LASF93
 1982 0682 03       		.byte	0x3
 1983 0683 13       		.byte	0x13
 1984 0684 0B020000 		.4byte	0x20b
 1985 0688 02       		.byte	0x2
 1986 0689 23       		.byte	0x23
 1987 068a 04       		.uleb128 0x4
 1988 068b 09       		.uleb128 0x9
 1989 068c C5040000 		.4byte	.LASF94
 1990 0690 03       		.byte	0x3
 1991 0691 14       		.byte	0x14
 1992 0692 CB020000 		.4byte	0x2cb
 1993 0696 03       		.byte	0x3
 1994 0697 23       		.byte	0x23
 1995 0698 B404     		.uleb128 0x234
 1996 069a 09       		.uleb128 0x9
 1997 069b 38040000 		.4byte	.LASF95
 1998 069f 03       		.byte	0x3
 1999 06a0 15       		.byte	0x15
 2000 06a1 05030000 		.4byte	0x305
 2001 06a5 03       		.byte	0x3
 2002 06a6 23       		.byte	0x23
 2003 06a7 FC04     		.uleb128 0x27c
 2004 06a9 09       		.uleb128 0x9
 2005 06aa 3B000000 		.4byte	.LASF96
 2006 06ae 03       		.byte	0x3
 2007 06af 16       		.byte	0x16
 2008 06b0 53040000 		.4byte	0x453
 2009 06b4 03       		.byte	0x3
 2010 06b5 23       		.byte	0x23
 2011 06b6 8405     		.uleb128 0x284
 2012 06b8 00       		.byte	0x0
 2013 06b9 07       		.uleb128 0x7
 2014 06ba 40000000 		.4byte	.LASF97
 2015 06be 03       		.byte	0x3
 2016 06bf 17       		.byte	0x17
 2017 06c0 66060000 		.4byte	0x666
 2018 06c4 08       		.uleb128 0x8
 2019 06c5 FB060000 		.4byte	0x6fb
 2020 06c9 D8040000 		.4byte	.LASF98
 2021 06cd 14       		.byte	0x14
 2022 06ce 0B       		.byte	0xb
 2023 06cf 0B       		.byte	0xb
 2024 06d0 09       		.uleb128 0x9
 2025 06d1 91030000 		.4byte	.LASF73
 2026 06d5 0B       		.byte	0xb
ARM GAS  /cygdrive/c/DOCUME~1/mkwapisz/LOCALS~1/Temp/ccK7czfo.s 			page 42


 2027 06d6 0C       		.byte	0xc
 2028 06d7 FB060000 		.4byte	0x6fb
 2029 06db 02       		.byte	0x2
 2030 06dc 23       		.byte	0x23
 2031 06dd 00       		.uleb128 0x0
 2032 06de 09       		.uleb128 0x9
 2033 06df D3010000 		.4byte	.LASF84
 2034 06e3 0B       		.byte	0xb
 2035 06e4 0D       		.byte	0xd
 2036 06e5 25000000 		.4byte	0x25
 2037 06e9 02       		.byte	0x2
 2038 06ea 23       		.byte	0x23
 2039 06eb 0C       		.uleb128 0xc
 2040 06ec 09       		.uleb128 0x9
 2041 06ed C3050000 		.4byte	.LASF74
 2042 06f1 0B       		.byte	0xb
 2043 06f2 0E       		.byte	0xe
 2044 06f3 4F000000 		.4byte	0x4f
 2045 06f7 02       		.byte	0x2
 2046 06f8 23       		.byte	0x23
 2047 06f9 10       		.uleb128 0x10
 2048 06fa 00       		.byte	0x0
 2049 06fb 05       		.uleb128 0x5
 2050 06fc 0B070000 		.4byte	0x70b
 2051 0700 4F000000 		.4byte	0x4f
 2052 0704 06       		.uleb128 0x6
 2053 0705 48000000 		.4byte	0x48
 2054 0709 0B       		.byte	0xb
 2055 070a 00       		.byte	0x0
 2056 070b 07       		.uleb128 0x7
 2057 070c D8040000 		.4byte	.LASF98
 2058 0710 0B       		.byte	0xb
 2059 0711 10       		.byte	0x10
 2060 0712 C4060000 		.4byte	0x6c4
 2061 0716 08       		.uleb128 0x8
 2062 0717 68070000 		.4byte	0x768
 2063 071b 45040000 		.4byte	.LASF99
 2064 071f 34       		.byte	0x34
 2065 0720 0B       		.byte	0xb
 2066 0721 12       		.byte	0x12
 2067 0722 0D       		.uleb128 0xd
 2068 0723 667300   		.ascii	"fs\000"
 2069 0726 0B       		.byte	0xb
 2070 0727 13       		.byte	0x13
 2071 0728 4A060000 		.4byte	0x64a
 2072 072c 02       		.byte	0x2
 2073 072d 23       		.byte	0x23
 2074 072e 00       		.uleb128 0x0
 2075 072f 09       		.uleb128 0x9
 2076 0730 67000000 		.4byte	.LASF100
 2077 0734 0B       		.byte	0xb
 2078 0735 14       		.byte	0x14
 2079 0736 90000000 		.4byte	0x90
 2080 073a 02       		.byte	0x2
 2081 073b 23       		.byte	0x23
 2082 073c 04       		.uleb128 0x4
 2083 073d 09       		.uleb128 0x9
ARM GAS  /cygdrive/c/DOCUME~1/mkwapisz/LOCALS~1/Temp/ccK7czfo.s 			page 43


 2084 073e D9020000 		.4byte	.LASF101
 2085 0742 0B       		.byte	0xb
 2086 0743 14       		.byte	0x14
 2087 0744 90000000 		.4byte	0x90
 2088 0748 02       		.byte	0x2
 2089 0749 23       		.byte	0x23
 2090 074a 06       		.uleb128 0x6
 2091 074b 09       		.uleb128 0x9
 2092 074c 9E000000 		.4byte	.LASF102
 2093 0750 0B       		.byte	0xb
 2094 0751 16       		.byte	0x16
 2095 0752 0B070000 		.4byte	0x70b
 2096 0756 02       		.byte	0x2
 2097 0757 23       		.byte	0x23
 2098 0758 08       		.uleb128 0x8
 2099 0759 09       		.uleb128 0x9
 2100 075a 2D060000 		.4byte	.LASF88
 2101 075e 0B       		.byte	0xb
 2102 075f 17       		.byte	0x17
 2103 0760 01050000 		.4byte	0x501
 2104 0764 02       		.byte	0x2
 2105 0765 23       		.byte	0x23
 2106 0766 1C       		.uleb128 0x1c
 2107 0767 00       		.byte	0x0
 2108 0768 07       		.uleb128 0x7
 2109 0769 45040000 		.4byte	.LASF99
 2110 076d 0B       		.byte	0xb
 2111 076e 19       		.byte	0x19
 2112 076f 16070000 		.4byte	0x716
 2113 0773 0C       		.uleb128 0xc
 2114 0774 B3070000 		.4byte	0x7b3
 2115 0778 10       		.byte	0x10
 2116 0779 02       		.byte	0x2
 2117 077a 05       		.byte	0x5
 2118 077b 09       		.uleb128 0x9
 2119 077c A7020000 		.4byte	.LASF103
 2120 0780 02       		.byte	0x2
 2121 0781 06       		.byte	0x6
 2122 0782 56000000 		.4byte	0x56
 2123 0786 02       		.byte	0x2
 2124 0787 23       		.byte	0x23
 2125 0788 00       		.uleb128 0x0
 2126 0789 09       		.uleb128 0x9
 2127 078a 31040000 		.4byte	.LASF104
 2128 078e 02       		.byte	0x2
 2129 078f 07       		.byte	0x7
 2130 0790 56000000 		.4byte	0x56
 2131 0794 02       		.byte	0x2
 2132 0795 23       		.byte	0x23
 2133 0796 04       		.uleb128 0x4
 2134 0797 09       		.uleb128 0x9
 2135 0798 EE030000 		.4byte	.LASF105
 2136 079c 02       		.byte	0x2
 2137 079d 08       		.byte	0x8
 2138 079e 25000000 		.4byte	0x25
 2139 07a2 02       		.byte	0x2
 2140 07a3 23       		.byte	0x23
ARM GAS  /cygdrive/c/DOCUME~1/mkwapisz/LOCALS~1/Temp/ccK7czfo.s 			page 44


 2141 07a4 08       		.uleb128 0x8
 2142 07a5 0D       		.uleb128 0xd
 2143 07a6 494400   		.ascii	"ID\000"
 2144 07a9 02       		.byte	0x2
 2145 07aa 09       		.byte	0x9
 2146 07ab 4F000000 		.4byte	0x4f
 2147 07af 02       		.byte	0x2
 2148 07b0 23       		.byte	0x23
 2149 07b1 0C       		.uleb128 0xc
 2150 07b2 00       		.byte	0x0
 2151 07b3 07       		.uleb128 0x7
 2152 07b4 AC020000 		.4byte	.LASF106
 2153 07b8 02       		.byte	0x2
 2154 07b9 0A       		.byte	0xa
 2155 07ba 73070000 		.4byte	0x773
 2156 07be 0F       		.uleb128 0xf
 2157 07bf 0B080000 		.4byte	0x80b
 2158 07c3 01       		.byte	0x1
 2159 07c4 3A030000 		.4byte	.LASF108
 2160 07c8 01       		.byte	0x1
 2161 07c9 B9       		.byte	0xb9
 2162 07ca 01       		.byte	0x1
 2163 07cb 00000000 		.4byte	.LFB5
 2164 07cf B8000000 		.4byte	.LFE5
 2165 07d3 00000000 		.4byte	.LLST0
 2166 07d7 10       		.uleb128 0x10
 2167 07d8 A7020000 		.4byte	.LASF103
 2168 07dc 01       		.byte	0x1
 2169 07dd B8       		.byte	0xb8
 2170 07de 63000000 		.4byte	0x63
 2171 07e2 1F000000 		.4byte	.LLST1
 2172 07e6 11       		.uleb128 0x11
 2173 07e7 A2040000 		.4byte	.LASF107
 2174 07eb 01       		.byte	0x1
 2175 07ec BA       		.byte	0xba
 2176 07ed 56000000 		.4byte	0x56
 2177 07f1 01       		.byte	0x1
 2178 07f2 52       		.byte	0x52
 2179 07f3 12       		.uleb128 0x12
 2180 07f4 14000000 		.4byte	.LBB2
 2181 07f8 80000000 		.4byte	.LBE2
 2182 07fc 13       		.uleb128 0x13
 2183 07fd 6900     		.ascii	"i\000"
 2184 07ff 01       		.byte	0x1
 2185 0800 BF       		.byte	0xbf
 2186 0801 2C000000 		.4byte	0x2c
 2187 0805 3D000000 		.4byte	.LLST2
 2188 0809 00       		.byte	0x0
 2189 080a 00       		.byte	0x0
 2190 080b 14       		.uleb128 0x14
 2191 080c CB080000 		.4byte	0x8cb
 2192 0810 01       		.byte	0x1
 2193 0811 B1010000 		.4byte	.LASF109
 2194 0815 01       		.byte	0x1
 2195 0816 42       		.byte	0x42
 2196 0817 01       		.byte	0x1
 2197 0818 63000000 		.4byte	0x63
ARM GAS  /cygdrive/c/DOCUME~1/mkwapisz/LOCALS~1/Temp/ccK7czfo.s 			page 45


 2198 081c B8000000 		.4byte	.LFB3
 2199 0820 A0010000 		.4byte	.LFE3
 2200 0824 50000000 		.4byte	.LLST3
 2201 0828 15       		.uleb128 0x15
 2202 0829 91040000 		.4byte	.LASF110
 2203 082d 01       		.byte	0x1
 2204 082e 43       		.byte	0x43
 2205 082f 63000000 		.4byte	0x63
 2206 0833 6F000000 		.4byte	.LLST4
 2207 0837 16       		.uleb128 0x16
 2208 0838 1B040000 		.4byte	.LASF111
 2209 083c 01       		.byte	0x1
 2210 083d 44       		.byte	0x44
 2211 083e 63000000 		.4byte	0x63
 2212 0842 16       		.uleb128 0x16
 2213 0843 BA050000 		.4byte	.LASF112
 2214 0847 01       		.byte	0x1
 2215 0848 45       		.byte	0x45
 2216 0849 63000000 		.4byte	0x63
 2217 084d 16       		.uleb128 0x16
 2218 084e 06020000 		.4byte	.LASF113
 2219 0852 01       		.byte	0x1
 2220 0853 46       		.byte	0x46
 2221 0854 63000000 		.4byte	0x63
 2222 0858 16       		.uleb128 0x16
 2223 0859 5C030000 		.4byte	.LASF114
 2224 085d 01       		.byte	0x1
 2225 085e 48       		.byte	0x48
 2226 085f 63000000 		.4byte	0x63
 2227 0863 16       		.uleb128 0x16
 2228 0864 65030000 		.4byte	.LASF115
 2229 0868 01       		.byte	0x1
 2230 0869 49       		.byte	0x49
 2231 086a 63000000 		.4byte	0x63
 2232 086e 16       		.uleb128 0x16
 2233 086f 6E030000 		.4byte	.LASF116
 2234 0873 01       		.byte	0x1
 2235 0874 4A       		.byte	0x4a
 2236 0875 63000000 		.4byte	0x63
 2237 0879 16       		.uleb128 0x16
 2238 087a 6E040000 		.4byte	.LASF117
 2239 087e 01       		.byte	0x1
 2240 087f 4B       		.byte	0x4b
 2241 0880 63000000 		.4byte	0x63
 2242 0884 16       		.uleb128 0x16
 2243 0885 77040000 		.4byte	.LASF118
 2244 0889 01       		.byte	0x1
 2245 088a 4C       		.byte	0x4c
 2246 088b 63000000 		.4byte	0x63
 2247 088f 16       		.uleb128 0x16
 2248 0890 78000000 		.4byte	.LASF119
 2249 0894 01       		.byte	0x1
 2250 0895 4D       		.byte	0x4d
 2251 0896 63000000 		.4byte	0x63
 2252 089a 16       		.uleb128 0x16
 2253 089b 99040000 		.4byte	.LASF120
 2254 089f 01       		.byte	0x1
ARM GAS  /cygdrive/c/DOCUME~1/mkwapisz/LOCALS~1/Temp/ccK7czfo.s 			page 46


 2255 08a0 4E       		.byte	0x4e
 2256 08a1 63000000 		.4byte	0x63
 2257 08a5 16       		.uleb128 0x16
 2258 08a6 88030000 		.4byte	.LASF121
 2259 08aa 01       		.byte	0x1
 2260 08ab 4F       		.byte	0x4f
 2261 08ac 63000000 		.4byte	0x63
 2262 08b0 16       		.uleb128 0x16
 2263 08b1 CA030000 		.4byte	.LASF122
 2264 08b5 01       		.byte	0x1
 2265 08b6 51       		.byte	0x51
 2266 08b7 63000000 		.4byte	0x63
 2267 08bb 15       		.uleb128 0x15
 2268 08bc 60010000 		.4byte	.LASF123
 2269 08c0 01       		.byte	0x1
 2270 08c1 52       		.byte	0x52
 2271 08c2 2C000000 		.4byte	0x2c
 2272 08c6 11010000 		.4byte	.LLST5
 2273 08ca 00       		.byte	0x0
 2274 08cb 0F       		.uleb128 0xf
 2275 08cc 1D090000 		.4byte	0x91d
 2276 08d0 01       		.byte	0x1
 2277 08d1 80040000 		.4byte	.LASF124
 2278 08d5 01       		.byte	0x1
 2279 08d6 33       		.byte	0x33
 2280 08d7 01       		.byte	0x1
 2281 08d8 A0010000 		.4byte	.LFB2
 2282 08dc F6010000 		.4byte	.LFE2
 2283 08e0 9D010000 		.4byte	.LLST6
 2284 08e4 10       		.uleb128 0x10
 2285 08e5 2B050000 		.4byte	.LASF125
 2286 08e9 01       		.byte	0x1
 2287 08ea 32       		.byte	0x32
 2288 08eb 56000000 		.4byte	0x56
 2289 08ef BC010000 		.4byte	.LLST7
 2290 08f3 17       		.uleb128 0x17
 2291 08f4 73726300 		.ascii	"src\000"
 2292 08f8 01       		.byte	0x1
 2293 08f9 32       		.byte	0x32
 2294 08fa 56000000 		.4byte	0x56
 2295 08fe DA010000 		.4byte	.LLST8
 2296 0902 13       		.uleb128 0x13
 2297 0903 6900     		.ascii	"i\000"
 2298 0905 01       		.byte	0x1
 2299 0906 34       		.byte	0x34
 2300 0907 4F000000 		.4byte	0x4f
 2301 090b F8010000 		.4byte	.LLST9
 2302 090f 13       		.uleb128 0x13
 2303 0910 6B00     		.ascii	"k\000"
 2304 0912 01       		.byte	0x1
 2305 0913 34       		.byte	0x34
 2306 0914 4F000000 		.4byte	0x4f
 2307 0918 0B020000 		.4byte	.LLST10
 2308 091c 00       		.byte	0x0
 2309 091d 0F       		.uleb128 0xf
 2310 091e 53090000 		.4byte	0x953
 2311 0922 01       		.byte	0x1
ARM GAS  /cygdrive/c/DOCUME~1/mkwapisz/LOCALS~1/Temp/ccK7czfo.s 			page 47


 2312 0923 0C030000 		.4byte	.LASF126
 2313 0927 01       		.byte	0x1
 2314 0928 9E       		.byte	0x9e
 2315 0929 01       		.byte	0x1
 2316 092a F8010000 		.4byte	.LFB4
 2317 092e 54020000 		.4byte	.LFE4
 2318 0932 29020000 		.4byte	.LLST11
 2319 0936 18       		.uleb128 0x18
 2320 0937 6900     		.ascii	"i\000"
 2321 0939 01       		.byte	0x1
 2322 093a A6       		.byte	0xa6
 2323 093b 2C000000 		.4byte	0x2c
 2324 093f 12       		.uleb128 0x12
 2325 0940 0A020000 		.4byte	.LBB3
 2326 0944 2C020000 		.4byte	.LBE3
 2327 0948 18       		.uleb128 0x18
 2328 0949 6A00     		.ascii	"j\000"
 2329 094b 01       		.byte	0x1
 2330 094c B0       		.byte	0xb0
 2331 094d 2C000000 		.4byte	0x2c
 2332 0951 00       		.byte	0x0
 2333 0952 00       		.byte	0x0
 2334 0953 0F       		.uleb128 0xf
 2335 0954 85090000 		.4byte	0x985
 2336 0958 01       		.byte	0x1
 2337 0959 72020000 		.4byte	.LASF127
 2338 095d 01       		.byte	0x1
 2339 095e D8       		.byte	0xd8
 2340 095f 01       		.byte	0x1
 2341 0960 54020000 		.4byte	.LFB6
 2342 0964 64030000 		.4byte	.LFE6
 2343 0968 48020000 		.4byte	.LLST12
 2344 096c 15       		.uleb128 0x15
 2345 096d 70050000 		.4byte	.LASF128
 2346 0971 01       		.byte	0x1
 2347 0972 D9       		.byte	0xd9
 2348 0973 63000000 		.4byte	0x63
 2349 0977 67020000 		.4byte	.LLST13
 2350 097b 18       		.uleb128 0x18
 2351 097c 6900     		.ascii	"i\000"
 2352 097e 01       		.byte	0x1
 2353 097f E2       		.byte	0xe2
 2354 0980 2C000000 		.4byte	0x2c
 2355 0984 00       		.byte	0x0
 2356 0985 19       		.uleb128 0x19
 2357 0986 0E060000 		.4byte	.LASF129
 2358 098a 01       		.byte	0x1
 2359 098b 17       		.byte	0x17
 2360 098c B3070000 		.4byte	0x7b3
 2361 0990 01       		.byte	0x1
 2362 0991 05       		.byte	0x5
 2363 0992 03       		.byte	0x3
 2364 0993 00000000 		.4byte	currentSongInfo
 2365 0997 19       		.uleb128 0x19
 2366 0998 86000000 		.4byte	.LASF130
 2367 099c 01       		.byte	0x1
 2368 099d 18       		.byte	0x18
ARM GAS  /cygdrive/c/DOCUME~1/mkwapisz/LOCALS~1/Temp/ccK7czfo.s 			page 48


 2369 099e 4F000000 		.4byte	0x4f
 2370 09a2 01       		.byte	0x1
 2371 09a3 05       		.byte	0x5
 2372 09a4 03       		.byte	0x3
 2373 09a5 00000000 		.4byte	mmcInitialized
 2374 09a9 19       		.uleb128 0x19
 2375 09aa EA020000 		.4byte	.LASF131
 2376 09ae 01       		.byte	0x1
 2377 09af 19       		.byte	0x19
 2378 09b0 4F000000 		.4byte	0x4f
 2379 09b4 01       		.byte	0x1
 2380 09b5 05       		.byte	0x5
 2381 09b6 03       		.byte	0x3
 2382 09b7 00000000 		.4byte	changeLeft
 2383 09bb 19       		.uleb128 0x19
 2384 09bc 9B020000 		.4byte	.LASF132
 2385 09c0 01       		.byte	0x1
 2386 09c1 1A       		.byte	0x1a
 2387 09c2 4F000000 		.4byte	0x4f
 2388 09c6 01       		.byte	0x1
 2389 09c7 05       		.byte	0x5
 2390 09c8 03       		.byte	0x3
 2391 09c9 00000000 		.4byte	changeRight
 2392 09cd 19       		.uleb128 0x19
 2393 09ce 16020000 		.4byte	.LASF133
 2394 09d2 01       		.byte	0x1
 2395 09d3 1B       		.byte	0x1b
 2396 09d4 4F000000 		.4byte	0x4f
 2397 09d8 01       		.byte	0x1
 2398 09d9 05       		.byte	0x5
 2399 09da 03       		.byte	0x3
 2400 09db 00000000 		.4byte	rewindForward
 2401 09df 19       		.uleb128 0x19
 2402 09e0 DD000000 		.4byte	.LASF134
 2403 09e4 01       		.byte	0x1
 2404 09e5 1C       		.byte	0x1c
 2405 09e6 4F000000 		.4byte	0x4f
 2406 09ea 01       		.byte	0x1
 2407 09eb 05       		.byte	0x5
 2408 09ec 03       		.byte	0x3
 2409 09ed 00000000 		.4byte	rewindBackward
 2410 09f1 19       		.uleb128 0x19
 2411 09f2 6C010000 		.4byte	.LASF135
 2412 09f6 01       		.byte	0x1
 2413 09f7 1D       		.byte	0x1d
 2414 09f8 41000000 		.4byte	0x41
 2415 09fc 01       		.byte	0x1
 2416 09fd 05       		.byte	0x5
 2417 09fe 03       		.byte	0x3
 2418 09ff 00000000 		.4byte	isError
 2419 0a03 19       		.uleb128 0x19
 2420 0a04 3F040000 		.4byte	.LASF22
 2421 0a08 01       		.byte	0x1
 2422 0a09 1E       		.byte	0x1e
 2423 0a0a 63000000 		.4byte	0x63
 2424 0a0e 01       		.byte	0x1
 2425 0a0f 05       		.byte	0x5
ARM GAS  /cygdrive/c/DOCUME~1/mkwapisz/LOCALS~1/Temp/ccK7czfo.s 			page 49


 2426 0a10 03       		.byte	0x3
 2427 0a11 00000000 		.4byte	error
 2428 0a15 19       		.uleb128 0x19
 2429 0a16 FD050000 		.4byte	.LASF136
 2430 0a1a 01       		.byte	0x1
 2431 0a1b 21       		.byte	0x21
 2432 0a1c 4F000000 		.4byte	0x4f
 2433 0a20 01       		.byte	0x1
 2434 0a21 05       		.byte	0x5
 2435 0a22 03       		.byte	0x3
 2436 0a23 00000000 		.4byte	id3TagSize
 2437 0a27 19       		.uleb128 0x19
 2438 0a28 E5040000 		.4byte	.LASF137
 2439 0a2c 01       		.byte	0x1
 2440 0a2d 22       		.byte	0x22
 2441 0a2e 25000000 		.4byte	0x25
 2442 0a32 01       		.byte	0x1
 2443 0a33 05       		.byte	0x5
 2444 0a34 03       		.byte	0x3
 2445 0a35 00000000 		.4byte	fileSize
 2446 0a39 19       		.uleb128 0x19
 2447 0a3a 42030000 		.4byte	.LASF138
 2448 0a3e 01       		.byte	0x1
 2449 0a3f 23       		.byte	0x23
 2450 0a40 4F000000 		.4byte	0x4f
 2451 0a44 01       		.byte	0x1
 2452 0a45 05       		.byte	0x5
 2453 0a46 03       		.byte	0x3
 2454 0a47 00000000 		.4byte	readSize
 2455 0a4b 05       		.uleb128 0x5
 2456 0a4c 5B0A0000 		.4byte	0xa5b
 2457 0a50 4F000000 		.4byte	0x4f
 2458 0a54 06       		.uleb128 0x6
 2459 0a55 48000000 		.4byte	0x48
 2460 0a59 0C       		.byte	0xc
 2461 0a5a 00       		.byte	0x0
 2462 0a5b 19       		.uleb128 0x19
 2463 0a5c EC000000 		.4byte	.LASF139
 2464 0a60 01       		.byte	0x1
 2465 0a61 24       		.byte	0x24
 2466 0a62 4B0A0000 		.4byte	0xa4b
 2467 0a66 01       		.byte	0x1
 2468 0a67 05       		.byte	0x5
 2469 0a68 03       		.byte	0x3
 2470 0a69 00000000 		.4byte	myName
 2471 0a6d 19       		.uleb128 0x19
 2472 0a6e 85010000 		.4byte	.LASF140
 2473 0a72 01       		.byte	0x1
 2474 0a73 25       		.byte	0x25
 2475 0a74 4B0A0000 		.4byte	0xa4b
 2476 0a78 01       		.byte	0x1
 2477 0a79 05       		.byte	0x5
 2478 0a7a 03       		.byte	0x3
 2479 0a7b 00000000 		.4byte	myAuthor
 2480 0a7f 19       		.uleb128 0x19
 2481 0a80 8C050000 		.4byte	.LASF141
 2482 0a84 01       		.byte	0x1
ARM GAS  /cygdrive/c/DOCUME~1/mkwapisz/LOCALS~1/Temp/ccK7czfo.s 			page 50


 2483 0a85 26       		.byte	0x26
 2484 0a86 25000000 		.4byte	0x25
 2485 0a8a 01       		.byte	0x1
 2486 0a8b 05       		.byte	0x5
 2487 0a8c 03       		.byte	0x3
 2488 0a8d 00000000 		.4byte	titleOffset
 2489 0a91 19       		.uleb128 0x19
 2490 0a92 F3030000 		.4byte	.LASF142
 2491 0a96 01       		.byte	0x1
 2492 0a97 27       		.byte	0x27
 2493 0a98 25000000 		.4byte	0x25
 2494 0a9c 01       		.byte	0x1
 2495 0a9d 05       		.byte	0x5
 2496 0a9e 03       		.byte	0x3
 2497 0a9f 00000000 		.4byte	authorOffset
 2498 0aa3 1A       		.uleb128 0x1a
 2499 0aa4 65667300 		.ascii	"efs\000"
 2500 0aa8 01       		.byte	0x1
 2501 0aa9 2A       		.byte	0x2a
 2502 0aaa B9060000 		.4byte	0x6b9
 2503 0aae 01       		.byte	0x1
 2504 0aaf 05       		.byte	0x5
 2505 0ab0 03       		.byte	0x3
 2506 0ab1 00000000 		.4byte	efs
 2507 0ab5 19       		.uleb128 0x19
 2508 0ab6 26010000 		.4byte	.LASF143
 2509 0aba 01       		.byte	0x1
 2510 0abb 2B       		.byte	0x2b
 2511 0abc 5B060000 		.4byte	0x65b
 2512 0ac0 01       		.byte	0x1
 2513 0ac1 05       		.byte	0x5
 2514 0ac2 03       		.byte	0x3
 2515 0ac3 00000000 		.4byte	file
 2516 0ac7 19       		.uleb128 0x19
 2517 0ac8 80010000 		.4byte	.LASF144
 2518 0acc 01       		.byte	0x1
 2519 0acd 2C       		.byte	0x2c
 2520 0ace 68070000 		.4byte	0x768
 2521 0ad2 01       		.byte	0x1
 2522 0ad3 05       		.byte	0x5
 2523 0ad4 03       		.byte	0x3
 2524 0ad5 00000000 		.4byte	list
 2525 0ad9 19       		.uleb128 0x19
 2526 0ada 30020000 		.4byte	.LASF145
 2527 0ade 01       		.byte	0x1
 2528 0adf 2D       		.byte	0x2d
 2529 0ae0 4B0A0000 		.4byte	0xa4b
 2530 0ae4 01       		.byte	0x1
 2531 0ae5 05       		.byte	0x5
 2532 0ae6 03       		.byte	0x3
 2533 0ae7 00000000 		.4byte	file_name
 2534 0aeb 19       		.uleb128 0x19
 2535 0aec B5020000 		.4byte	.LASF146
 2536 0af0 01       		.byte	0x1
 2537 0af1 2E       		.byte	0x2e
 2538 0af2 41000000 		.4byte	0x41
 2539 0af6 01       		.byte	0x1
ARM GAS  /cygdrive/c/DOCUME~1/mkwapisz/LOCALS~1/Temp/ccK7czfo.s 			page 51


 2540 0af7 05       		.byte	0x5
 2541 0af8 03       		.byte	0x3
 2542 0af9 00000000 		.4byte	size
 2543 0afd 05       		.uleb128 0x5
 2544 0afe 130B0000 		.4byte	0xb13
 2545 0b02 4F000000 		.4byte	0x4f
 2546 0b06 06       		.uleb128 0x6
 2547 0b07 48000000 		.4byte	0x48
 2548 0b0b FF       		.byte	0xff
 2549 0b0c 06       		.uleb128 0x6
 2550 0b0d 48000000 		.4byte	0x48
 2551 0b11 0C       		.byte	0xc
 2552 0b12 00       		.byte	0x0
 2553 0b13 19       		.uleb128 0x19
 2554 0b14 59060000 		.4byte	.LASF147
 2555 0b18 01       		.byte	0x1
 2556 0b19 30       		.byte	0x30
 2557 0b1a FD0A0000 		.4byte	0xafd
 2558 0b1e 01       		.byte	0x1
 2559 0b1f 05       		.byte	0x5
 2560 0b20 03       		.byte	0x3
 2561 0b21 00000000 		.4byte	files
 2562 0b25 00       		.byte	0x0
 2563              		.section	.debug_abbrev
 2564 0000 01       		.uleb128 0x1
 2565 0001 11       		.uleb128 0x11
 2566 0002 01       		.byte	0x1
 2567 0003 10       		.uleb128 0x10
 2568 0004 06       		.uleb128 0x6
 2569 0005 12       		.uleb128 0x12
 2570 0006 01       		.uleb128 0x1
 2571 0007 11       		.uleb128 0x11
 2572 0008 01       		.uleb128 0x1
 2573 0009 25       		.uleb128 0x25
 2574 000a 0E       		.uleb128 0xe
 2575 000b 13       		.uleb128 0x13
 2576 000c 0B       		.uleb128 0xb
 2577 000d 03       		.uleb128 0x3
 2578 000e 0E       		.uleb128 0xe
 2579 000f 1B       		.uleb128 0x1b
 2580 0010 0E       		.uleb128 0xe
 2581 0011 00       		.byte	0x0
 2582 0012 00       		.byte	0x0
 2583 0013 02       		.uleb128 0x2
 2584 0014 24       		.uleb128 0x24
 2585 0015 00       		.byte	0x0
 2586 0016 03       		.uleb128 0x3
 2587 0017 0E       		.uleb128 0xe
 2588 0018 0B       		.uleb128 0xb
 2589 0019 0B       		.uleb128 0xb
 2590 001a 3E       		.uleb128 0x3e
 2591 001b 0B       		.uleb128 0xb
 2592 001c 00       		.byte	0x0
 2593 001d 00       		.byte	0x0
 2594 001e 03       		.uleb128 0x3
 2595 001f 24       		.uleb128 0x24
 2596 0020 00       		.byte	0x0
ARM GAS  /cygdrive/c/DOCUME~1/mkwapisz/LOCALS~1/Temp/ccK7czfo.s 			page 52


 2597 0021 03       		.uleb128 0x3
 2598 0022 08       		.uleb128 0x8
 2599 0023 0B       		.uleb128 0xb
 2600 0024 0B       		.uleb128 0xb
 2601 0025 3E       		.uleb128 0x3e
 2602 0026 0B       		.uleb128 0xb
 2603 0027 00       		.byte	0x0
 2604 0028 00       		.byte	0x0
 2605 0029 04       		.uleb128 0x4
 2606 002a 0F       		.uleb128 0xf
 2607 002b 00       		.byte	0x0
 2608 002c 0B       		.uleb128 0xb
 2609 002d 0B       		.uleb128 0xb
 2610 002e 49       		.uleb128 0x49
 2611 002f 13       		.uleb128 0x13
 2612 0030 00       		.byte	0x0
 2613 0031 00       		.byte	0x0
 2614 0032 05       		.uleb128 0x5
 2615 0033 01       		.uleb128 0x1
 2616 0034 01       		.byte	0x1
 2617 0035 01       		.uleb128 0x1
 2618 0036 13       		.uleb128 0x13
 2619 0037 49       		.uleb128 0x49
 2620 0038 13       		.uleb128 0x13
 2621 0039 00       		.byte	0x0
 2622 003a 00       		.byte	0x0
 2623 003b 06       		.uleb128 0x6
 2624 003c 21       		.uleb128 0x21
 2625 003d 00       		.byte	0x0
 2626 003e 49       		.uleb128 0x49
 2627 003f 13       		.uleb128 0x13
 2628 0040 2F       		.uleb128 0x2f
 2629 0041 0B       		.uleb128 0xb
 2630 0042 00       		.byte	0x0
 2631 0043 00       		.byte	0x0
 2632 0044 07       		.uleb128 0x7
 2633 0045 16       		.uleb128 0x16
 2634 0046 00       		.byte	0x0
 2635 0047 03       		.uleb128 0x3
 2636 0048 0E       		.uleb128 0xe
 2637 0049 3A       		.uleb128 0x3a
 2638 004a 0B       		.uleb128 0xb
 2639 004b 3B       		.uleb128 0x3b
 2640 004c 0B       		.uleb128 0xb
 2641 004d 49       		.uleb128 0x49
 2642 004e 13       		.uleb128 0x13
 2643 004f 00       		.byte	0x0
 2644 0050 00       		.byte	0x0
 2645 0051 08       		.uleb128 0x8
 2646 0052 13       		.uleb128 0x13
 2647 0053 01       		.byte	0x1
 2648 0054 01       		.uleb128 0x1
 2649 0055 13       		.uleb128 0x13
 2650 0056 03       		.uleb128 0x3
 2651 0057 0E       		.uleb128 0xe
 2652 0058 0B       		.uleb128 0xb
 2653 0059 0B       		.uleb128 0xb
ARM GAS  /cygdrive/c/DOCUME~1/mkwapisz/LOCALS~1/Temp/ccK7czfo.s 			page 53


 2654 005a 3A       		.uleb128 0x3a
 2655 005b 0B       		.uleb128 0xb
 2656 005c 3B       		.uleb128 0x3b
 2657 005d 0B       		.uleb128 0xb
 2658 005e 00       		.byte	0x0
 2659 005f 00       		.byte	0x0
 2660 0060 09       		.uleb128 0x9
 2661 0061 0D       		.uleb128 0xd
 2662 0062 00       		.byte	0x0
 2663 0063 03       		.uleb128 0x3
 2664 0064 0E       		.uleb128 0xe
 2665 0065 3A       		.uleb128 0x3a
 2666 0066 0B       		.uleb128 0xb
 2667 0067 3B       		.uleb128 0x3b
 2668 0068 0B       		.uleb128 0xb
 2669 0069 49       		.uleb128 0x49
 2670 006a 13       		.uleb128 0x13
 2671 006b 38       		.uleb128 0x38
 2672 006c 0A       		.uleb128 0xa
 2673 006d 00       		.byte	0x0
 2674 006e 00       		.byte	0x0
 2675 006f 0A       		.uleb128 0xa
 2676 0070 13       		.uleb128 0x13
 2677 0071 01       		.byte	0x1
 2678 0072 01       		.uleb128 0x1
 2679 0073 13       		.uleb128 0x13
 2680 0074 03       		.uleb128 0x3
 2681 0075 0E       		.uleb128 0xe
 2682 0076 0B       		.uleb128 0xb
 2683 0077 05       		.uleb128 0x5
 2684 0078 3A       		.uleb128 0x3a
 2685 0079 0B       		.uleb128 0xb
 2686 007a 3B       		.uleb128 0x3b
 2687 007b 0B       		.uleb128 0xb
 2688 007c 00       		.byte	0x0
 2689 007d 00       		.byte	0x0
 2690 007e 0B       		.uleb128 0xb
 2691 007f 21       		.uleb128 0x21
 2692 0080 00       		.byte	0x0
 2693 0081 49       		.uleb128 0x49
 2694 0082 13       		.uleb128 0x13
 2695 0083 2F       		.uleb128 0x2f
 2696 0084 05       		.uleb128 0x5
 2697 0085 00       		.byte	0x0
 2698 0086 00       		.byte	0x0
 2699 0087 0C       		.uleb128 0xc
 2700 0088 13       		.uleb128 0x13
 2701 0089 01       		.byte	0x1
 2702 008a 01       		.uleb128 0x1
 2703 008b 13       		.uleb128 0x13
 2704 008c 0B       		.uleb128 0xb
 2705 008d 0B       		.uleb128 0xb
 2706 008e 3A       		.uleb128 0x3a
 2707 008f 0B       		.uleb128 0xb
 2708 0090 3B       		.uleb128 0x3b
 2709 0091 0B       		.uleb128 0xb
 2710 0092 00       		.byte	0x0
ARM GAS  /cygdrive/c/DOCUME~1/mkwapisz/LOCALS~1/Temp/ccK7czfo.s 			page 54


 2711 0093 00       		.byte	0x0
 2712 0094 0D       		.uleb128 0xd
 2713 0095 0D       		.uleb128 0xd
 2714 0096 00       		.byte	0x0
 2715 0097 03       		.uleb128 0x3
 2716 0098 08       		.uleb128 0x8
 2717 0099 3A       		.uleb128 0x3a
 2718 009a 0B       		.uleb128 0xb
 2719 009b 3B       		.uleb128 0x3b
 2720 009c 0B       		.uleb128 0xb
 2721 009d 49       		.uleb128 0x49
 2722 009e 13       		.uleb128 0x13
 2723 009f 38       		.uleb128 0x38
 2724 00a0 0A       		.uleb128 0xa
 2725 00a1 00       		.byte	0x0
 2726 00a2 00       		.byte	0x0
 2727 00a3 0E       		.uleb128 0xe
 2728 00a4 13       		.uleb128 0x13
 2729 00a5 01       		.byte	0x1
 2730 00a6 01       		.uleb128 0x1
 2731 00a7 13       		.uleb128 0x13
 2732 00a8 0B       		.uleb128 0xb
 2733 00a9 05       		.uleb128 0x5
 2734 00aa 3A       		.uleb128 0x3a
 2735 00ab 0B       		.uleb128 0xb
 2736 00ac 3B       		.uleb128 0x3b
 2737 00ad 0B       		.uleb128 0xb
 2738 00ae 00       		.byte	0x0
 2739 00af 00       		.byte	0x0
 2740 00b0 0F       		.uleb128 0xf
 2741 00b1 2E       		.uleb128 0x2e
 2742 00b2 01       		.byte	0x1
 2743 00b3 01       		.uleb128 0x1
 2744 00b4 13       		.uleb128 0x13
 2745 00b5 3F       		.uleb128 0x3f
 2746 00b6 0C       		.uleb128 0xc
 2747 00b7 03       		.uleb128 0x3
 2748 00b8 0E       		.uleb128 0xe
 2749 00b9 3A       		.uleb128 0x3a
 2750 00ba 0B       		.uleb128 0xb
 2751 00bb 3B       		.uleb128 0x3b
 2752 00bc 0B       		.uleb128 0xb
 2753 00bd 27       		.uleb128 0x27
 2754 00be 0C       		.uleb128 0xc
 2755 00bf 11       		.uleb128 0x11
 2756 00c0 01       		.uleb128 0x1
 2757 00c1 12       		.uleb128 0x12
 2758 00c2 01       		.uleb128 0x1
 2759 00c3 40       		.uleb128 0x40
 2760 00c4 06       		.uleb128 0x6
 2761 00c5 00       		.byte	0x0
 2762 00c6 00       		.byte	0x0
 2763 00c7 10       		.uleb128 0x10
 2764 00c8 05       		.uleb128 0x5
 2765 00c9 00       		.byte	0x0
 2766 00ca 03       		.uleb128 0x3
 2767 00cb 0E       		.uleb128 0xe
ARM GAS  /cygdrive/c/DOCUME~1/mkwapisz/LOCALS~1/Temp/ccK7czfo.s 			page 55


 2768 00cc 3A       		.uleb128 0x3a
 2769 00cd 0B       		.uleb128 0xb
 2770 00ce 3B       		.uleb128 0x3b
 2771 00cf 0B       		.uleb128 0xb
 2772 00d0 49       		.uleb128 0x49
 2773 00d1 13       		.uleb128 0x13
 2774 00d2 02       		.uleb128 0x2
 2775 00d3 06       		.uleb128 0x6
 2776 00d4 00       		.byte	0x0
 2777 00d5 00       		.byte	0x0
 2778 00d6 11       		.uleb128 0x11
 2779 00d7 34       		.uleb128 0x34
 2780 00d8 00       		.byte	0x0
 2781 00d9 03       		.uleb128 0x3
 2782 00da 0E       		.uleb128 0xe
 2783 00db 3A       		.uleb128 0x3a
 2784 00dc 0B       		.uleb128 0xb
 2785 00dd 3B       		.uleb128 0x3b
 2786 00de 0B       		.uleb128 0xb
 2787 00df 49       		.uleb128 0x49
 2788 00e0 13       		.uleb128 0x13
 2789 00e1 02       		.uleb128 0x2
 2790 00e2 0A       		.uleb128 0xa
 2791 00e3 00       		.byte	0x0
 2792 00e4 00       		.byte	0x0
 2793 00e5 12       		.uleb128 0x12
 2794 00e6 0B       		.uleb128 0xb
 2795 00e7 01       		.byte	0x1
 2796 00e8 11       		.uleb128 0x11
 2797 00e9 01       		.uleb128 0x1
 2798 00ea 12       		.uleb128 0x12
 2799 00eb 01       		.uleb128 0x1
 2800 00ec 00       		.byte	0x0
 2801 00ed 00       		.byte	0x0
 2802 00ee 13       		.uleb128 0x13
 2803 00ef 34       		.uleb128 0x34
 2804 00f0 00       		.byte	0x0
 2805 00f1 03       		.uleb128 0x3
 2806 00f2 08       		.uleb128 0x8
 2807 00f3 3A       		.uleb128 0x3a
 2808 00f4 0B       		.uleb128 0xb
 2809 00f5 3B       		.uleb128 0x3b
 2810 00f6 0B       		.uleb128 0xb
 2811 00f7 49       		.uleb128 0x49
 2812 00f8 13       		.uleb128 0x13
 2813 00f9 02       		.uleb128 0x2
 2814 00fa 06       		.uleb128 0x6
 2815 00fb 00       		.byte	0x0
 2816 00fc 00       		.byte	0x0
 2817 00fd 14       		.uleb128 0x14
 2818 00fe 2E       		.uleb128 0x2e
 2819 00ff 01       		.byte	0x1
 2820 0100 01       		.uleb128 0x1
 2821 0101 13       		.uleb128 0x13
 2822 0102 3F       		.uleb128 0x3f
 2823 0103 0C       		.uleb128 0xc
 2824 0104 03       		.uleb128 0x3
ARM GAS  /cygdrive/c/DOCUME~1/mkwapisz/LOCALS~1/Temp/ccK7czfo.s 			page 56


 2825 0105 0E       		.uleb128 0xe
 2826 0106 3A       		.uleb128 0x3a
 2827 0107 0B       		.uleb128 0xb
 2828 0108 3B       		.uleb128 0x3b
 2829 0109 0B       		.uleb128 0xb
 2830 010a 27       		.uleb128 0x27
 2831 010b 0C       		.uleb128 0xc
 2832 010c 49       		.uleb128 0x49
 2833 010d 13       		.uleb128 0x13
 2834 010e 11       		.uleb128 0x11
 2835 010f 01       		.uleb128 0x1
 2836 0110 12       		.uleb128 0x12
 2837 0111 01       		.uleb128 0x1
 2838 0112 40       		.uleb128 0x40
 2839 0113 06       		.uleb128 0x6
 2840 0114 00       		.byte	0x0
 2841 0115 00       		.byte	0x0
 2842 0116 15       		.uleb128 0x15
 2843 0117 34       		.uleb128 0x34
 2844 0118 00       		.byte	0x0
 2845 0119 03       		.uleb128 0x3
 2846 011a 0E       		.uleb128 0xe
 2847 011b 3A       		.uleb128 0x3a
 2848 011c 0B       		.uleb128 0xb
 2849 011d 3B       		.uleb128 0x3b
 2850 011e 0B       		.uleb128 0xb
 2851 011f 49       		.uleb128 0x49
 2852 0120 13       		.uleb128 0x13
 2853 0121 02       		.uleb128 0x2
 2854 0122 06       		.uleb128 0x6
 2855 0123 00       		.byte	0x0
 2856 0124 00       		.byte	0x0
 2857 0125 16       		.uleb128 0x16
 2858 0126 34       		.uleb128 0x34
 2859 0127 00       		.byte	0x0
 2860 0128 03       		.uleb128 0x3
 2861 0129 0E       		.uleb128 0xe
 2862 012a 3A       		.uleb128 0x3a
 2863 012b 0B       		.uleb128 0xb
 2864 012c 3B       		.uleb128 0x3b
 2865 012d 0B       		.uleb128 0xb
 2866 012e 49       		.uleb128 0x49
 2867 012f 13       		.uleb128 0x13
 2868 0130 00       		.byte	0x0
 2869 0131 00       		.byte	0x0
 2870 0132 17       		.uleb128 0x17
 2871 0133 05       		.uleb128 0x5
 2872 0134 00       		.byte	0x0
 2873 0135 03       		.uleb128 0x3
 2874 0136 08       		.uleb128 0x8
 2875 0137 3A       		.uleb128 0x3a
 2876 0138 0B       		.uleb128 0xb
 2877 0139 3B       		.uleb128 0x3b
 2878 013a 0B       		.uleb128 0xb
 2879 013b 49       		.uleb128 0x49
 2880 013c 13       		.uleb128 0x13
 2881 013d 02       		.uleb128 0x2
ARM GAS  /cygdrive/c/DOCUME~1/mkwapisz/LOCALS~1/Temp/ccK7czfo.s 			page 57


 2882 013e 06       		.uleb128 0x6
 2883 013f 00       		.byte	0x0
 2884 0140 00       		.byte	0x0
 2885 0141 18       		.uleb128 0x18
 2886 0142 34       		.uleb128 0x34
 2887 0143 00       		.byte	0x0
 2888 0144 03       		.uleb128 0x3
 2889 0145 08       		.uleb128 0x8
 2890 0146 3A       		.uleb128 0x3a
 2891 0147 0B       		.uleb128 0xb
 2892 0148 3B       		.uleb128 0x3b
 2893 0149 0B       		.uleb128 0xb
 2894 014a 49       		.uleb128 0x49
 2895 014b 13       		.uleb128 0x13
 2896 014c 00       		.byte	0x0
 2897 014d 00       		.byte	0x0
 2898 014e 19       		.uleb128 0x19
 2899 014f 34       		.uleb128 0x34
 2900 0150 00       		.byte	0x0
 2901 0151 03       		.uleb128 0x3
 2902 0152 0E       		.uleb128 0xe
 2903 0153 3A       		.uleb128 0x3a
 2904 0154 0B       		.uleb128 0xb
 2905 0155 3B       		.uleb128 0x3b
 2906 0156 0B       		.uleb128 0xb
 2907 0157 49       		.uleb128 0x49
 2908 0158 13       		.uleb128 0x13
 2909 0159 3F       		.uleb128 0x3f
 2910 015a 0C       		.uleb128 0xc
 2911 015b 02       		.uleb128 0x2
 2912 015c 0A       		.uleb128 0xa
 2913 015d 00       		.byte	0x0
 2914 015e 00       		.byte	0x0
 2915 015f 1A       		.uleb128 0x1a
 2916 0160 34       		.uleb128 0x34
 2917 0161 00       		.byte	0x0
 2918 0162 03       		.uleb128 0x3
 2919 0163 08       		.uleb128 0x8
 2920 0164 3A       		.uleb128 0x3a
 2921 0165 0B       		.uleb128 0xb
 2922 0166 3B       		.uleb128 0x3b
 2923 0167 0B       		.uleb128 0xb
 2924 0168 49       		.uleb128 0x49
 2925 0169 13       		.uleb128 0x13
 2926 016a 3F       		.uleb128 0x3f
 2927 016b 0C       		.uleb128 0xc
 2928 016c 02       		.uleb128 0x2
 2929 016d 0A       		.uleb128 0xa
 2930 016e 00       		.byte	0x0
 2931 016f 00       		.byte	0x0
 2932 0170 00       		.byte	0x0
 2933              		.section	.debug_pubnames,"",%progbits
 2934 0000 76010000 		.4byte	0x176
 2935 0004 0200     		.2byte	0x2
 2936 0006 00000000 		.4byte	.Ldebug_info0
 2937 000a 260B0000 		.4byte	0xb26
 2938 000e BE070000 		.4byte	0x7be
ARM GAS  /cygdrive/c/DOCUME~1/mkwapisz/LOCALS~1/Temp/ccK7czfo.s 			page 58


 2939 0012 74657374 		.ascii	"testMMC\000"
 2939      4D4D4300 
 2940 001a 0B080000 		.4byte	0x80b
 2941 001e 696E6974 		.ascii	"initMMC\000"
 2941      4D4D4300 
 2942 0026 CB080000 		.4byte	0x8cb
 2943 002a 666F726D 		.ascii	"format_file_name\000"
 2943      61745F66 
 2943      696C655F 
 2943      6E616D65 
 2943      00
 2944 003b 1D090000 		.4byte	0x91d
 2945 003f 67657446 		.ascii	"getFileNames\000"
 2945      696C654E 
 2945      616D6573 
 2945      00
 2946 004c 53090000 		.4byte	0x953
 2947 0050 4D4D4370 		.ascii	"MMCproc\000"
 2947      726F6300 
 2948 0058 85090000 		.4byte	0x985
 2949 005c 63757272 		.ascii	"currentSongInfo\000"
 2949      656E7453 
 2949      6F6E6749 
 2949      6E666F00 
 2950 006c 97090000 		.4byte	0x997
 2951 0070 6D6D6349 		.ascii	"mmcInitialized\000"
 2951      6E697469 
 2951      616C697A 
 2951      656400
 2952 007f A9090000 		.4byte	0x9a9
 2953 0083 6368616E 		.ascii	"changeLeft\000"
 2953      67654C65 
 2953      667400
 2954 008e BB090000 		.4byte	0x9bb
 2955 0092 6368616E 		.ascii	"changeRight\000"
 2955      67655269 
 2955      67687400 
 2956 009e CD090000 		.4byte	0x9cd
 2957 00a2 72657769 		.ascii	"rewindForward\000"
 2957      6E64466F 
 2957      72776172 
 2957      6400
 2958 00b0 DF090000 		.4byte	0x9df
 2959 00b4 72657769 		.ascii	"rewindBackward\000"
 2959      6E644261 
 2959      636B7761 
 2959      726400
 2960 00c3 F1090000 		.4byte	0x9f1
 2961 00c7 69734572 		.ascii	"isError\000"
 2961      726F7200 
 2962 00cf 030A0000 		.4byte	0xa03
 2963 00d3 6572726F 		.ascii	"error\000"
 2963      7200
 2964 00d9 150A0000 		.4byte	0xa15
 2965 00dd 69643354 		.ascii	"id3TagSize\000"
 2965      61675369 
 2965      7A6500
ARM GAS  /cygdrive/c/DOCUME~1/mkwapisz/LOCALS~1/Temp/ccK7czfo.s 			page 59


 2966 00e8 270A0000 		.4byte	0xa27
 2967 00ec 66696C65 		.ascii	"fileSize\000"
 2967      53697A65 
 2967      00
 2968 00f5 390A0000 		.4byte	0xa39
 2969 00f9 72656164 		.ascii	"readSize\000"
 2969      53697A65 
 2969      00
 2970 0102 5B0A0000 		.4byte	0xa5b
 2971 0106 6D794E61 		.ascii	"myName\000"
 2971      6D6500
 2972 010d 6D0A0000 		.4byte	0xa6d
 2973 0111 6D794175 		.ascii	"myAuthor\000"
 2973      74686F72 
 2973      00
 2974 011a 7F0A0000 		.4byte	0xa7f
 2975 011e 7469746C 		.ascii	"titleOffset\000"
 2975      654F6666 
 2975      73657400 
 2976 012a 910A0000 		.4byte	0xa91
 2977 012e 61757468 		.ascii	"authorOffset\000"
 2977      6F724F66 
 2977      66736574 
 2977      00
 2978 013b A30A0000 		.4byte	0xaa3
 2979 013f 65667300 		.ascii	"efs\000"
 2980 0143 B50A0000 		.4byte	0xab5
 2981 0147 66696C65 		.ascii	"file\000"
 2981      00
 2982 014c C70A0000 		.4byte	0xac7
 2983 0150 6C697374 		.ascii	"list\000"
 2983      00
 2984 0155 D90A0000 		.4byte	0xad9
 2985 0159 66696C65 		.ascii	"file_name\000"
 2985      5F6E616D 
 2985      6500
 2986 0163 EB0A0000 		.4byte	0xaeb
 2987 0167 73697A65 		.ascii	"size\000"
 2987      00
 2988 016c 130B0000 		.4byte	0xb13
 2989 0170 66696C65 		.ascii	"files\000"
 2989      7300
 2990 0176 00000000 		.4byte	0x0
 2991              		.section	.debug_aranges,"",%progbits
 2992 0000 1C000000 		.4byte	0x1c
 2993 0004 0200     		.2byte	0x2
 2994 0006 00000000 		.4byte	.Ldebug_info0
 2995 000a 04       		.byte	0x4
 2996 000b 00       		.byte	0x0
 2997 000c 0000     		.2byte	0x0
 2998 000e 0000     		.2byte	0x0
 2999 0010 00000000 		.4byte	.Ltext0
 3000 0014 64030000 		.4byte	.Letext0-.Ltext0
 3001 0018 00000000 		.4byte	0x0
 3002 001c 00000000 		.4byte	0x0
 3003              		.section	.debug_str,"MS",%progbits,1
 3004              	.LASF34:
ARM GAS  /cygdrive/c/DOCUME~1/mkwapisz/LOCALS~1/Temp/ccK7czfo.s 			page 60


 3005 0000 696F6D61 		.ascii	"ioman\000"
 3005      6E00
 3006              	.LASF41:
 3007 0006 42797465 		.ascii	"BytesPerSector\000"
 3007      73506572 
 3007      53656374 
 3007      6F7200
 3008              	.LASF42:
 3009 0015 53656374 		.ascii	"SectorsPerCluster\000"
 3009      6F727350 
 3009      6572436C 
 3009      75737465 
 3009      7200
 3010              	.LASF43:
 3011 0027 52657365 		.ascii	"ReservedSectorCount\000"
 3011      72766564 
 3011      53656374 
 3011      6F72436F 
 3011      756E7400 
 3012              	.LASF96:
 3013 003b 6D794673 		.ascii	"myFs\000"
 3013      00
 3014              	.LASF97:
 3015 0040 456D6265 		.ascii	"EmbeddedFileSystem\000"
 3015      64646564 
 3015      46696C65 
 3015      53797374 
 3015      656D00
 3016              	.LASF46:
 3017 0053 53656374 		.ascii	"SectorCount16\000"
 3017      6F72436F 
 3017      756E7431 
 3017      3600
 3018              	.LASF21:
 3019 0061 6E756D69 		.ascii	"numit\000"
 3019      7400
 3020              	.LASF100:
 3021 0067 63456E74 		.ascii	"cEntry\000"
 3021      727900
 3022              	.LASF37:
 3023 006e 50617274 		.ascii	"Partition\000"
 3023      6974696F 
 3023      6E00
 3024              	.LASF119:
 3025 0078 6572726F 		.ascii	"error015\000"
 3025      72303135 
 3025      00
 3026              	.LASF30:
 3027 0081 74797065 		.ascii	"type\000"
 3027      00
 3028              	.LASF130:
 3029 0086 6D6D6349 		.ascii	"mmcInitialized\000"
 3029      6E697469 
 3029      616C697A 
 3029      656400
 3030              	.LASF53:
 3031 0095 766F6C75 		.ascii	"volumeId\000"
ARM GAS  /cygdrive/c/DOCUME~1/mkwapisz/LOCALS~1/Temp/ccK7czfo.s 			page 61


 3031      6D654964 
 3031      00
 3032              	.LASF102:
 3033 009e 63757272 		.ascii	"currentEntry\000"
 3033      656E7445 
 3033      6E747279 
 3033      00
 3034              	.LASF8:
 3035 00ab 6C6F6E67 		.ascii	"long long unsigned int\000"
 3035      206C6F6E 
 3035      6720756E 
 3035      7369676E 
 3035      65642069 
 3036              	.LASF79:
 3037 00c2 41636365 		.ascii	"AccessDate\000"
 3037      73734461 
 3037      746500
 3038              	.LASF83:
 3039 00cd 46697273 		.ascii	"FirstClusterLow\000"
 3039      74436C75 
 3039      73746572 
 3039      4C6F7700 
 3040              	.LASF134:
 3041 00dd 72657769 		.ascii	"rewindBackward\000"
 3041      6E644261 
 3041      636B7761 
 3041      726400
 3042              	.LASF139:
 3043 00ec 6D794E61 		.ascii	"myName\000"
 3043      6D6500
 3044              	.LASF150:
 3045 00f3 2F637967 		.ascii	"/cygdrive/c/Embedded/eclipse/workspace/testProject\000"
 3045      64726976 
 3045      652F632F 
 3045      456D6265 
 3045      64646564 
 3046              	.LASF143:
 3047 0126 66696C65 		.ascii	"file\000"
 3047      00
 3048              	.LASF2:
 3049 012b 6C6F6E67 		.ascii	"long long int\000"
 3049      206C6F6E 
 3049      6720696E 
 3049      7400
 3050              	.LASF9:
 3051 0139 7369676E 		.ascii	"signed char\000"
 3051      65642063 
 3051      68617200 
 3052              	.LASF76:
 3053 0145 4D696C6C 		.ascii	"MilliSecTimeStamp\000"
 3053      69536563 
 3053      54696D65 
 3053      5374616D 
 3053      7000
 3054              	.LASF86:
 3055 0157 44697245 		.ascii	"DirEntry\000"
 3055      6E747279 
ARM GAS  /cygdrive/c/DOCUME~1/mkwapisz/LOCALS~1/Temp/ccK7czfo.s 			page 62


 3055      00
 3056              	.LASF123:
 3057 0160 72657475 		.ascii	"returnValue\000"
 3057      726E5661 
 3057      6C756500 
 3058              	.LASF135:
 3059 016c 69734572 		.ascii	"isError\000"
 3059      726F7200 
 3060              	.LASF68:
 3061 0174 44697363 		.ascii	"DiscCluster\000"
 3061      436C7573 
 3061      74657200 
 3062              	.LASF144:
 3063 0180 6C697374 		.ascii	"list\000"
 3063      00
 3064              	.LASF140:
 3065 0185 6D794175 		.ascii	"myAuthor\000"
 3065      74686F72 
 3065      00
 3066              	.LASF85:
 3067 018e 46696C65 		.ascii	"File\000"
 3067      00
 3068              	.LASF1:
 3069 0193 6C6F6E67 		.ascii	"long int\000"
 3069      20696E74 
 3069      00
 3070              	.LASF75:
 3071 019c 4E545265 		.ascii	"NTReserved\000"
 3071      73657276 
 3071      656400
 3072              	.LASF26:
 3073 01a7 63616368 		.ascii	"cache_mem\000"
 3073      655F6D65 
 3073      6D00
 3074              	.LASF109:
 3075 01b1 696E6974 		.ascii	"initMMC\000"
 3075      4D4D4300 
 3076              	.LASF47:
 3077 01b9 46617453 		.ascii	"FatSectorCount16\000"
 3077      6563746F 
 3077      72436F75 
 3077      6E743136 
 3077      00
 3078              	.LASF87:
 3079 01ca 4C6F6361 		.ascii	"Location\000"
 3079      74696F6E 
 3079      00
 3080              	.LASF84:
 3081 01d3 46696C65 		.ascii	"FileSize\000"
 3081      53697A65 
 3081      00
 3082              	.LASF66:
 3083 01dc 4C696E65 		.ascii	"Linear\000"
 3083      617200
 3084              	.LASF51:
 3085 01e3 46696C65 		.ascii	"FileSystem\000"
 3085      53797374 
ARM GAS  /cygdrive/c/DOCUME~1/mkwapisz/LOCALS~1/Temp/ccK7czfo.s 			page 63


 3085      656D00
 3086              	.LASF61:
 3087 01ee 46696C65 		.ascii	"FileLocation\000"
 3087      4C6F6361 
 3087      74696F6E 
 3087      00
 3088              	.LASF72:
 3089 01fb 46696C65 		.ascii	"FileRecord\000"
 3089      5265636F 
 3089      726400
 3090              	.LASF113:
 3091 0206 6572726F 		.ascii	"error01d\000"
 3091      72303164 
 3091      00
 3092              	.LASF64:
 3093 020f 61747472 		.ascii	"attrib\000"
 3093      696200
 3094              	.LASF133:
 3095 0216 72657769 		.ascii	"rewindForward\000"
 3095      6E64466F 
 3095      72776172 
 3095      6400
 3096              	.LASF78:
 3097 0224 43726561 		.ascii	"CreatedDate\000"
 3097      74656444 
 3097      61746500 
 3098              	.LASF145:
 3099 0230 66696C65 		.ascii	"file_name\000"
 3099      5F6E616D 
 3099      6500
 3100              	.LASF54:
 3101 023a 44617461 		.ascii	"DataClusterCount\000"
 3101      436C7573 
 3101      74657243 
 3101      6F756E74 
 3101      00
 3102              	.LASF67:
 3103 024b 4C6F6769 		.ascii	"LogicCluster\000"
 3103      63436C75 
 3103      73746572 
 3103      00
 3104              	.LASF65:
 3105 0258 436C7573 		.ascii	"ClusterChain\000"
 3105      74657243 
 3105      6861696E 
 3105      00
 3106              	.LASF3:
 3107 0265 756E7369 		.ascii	"unsigned int\000"
 3107      676E6564 
 3107      20696E74 
 3107      00
 3108              	.LASF127:
 3109 0272 4D4D4370 		.ascii	"MMCproc\000"
 3109      726F6300 
 3110              	.LASF31:
 3111 027a 4348535F 		.ascii	"CHS_end\000"
 3111      656E6400 
ARM GAS  /cygdrive/c/DOCUME~1/mkwapisz/LOCALS~1/Temp/ccK7czfo.s 			page 64


 3112              	.LASF14:
 3113 0282 73656374 		.ascii	"sector\000"
 3113      6F7200
 3114              	.LASF0:
 3115 0289 6C6F6E67 		.ascii	"long unsigned int\000"
 3115      20756E73 
 3115      69676E65 
 3115      6420696E 
 3115      7400
 3116              	.LASF132:
 3117 029b 6368616E 		.ascii	"changeRight\000"
 3117      67655269 
 3117      67687400 
 3118              	.LASF103:
 3119 02a7 6E616D65 		.ascii	"name\000"
 3119      00
 3120              	.LASF106:
 3121 02ac 536F6E67 		.ascii	"SongInfo\000"
 3121      496E666F 
 3121      00
 3122              	.LASF146:
 3123 02b5 73697A65 		.ascii	"size\000"
 3123      00
 3124              	.LASF7:
 3125 02ba 73686F72 		.ascii	"short unsigned int\000"
 3125      7420756E 
 3125      7369676E 
 3125      65642069 
 3125      6E7400
 3126              	.LASF77:
 3127 02cd 43726561 		.ascii	"CreatedTime\000"
 3127      74656454 
 3127      696D6500 
 3128              	.LASF101:
 3129 02d9 72456E74 		.ascii	"rEntry\000"
 3129      727900
 3130              	.LASF149:
 3131 02e0 74657374 		.ascii	"testMMC.c\000"
 3131      4D4D432E 
 3131      6300
 3132              	.LASF131:
 3133 02ea 6368616E 		.ascii	"changeLeft\000"
 3133      67654C65 
 3133      667400
 3134              	.LASF58:
 3135 02f5 46697273 		.ascii	"FirstClusterCurrentDir\000"
 3135      74436C75 
 3135      73746572 
 3135      43757272 
 3135      656E7444 
 3136              	.LASF126:
 3137 030c 67657446 		.ascii	"getFileNames\000"
 3137      696C654E 
 3137      616D6573 
 3137      00
 3138              	.LASF13:
 3139 0319 73656374 		.ascii	"sectorCount\000"
ARM GAS  /cygdrive/c/DOCUME~1/mkwapisz/LOCALS~1/Temp/ccK7czfo.s 			page 65


 3139      6F72436F 
 3139      756E7400 
 3140              	.LASF33:
 3141 0325 6E756D53 		.ascii	"numSectors\000"
 3141      6563746F 
 3141      727300
 3142              	.LASF24:
 3143 0330 72656665 		.ascii	"reference\000"
 3143      72656E63 
 3143      6500
 3144              	.LASF108:
 3145 033a 74657374 		.ascii	"testMMC\000"
 3145      4D4D4300 
 3146              	.LASF138:
 3147 0342 72656164 		.ascii	"readSize\000"
 3147      53697A65 
 3147      00
 3148              	.LASF80:
 3149 034b 46697273 		.ascii	"FirstClusterHigh\000"
 3149      74436C75 
 3149      73746572 
 3149      48696768 
 3149      00
 3150              	.LASF114:
 3151 035c 6572726F 		.ascii	"error010\000"
 3151      72303130 
 3151      00
 3152              	.LASF115:
 3153 0365 6572726F 		.ascii	"error011\000"
 3153      72303131 
 3153      00
 3154              	.LASF116:
 3155 036e 6572726F 		.ascii	"error012\000"
 3155      72303132 
 3155      00
 3156              	.LASF17:
 3157 0377 494F4D61 		.ascii	"IOManager\000"
 3157      6E616765 
 3157      7200
 3158              	.LASF20:
 3159 0381 6E756D62 		.ascii	"numbuf\000"
 3159      756600
 3160              	.LASF121:
 3161 0388 6572726F 		.ascii	"error017\000"
 3161      72303137 
 3161      00
 3162              	.LASF73:
 3163 0391 46696C65 		.ascii	"FileName\000"
 3163      4E616D65 
 3163      00
 3164              	.LASF62:
 3165 039a 53656374 		.ascii	"Sector\000"
 3165      6F7200
 3166              	.LASF12:
 3167 03a1 494F4D61 		.ascii	"IOManStack\000"
 3167      6E537461 
 3167      636B00
ARM GAS  /cygdrive/c/DOCUME~1/mkwapisz/LOCALS~1/Temp/ccK7czfo.s 			page 66


 3168              	.LASF89:
 3169 03ac 46696C65 		.ascii	"FileStatus\000"
 3169      53746174 
 3169      757300
 3170              	.LASF10:
 3171 03b7 6575696E 		.ascii	"euint8\000"
 3171      743800
 3172              	.LASF11:
 3173 03be 6877496E 		.ascii	"hwInterface\000"
 3173      74657266 
 3173      61636500 
 3174              	.LASF122:
 3175 03ca 6572726F 		.ascii	"error02\000"
 3175      72303200 
 3176              	.LASF70:
 3177 03d2 4C617374 		.ascii	"LastCluster\000"
 3177      436C7573 
 3177      74657200 
 3178              	.LASF39:
 3179 03de 61637469 		.ascii	"activePartition\000"
 3179      76655061 
 3179      72746974 
 3179      696F6E00 
 3180              	.LASF105:
 3181 03ee 74696D65 		.ascii	"time\000"
 3181      00
 3182              	.LASF142:
 3183 03f3 61757468 		.ascii	"authorOffset\000"
 3183      6F724F66 
 3183      66736574 
 3183      00
 3184              	.LASF27:
 3185 0400 50617274 		.ascii	"PartitionField\000"
 3185      6974696F 
 3185      6E466965 
 3185      6C6400
 3186              	.LASF50:
 3187 040f 526F6F74 		.ascii	"RootCluster\000"
 3187      436C7573 
 3187      74657200 
 3188              	.LASF111:
 3189 041b 6572726F 		.ascii	"error01b\000"
 3189      72303162 
 3189      00
 3190              	.LASF69:
 3191 0424 46697273 		.ascii	"FirstCluster\000"
 3191      74436C75 
 3191      73746572 
 3191      00
 3192              	.LASF104:
 3193 0431 61757468 		.ascii	"author\000"
 3193      6F7200
 3194              	.LASF95:
 3195 0438 6D795061 		.ascii	"myPart\000"
 3195      727400
 3196              	.LASF22:
 3197 043f 6572726F 		.ascii	"error\000"
ARM GAS  /cygdrive/c/DOCUME~1/mkwapisz/LOCALS~1/Temp/ccK7czfo.s 			page 67


 3197      7200
 3198              	.LASF99:
 3199 0445 4469724C 		.ascii	"DirList\000"
 3199      69737400 
 3200              	.LASF81:
 3201 044d 57726974 		.ascii	"WriteTime\000"
 3201      6554696D 
 3201      6500
 3202              	.LASF29:
 3203 0457 4348535F 		.ascii	"CHS_begin\000"
 3203      62656769 
 3203      6E00
 3204              	.LASF71:
 3205 0461 436C7573 		.ascii	"ClusterCount\000"
 3205      74657243 
 3205      6F756E74 
 3205      00
 3206              	.LASF117:
 3207 046e 6572726F 		.ascii	"error013\000"
 3207      72303133 
 3207      00
 3208              	.LASF118:
 3209 0477 6572726F 		.ascii	"error014\000"
 3209      72303134 
 3209      00
 3210              	.LASF124:
 3211 0480 666F726D 		.ascii	"format_file_name\000"
 3211      61745F66 
 3211      696C655F 
 3211      6E616D65 
 3211      00
 3212              	.LASF110:
 3213 0491 6572726F 		.ascii	"error01\000"
 3213      72303100 
 3214              	.LASF120:
 3215 0499 6572726F 		.ascii	"error016\000"
 3215      72303136 
 3215      00
 3216              	.LASF107:
 3217 04a2 6572726F 		.ascii	"error03\000"
 3217      72303300 
 3218              	.LASF4:
 3219 04aa 756E7369 		.ascii	"unsigned char\000"
 3219      676E6564 
 3219      20636861 
 3219      7200
 3220              	.LASF44:
 3221 04b8 4E756D62 		.ascii	"NumberOfFats\000"
 3221      65724F66 
 3221      46617473 
 3221      00
 3222              	.LASF94:
 3223 04c5 6D794469 		.ascii	"myDisc\000"
 3223      736300
 3224              	.LASF148:
 3225 04cc 474E5520 		.ascii	"GNU C 4.1.1\000"
 3225      4320342E 
ARM GAS  /cygdrive/c/DOCUME~1/mkwapisz/LOCALS~1/Temp/ccK7czfo.s 			page 68


 3225      312E3100 
 3226              	.LASF98:
 3227 04d8 4C697374 		.ascii	"ListDirEntry\000"
 3227      44697245 
 3227      6E747279 
 3227      00
 3228              	.LASF137:
 3229 04e5 66696C65 		.ascii	"fileSize\000"
 3229      53697A65 
 3229      00
 3230              	.LASF60:
 3231 04ee 4E657874 		.ascii	"NextFreeCluster\000"
 3231      46726565 
 3231      436C7573 
 3231      74657200 
 3232              	.LASF5:
 3233 04fe 73686F72 		.ascii	"short int\000"
 3233      7420696E 
 3233      7400
 3234              	.LASF35:
 3235 0508 70617274 		.ascii	"partitions\000"
 3235      6974696F 
 3235      6E7300
 3236              	.LASF36:
 3237 0513 44697363 		.ascii	"Disc\000"
 3237      00
 3238              	.LASF57:
 3239 0518 46697273 		.ascii	"FirstSectorRootDir\000"
 3239      74536563 
 3239      746F7252 
 3239      6F6F7444 
 3239      697200
 3240              	.LASF125:
 3241 052b 64657374 		.ascii	"dest\000"
 3241      00
 3242              	.LASF55:
 3243 0530 46617453 		.ascii	"FatSectorCount\000"
 3243      6563746F 
 3243      72436F75 
 3243      6E7400
 3244              	.LASF90:
 3245 053f 46696C65 		.ascii	"FilePtr\000"
 3245      50747200 
 3246              	.LASF82:
 3247 0547 57726974 		.ascii	"WriteDate\000"
 3247      65446174 
 3247      6500
 3248              	.LASF49:
 3249 0551 46617453 		.ascii	"FatSectorCount32\000"
 3249      6563746F 
 3249      72436F75 
 3249      6E743332 
 3249      00
 3250              	.LASF28:
 3251 0562 626F6F74 		.ascii	"bootFlag\000"
 3251      466C6167 
 3251      00
ARM GAS  /cygdrive/c/DOCUME~1/mkwapisz/LOCALS~1/Temp/ccK7czfo.s 			page 69


 3252              	.LASF6:
 3253 056b 63686172 		.ascii	"char\000"
 3253      00
 3254              	.LASF128:
 3255 0570 746F5265 		.ascii	"toReturn\000"
 3255      7475726E 
 3255      00
 3256              	.LASF38:
 3257 0579 64697363 		.ascii	"disc\000"
 3257      00
 3258              	.LASF48:
 3259 057e 53656374 		.ascii	"SectorCount32\000"
 3259      6F72436F 
 3259      756E7433 
 3259      3200
 3260              	.LASF141:
 3261 058c 7469746C 		.ascii	"titleOffset\000"
 3261      654F6666 
 3261      73657400 
 3262              	.LASF52:
 3263 0598 70617274 		.ascii	"part\000"
 3263      00
 3264              	.LASF63:
 3265 059d 4F666673 		.ascii	"Offset\000"
 3265      657400
 3266              	.LASF16:
 3267 05a4 75736167 		.ascii	"usage\000"
 3267      6500
 3268              	.LASF92:
 3269 05aa 6D794361 		.ascii	"myCard\000"
 3269      726400
 3270              	.LASF40:
 3271 05b1 566F6C75 		.ascii	"VolumeId\000"
 3271      6D654964 
 3271      00
 3272              	.LASF112:
 3273 05ba 6572726F 		.ascii	"error01c\000"
 3273      72303163 
 3273      00
 3274              	.LASF74:
 3275 05c3 41747472 		.ascii	"Attribute\000"
 3275      69627574 
 3275      6500
 3276              	.LASF59:
 3277 05cd 46726565 		.ascii	"FreeClusterCount\000"
 3277      436C7573 
 3277      74657243 
 3277      6F756E74 
 3277      00
 3278              	.LASF15:
 3279 05de 73746174 		.ascii	"status\000"
 3279      757300
 3280              	.LASF56:
 3281 05e5 53656374 		.ascii	"SectorCount\000"
 3281      6F72436F 
 3281      756E7400 
 3282              	.LASF18:
ARM GAS  /cygdrive/c/DOCUME~1/mkwapisz/LOCALS~1/Temp/ccK7czfo.s 			page 70


 3283 05f1 69666163 		.ascii	"iface\000"
 3283      6500
 3284              	.LASF23:
 3285 05f7 73746163 		.ascii	"stack\000"
 3285      6B00
 3286              	.LASF136:
 3287 05fd 69643354 		.ascii	"id3TagSize\000"
 3287      61675369 
 3287      7A6500
 3288              	.LASF25:
 3289 0608 69747074 		.ascii	"itptr\000"
 3289      7200
 3290              	.LASF129:
 3291 060e 63757272 		.ascii	"currentSongInfo\000"
 3291      656E7453 
 3291      6F6E6749 
 3291      6E666F00 
 3292              	.LASF45:
 3293 061e 526F6F74 		.ascii	"RootEntryCount\000"
 3293      456E7472 
 3293      79436F75 
 3293      6E7400
 3294              	.LASF88:
 3295 062d 43616368 		.ascii	"Cache\000"
 3295      6500
 3296              	.LASF19:
 3297 0633 62756670 		.ascii	"bufptr\000"
 3297      747200
 3298              	.LASF93:
 3299 063a 6D79494F 		.ascii	"myIOman\000"
 3299      6D616E00 
 3300              	.LASF32:
 3301 0642 4C42415F 		.ascii	"LBA_begin\000"
 3301      62656769 
 3301      6E00
 3302              	.LASF91:
 3303 064c 456D6265 		.ascii	"EmbeddedFile\000"
 3303      64646564 
 3303      46696C65 
 3303      00
 3304              	.LASF147:
 3305 0659 66696C65 		.ascii	"files\000"
 3305      7300
 3306              		.ident	"GCC: (GNU) 4.1.1"
ARM GAS  /cygdrive/c/DOCUME~1/mkwapisz/LOCALS~1/Temp/ccK7czfo.s 			page 71


DEFINED SYMBOLS
                            *ABS*:00000000 testMMC.c
/cygdrive/c/DOCUME~1/mkwapisz/LOCALS~1/Temp/ccK7czfo.s:1      .text:00000000 $t
/cygdrive/c/DOCUME~1/mkwapisz/LOCALS~1/Temp/ccK7czfo.s:21     .text:00000000 testMMC
/cygdrive/c/DOCUME~1/mkwapisz/LOCALS~1/Temp/ccK7czfo.s:134    .text:0000008c $d
                            *COM*:000002c4 efs
                            *COM*:00000050 file
/cygdrive/c/DOCUME~1/mkwapisz/LOCALS~1/Temp/ccK7czfo.s:691    .data:00000001 readSize
                            *COM*:0000000d myName
                            *COM*:0000000d myAuthor
/cygdrive/c/DOCUME~1/mkwapisz/LOCALS~1/Temp/ccK7czfo.s:686    .data:00000000 id3TagSize
                            *COM*:00000004 fileSize
/cygdrive/c/DOCUME~1/mkwapisz/LOCALS~1/Temp/ccK7czfo.s:697    .data:00000004 titleOffset
/cygdrive/c/DOCUME~1/mkwapisz/LOCALS~1/Temp/ccK7czfo.s:703    .data:00000008 authorOffset
                            *COM*:00000010 currentSongInfo
/cygdrive/c/DOCUME~1/mkwapisz/LOCALS~1/Temp/ccK7czfo.s:202    .text:000000b8 initMMC
/cygdrive/c/DOCUME~1/mkwapisz/LOCALS~1/Temp/ccK7czfo.s:199    .text:000000b8 $t
/cygdrive/c/DOCUME~1/mkwapisz/LOCALS~1/Temp/ccK7czfo.s:344    .text:00000150 $d
                            *COM*:00000034 list
                            *COM*:00000001 mmcInitialized
/cygdrive/c/DOCUME~1/mkwapisz/LOCALS~1/Temp/ccK7czfo.s:371    .text:000001a0 format_file_name
/cygdrive/c/DOCUME~1/mkwapisz/LOCALS~1/Temp/ccK7czfo.s:368    .text:000001a0 $t
/cygdrive/c/DOCUME~1/mkwapisz/LOCALS~1/Temp/ccK7czfo.s:448    .text:000001f8 getFileNames
/cygdrive/c/DOCUME~1/mkwapisz/LOCALS~1/Temp/ccK7czfo.s:500    .text:00000240 $d
                            *COM*:0000000d file_name
                            *COM*:00000d00 files
/cygdrive/c/DOCUME~1/mkwapisz/LOCALS~1/Temp/ccK7czfo.s:518    .text:00000254 MMCproc
/cygdrive/c/DOCUME~1/mkwapisz/LOCALS~1/Temp/ccK7czfo.s:515    .text:00000254 $t
/cygdrive/c/DOCUME~1/mkwapisz/LOCALS~1/Temp/ccK7czfo.s:666    .text:0000032c $d
                            *COM*:00000004 isError
                            *COM*:00000004 error
                            *COM*:00000001 changeLeft
                            *COM*:00000001 changeRight
                            *COM*:00000001 rewindForward
                            *COM*:00000001 rewindBackward
/cygdrive/c/DOCUME~1/mkwapisz/LOCALS~1/Temp/ccK7czfo.s:698    .data:00000004 $d
                            *COM*:00000004 size

UNDEFINED SYMBOLS
file_fopen
file_fread
file_fclose
efs_init
ls_openDir
strncpy
ls_getNext
osSleep
