ARM GAS  /cygdrive/c/DOCUME~1/mkwapisz/LOCALS~1/Temp/ccFuxJbS.s 			page 1


   1              		.code	16
   2              		.file	"testLcd.c"
   3              		.text
   4              		.align	2
   5              		.code 16
   6              		.thumb_func
   7              		.type	delay37us, %function
   8              	delay37us:
   9 0000 81B0     		sub	sp, sp, #4
  10 0002 0023     		mov	r3, #0
  11              		@ lr needed for prologue
  12 0004 02E0     		b	.L6
  13              	.L3:
  14 0006 C046     		 nop
  15              		.code	16
  16 0008 009B     		ldr	r3, [sp]
  17 000a 0133     		add	r3, r3, #1
  18              	.L6:
  19 000c 0093     		str	r3, [sp]
  20 000e 009A     		ldr	r2, [sp]
  21 0010 024B     		ldr	r3, .L7
  22 0012 9A42     		cmp	r2, r3
  23 0014 F7D9     		bls	.L3
  24 0016 01B0     		add	sp, sp, #4
  25              		@ sp needed for prologue
  26 0018 7047     		bx	lr
  27              	.L8:
  28 001a 0000     		.align	2
  29              	.L7:
  30 001c 973A0000 		.word	14999
  31              		.size	delay37us, .-delay37us
  32              		.align	2
  33              		.code 16
  34              		.thumb_func
  35              		.type	writeLCD, %function
  36              	writeLCD:
  37 0020 0906     		lsl	r1, r1, #24
  38 0022 0006     		lsl	r0, r0, #24
  39 0024 81B0     		sub	sp, sp, #4
  40              		@ lr needed for prologue
  41 0026 090E     		lsr	r1, r1, #24
  42 0028 0028     		cmp	r0, #0
  43 002a 03D1     		bne	.L10
  44 002c 8023     		mov	r3, #128
  45 002e 1D4A     		ldr	r2, .L21
  46 0030 5B04     		lsl	r3, r3, #17
  47 0032 02E0     		b	.L20
  48              	.L10:
  49 0034 8023     		mov	r3, #128
  50 0036 1C4A     		ldr	r2, .L21+4
  51 0038 5B04     		lsl	r3, r3, #17
  52              	.L20:
  53 003a 1360     		str	r3, [r2]
  54 003c 1B4A     		ldr	r2, .L21+8
  55 003e 8023     		mov	r3, #128
  56 0040 DB03     		lsl	r3, r3, #15
  57 0042 1360     		str	r3, [r2]
ARM GAS  /cygdrive/c/DOCUME~1/mkwapisz/LOCALS~1/Temp/ccFuxJbS.s 			page 2


  58 0044 174B     		ldr	r3, .L21
  59 0046 FF22     		mov	r2, #255
  60 0048 1204     		lsl	r2, r2, #16
  61 004a 1A60     		str	r2, [r3]
  62 004c 0B04     		lsl	r3, r1, #16
  63 004e 1340     		and	r3, r3, r2
  64 0050 154A     		ldr	r2, .L21+4
  65 0052 1360     		str	r3, [r2]
  66 0054 8023     		mov	r3, #128
  67 0056 9B04     		lsl	r3, r3, #18
  68 0058 1360     		str	r3, [r2]
  69 005a 6B46     		mov	r3, sp
  70 005c 0022     		mov	r2, #0
  71 005e 0333     		add	r3, r3, #3
  72 0060 1A70     		strb	r2, [r3]
  73 0062 05E0     		b	.L13
  74              	.L14:
  75 0064 C046     		 nop
  76              		.code	16
  77 0066 0B78     		ldrb	r3, [r1]
  78 0068 0133     		add	r3, r3, #1
  79 006a 1B06     		lsl	r3, r3, #24
  80 006c 1B0E     		lsr	r3, r3, #24
  81 006e 0B70     		strb	r3, [r1]
  82              	.L13:
  83 0070 6946     		mov	r1, sp
  84 0072 0331     		add	r1, r1, #3
  85 0074 0B78     		ldrb	r3, [r1]
  86 0076 0F2B     		cmp	r3, #15
  87 0078 F4D9     		bls	.L14
  88 007a 8023     		mov	r3, #128
  89 007c 094A     		ldr	r2, .L21
  90 007e 9B04     		lsl	r3, r3, #18
  91 0080 1360     		str	r3, [r2]
  92 0082 0023     		mov	r3, #0
  93 0084 0B70     		strb	r3, [r1]
  94 0086 05E0     		b	.L16
  95              	.L17:
  96 0088 C046     		 nop
  97              		.code	16
  98 008a 1378     		ldrb	r3, [r2]
  99 008c 0133     		add	r3, r3, #1
 100 008e 1B06     		lsl	r3, r3, #24
 101 0090 1B0E     		lsr	r3, r3, #24
 102 0092 1370     		strb	r3, [r2]
 103              	.L16:
 104 0094 6A46     		mov	r2, sp
 105 0096 0332     		add	r2, r2, #3
 106 0098 1378     		ldrb	r3, [r2]
 107 009a 0F2B     		cmp	r3, #15
 108 009c F4D9     		bls	.L17
 109 009e 01B0     		add	sp, sp, #4
 110              		@ sp needed for prologue
 111 00a0 7047     		bx	lr
 112              	.L22:
 113 00a2 0000     		.align	2
 114              	.L21:
ARM GAS  /cygdrive/c/DOCUME~1/mkwapisz/LOCALS~1/Temp/ccFuxJbS.s 			page 3


 115 00a4 1C8002E0 		.word	-536707044
 116 00a8 148002E0 		.word	-536707052
 117 00ac 0C8002E0 		.word	-536707060
 118              		.size	writeLCD, .-writeLCD
 119              		.global	__umodsi3
 120              		.align	2
 121              		.global	numberToChar
 122              		.code 16
 123              		.thumb_func
 124              		.type	numberToChar, %function
 125              	numberToChar:
 126 00b0 00B5     		push	{lr}
 127 00b2 0006     		lsl	r0, r0, #24
 128 00b4 000E     		lsr	r0, r0, #24
 129 00b6 0A21     		mov	r1, #10
 130 00b8 FFF7FEFF 		bl	__umodsi3
 131 00bc 3030     		add	r0, r0, #48
 132 00be 0006     		lsl	r0, r0, #24
 133 00c0 000E     		lsr	r0, r0, #24
 134              		@ sp needed for prologue
 135 00c2 02BC     		pop	{r1}
 136 00c4 0847     		bx	r1
 137              		.size	numberToChar, .-numberToChar
 138 00c6 0000     		.align	2
 139              		.global	timeToString
 140              		.code 16
 141              		.thumb_func
 142              		.type	timeToString, %function
 143              	timeToString:
 144 00c8 82B0     		sub	sp, sp, #8
 145              		@ lr needed for prologue
 146 00ca 01E0     		b	.L26
 147              	.L27:
 148 00cc 0A4B     		ldr	r3, .L41
 149 00ce C018     		add	r0, r0, r3
 150              	.L26:
 151 00d0 0A4B     		ldr	r3, .L41+4
 152 00d2 9842     		cmp	r0, r3
 153 00d4 FAD8     		bhi	.L27
 154 00d6 09E0     		b	.L37
 155              	.L29:
 156 00d8 022B     		cmp	r3, #2
 157 00da 05D0     		beq	.L30
 158 00dc 052B     		cmp	r3, #5
 159 00de 07D0     		beq	.L32
 160              	.L40:
 161 00e0 0133     		add	r3, r3, #1
 162 00e2 052B     		cmp	r3, #5
 163 00e4 F8DD     		ble	.L29
 164 00e6 03E0     		b	.L32
 165              	.L30:
 166 00e8 0323     		mov	r3, #3
 167 00ea F9E7     		b	.L40
 168              	.L37:
 169 00ec 0023     		mov	r3, #0
 170 00ee F7E7     		b	.L40
 171              	.L32:
ARM GAS  /cygdrive/c/DOCUME~1/mkwapisz/LOCALS~1/Temp/ccFuxJbS.s 			page 4


 172 00f0 6846     		mov	r0, sp
 173 00f2 0230     		add	r0, r0, #2
 174 00f4 02B0     		add	sp, sp, #8
 175              		@ sp needed for prologue
 176 00f6 7047     		bx	lr
 177              	.L42:
 178              		.align	2
 179              	.L41:
 180 00f8 F1F1FFFF 		.word	-3599
 181 00fc 0F0E0000 		.word	3599
 182              		.size	timeToString, .-timeToString
 183              		.align	2
 184              		.global	WriteString
 185              		.code 16
 186              		.thumb_func
 187              		.type	WriteString, %function
 188              	WriteString:
 189 0100 10B5     		push	{r4, lr}
 190 0102 041C     		mov	r4, r0
 191 0104 04E0     		b	.L44
 192              	.L45:
 193 0106 0120     		mov	r0, #1
 194 0108 FFF78AFF 		bl	writeLCD
 195 010c FFF778FF 		bl	delay37us
 196              	.L44:
 197 0110 2178     		ldrb	r1, [r4]
 198 0112 0134     		add	r4, r4, #1
 199 0114 0029     		cmp	r1, #0
 200 0116 F6D1     		bne	.L45
 201              		@ sp needed for prologue
 202 0118 10BC     		pop	{r4}
 203 011a 01BC     		pop	{r0}
 204 011c 0047     		bx	r0
 205              		.size	WriteString, .-WriteString
 206 011e 0000     		.align	2
 207              		.global	ScreenShiftLeft
 208              		.code 16
 209              		.thumb_func
 210              		.type	ScreenShiftLeft, %function
 211              	ScreenShiftLeft:
 212 0120 00B5     		push	{lr}
 213 0122 0020     		mov	r0, #0
 214 0124 3821     		mov	r1, #56
 215 0126 FFF77BFF 		bl	writeLCD
 216 012a FFF769FF 		bl	delay37us
 217 012e 1821     		mov	r1, #24
 218 0130 0020     		mov	r0, #0
 219 0132 FFF775FF 		bl	writeLCD
 220 0136 0120     		mov	r0, #1
 221 0138 FFF7FEFF 		bl	osSleep
 222 013c 0020     		mov	r0, #0
 223 013e 0621     		mov	r1, #6
 224 0140 FFF76EFF 		bl	writeLCD
 225 0144 0120     		mov	r0, #1
 226 0146 FFF7FEFF 		bl	osSleep
 227              		@ sp needed for prologue
 228 014a 01BC     		pop	{r0}
ARM GAS  /cygdrive/c/DOCUME~1/mkwapisz/LOCALS~1/Temp/ccFuxJbS.s 			page 5


 229 014c 0047     		bx	r0
 230              		.size	ScreenShiftLeft, .-ScreenShiftLeft
 231 014e 0000     		.align	2
 232              		.global	clearScr
 233              		.code 16
 234              		.thumb_func
 235              		.type	clearScr, %function
 236              	clearScr:
 237 0150 00B5     		push	{lr}
 238 0152 214A     		ldr	r2, .L52
 239 0154 8023     		mov	r3, #128
 240 0156 DB05     		lsl	r3, r3, #23
 241 0158 1360     		str	r3, [r2]
 242 015a 3220     		mov	r0, #50
 243 015c FFF7FEFF 		bl	osSleep
 244 0160 3021     		mov	r1, #48
 245 0162 0020     		mov	r0, #0
 246 0164 FFF75CFF 		bl	writeLCD
 247 0168 0120     		mov	r0, #1
 248 016a FFF7FEFF 		bl	osSleep
 249 016e 0020     		mov	r0, #0
 250 0170 3021     		mov	r1, #48
 251 0172 FFF755FF 		bl	writeLCD
 252 0176 FFF743FF 		bl	delay37us
 253 017a 0020     		mov	r0, #0
 254 017c 3021     		mov	r1, #48
 255 017e FFF74FFF 		bl	writeLCD
 256 0182 FFF73DFF 		bl	delay37us
 257 0186 0020     		mov	r0, #0
 258 0188 3821     		mov	r1, #56
 259 018a FFF749FF 		bl	writeLCD
 260 018e FFF737FF 		bl	delay37us
 261 0192 0020     		mov	r0, #0
 262 0194 0821     		mov	r1, #8
 263 0196 FFF743FF 		bl	writeLCD
 264 019a FFF731FF 		bl	delay37us
 265 019e 0121     		mov	r1, #1
 266 01a0 0020     		mov	r0, #0
 267 01a2 FFF73DFF 		bl	writeLCD
 268 01a6 0120     		mov	r0, #1
 269 01a8 FFF7FEFF 		bl	osSleep
 270 01ac 0621     		mov	r1, #6
 271 01ae 0020     		mov	r0, #0
 272 01b0 FFF736FF 		bl	writeLCD
 273 01b4 0120     		mov	r0, #1
 274 01b6 FFF7FEFF 		bl	osSleep
 275 01ba 0020     		mov	r0, #0
 276 01bc 0C21     		mov	r1, #12
 277 01be FFF72FFF 		bl	writeLCD
 278 01c2 FFF71DFF 		bl	delay37us
 279 01c6 0020     		mov	r0, #0
 280 01c8 0221     		mov	r1, #2
 281 01ca FFF729FF 		bl	writeLCD
 282 01ce 0120     		mov	r0, #1
 283 01d0 FFF7FEFF 		bl	osSleep
 284              		@ sp needed for prologue
 285 01d4 01BC     		pop	{r0}
ARM GAS  /cygdrive/c/DOCUME~1/mkwapisz/LOCALS~1/Temp/ccFuxJbS.s 			page 6


 286 01d6 0047     		bx	r0
 287              	.L53:
 288              		.align	2
 289              	.L52:
 290 01d8 048002E0 		.word	-536707068
 291              		.size	clearScr, .-clearScr
 292              		.align	2
 293              		.global	testLcd
 294              		.code 16
 295              		.thumb_func
 296              		.type	testLcd, %function
 297              	testLcd:
 298 01dc 10B5     		push	{r4, lr}
 299 01de 3E4A     		ldr	r2, .L97
 300 01e0 3E49     		ldr	r1, .L97+4
 301 01e2 1368     		ldr	r3, [r2]
 302 01e4 0B43     		orr	r3, r3, r1
 303 01e6 1360     		str	r3, [r2]
 304 01e8 3D4B     		ldr	r3, .L97+8
 305 01ea 3E48     		ldr	r0, .L97+12
 306 01ec 1960     		str	r1, [r3]
 307 01ee 8022     		mov	r2, #128
 308 01f0 0368     		ldr	r3, [r0]
 309 01f2 D203     		lsl	r2, r2, #15
 310 01f4 3C49     		ldr	r1, .L97+16
 311 01f6 1343     		orr	r3, r3, r2
 312 01f8 0360     		str	r3, [r0]
 313 01fa 0A60     		str	r2, [r1]
 314 01fc 8023     		mov	r3, #128
 315 01fe 0268     		ldr	r2, [r0]
 316 0200 DB05     		lsl	r3, r3, #23
 317 0202 1A43     		orr	r2, r2, r3
 318 0204 0260     		str	r2, [r0]
 319 0206 0B60     		str	r3, [r1]
 320 0208 0B60     		str	r3, [r1]
 321 020a 0A20     		mov	r0, #10
 322              	.L93:
 323 020c FFF7FEFF 		bl	osSleep
 324              	.L95:
 325 0210 FFF7FEFF 		bl	clearScr
 326 0214 354C     		ldr	r4, .L97+20
 327 0216 2378     		ldrb	r3, [r4]
 328 0218 002B     		cmp	r3, #0
 329 021a 03D1     		bne	.L56
 330 021c 344B     		ldr	r3, .L97+24
 331 021e 1B78     		ldrb	r3, [r3]
 332 0220 002B     		cmp	r3, #0
 333 0222 13D0     		beq	.L58
 334              	.L56:
 335 0224 334B     		ldr	r3, .L97+28
 336 0226 1878     		ldrb	r0, [r3]
 337 0228 FFF7FEFF 		bl	numberToChar
 338 022c 011C     		mov	r1, r0
 339 022e 0120     		mov	r0, #1
 340 0230 FFF7F6FE 		bl	writeLCD
 341 0234 2378     		ldrb	r3, [r4]
 342 0236 002B     		cmp	r3, #0
ARM GAS  /cygdrive/c/DOCUME~1/mkwapisz/LOCALS~1/Temp/ccFuxJbS.s 			page 7


 343 0238 01D0     		beq	.L59
 344 023a 0023     		mov	r3, #0
 345 023c 2370     		strb	r3, [r4]
 346              	.L59:
 347 023e 2C4A     		ldr	r2, .L97+24
 348 0240 1378     		ldrb	r3, [r2]
 349 0242 002B     		cmp	r3, #0
 350 0244 42D0     		beq	.L61
 351 0246 0023     		mov	r3, #0
 352 0248 1370     		strb	r3, [r2]
 353 024a 3FE0     		b	.L61
 354              	.L58:
 355 024c 2A4B     		ldr	r3, .L97+32
 356 024e 1B68     		ldr	r3, [r3]
 357 0250 002B     		cmp	r3, #0
 358 0252 0BD1     		bne	.L63
 359 0254 294C     		ldr	r4, .L97+36
 360 0256 2068     		ldr	r0, [r4]
 361 0258 FFF7FEFF 		bl	WriteString
 362 025c 0020     		mov	r0, #0
 363 025e C021     		mov	r1, #192
 364 0260 FFF7DEFE 		bl	writeLCD
 365 0264 FFF7CCFE 		bl	delay37us
 366 0268 6068     		ldr	r0, [r4, #4]
 367 026a 01E0     		b	.L94
 368              	.L63:
 369 026c 244B     		ldr	r3, .L97+40
 370 026e 1868     		ldr	r0, [r3]
 371              	.L94:
 372 0270 FFF7FEFF 		bl	WriteString
 373 0274 3220     		mov	r0, #50
 374 0276 FFF7FEFF 		bl	osSleep
 375 027a 0120     		mov	r0, #1
 376 027c FFF7FEFF 		bl	osSleep
 377              	.L96:
 378 0280 204A     		ldr	r2, .L97+44
 379 0282 1178     		ldrb	r1, [r2]
 380 0284 0029     		cmp	r1, #0
 381 0286 02D0     		beq	.L68
 382 0288 0023     		mov	r3, #0
 383 028a 1370     		strb	r3, [r2]
 384 028c C0E7     		b	.L95
 385              	.L68:
 386 028e 1E4A     		ldr	r2, .L97+48
 387 0290 1378     		ldrb	r3, [r2]
 388 0292 002B     		cmp	r3, #0
 389 0294 01D0     		beq	.L70
 390 0296 1170     		strb	r1, [r2]
 391 0298 BAE7     		b	.L95
 392              	.L70:
 393 029a 144B     		ldr	r3, .L97+20
 394 029c 1B78     		ldrb	r3, [r3]
 395 029e 002B     		cmp	r3, #0
 396 02a0 B6D1     		bne	.L95
 397 02a2 134B     		ldr	r3, .L97+24
 398 02a4 1B78     		ldrb	r3, [r3]
 399 02a6 002B     		cmp	r3, #0
ARM GAS  /cygdrive/c/DOCUME~1/mkwapisz/LOCALS~1/Temp/ccFuxJbS.s 			page 8


 400 02a8 B2D1     		bne	.L95
 401 02aa 134B     		ldr	r3, .L97+32
 402 02ac 1B68     		ldr	r3, [r3]
 403 02ae 002B     		cmp	r3, #0
 404 02b0 AED1     		bne	.L95
 405 02b2 6420     		mov	r0, #100
 406 02b4 FFF7FEFF 		bl	osSleep
 407 02b8 104A     		ldr	r2, .L97+36
 408 02ba 537B     		ldrb	r3, [r2, #13]
 409 02bc 102B     		cmp	r3, #16
 410 02be 02D8     		bhi	.L75
 411 02c0 937B     		ldrb	r3, [r2, #14]
 412 02c2 102B     		cmp	r3, #16
 413 02c4 DCD9     		bls	.L96
 414              	.L75:
 415 02c6 FFF7FEFF 		bl	ScreenShiftLeft
 416 02ca D9E7     		b	.L96
 417              	.L61:
 418 02cc 3220     		mov	r0, #50
 419 02ce FFF7FEFF 		bl	osSleep
 420 02d2 0120     		mov	r0, #1
 421 02d4 9AE7     		b	.L93
 422              	.L98:
 423 02d6 0000     		.align	2
 424              	.L97:
 425 02d8 188002E0 		.word	-536707048
 426 02dc 0000FF03 		.word	67043328
 427 02e0 1C8002E0 		.word	-536707044
 428 02e4 088002E0 		.word	-536707064
 429 02e8 0C8002E0 		.word	-536707060
 430 02ec 00000000 		.word	volumeUp
 431 02f0 00000000 		.word	volumeDown
 432 02f4 00000000 		.word	currentVolume
 433 02f8 00000000 		.word	isError
 434 02fc 00000000 		.word	currentSongInfo
 435 0300 00000000 		.word	error
 436 0304 00000000 		.word	changeLeft
 437 0308 00000000 		.word	changeRight
 438              		.size	testLcd, .-testLcd
 439              		.ident	"GCC: (GNU) 4.1.1"
ARM GAS  /cygdrive/c/DOCUME~1/mkwapisz/LOCALS~1/Temp/ccFuxJbS.s 			page 9


DEFINED SYMBOLS
                            *ABS*:00000000 testLcd.c
/cygdrive/c/DOCUME~1/mkwapisz/LOCALS~1/Temp/ccFuxJbS.s:1      .text:00000000 $t
/cygdrive/c/DOCUME~1/mkwapisz/LOCALS~1/Temp/ccFuxJbS.s:8      .text:00000000 delay37us
/cygdrive/c/DOCUME~1/mkwapisz/LOCALS~1/Temp/ccFuxJbS.s:30     .text:0000001c $d
/cygdrive/c/DOCUME~1/mkwapisz/LOCALS~1/Temp/ccFuxJbS.s:33     .text:00000020 $t
/cygdrive/c/DOCUME~1/mkwapisz/LOCALS~1/Temp/ccFuxJbS.s:36     .text:00000020 writeLCD
/cygdrive/c/DOCUME~1/mkwapisz/LOCALS~1/Temp/ccFuxJbS.s:115    .text:000000a4 $d
/cygdrive/c/DOCUME~1/mkwapisz/LOCALS~1/Temp/ccFuxJbS.s:125    .text:000000b0 numberToChar
/cygdrive/c/DOCUME~1/mkwapisz/LOCALS~1/Temp/ccFuxJbS.s:122    .text:000000b0 $t
/cygdrive/c/DOCUME~1/mkwapisz/LOCALS~1/Temp/ccFuxJbS.s:143    .text:000000c8 timeToString
/cygdrive/c/DOCUME~1/mkwapisz/LOCALS~1/Temp/ccFuxJbS.s:180    .text:000000f8 $d
/cygdrive/c/DOCUME~1/mkwapisz/LOCALS~1/Temp/ccFuxJbS.s:188    .text:00000100 WriteString
/cygdrive/c/DOCUME~1/mkwapisz/LOCALS~1/Temp/ccFuxJbS.s:185    .text:00000100 $t
/cygdrive/c/DOCUME~1/mkwapisz/LOCALS~1/Temp/ccFuxJbS.s:211    .text:00000120 ScreenShiftLeft
/cygdrive/c/DOCUME~1/mkwapisz/LOCALS~1/Temp/ccFuxJbS.s:236    .text:00000150 clearScr
/cygdrive/c/DOCUME~1/mkwapisz/LOCALS~1/Temp/ccFuxJbS.s:290    .text:000001d8 $d
/cygdrive/c/DOCUME~1/mkwapisz/LOCALS~1/Temp/ccFuxJbS.s:297    .text:000001dc testLcd
/cygdrive/c/DOCUME~1/mkwapisz/LOCALS~1/Temp/ccFuxJbS.s:294    .text:000001dc $t
/cygdrive/c/DOCUME~1/mkwapisz/LOCALS~1/Temp/ccFuxJbS.s:425    .text:000002d8 $d

UNDEFINED SYMBOLS
__umodsi3
osSleep
volumeUp
volumeDown
currentVolume
isError
currentSongInfo
error
changeLeft
changeRight
