ARM GAS  /cygdrive/c/DOCUME~1/mkwapisz/LOCALS~1/Temp/ccjxqTNc.s 			page 1


   1              		.code	16
   2              		.file	"eeprom.c"
   3              		.text
   4              		.align	2
   5              		.global	eepromWrite
   6              		.code 16
   7              		.thumb_func
   8              		.type	eepromWrite, %function
   9              	eepromWrite:
  10 0000 F0B5     		push	{r4, r5, r6, r7, lr}
  11 0002 0004     		lsl	r0, r0, #16
  12 0004 1204     		lsl	r2, r2, #16
  13 0006 0F1C     		mov	r7, r1
  14 0008 050C     		lsr	r5, r0, #16
  15 000a 160C     		lsr	r6, r2, #16
  16 000c FFF7FEFF 		bl	i2cStart
  17 0010 0006     		lsl	r0, r0, #24
  18 0012 040E     		lsr	r4, r0, #24
  19 0014 0016     		asr	r0, r0, #24
  20 0016 0128     		cmp	r0, #1
  21 0018 20D1     		bne	.L2
  22 001a A020     		mov	r0, #160
  23 001c FFF7FEFF 		bl	i2cWriteWithWait
  24 0020 0006     		lsl	r0, r0, #24
  25 0022 040E     		lsr	r4, r0, #24
  26 0024 0016     		asr	r0, r0, #24
  27 0026 0128     		cmp	r0, #1
  28 0028 18D1     		bne	.L2
  29 002a 2806     		lsl	r0, r5, #24
  30 002c 000E     		lsr	r0, r0, #24
  31 002e FFF7FEFF 		bl	i2cWriteWithWait
  32 0032 0006     		lsl	r0, r0, #24
  33 0034 040E     		lsr	r4, r0, #24
  34 0036 0016     		asr	r0, r0, #24
  35 0038 0128     		cmp	r0, #1
  36 003a 0FD1     		bne	.L2
  37 003c 0025     		mov	r5, #0
  38 003e 09E0     		b	.L6
  39              	.L7:
  40 0040 E85D     		ldrb	r0, [r5, r7]
  41 0042 FFF7FEFF 		bl	i2cWriteWithWait
  42 0046 0006     		lsl	r0, r0, #24
  43 0048 0316     		asr	r3, r0, #24
  44 004a 0135     		add	r5, r5, #1
  45 004c 012B     		cmp	r3, #1
  46 004e 01D0     		beq	.L6
  47 0050 040E     		lsr	r4, r0, #24
  48 0052 03E0     		b	.L2
  49              	.L6:
  50 0054 2B06     		lsl	r3, r5, #24
  51 0056 1B0E     		lsr	r3, r3, #24
  52 0058 B342     		cmp	r3, r6
  53 005a F1D3     		bcc	.L7
  54              	.L2:
  55 005c FFF7FEFF 		bl	i2cStop
  56 0060 2006     		lsl	r0, r4, #24
  57 0062 0016     		asr	r0, r0, #24
ARM GAS  /cygdrive/c/DOCUME~1/mkwapisz/LOCALS~1/Temp/ccjxqTNc.s 			page 2


  58              		@ sp needed for prologue
  59 0064 F0BC     		pop	{r4, r5, r6, r7}
  60 0066 02BC     		pop	{r1}
  61 0068 0847     		bx	r1
  62              		.size	eepromWrite, .-eepromWrite
  63 006a 0000     		.align	2
  64              		.global	eepromPoll
  65              		.code 16
  66              		.thumb_func
  67              		.type	eepromPoll, %function
  68              	eepromPoll:
  69 006c 10B5     		push	{r4, lr}
  70              	.L13:
  71 006e FFF7FEFF 		bl	i2cStart
  72 0072 0006     		lsl	r0, r0, #24
  73 0074 0016     		asr	r0, r0, #24
  74 0076 0128     		cmp	r0, #1
  75 0078 12D1     		bne	.L14
  76              	.L17:
  77 007a A020     		mov	r0, #160
  78 007c FFF7FEFF 		bl	i2cPutChar
  79 0080 0006     		lsl	r0, r0, #24
  80 0082 040E     		lsr	r4, r0, #24
  81 0084 2306     		lsl	r3, r4, #24
  82 0086 1B16     		asr	r3, r3, #24
  83 0088 1A1D     		add	r2, r3, #4
  84 008a F6D0     		beq	.L17
  85 008c 012B     		cmp	r3, #1
  86 008e 07D1     		bne	.L14
  87 0090 FFF7FEFF 		bl	i2cCheckStatus
  88 0094 1828     		cmp	r0, #24
  89 0096 07D0     		beq	.L20
  90 0098 2028     		cmp	r0, #32
  91 009a 01D0     		beq	.L14
  92 009c F828     		cmp	r0, #248
  93 009e 02D1     		bne	.L23
  94              	.L14:
  95 00a0 FFF7FEFF 		bl	i2cStop
  96 00a4 E3E7     		b	.L13
  97              	.L23:
  98 00a6 FF24     		mov	r4, #255
  99              	.L20:
 100 00a8 FFF7FEFF 		bl	i2cStop
 101 00ac 2006     		lsl	r0, r4, #24
 102 00ae 0016     		asr	r0, r0, #24
 103              		@ sp needed for prologue
 104 00b0 10BC     		pop	{r4}
 105 00b2 02BC     		pop	{r1}
 106 00b4 0847     		bx	r1
 107              		.size	eepromPoll, .-eepromPoll
 108 00b6 0000     		.align	2
 109              		.global	eepromStartRead
 110              		.code 16
 111              		.thumb_func
 112              		.type	eepromStartRead, %function
 113              	eepromStartRead:
 114 00b8 30B5     		push	{r4, r5, lr}
ARM GAS  /cygdrive/c/DOCUME~1/mkwapisz/LOCALS~1/Temp/ccjxqTNc.s 			page 3


 115 00ba 0006     		lsl	r0, r0, #24
 116 00bc 0904     		lsl	r1, r1, #16
 117 00be 050E     		lsr	r5, r0, #24
 118 00c0 0C0C     		lsr	r4, r1, #16
 119 00c2 FFF7FEFF 		bl	i2cStart
 120 00c6 0006     		lsl	r0, r0, #24
 121 00c8 0016     		asr	r0, r0, #24
 122 00ca 0128     		cmp	r0, #1
 123 00cc 1CD1     		bne	.L48
 124              	.L29:
 125 00ce 281C     		mov	r0, r5
 126 00d0 FFF7FEFF 		bl	i2cPutChar
 127 00d4 0006     		lsl	r0, r0, #24
 128 00d6 000E     		lsr	r0, r0, #24
 129 00d8 0306     		lsl	r3, r0, #24
 130 00da 1816     		asr	r0, r3, #24
 131 00dc 031D     		add	r3, r0, #4
 132 00de F6D0     		beq	.L29
 133 00e0 0128     		cmp	r0, #1
 134 00e2 11D1     		bne	.L48
 135              	.L47:
 136 00e4 FFF7FEFF 		bl	i2cCheckStatus
 137 00e8 1828     		cmp	r0, #24
 138 00ea 01D0     		beq	.L32
 139 00ec 2828     		cmp	r0, #40
 140 00ee 09D1     		bne	.L34
 141              	.L32:
 142 00f0 2306     		lsl	r3, r4, #24
 143 00f2 1C0E     		lsr	r4, r3, #24
 144              	.L36:
 145 00f4 201C     		mov	r0, r4
 146 00f6 FFF7FEFF 		bl	i2cPutChar
 147 00fa 0006     		lsl	r0, r0, #24
 148 00fc 000E     		lsr	r0, r0, #24
 149 00fe FC28     		cmp	r0, #252
 150 0100 F8D0     		beq	.L36
 151 0102 01E0     		b	.L48
 152              	.L34:
 153 0104 F828     		cmp	r0, #248
 154 0106 EDD0     		beq	.L47
 155              	.L48:
 156 0108 FFF7FEFF 		bl	i2cCheckStatus
 157 010c 2828     		cmp	r0, #40
 158 010e 01D0     		beq	.L37
 159 0110 F828     		cmp	r0, #248
 160 0112 F9D0     		beq	.L48
 161              	.L37:
 162 0114 FFF7FEFF 		bl	i2cRepeatStart
 163 0118 0006     		lsl	r0, r0, #24
 164 011a 040E     		lsr	r4, r0, #24
 165 011c 0016     		asr	r0, r0, #24
 166 011e 0128     		cmp	r0, #1
 167 0120 09D1     		bne	.L49
 168 0122 6B1C     		add	r3, r5, #1
 169 0124 1B06     		lsl	r3, r3, #24
 170 0126 1D0E     		lsr	r5, r3, #24
 171              	.L42:
ARM GAS  /cygdrive/c/DOCUME~1/mkwapisz/LOCALS~1/Temp/ccjxqTNc.s 			page 4


 172 0128 281C     		mov	r0, r5
 173 012a FFF7FEFF 		bl	i2cPutChar
 174 012e 0006     		lsl	r0, r0, #24
 175 0130 040E     		lsr	r4, r0, #24
 176 0132 FC2C     		cmp	r4, #252
 177 0134 F8D0     		beq	.L42
 178              	.L49:
 179 0136 FFF7FEFF 		bl	i2cCheckStatus
 180 013a 4028     		cmp	r0, #64
 181 013c 02D0     		beq	.L43
 182 013e F828     		cmp	r0, #248
 183 0140 F9D0     		beq	.L49
 184 0142 FF24     		mov	r4, #255
 185              	.L43:
 186 0144 2006     		lsl	r0, r4, #24
 187 0146 0016     		asr	r0, r0, #24
 188              		@ sp needed for prologue
 189 0148 30BC     		pop	{r4, r5}
 190 014a 02BC     		pop	{r1}
 191 014c 0847     		bx	r1
 192              		.size	eepromStartRead, .-eepromStartRead
 193 014e 0000     		.align	2
 194              		.global	lm75Read
 195              		.code 16
 196              		.thumb_func
 197              		.type	lm75Read, %function
 198              	lm75Read:
 199 0150 F0B5     		push	{r4, r5, r6, r7, lr}
 200 0152 0006     		lsl	r0, r0, #24
 201 0154 1204     		lsl	r2, r2, #16
 202 0156 0D1C     		mov	r5, r1
 203 0158 000E     		lsr	r0, r0, #24
 204 015a 0021     		mov	r1, #0
 205 015c 160C     		lsr	r6, r2, #16
 206 015e FFF7FEFF 		bl	eepromStartRead
 207 0162 0006     		lsl	r0, r0, #24
 208 0164 040E     		lsr	r4, r0, #24
 209 0166 0016     		asr	r0, r0, #24
 210 0168 0128     		cmp	r0, #1
 211 016a 24D1     		bne	.L55
 212 016c 0127     		mov	r7, #1
 213 016e 20E0     		b	.L57
 214              	.L72:
 215 0170 FFF7FEFF 		bl	i2cCheckStatus
 216 0174 4028     		cmp	r0, #64
 217 0176 03D0     		beq	.L59
 218 0178 4828     		cmp	r0, #72
 219 017a 01D0     		beq	.L59
 220 017c 5028     		cmp	r0, #80
 221 017e 11D1     		bne	.L62
 222              	.L59:
 223 0180 B742     		cmp	r7, r6
 224 0182 01D1     		bne	.L63
 225 0184 0120     		mov	r0, #1
 226 0186 00E0     		b	.L75
 227              	.L63:
 228 0188 0020     		mov	r0, #0
ARM GAS  /cygdrive/c/DOCUME~1/mkwapisz/LOCALS~1/Temp/ccjxqTNc.s 			page 5


 229              	.L75:
 230 018a 291C     		mov	r1, r5
 231 018c FFF7FEFF 		bl	i2cGetChar
 232              	.L67:
 233 0190 0220     		mov	r0, #2
 234 0192 291C     		mov	r1, r5
 235 0194 FFF7FEFF 		bl	i2cGetChar
 236 0198 0006     		lsl	r0, r0, #24
 237 019a 040E     		lsr	r4, r0, #24
 238 019c FD2C     		cmp	r4, #253
 239 019e F7D0     		beq	.L67
 240 01a0 0135     		add	r5, r5, #1
 241 01a2 03E0     		b	.L69
 242              	.L62:
 243 01a4 F828     		cmp	r0, #248
 244 01a6 E3D0     		beq	.L72
 245 01a8 371C     		mov	r7, r6
 246 01aa FF24     		mov	r4, #255
 247              	.L69:
 248 01ac 7B1C     		add	r3, r7, #1
 249 01ae 1B04     		lsl	r3, r3, #16
 250 01b0 1F0C     		lsr	r7, r3, #16
 251              	.L57:
 252 01b2 B742     		cmp	r7, r6
 253 01b4 DCD9     		bls	.L72
 254              	.L55:
 255 01b6 FFF7FEFF 		bl	i2cStop
 256 01ba 2006     		lsl	r0, r4, #24
 257 01bc 0016     		asr	r0, r0, #24
 258              		@ sp needed for prologue
 259 01be F0BC     		pop	{r4, r5, r6, r7}
 260 01c0 02BC     		pop	{r1}
 261 01c2 0847     		bx	r1
 262              		.size	lm75Read, .-lm75Read
 263              		.align	2
 264              		.global	eepromPageRead
 265              		.code 16
 266              		.thumb_func
 267              		.type	eepromPageRead, %function
 268              	eepromPageRead:
 269 01c4 F0B5     		push	{r4, r5, r6, r7, lr}
 270 01c6 0304     		lsl	r3, r0, #16
 271 01c8 1B0C     		lsr	r3, r3, #16
 272 01ca 1204     		lsl	r2, r2, #16
 273 01cc 0D1C     		mov	r5, r1
 274 01ce A020     		mov	r0, #160
 275 01d0 191C     		mov	r1, r3
 276 01d2 160C     		lsr	r6, r2, #16
 277 01d4 FFF7FEFF 		bl	eepromStartRead
 278 01d8 0006     		lsl	r0, r0, #24
 279 01da 040E     		lsr	r4, r0, #24
 280 01dc 0016     		asr	r0, r0, #24
 281 01de 0128     		cmp	r0, #1
 282 01e0 24D1     		bne	.L77
 283 01e2 0127     		mov	r7, #1
 284 01e4 20E0     		b	.L79
 285              	.L94:
ARM GAS  /cygdrive/c/DOCUME~1/mkwapisz/LOCALS~1/Temp/ccjxqTNc.s 			page 6


 286 01e6 FFF7FEFF 		bl	i2cCheckStatus
 287 01ea 4028     		cmp	r0, #64
 288 01ec 03D0     		beq	.L81
 289 01ee 4828     		cmp	r0, #72
 290 01f0 01D0     		beq	.L81
 291 01f2 5028     		cmp	r0, #80
 292 01f4 11D1     		bne	.L84
 293              	.L81:
 294 01f6 B742     		cmp	r7, r6
 295 01f8 01D1     		bne	.L85
 296 01fa 0120     		mov	r0, #1
 297 01fc 00E0     		b	.L97
 298              	.L85:
 299 01fe 0020     		mov	r0, #0
 300              	.L97:
 301 0200 291C     		mov	r1, r5
 302 0202 FFF7FEFF 		bl	i2cGetChar
 303              	.L89:
 304 0206 0220     		mov	r0, #2
 305 0208 291C     		mov	r1, r5
 306 020a FFF7FEFF 		bl	i2cGetChar
 307 020e 0006     		lsl	r0, r0, #24
 308 0210 040E     		lsr	r4, r0, #24
 309 0212 FD2C     		cmp	r4, #253
 310 0214 F7D0     		beq	.L89
 311 0216 0135     		add	r5, r5, #1
 312 0218 03E0     		b	.L91
 313              	.L84:
 314 021a F828     		cmp	r0, #248
 315 021c E3D0     		beq	.L94
 316 021e 371C     		mov	r7, r6
 317 0220 FF24     		mov	r4, #255
 318              	.L91:
 319 0222 7B1C     		add	r3, r7, #1
 320 0224 1B04     		lsl	r3, r3, #16
 321 0226 1F0C     		lsr	r7, r3, #16
 322              	.L79:
 323 0228 B742     		cmp	r7, r6
 324 022a DCD9     		bls	.L94
 325              	.L77:
 326 022c FFF7FEFF 		bl	i2cStop
 327 0230 2006     		lsl	r0, r4, #24
 328 0232 0016     		asr	r0, r0, #24
 329              		@ sp needed for prologue
 330 0234 F0BC     		pop	{r4, r5, r6, r7}
 331 0236 02BC     		pop	{r1}
 332 0238 0847     		bx	r1
 333              		.size	eepromPageRead, .-eepromPageRead
 334 023a C046     		.ident	"GCC: (GNU) 4.1.1"
ARM GAS  /cygdrive/c/DOCUME~1/mkwapisz/LOCALS~1/Temp/ccjxqTNc.s 			page 7


DEFINED SYMBOLS
                            *ABS*:00000000 eeprom.c
/cygdrive/c/DOCUME~1/mkwapisz/LOCALS~1/Temp/ccjxqTNc.s:1      .text:00000000 $t
/cygdrive/c/DOCUME~1/mkwapisz/LOCALS~1/Temp/ccjxqTNc.s:9      .text:00000000 eepromWrite
/cygdrive/c/DOCUME~1/mkwapisz/LOCALS~1/Temp/ccjxqTNc.s:68     .text:0000006c eepromPoll
/cygdrive/c/DOCUME~1/mkwapisz/LOCALS~1/Temp/ccjxqTNc.s:113    .text:000000b8 eepromStartRead
/cygdrive/c/DOCUME~1/mkwapisz/LOCALS~1/Temp/ccjxqTNc.s:198    .text:00000150 lm75Read
/cygdrive/c/DOCUME~1/mkwapisz/LOCALS~1/Temp/ccjxqTNc.s:268    .text:000001c4 eepromPageRead

UNDEFINED SYMBOLS
i2cStart
i2cWriteWithWait
i2cStop
i2cPutChar
i2cCheckStatus
i2cRepeatStart
i2cGetChar
