ARM GAS  /cygdrive/c/DOCUME~1/mkwapisz/LOCALS~1/Temp/ccR18zV4.s 			page 1


   1              		.code	16
   2              		.file	"myMMC.c"
   3              		.text
   4              		.align	2
   5              		.global	ReadTagsFromFile
   6              		.code 16
   7              		.thumb_func
   8              		.type	ReadTagsFromFile, %function
   9              	ReadTagsFromFile:
  10 0000 F0B5     		push	{r4, r5, r6, r7, lr}
  11 0002 1A4D     		ldr	r5, .L13
  12 0004 1A4E     		ldr	r6, .L13+4
  13 0006 041C     		mov	r4, r0
  14 0008 0022     		mov	r2, #0
  15              	.L2:
  16 000a 0027     		mov	r7, #0
  17 000c 9319     		add	r3, r2, r6
  18 000e 5755     		strb	r7, [r2, r5]
  19 0010 0132     		add	r2, r2, #1
  20 0012 1F70     		strb	r7, [r3]
  21 0014 1E2A     		cmp	r2, #30
  22 0016 F8D1     		bne	.L2
  23 0018 E16C     		ldr	r1, [r4, #76]
  24 001a 2B1C     		mov	r3, r5
  25 001c 7D39     		sub	r1, r1, #125
  26 001e 201C     		mov	r0, r4
  27 0020 FFF7FEFF 		bl	file_fread
  28 0024 E16C     		ldr	r1, [r4, #76]
  29 0026 331C     		mov	r3, r6
  30 0028 5F39     		sub	r1, r1, #95
  31 002a 201C     		mov	r0, r4
  32 002c 1E22     		mov	r2, #30
  33 002e FFF7FEFF 		bl	file_fread
  34 0032 104B     		ldr	r3, .L13+8
  35 0034 291C     		mov	r1, r5
  36 0036 6F77     		strb	r7, [r5, #29]
  37 0038 7777     		strb	r7, [r6, #29]
  38 003a 1D60     		str	r5, [r3]
  39 003c 5E60     		str	r6, [r3, #4]
  40 003e 00E0     		b	.L4
  41              	.L5:
  42 0040 0131     		add	r1, r1, #1
  43              	.L4:
  44 0042 0B78     		ldrb	r3, [r1]
  45 0044 002B     		cmp	r3, #0
  46 0046 FBD1     		bne	.L5
  47 0048 084B     		ldr	r3, .L13
  48 004a 0A4A     		ldr	r2, .L13+8
  49 004c CB1A     		sub	r3, r1, r3
  50 004e 0849     		ldr	r1, .L13+4
  51 0050 1374     		strb	r3, [r2, #16]
  52 0052 00E0     		b	.L7
  53              	.L8:
  54 0054 0131     		add	r1, r1, #1
  55              	.L7:
  56 0056 0B78     		ldrb	r3, [r1]
  57 0058 002B     		cmp	r3, #0
ARM GAS  /cygdrive/c/DOCUME~1/mkwapisz/LOCALS~1/Temp/ccR18zV4.s 			page 2


  58 005a FBD1     		bne	.L8
  59 005c 044B     		ldr	r3, .L13+4
  60 005e 054A     		ldr	r2, .L13+8
  61 0060 CB1A     		sub	r3, r1, r3
  62 0062 5374     		strb	r3, [r2, #17]
  63              		@ sp needed for prologue
  64 0064 F0BC     		pop	{r4, r5, r6, r7}
  65 0066 01BC     		pop	{r0}
  66 0068 0047     		bx	r0
  67              	.L14:
  68 006a 0000     		.align	2
  69              	.L13:
  70 006c 00000000 		.word	myName
  71 0070 00000000 		.word	myAuthor
  72 0074 00000000 		.word	currentSongInfo
  73              		.size	ReadTagsFromFile, .-ReadTagsFromFile
  74              		.section	.rodata.str1.4,"aMS",%progbits,1
  75 0001 000000   		.align	2
  76              	.LC11:
  77 0004 4552523A 		.ascii	"ERR:file\000"
  77      66696C65 
  77      00
  78              		.text
  79              		.align	2
  80              		.global	ReadAndPlay
  81              		.code 16
  82              		.thumb_func
  83              		.type	ReadAndPlay, %function
  84              	ReadAndPlay:
  85 0078 30B5     		push	{r4, r5, lr}
  86 007a 104D     		ldr	r5, .L20
  87 007c 021C     		mov	r2, r0
  88 007e 1049     		ldr	r1, .L20+4
  89 0080 281C     		mov	r0, r5
  90 0082 7223     		mov	r3, #114
  91 0084 FFF7FEFF 		bl	file_fopen
  92 0088 0006     		lsl	r0, r0, #24
  93 008a 040E     		lsr	r4, r0, #24
  94 008c 002C     		cmp	r4, #0
  95 008e 0ED1     		bne	.L16
  96 0090 281C     		mov	r0, r5
  97 0092 FFF7FEFF 		bl	ReadTagsFromFile
  98 0096 0B4B     		ldr	r3, .L20+8
  99 0098 1C70     		strb	r4, [r3]
 100 009a 0B4B     		ldr	r3, .L20+12
 101 009c 1C70     		strb	r4, [r3]
 102 009e 0B4B     		ldr	r3, .L20+16
 103 00a0 1C60     		str	r4, [r3]
 104 00a2 FFF7FEFF 		bl	LCDWriteNameAuthor
 105 00a6 281C     		mov	r0, r5
 106 00a8 FFF7FEFF 		bl	playWAV
 107 00ac 02E0     		b	.L19
 108              	.L16:
 109 00ae 084A     		ldr	r2, .L20+20
 110 00b0 084B     		ldr	r3, .L20+24
 111 00b2 1A60     		str	r2, [r3]
 112              	.L19:
ARM GAS  /cygdrive/c/DOCUME~1/mkwapisz/LOCALS~1/Temp/ccR18zV4.s 			page 3


 113              		@ sp needed for prologue
 114 00b4 30BC     		pop	{r4, r5}
 115 00b6 01BC     		pop	{r0}
 116 00b8 0047     		bx	r0
 117              	.L21:
 118 00ba 0000     		.align	2
 119              	.L20:
 120 00bc 00000000 		.word	file
 121 00c0 84020000 		.word	efs+644
 122 00c4 00000000 		.word	displayMode
 123 00c8 00000000 		.word	lastDisplayMode
 124 00cc 00000000 		.word	lastTime
 125 00d0 04000000 		.word	.LC11
 126 00d4 00000000 		.word	currentSongInfo
 127              		.size	ReadAndPlay, .-ReadAndPlay
 128              		.section	.rodata.str1.4
 129 000d 000000   		.align	2
 130              	.LC15:
 131 0010 5C00     		.ascii	"\\\000"
 132 0012 0000     		.align	2
 133              	.LC17:
 134 0014 4552523A 		.ascii	"ERR:filesys-1\000"
 134      66696C65 
 134      7379732D 
 134      3100
 135 0022 0000     		.align	2
 136              	.LC19:
 137 0024 4552523A 		.ascii	"ERR:filesys-2\000"
 137      66696C65 
 137      7379732D 
 137      3200
 138 0032 0000     		.align	2
 139              	.LC21:
 140 0034 4552523A 		.ascii	"ERR:filesys-3\000"
 140      66696C65 
 140      7379732D 
 140      3300
 141 0042 0000     		.align	2
 142              	.LC23:
 143 0044 4552523A 		.ascii	"ERR:filesys-4\000"
 143      66696C65 
 143      7379732D 
 143      3400
 144 0052 0000     		.align	2
 145              	.LC25:
 146 0054 4552523A 		.ascii	"ERR:filesys-10\000"
 146      66696C65 
 146      7379732D 
 146      313000
 147 0063 00       		.align	2
 148              	.LC27:
 149 0064 4552523A 		.ascii	"ERR:filesys-11\000"
 149      66696C65 
 149      7379732D 
 149      313100
 150 0073 00       		.align	2
 151              	.LC29:
ARM GAS  /cygdrive/c/DOCUME~1/mkwapisz/LOCALS~1/Temp/ccR18zV4.s 			page 4


 152 0074 4552523A 		.ascii	"ERR:filesys-12\000"
 152      66696C65 
 152      7379732D 
 152      313200
 153 0083 00       		.align	2
 154              	.LC31:
 155 0084 4552523A 		.ascii	"ERR:filesys-13\000"
 155      66696C65 
 155      7379732D 
 155      313300
 156 0093 00       		.align	2
 157              	.LC33:
 158 0094 4552523A 		.ascii	"ERR:filesys-14\000"
 158      66696C65 
 158      7379732D 
 158      313400
 159 00a3 00       		.align	2
 160              	.LC35:
 161 00a4 4552523A 		.ascii	"ERR:filesys-15\000"
 161      66696C65 
 161      7379732D 
 161      313500
 162 00b3 00       		.align	2
 163              	.LC37:
 164 00b4 4552523A 		.ascii	"ERR:filesys-16\000"
 164      66696C65 
 164      7379732D 
 164      313600
 165 00c3 00       		.align	2
 166              	.LC39:
 167 00c4 4552523A 		.ascii	"ERR:filesys-17\000"
 167      66696C65 
 167      7379732D 
 167      313700
 168 00d3 00       		.align	2
 169              	.LC43:
 170 00d4 2F00     		.ascii	"/\000"
 171 00d6 0000     		.align	2
 172              	.LC45:
 173 00d8 4552523A 		.ascii	"ERR:dir\000"
 173      64697200 
 174              		.align	2
 175              	.LC48:
 176 00e0 4F4B00   		.ascii	"OK\000"
 177              		.text
 178              		.align	2
 179              		.global	initMMC
 180              		.code 16
 181              		.thumb_func
 182              		.type	initMMC, %function
 183              	initMMC:
 184 00d8 00B5     		push	{lr}
 185 00da 2548     		ldr	r0, .L51
 186 00dc 2549     		ldr	r1, .L51+4
 187 00de FFF7FEFF 		bl	efs_init
 188 00e2 431C     		add	r3, r0, #1
 189 00e4 01D1     		bne	.L23
ARM GAS  /cygdrive/c/DOCUME~1/mkwapisz/LOCALS~1/Temp/ccR18zV4.s 			page 5


 190 00e6 2448     		ldr	r0, .L51+8
 191 00e8 40E0     		b	.L25
 192              	.L23:
 193 00ea 831C     		add	r3, r0, #2
 194 00ec 01D1     		bne	.L26
 195 00ee 2348     		ldr	r0, .L51+12
 196 00f0 3CE0     		b	.L25
 197              	.L26:
 198 00f2 C31C     		add	r3, r0, #3
 199 00f4 01D1     		bne	.L28
 200 00f6 2248     		ldr	r0, .L51+16
 201 00f8 38E0     		b	.L25
 202              	.L28:
 203 00fa 031D     		add	r3, r0, #4
 204 00fc 01D1     		bne	.L30
 205 00fe 2148     		ldr	r0, .L51+20
 206 0100 34E0     		b	.L25
 207              	.L30:
 208 0102 031C     		mov	r3, r0
 209 0104 0A33     		add	r3, r3, #10
 210 0106 01D1     		bne	.L32
 211 0108 1F48     		ldr	r0, .L51+24
 212 010a 2FE0     		b	.L25
 213              	.L32:
 214 010c 031C     		mov	r3, r0
 215 010e 0B33     		add	r3, r3, #11
 216 0110 01D1     		bne	.L34
 217 0112 1E48     		ldr	r0, .L51+28
 218 0114 2AE0     		b	.L25
 219              	.L34:
 220 0116 031C     		mov	r3, r0
 221 0118 0C33     		add	r3, r3, #12
 222 011a 01D1     		bne	.L36
 223 011c 1C48     		ldr	r0, .L51+32
 224 011e 25E0     		b	.L25
 225              	.L36:
 226 0120 031C     		mov	r3, r0
 227 0122 0D33     		add	r3, r3, #13
 228 0124 01D1     		bne	.L38
 229 0126 1B48     		ldr	r0, .L51+36
 230 0128 20E0     		b	.L25
 231              	.L38:
 232 012a 031C     		mov	r3, r0
 233 012c 0E33     		add	r3, r3, #14
 234 012e 01D1     		bne	.L40
 235 0130 1948     		ldr	r0, .L51+40
 236 0132 1BE0     		b	.L25
 237              	.L40:
 238 0134 031C     		mov	r3, r0
 239 0136 0F33     		add	r3, r3, #15
 240 0138 01D1     		bne	.L42
 241 013a 1848     		ldr	r0, .L51+44
 242 013c 16E0     		b	.L25
 243              	.L42:
 244 013e 031C     		mov	r3, r0
 245 0140 1033     		add	r3, r3, #16
 246 0142 01D1     		bne	.L44
ARM GAS  /cygdrive/c/DOCUME~1/mkwapisz/LOCALS~1/Temp/ccR18zV4.s 			page 6


 247 0144 1648     		ldr	r0, .L51+48
 248 0146 11E0     		b	.L25
 249              	.L44:
 250 0148 1130     		add	r0, r0, #17
 251 014a 01D1     		bne	.L46
 252 014c 1548     		ldr	r0, .L51+52
 253 014e 0DE0     		b	.L25
 254              	.L46:
 255 0150 1548     		ldr	r0, .L51+56
 256 0152 1649     		ldr	r1, .L51+60
 257 0154 164A     		ldr	r2, .L51+64
 258 0156 FFF7FEFF 		bl	ls_openDir
 259 015a 0006     		lsl	r0, r0, #24
 260 015c 0028     		cmp	r0, #0
 261 015e 01D0     		beq	.L48
 262 0160 1448     		ldr	r0, .L51+68
 263 0162 03E0     		b	.L25
 264              	.L48:
 265 0164 144A     		ldr	r2, .L51+72
 266 0166 0123     		mov	r3, #1
 267 0168 1370     		strb	r3, [r2]
 268 016a 1448     		ldr	r0, .L51+76
 269              	.L25:
 270              		@ sp needed for prologue
 271 016c 02BC     		pop	{r1}
 272 016e 0847     		bx	r1
 273              	.L52:
 274              		.align	2
 275              	.L51:
 276 0170 00000000 		.word	efs
 277 0174 10000000 		.word	.LC15
 278 0178 14000000 		.word	.LC17
 279 017c 24000000 		.word	.LC19
 280 0180 34000000 		.word	.LC21
 281 0184 44000000 		.word	.LC23
 282 0188 54000000 		.word	.LC25
 283 018c 64000000 		.word	.LC27
 284 0190 74000000 		.word	.LC29
 285 0194 84000000 		.word	.LC31
 286 0198 94000000 		.word	.LC33
 287 019c A4000000 		.word	.LC35
 288 01a0 B4000000 		.word	.LC37
 289 01a4 C4000000 		.word	.LC39
 290 01a8 00000000 		.word	list
 291 01ac 84020000 		.word	efs+644
 292 01b0 D4000000 		.word	.LC43
 293 01b4 D8000000 		.word	.LC45
 294 01b8 00000000 		.word	mmcInitialized
 295 01bc E0000000 		.word	.LC48
 296              		.size	initMMC, .-initMMC
 297              		.align	2
 298              		.global	format_file_name
 299              		.code 16
 300              		.thumb_func
 301              		.type	format_file_name, %function
 302              	format_file_name:
 303 01c0 70B5     		push	{r4, r5, r6, lr}
ARM GAS  /cygdrive/c/DOCUME~1/mkwapisz/LOCALS~1/Temp/ccR18zV4.s 			page 7


 304 01c2 061C     		mov	r6, r0
 305 01c4 0D1C     		mov	r5, r1
 306 01c6 CA1D     		add	r2, r1, #7
 307 01c8 0724     		mov	r4, #7
 308 01ca 05E0     		b	.L54
 309              	.L55:
 310 01cc 631E     		sub	r3, r4, #1
 311 01ce 1B06     		lsl	r3, r3, #24
 312 01d0 1C0E     		lsr	r4, r3, #24
 313 01d2 013A     		sub	r2, r2, #1
 314 01d4 002C     		cmp	r4, #0
 315 01d6 02D0     		beq	.L56
 316              	.L54:
 317 01d8 1378     		ldrb	r3, [r2]
 318 01da 202B     		cmp	r3, #32
 319 01dc F6D0     		beq	.L55
 320              	.L56:
 321 01de 621C     		add	r2, r4, #1
 322 01e0 301C     		mov	r0, r6
 323 01e2 291C     		mov	r1, r5
 324 01e4 FFF7FEFF 		bl	strncpy
 325 01e8 3419     		add	r4, r6, r4
 326 01ea 2E23     		mov	r3, #46
 327 01ec 6370     		strb	r3, [r4, #1]
 328 01ee AA7A     		ldrb	r2, [r5, #10]
 329 01f0 202A     		cmp	r2, #32
 330 01f2 01D0     		beq	.L57
 331 01f4 0222     		mov	r2, #2
 332 01f6 03E0     		b	.L59
 333              	.L57:
 334 01f8 6B7A     		ldrb	r3, [r5, #9]
 335 01fa 5340     		eor	r3, r3, r2
 336 01fc 5B42     		neg	r3, r3
 337 01fe DA0F     		lsr	r2, r3, #31
 338              	.L59:
 339 0200 291C     		mov	r1, r5
 340 0202 A01C     		add	r0, r4, #2
 341 0204 0831     		add	r1, r1, #8
 342 0206 0132     		add	r2, r2, #1
 343 0208 FFF7FEFF 		bl	strncpy
 344 020c 0023     		mov	r3, #0
 345 020e 6371     		strb	r3, [r4, #5]
 346              		@ sp needed for prologue
 347 0210 70BC     		pop	{r4, r5, r6}
 348 0212 01BC     		pop	{r0}
 349 0214 0047     		bx	r0
 350              		.size	format_file_name, .-format_file_name
 351 0216 0000     		.align	2
 352              		.global	getFileNames
 353              		.code 16
 354              		.thumb_func
 355              		.type	getFileNames, %function
 356              	getFileNames:
 357 0218 F0B5     		push	{r4, r5, r6, r7, lr}
 358 021a 0027     		mov	r7, #0
 359 021c 0026     		mov	r6, #0
 360 021e 17E0     		b	.L78
ARM GAS  /cygdrive/c/DOCUME~1/mkwapisz/LOCALS~1/Temp/ccR18zV4.s 			page 8


 361              	.L65:
 362 0220 114A     		ldr	r2, .L79
 363 0222 2B69     		ldr	r3, [r5, #16]
 364 0224 1340     		and	r3, r3, r2
 365 0226 114A     		ldr	r2, .L79+4
 366 0228 9342     		cmp	r3, r2
 367 022a 11D1     		bne	.L78
 368 022c 104C     		ldr	r4, .L79+8
 369 022e 291C     		mov	r1, r5
 370 0230 0831     		add	r1, r1, #8
 371 0232 201C     		mov	r0, r4
 372 0234 FFF7FEFF 		bl	format_file_name
 373 0238 0E4B     		ldr	r3, .L79+12
 374 023a 211C     		mov	r1, r4
 375 023c F218     		add	r2, r6, r3
 376 023e 0D31     		add	r1, r1, #13
 377              	.L67:
 378 0240 2378     		ldrb	r3, [r4]
 379 0242 0134     		add	r4, r4, #1
 380 0244 1370     		strb	r3, [r2]
 381 0246 0132     		add	r2, r2, #1
 382 0248 8C42     		cmp	r4, r1
 383 024a F9D1     		bne	.L67
 384 024c 0137     		add	r7, r7, #1
 385 024e 0D36     		add	r6, r6, #13
 386              	.L78:
 387 0250 094D     		ldr	r5, .L79+16
 388 0252 281C     		mov	r0, r5
 389 0254 FFF7FEFF 		bl	ls_getNext
 390 0258 0006     		lsl	r0, r0, #24
 391 025a 0028     		cmp	r0, #0
 392 025c E0D0     		beq	.L65
 393 025e 074B     		ldr	r3, .L79+20
 394              		@ sp needed for prologue
 395 0260 1F70     		strb	r7, [r3]
 396 0262 F0BC     		pop	{r4, r5, r6, r7}
 397 0264 01BC     		pop	{r0}
 398 0266 0047     		bx	r0
 399              	.L80:
 400              		.align	2
 401              	.L79:
 402 0268 FFFFFF00 		.word	16777215
 403 026c 57415600 		.word	5652823
 404 0270 00000000 		.word	file_name
 405 0274 00000000 		.word	files
 406 0278 00000000 		.word	list
 407 027c 00000000 		.word	songCount
 408              		.size	getFileNames, .-getFileNames
 409              		.section	.rodata.str1.4
 410 00e3 00       		.subsection	-1
 411              		.align	2
 412              	.LC60:
 413 0000 00       		.ascii	"\000"
 414              		.global	__modsi3
 415              		.text
 416              		.align	2
 417              		.global	MMCproc
ARM GAS  /cygdrive/c/DOCUME~1/mkwapisz/LOCALS~1/Temp/ccR18zV4.s 			page 9


 418              		.code 16
 419              		.thumb_func
 420              		.type	MMCproc, %function
 421              	MMCproc:
 422 0280 30B5     		push	{r4, r5, lr}
 423 0282 FFF7FEFF 		bl	initMMC
 424 0286 584A     		ldr	r2, .L125
 425 0288 0121     		mov	r1, #1
 426 028a 1170     		strb	r1, [r2]
 427 028c 0378     		ldrb	r3, [r0]
 428 028e 4F2B     		cmp	r3, #79
 429 0290 02D1     		bne	.L82
 430 0292 4378     		ldrb	r3, [r0, #1]
 431 0294 4B2B     		cmp	r3, #75
 432 0296 05D0     		beq	.L84
 433              	.L82:
 434 0298 544B     		ldr	r3, .L125+4
 435 029a 1960     		str	r1, [r3]
 436 029c 544B     		ldr	r3, .L125+8
 437 029e 1860     		str	r0, [r3]
 438 02a0 0023     		mov	r3, #0
 439 02a2 1370     		strb	r3, [r2]
 440              	.L84:
 441 02a4 534C     		ldr	r4, .L125+12
 442 02a6 5449     		ldr	r1, .L125+16
 443 02a8 544B     		ldr	r3, .L125+20
 444 02aa 6218     		add	r2, r4, r1
 445              	.L85:
 446 02ac 2370     		strb	r3, [r4]
 447 02ae 0D34     		add	r4, r4, #13
 448 02b0 9442     		cmp	r4, r2
 449 02b2 FBD1     		bne	.L85
 450 02b4 FFF7FEFF 		bl	getFileNames
 451 02b8 FFF7FEFF 		bl	startLCD
 452 02bc 504B     		ldr	r3, .L125+24
 453 02be DB68     		ldr	r3, [r3, #12]
 454 02c0 5800     		lsl	r0, r3, #1
 455 02c2 C018     		add	r0, r0, r3
 456 02c4 4F4A     		ldr	r2, .L125+28
 457 02c6 8000     		lsl	r0, r0, #2
 458 02c8 C018     		add	r0, r0, r3
 459 02ca A318     		add	r3, r4, r2
 460 02cc C018     		add	r0, r0, r3
 461 02ce FFF7FEFF 		bl	ReadAndPlay
 462              	.L124:
 463 02d2 4D4A     		ldr	r2, .L125+32
 464 02d4 1378     		ldrb	r3, [r2]
 465 02d6 002B     		cmp	r3, #0
 466 02d8 19D0     		beq	.L88
 467 02da 0025     		mov	r5, #0
 468 02dc 1570     		strb	r5, [r2]
 469 02de 4B48     		ldr	r0, .L125+36
 470 02e0 FFF7FEFF 		bl	file_fclose
 471 02e4 464C     		ldr	r4, .L125+24
 472 02e6 4A4B     		ldr	r3, .L125+40
 473 02e8 E068     		ldr	r0, [r4, #12]
 474 02ea 1978     		ldrb	r1, [r3]
ARM GAS  /cygdrive/c/DOCUME~1/mkwapisz/LOCALS~1/Temp/ccR18zV4.s 			page 10


 475 02ec 0138     		sub	r0, r0, #1
 476 02ee FFF7FEFF 		bl	__modsi3
 477 02f2 E060     		str	r0, [r4, #12]
 478 02f4 0028     		cmp	r0, #0
 479 02f6 00DA     		bge	.L90
 480 02f8 E560     		str	r5, [r4, #12]
 481              	.L90:
 482 02fa E368     		ldr	r3, [r4, #12]
 483 02fc 5800     		lsl	r0, r3, #1
 484 02fe C018     		add	r0, r0, r3
 485 0300 8000     		lsl	r0, r0, #2
 486 0302 C018     		add	r0, r0, r3
 487 0304 3B4B     		ldr	r3, .L125+12
 488 0306 A560     		str	r5, [r4, #8]
 489 0308 C018     		add	r0, r0, r3
 490 030a FFF7FEFF 		bl	ReadAndPlay
 491              	.L88:
 492 030e 414A     		ldr	r2, .L125+44
 493 0310 1378     		ldrb	r3, [r2]
 494 0312 002B     		cmp	r3, #0
 495 0314 16D0     		beq	.L92
 496 0316 0025     		mov	r5, #0
 497 0318 1570     		strb	r5, [r2]
 498 031a 3C48     		ldr	r0, .L125+36
 499 031c FFF7FEFF 		bl	file_fclose
 500 0320 374C     		ldr	r4, .L125+24
 501 0322 3B4B     		ldr	r3, .L125+40
 502 0324 E068     		ldr	r0, [r4, #12]
 503 0326 1978     		ldrb	r1, [r3]
 504 0328 0130     		add	r0, r0, #1
 505 032a FFF7FEFF 		bl	__modsi3
 506 032e 031C     		mov	r3, r0
 507 0330 E060     		str	r0, [r4, #12]
 508 0332 4000     		lsl	r0, r0, #1
 509 0334 C018     		add	r0, r0, r3
 510 0336 8000     		lsl	r0, r0, #2
 511 0338 C018     		add	r0, r0, r3
 512 033a 2E4B     		ldr	r3, .L125+12
 513 033c A560     		str	r5, [r4, #8]
 514 033e C018     		add	r0, r0, r3
 515 0340 FFF7FEFF 		bl	ReadAndPlay
 516              	.L92:
 517 0344 344A     		ldr	r2, .L125+48
 518 0346 1378     		ldrb	r3, [r2]
 519 0348 002B     		cmp	r3, #0
 520 034a 0CD0     		beq	.L94
 521 034c 0023     		mov	r3, #0
 522 034e 1370     		strb	r3, [r2]
 523 0350 324A     		ldr	r2, .L125+52
 524 0352 1378     		ldrb	r3, [r2]
 525 0354 082B     		cmp	r3, #8
 526 0356 01D8     		bhi	.L96
 527 0358 0133     		add	r3, r3, #1
 528 035a 1370     		strb	r3, [r2]
 529              	.L96:
 530 035c 304A     		ldr	r2, .L125+56
 531 035e 0123     		mov	r3, #1
ARM GAS  /cygdrive/c/DOCUME~1/mkwapisz/LOCALS~1/Temp/ccR18zV4.s 			page 11


 532 0360 1370     		strb	r3, [r2]
 533 0362 FFF7FEFF 		bl	LCDWriteVolume
 534              	.L94:
 535 0366 2F4A     		ldr	r2, .L125+60
 536 0368 1378     		ldrb	r3, [r2]
 537 036a 002B     		cmp	r3, #0
 538 036c 0CD0     		beq	.L98
 539 036e 0023     		mov	r3, #0
 540 0370 1370     		strb	r3, [r2]
 541 0372 2A4A     		ldr	r2, .L125+52
 542 0374 1378     		ldrb	r3, [r2]
 543 0376 002B     		cmp	r3, #0
 544 0378 01D0     		beq	.L100
 545 037a 013B     		sub	r3, r3, #1
 546 037c 1370     		strb	r3, [r2]
 547              	.L100:
 548 037e 284A     		ldr	r2, .L125+56
 549 0380 0123     		mov	r3, #1
 550 0382 1370     		strb	r3, [r2]
 551 0384 FFF7FEFF 		bl	LCDWriteVolume
 552              	.L98:
 553 0388 254B     		ldr	r3, .L125+56
 554 038a 1A78     		ldrb	r2, [r3]
 555 038c 264B     		ldr	r3, .L125+64
 556 038e 1B78     		ldrb	r3, [r3]
 557 0390 9342     		cmp	r3, r2
 558 0392 19D0     		beq	.L102
 559 0394 254C     		ldr	r4, .L125+68
 560 0396 0023     		mov	r3, #0
 561 0398 2360     		str	r3, [r4]
 562 039a 002A     		cmp	r2, #0
 563 039c 02D1     		bne	.L104
 564 039e FFF7FEFF 		bl	LCDWriteNameAuthor
 565 03a2 0AE0     		b	.L122
 566              	.L104:
 567 03a4 022A     		cmp	r2, #2
 568 03a6 01D0     		beq	.L123
 569 03a8 032A     		cmp	r2, #3
 570 03aa 02D1     		bne	.L109
 571              	.L123:
 572 03ac FFF7FEFF 		bl	LCDWriteTime
 573 03b0 06E0     		b	.L106
 574              	.L109:
 575 03b2 012A     		cmp	r2, #1
 576 03b4 04D1     		bne	.L106
 577 03b6 FFF7FEFF 		bl	LCDWriteVolume
 578              	.L122:
 579 03ba 114B     		ldr	r3, .L125+24
 580 03bc 9B68     		ldr	r3, [r3, #8]
 581 03be 2360     		str	r3, [r4]
 582              	.L106:
 583 03c0 174A     		ldr	r2, .L125+56
 584 03c2 194B     		ldr	r3, .L125+64
 585 03c4 1278     		ldrb	r2, [r2]
 586 03c6 1A70     		strb	r2, [r3]
 587              	.L102:
 588 03c8 1549     		ldr	r1, .L125+56
ARM GAS  /cygdrive/c/DOCUME~1/mkwapisz/LOCALS~1/Temp/ccR18zV4.s 			page 12


 589 03ca 0B78     		ldrb	r3, [r1]
 590 03cc 012B     		cmp	r3, #1
 591 03ce 80D1     		bne	.L124
 592 03d0 0B4B     		ldr	r3, .L125+24
 593 03d2 164A     		ldr	r2, .L125+68
 594 03d4 9B68     		ldr	r3, [r3, #8]
 595 03d6 1268     		ldr	r2, [r2]
 596 03d8 9B1A     		sub	r3, r3, r2
 597 03da 022B     		cmp	r3, #2
 598 03dc 00D8     		bhi	.LCB618
 599 03de 78E7     		b	.L124	@long jump
 600              	.LCB618:
 601 03e0 0023     		mov	r3, #0
 602 03e2 0B70     		strb	r3, [r1]
 603 03e4 75E7     		b	.L124
 604              	.L126:
 605 03e6 0000     		.align	2
 606              	.L125:
 607 03e8 00000000 		.word	mmcInitialized
 608 03ec 00000000 		.word	isError
 609 03f0 00000000 		.word	error
 610 03f4 00000000 		.word	files
 611 03f8 07050000 		.word	1287
 612 03fc 00000000 		.word	.LC60
 613 0400 00000000 		.word	currentSongInfo
 614 0404 F9FAFFFF 		.word	-1287
 615 0408 00000000 		.word	changeLeft
 616 040c 00000000 		.word	file
 617 0410 00000000 		.word	songCount
 618 0414 00000000 		.word	changeRight
 619 0418 00000000 		.word	volumeUp
 620 041c 00000000 		.word	currentVolume
 621 0420 00000000 		.word	displayMode
 622 0424 00000000 		.word	volumeDown
 623 0428 00000000 		.word	lastDisplayMode
 624 042c 00000000 		.word	lastTime
 625              		.size	MMCproc, .-MMCproc
 626              		.comm	currentSongInfo,20,4
 627              		.comm	mmcInitialized,1,1
 628              		.comm	changeLeft,1,1
 629              		.comm	changeRight,1,1
 630              		.comm	rewindForward,1,1
 631              		.comm	rewindBackward,1,1
 632              		.comm	volumeUp,1,1
 633              		.comm	volumeDown,1,1
 634              		.comm	isError,4,4
 635              		.comm	error,4,4
 636              		.comm	displayMode,1,1
 637              		.comm	displayChanged,1,1
 638              		.comm	files,3328,1
 639              		.comm	myName,30,1
 640              		.comm	myAuthor,30,1
 641              		.comm	efs,708,4
 642              		.comm	file,80,4
 643              		.comm	list,52,4
 644              		.comm	file_name,13,1
 645              		.comm	size,4,4
ARM GAS  /cygdrive/c/DOCUME~1/mkwapisz/LOCALS~1/Temp/ccR18zV4.s 			page 13


 646              		.comm	songCount,1,1
 647              		.comm	lastDisplayMode,1,1
 648              		.comm	lastTime,4,4
 649              		.ident	"GCC: (GNU) 4.1.1"
ARM GAS  /cygdrive/c/DOCUME~1/mkwapisz/LOCALS~1/Temp/ccR18zV4.s 			page 14


DEFINED SYMBOLS
                            *ABS*:00000000 myMMC.c
/cygdrive/c/DOCUME~1/mkwapisz/LOCALS~1/Temp/ccR18zV4.s:1      .text:00000000 $t
/cygdrive/c/DOCUME~1/mkwapisz/LOCALS~1/Temp/ccR18zV4.s:9      .text:00000000 ReadTagsFromFile
/cygdrive/c/DOCUME~1/mkwapisz/LOCALS~1/Temp/ccR18zV4.s:70     .text:0000006c $d
                            *COM*:0000001e myName
                            *COM*:0000001e myAuthor
                            *COM*:00000014 currentSongInfo
/cygdrive/c/DOCUME~1/mkwapisz/LOCALS~1/Temp/ccR18zV4.s:84     .text:00000078 ReadAndPlay
/cygdrive/c/DOCUME~1/mkwapisz/LOCALS~1/Temp/ccR18zV4.s:81     .text:00000078 $t
/cygdrive/c/DOCUME~1/mkwapisz/LOCALS~1/Temp/ccR18zV4.s:120    .text:000000bc $d
                            *COM*:00000050 file
                            *COM*:000002c4 efs
                            *COM*:00000001 displayMode
                            *COM*:00000001 lastDisplayMode
                            *COM*:00000004 lastTime
/cygdrive/c/DOCUME~1/mkwapisz/LOCALS~1/Temp/ccR18zV4.s:183    .text:000000d8 initMMC
/cygdrive/c/DOCUME~1/mkwapisz/LOCALS~1/Temp/ccR18zV4.s:180    .text:000000d8 $t
/cygdrive/c/DOCUME~1/mkwapisz/LOCALS~1/Temp/ccR18zV4.s:276    .text:00000170 $d
                            *COM*:00000034 list
                            *COM*:00000001 mmcInitialized
/cygdrive/c/DOCUME~1/mkwapisz/LOCALS~1/Temp/ccR18zV4.s:302    .text:000001c0 format_file_name
/cygdrive/c/DOCUME~1/mkwapisz/LOCALS~1/Temp/ccR18zV4.s:299    .text:000001c0 $t
/cygdrive/c/DOCUME~1/mkwapisz/LOCALS~1/Temp/ccR18zV4.s:356    .text:00000218 getFileNames
/cygdrive/c/DOCUME~1/mkwapisz/LOCALS~1/Temp/ccR18zV4.s:402    .text:00000268 $d
                            *COM*:0000000d file_name
                            *COM*:00000d00 files
                            *COM*:00000001 songCount
/cygdrive/c/DOCUME~1/mkwapisz/LOCALS~1/Temp/ccR18zV4.s:421    .text:00000280 MMCproc
/cygdrive/c/DOCUME~1/mkwapisz/LOCALS~1/Temp/ccR18zV4.s:418    .text:00000280 $t
/cygdrive/c/DOCUME~1/mkwapisz/LOCALS~1/Temp/ccR18zV4.s:607    .text:000003e8 $d
                            *COM*:00000004 isError
                            *COM*:00000004 error
                            *COM*:00000001 changeLeft
                            *COM*:00000001 changeRight
                            *COM*:00000001 volumeUp
                            *COM*:00000001 volumeDown
                            *COM*:00000001 rewindForward
                            *COM*:00000001 rewindBackward
                            *COM*:00000001 displayChanged
                            *COM*:00000004 size

UNDEFINED SYMBOLS
file_fread
file_fopen
LCDWriteNameAuthor
playWAV
efs_init
ls_openDir
strncpy
ls_getNext
__modsi3
startLCD
file_fclose
LCDWriteVolume
LCDWriteTime
currentVolume
ARM GAS  /cygdrive/c/DOCUME~1/mkwapisz/LOCALS~1/Temp/ccR18zV4.s 			page 15


