ARM GAS  /cygdrive/c/DOCUME~1/mkwapisz/LOCALS~1/Temp/ccu1Zasq.s 			page 1


   1              		.code	16
   2              		.file	"testLcd.c"
   3              		.text
   4              		.align	2
   5              		.code 16
   6              		.thumb_func
   7              		.type	delay37us, %function
   8              	delay37us:
   9 0000 81B0     		sub	sp, sp, #4
  10 0002 0023     		mov	r3, #0
  11              		@ lr needed for prologue
  12 0004 02E0     		b	.L6
  13              	.L3:
  14 0006 C046     		 nop
  15              		.code	16
  16 0008 009B     		ldr	r3, [sp]
  17 000a 0133     		add	r3, r3, #1
  18              	.L6:
  19 000c 0093     		str	r3, [sp]
  20 000e 009A     		ldr	r2, [sp]
  21 0010 024B     		ldr	r3, .L7
  22 0012 9A42     		cmp	r2, r3
  23 0014 F7D9     		bls	.L3
  24 0016 01B0     		add	sp, sp, #4
  25              		@ sp needed for prologue
  26 0018 7047     		bx	lr
  27              	.L8:
  28 001a 0000     		.align	2
  29              	.L7:
  30 001c 973A0000 		.word	14999
  31              		.size	delay37us, .-delay37us
  32              		.align	2
  33              		.code 16
  34              		.thumb_func
  35              		.type	writeLCD, %function
  36              	writeLCD:
  37 0020 0906     		lsl	r1, r1, #24
  38 0022 0006     		lsl	r0, r0, #24
  39 0024 81B0     		sub	sp, sp, #4
  40              		@ lr needed for prologue
  41 0026 090E     		lsr	r1, r1, #24
  42 0028 0028     		cmp	r0, #0
  43 002a 03D1     		bne	.L10
  44 002c 8023     		mov	r3, #128
  45 002e 1D4A     		ldr	r2, .L21
  46 0030 5B04     		lsl	r3, r3, #17
  47 0032 02E0     		b	.L20
  48              	.L10:
  49 0034 8023     		mov	r3, #128
  50 0036 1C4A     		ldr	r2, .L21+4
  51 0038 5B04     		lsl	r3, r3, #17
  52              	.L20:
  53 003a 1360     		str	r3, [r2]
  54 003c 1B4A     		ldr	r2, .L21+8
  55 003e 8023     		mov	r3, #128
  56 0040 DB03     		lsl	r3, r3, #15
  57 0042 1360     		str	r3, [r2]
ARM GAS  /cygdrive/c/DOCUME~1/mkwapisz/LOCALS~1/Temp/ccu1Zasq.s 			page 2


  58 0044 174B     		ldr	r3, .L21
  59 0046 FF22     		mov	r2, #255
  60 0048 1204     		lsl	r2, r2, #16
  61 004a 1A60     		str	r2, [r3]
  62 004c 0B04     		lsl	r3, r1, #16
  63 004e 1340     		and	r3, r3, r2
  64 0050 154A     		ldr	r2, .L21+4
  65 0052 1360     		str	r3, [r2]
  66 0054 8023     		mov	r3, #128
  67 0056 9B04     		lsl	r3, r3, #18
  68 0058 1360     		str	r3, [r2]
  69 005a 6B46     		mov	r3, sp
  70 005c 0022     		mov	r2, #0
  71 005e 0333     		add	r3, r3, #3
  72 0060 1A70     		strb	r2, [r3]
  73 0062 05E0     		b	.L13
  74              	.L14:
  75 0064 C046     		 nop
  76              		.code	16
  77 0066 0B78     		ldrb	r3, [r1]
  78 0068 0133     		add	r3, r3, #1
  79 006a 1B06     		lsl	r3, r3, #24
  80 006c 1B0E     		lsr	r3, r3, #24
  81 006e 0B70     		strb	r3, [r1]
  82              	.L13:
  83 0070 6946     		mov	r1, sp
  84 0072 0331     		add	r1, r1, #3
  85 0074 0B78     		ldrb	r3, [r1]
  86 0076 0F2B     		cmp	r3, #15
  87 0078 F4D9     		bls	.L14
  88 007a 8023     		mov	r3, #128
  89 007c 094A     		ldr	r2, .L21
  90 007e 9B04     		lsl	r3, r3, #18
  91 0080 1360     		str	r3, [r2]
  92 0082 0023     		mov	r3, #0
  93 0084 0B70     		strb	r3, [r1]
  94 0086 05E0     		b	.L16
  95              	.L17:
  96 0088 C046     		 nop
  97              		.code	16
  98 008a 1378     		ldrb	r3, [r2]
  99 008c 0133     		add	r3, r3, #1
 100 008e 1B06     		lsl	r3, r3, #24
 101 0090 1B0E     		lsr	r3, r3, #24
 102 0092 1370     		strb	r3, [r2]
 103              	.L16:
 104 0094 6A46     		mov	r2, sp
 105 0096 0332     		add	r2, r2, #3
 106 0098 1378     		ldrb	r3, [r2]
 107 009a 0F2B     		cmp	r3, #15
 108 009c F4D9     		bls	.L17
 109 009e 01B0     		add	sp, sp, #4
 110              		@ sp needed for prologue
 111 00a0 7047     		bx	lr
 112              	.L22:
 113 00a2 0000     		.align	2
 114              	.L21:
ARM GAS  /cygdrive/c/DOCUME~1/mkwapisz/LOCALS~1/Temp/ccu1Zasq.s 			page 3


 115 00a4 1C8002E0 		.word	-536707044
 116 00a8 148002E0 		.word	-536707052
 117 00ac 0C8002E0 		.word	-536707060
 118              		.size	writeLCD, .-writeLCD
 119              		.global	__umodsi3
 120              		.align	2
 121              		.global	numberToChar
 122              		.code 16
 123              		.thumb_func
 124              		.type	numberToChar, %function
 125              	numberToChar:
 126 00b0 00B5     		push	{lr}
 127 00b2 0006     		lsl	r0, r0, #24
 128 00b4 000E     		lsr	r0, r0, #24
 129 00b6 0A21     		mov	r1, #10
 130 00b8 FFF7FEFF 		bl	__umodsi3
 131 00bc 3030     		add	r0, r0, #48
 132 00be 0006     		lsl	r0, r0, #24
 133 00c0 000E     		lsr	r0, r0, #24
 134              		@ sp needed for prologue
 135 00c2 02BC     		pop	{r1}
 136 00c4 0847     		bx	r1
 137              		.size	numberToChar, .-numberToChar
 138              		.global	__udivsi3
 139 00c6 0000     		.align	2
 140              		.global	timeToString
 141              		.code 16
 142              		.thumb_func
 143              		.type	timeToString, %function
 144              	timeToString:
 145 00c8 70B5     		push	{r4, r5, r6, lr}
 146 00ca 174B     		ldr	r3, .L28
 147 00cc 0E1C     		mov	r6, r1
 148 00ce 051C     		mov	r5, r0
 149 00d0 9842     		cmp	r0, r3
 150 00d2 00D9     		bls	.L26
 151 00d4 1D1C     		mov	r5, r3
 152              	.L26:
 153 00d6 281C     		mov	r0, r5
 154 00d8 3C21     		mov	r1, #60
 155 00da FFF7FEFF 		bl	__udivsi3
 156 00de 3C21     		mov	r1, #60
 157 00e0 041C     		mov	r4, r0
 158 00e2 281C     		mov	r0, r5
 159 00e4 FFF7FEFF 		bl	__umodsi3
 160 00e8 0A21     		mov	r1, #10
 161 00ea 051C     		mov	r5, r0
 162 00ec 201C     		mov	r0, r4
 163 00ee FFF7FEFF 		bl	__udivsi3
 164 00f2 3030     		add	r0, r0, #48
 165 00f4 3070     		strb	r0, [r6]
 166 00f6 0A21     		mov	r1, #10
 167 00f8 201C     		mov	r0, r4
 168 00fa FFF7FEFF 		bl	__umodsi3
 169 00fe 3A23     		mov	r3, #58
 170 0100 3030     		add	r0, r0, #48
 171 0102 B370     		strb	r3, [r6, #2]
ARM GAS  /cygdrive/c/DOCUME~1/mkwapisz/LOCALS~1/Temp/ccu1Zasq.s 			page 4


 172 0104 7070     		strb	r0, [r6, #1]
 173 0106 0A21     		mov	r1, #10
 174 0108 281C     		mov	r0, r5
 175 010a FFF7FEFF 		bl	__udivsi3
 176 010e 3030     		add	r0, r0, #48
 177 0110 F070     		strb	r0, [r6, #3]
 178 0112 0A21     		mov	r1, #10
 179 0114 281C     		mov	r0, r5
 180 0116 FFF7FEFF 		bl	__umodsi3
 181 011a 0023     		mov	r3, #0
 182 011c 3030     		add	r0, r0, #48
 183 011e 3071     		strb	r0, [r6, #4]
 184 0120 7371     		strb	r3, [r6, #5]
 185              		@ sp needed for prologue
 186 0122 70BC     		pop	{r4, r5, r6}
 187 0124 01BC     		pop	{r0}
 188 0126 0047     		bx	r0
 189              	.L29:
 190              		.align	2
 191              	.L28:
 192 0128 0F0E0000 		.word	3599
 193              		.size	timeToString, .-timeToString
 194              		.align	2
 195              		.global	WriteString
 196              		.code 16
 197              		.thumb_func
 198              		.type	WriteString, %function
 199              	WriteString:
 200 012c 10B5     		push	{r4, lr}
 201 012e 041C     		mov	r4, r0
 202 0130 04E0     		b	.L31
 203              	.L32:
 204 0132 0120     		mov	r0, #1
 205 0134 FFF774FF 		bl	writeLCD
 206 0138 FFF762FF 		bl	delay37us
 207              	.L31:
 208 013c 2178     		ldrb	r1, [r4]
 209 013e 0134     		add	r4, r4, #1
 210 0140 0029     		cmp	r1, #0
 211 0142 F6D1     		bne	.L32
 212              		@ sp needed for prologue
 213 0144 10BC     		pop	{r4}
 214 0146 01BC     		pop	{r0}
 215 0148 0047     		bx	r0
 216              		.size	WriteString, .-WriteString
 217 014a 0000     		.align	2
 218              		.global	ScreenShiftLeft
 219              		.code 16
 220              		.thumb_func
 221              		.type	ScreenShiftLeft, %function
 222              	ScreenShiftLeft:
 223 014c 00B5     		push	{lr}
 224 014e 0020     		mov	r0, #0
 225 0150 3821     		mov	r1, #56
 226 0152 FFF765FF 		bl	writeLCD
 227 0156 FFF753FF 		bl	delay37us
 228 015a 1821     		mov	r1, #24
ARM GAS  /cygdrive/c/DOCUME~1/mkwapisz/LOCALS~1/Temp/ccu1Zasq.s 			page 5


 229 015c 0020     		mov	r0, #0
 230 015e FFF75FFF 		bl	writeLCD
 231 0162 0120     		mov	r0, #1
 232 0164 FFF7FEFF 		bl	osSleep
 233 0168 0020     		mov	r0, #0
 234 016a 0621     		mov	r1, #6
 235 016c FFF758FF 		bl	writeLCD
 236 0170 0120     		mov	r0, #1
 237 0172 FFF7FEFF 		bl	osSleep
 238              		@ sp needed for prologue
 239 0176 01BC     		pop	{r0}
 240 0178 0047     		bx	r0
 241              		.size	ScreenShiftLeft, .-ScreenShiftLeft
 242 017a 0000     		.align	2
 243              		.global	clearScr
 244              		.code 16
 245              		.thumb_func
 246              		.type	clearScr, %function
 247              	clearScr:
 248 017c 00B5     		push	{lr}
 249 017e 214A     		ldr	r2, .L39
 250 0180 8023     		mov	r3, #128
 251 0182 DB05     		lsl	r3, r3, #23
 252 0184 1360     		str	r3, [r2]
 253 0186 3220     		mov	r0, #50
 254 0188 FFF7FEFF 		bl	osSleep
 255 018c 3021     		mov	r1, #48
 256 018e 0020     		mov	r0, #0
 257 0190 FFF746FF 		bl	writeLCD
 258 0194 0120     		mov	r0, #1
 259 0196 FFF7FEFF 		bl	osSleep
 260 019a 0020     		mov	r0, #0
 261 019c 3021     		mov	r1, #48
 262 019e FFF73FFF 		bl	writeLCD
 263 01a2 FFF72DFF 		bl	delay37us
 264 01a6 0020     		mov	r0, #0
 265 01a8 3021     		mov	r1, #48
 266 01aa FFF739FF 		bl	writeLCD
 267 01ae FFF727FF 		bl	delay37us
 268 01b2 0020     		mov	r0, #0
 269 01b4 3821     		mov	r1, #56
 270 01b6 FFF733FF 		bl	writeLCD
 271 01ba FFF721FF 		bl	delay37us
 272 01be 0020     		mov	r0, #0
 273 01c0 0821     		mov	r1, #8
 274 01c2 FFF72DFF 		bl	writeLCD
 275 01c6 FFF71BFF 		bl	delay37us
 276 01ca 0121     		mov	r1, #1
 277 01cc 0020     		mov	r0, #0
 278 01ce FFF727FF 		bl	writeLCD
 279 01d2 0120     		mov	r0, #1
 280 01d4 FFF7FEFF 		bl	osSleep
 281 01d8 0621     		mov	r1, #6
 282 01da 0020     		mov	r0, #0
 283 01dc FFF720FF 		bl	writeLCD
 284 01e0 0120     		mov	r0, #1
 285 01e2 FFF7FEFF 		bl	osSleep
ARM GAS  /cygdrive/c/DOCUME~1/mkwapisz/LOCALS~1/Temp/ccu1Zasq.s 			page 6


 286 01e6 0020     		mov	r0, #0
 287 01e8 0C21     		mov	r1, #12
 288 01ea FFF719FF 		bl	writeLCD
 289 01ee FFF707FF 		bl	delay37us
 290 01f2 0020     		mov	r0, #0
 291 01f4 0221     		mov	r1, #2
 292 01f6 FFF713FF 		bl	writeLCD
 293 01fa 0120     		mov	r0, #1
 294 01fc FFF7FEFF 		bl	osSleep
 295              		@ sp needed for prologue
 296 0200 01BC     		pop	{r0}
 297 0202 0047     		bx	r0
 298              	.L40:
 299              		.align	2
 300              	.L39:
 301 0204 048002E0 		.word	-536707068
 302              		.size	clearScr, .-clearScr
 303              		.align	2
 304              		.global	testLcd
 305              		.code 16
 306              		.thumb_func
 307              		.type	testLcd, %function
 308              	testLcd:
 309 0208 10B5     		push	{r4, lr}
 310 020a 434A     		ldr	r2, .L87
 311 020c 4349     		ldr	r1, .L87+4
 312 020e 1368     		ldr	r3, [r2]
 313 0210 0B43     		orr	r3, r3, r1
 314 0212 1360     		str	r3, [r2]
 315 0214 424B     		ldr	r3, .L87+8
 316 0216 1960     		str	r1, [r3]
 317 0218 4249     		ldr	r1, .L87+12
 318 021a 8022     		mov	r2, #128
 319 021c 0B68     		ldr	r3, [r1]
 320 021e 4248     		ldr	r0, .L87+16
 321 0220 D203     		lsl	r2, r2, #15
 322 0222 1343     		orr	r3, r3, r2
 323 0224 0B60     		str	r3, [r1]
 324 0226 0260     		str	r2, [r0]
 325 0228 8022     		mov	r2, #128
 326 022a 0B68     		ldr	r3, [r1]
 327 022c D205     		lsl	r2, r2, #23
 328 022e 1343     		orr	r3, r3, r2
 329 0230 0B60     		str	r3, [r1]
 330 0232 0260     		str	r2, [r0]
 331 0234 3D4B     		ldr	r3, .L87+20
 332 0236 3E49     		ldr	r1, .L87+24
 333 0238 1B78     		ldrb	r3, [r3]
 334 023a 0B70     		strb	r3, [r1]
 335 023c 0260     		str	r2, [r0]
 336 023e 0A20     		mov	r0, #10
 337              	.L82:
 338 0240 FFF7FEFF 		bl	osSleep
 339              	.L85:
 340 0244 FFF7FEFF 		bl	clearScr
 341 0248 3A4C     		ldr	r4, .L87+28
 342 024a 2378     		ldrb	r3, [r4]
ARM GAS  /cygdrive/c/DOCUME~1/mkwapisz/LOCALS~1/Temp/ccu1Zasq.s 			page 7


 343 024c 002B     		cmp	r3, #0
 344 024e 03D1     		bne	.L43
 345 0250 394B     		ldr	r3, .L87+32
 346 0252 1B78     		ldrb	r3, [r3]
 347 0254 002B     		cmp	r3, #0
 348 0256 13D0     		beq	.L45
 349              	.L43:
 350 0258 384B     		ldr	r3, .L87+36
 351 025a 1878     		ldrb	r0, [r3]
 352 025c FFF7FEFF 		bl	numberToChar
 353 0260 011C     		mov	r1, r0
 354 0262 0120     		mov	r0, #1
 355 0264 FFF7DCFE 		bl	writeLCD
 356 0268 2378     		ldrb	r3, [r4]
 357 026a 002B     		cmp	r3, #0
 358 026c 01D0     		beq	.L46
 359 026e 0023     		mov	r3, #0
 360 0270 2370     		strb	r3, [r4]
 361              	.L46:
 362 0272 314A     		ldr	r2, .L87+32
 363 0274 1378     		ldrb	r3, [r2]
 364 0276 002B     		cmp	r3, #0
 365 0278 48D0     		beq	.L48
 366 027a 0023     		mov	r3, #0
 367 027c 1370     		strb	r3, [r2]
 368 027e 45E0     		b	.L48
 369              	.L45:
 370 0280 2F4B     		ldr	r3, .L87+40
 371 0282 1B68     		ldr	r3, [r3]
 372 0284 002B     		cmp	r3, #0
 373 0286 0BD1     		bne	.L50
 374 0288 2E4C     		ldr	r4, .L87+44
 375 028a 2068     		ldr	r0, [r4]
 376 028c FFF7FEFF 		bl	WriteString
 377 0290 0020     		mov	r0, #0
 378 0292 C021     		mov	r1, #192
 379 0294 FFF7C4FE 		bl	writeLCD
 380 0298 FFF7B2FE 		bl	delay37us
 381 029c 6068     		ldr	r0, [r4, #4]
 382 029e 01E0     		b	.L84
 383              	.L50:
 384 02a0 294B     		ldr	r3, .L87+48
 385 02a2 1868     		ldr	r0, [r3]
 386              	.L84:
 387 02a4 FFF7FEFF 		bl	WriteString
 388 02a8 3220     		mov	r0, #50
 389 02aa FFF7FEFF 		bl	osSleep
 390 02ae 0120     		mov	r0, #1
 391 02b0 FFF7FEFF 		bl	osSleep
 392              	.L86:
 393 02b4 254A     		ldr	r2, .L87+52
 394 02b6 1178     		ldrb	r1, [r2]
 395 02b8 0029     		cmp	r1, #0
 396 02ba 02D0     		beq	.L55
 397 02bc 0023     		mov	r3, #0
 398 02be 1370     		strb	r3, [r2]
 399 02c0 C0E7     		b	.L85
ARM GAS  /cygdrive/c/DOCUME~1/mkwapisz/LOCALS~1/Temp/ccu1Zasq.s 			page 8


 400              	.L55:
 401 02c2 234A     		ldr	r2, .L87+56
 402 02c4 1378     		ldrb	r3, [r2]
 403 02c6 002B     		cmp	r3, #0
 404 02c8 11D1     		bne	.L83
 405 02ca 1A4B     		ldr	r3, .L87+28
 406 02cc 1B78     		ldrb	r3, [r3]
 407 02ce 002B     		cmp	r3, #0
 408 02d0 B8D1     		bne	.L85
 409 02d2 194B     		ldr	r3, .L87+32
 410 02d4 1B78     		ldrb	r3, [r3]
 411 02d6 002B     		cmp	r3, #0
 412 02d8 B4D1     		bne	.L85
 413 02da 194B     		ldr	r3, .L87+40
 414 02dc 1B68     		ldr	r3, [r3]
 415 02de 002B     		cmp	r3, #0
 416 02e0 B0D1     		bne	.L85
 417 02e2 124B     		ldr	r3, .L87+20
 418 02e4 124A     		ldr	r2, .L87+24
 419 02e6 1978     		ldrb	r1, [r3]
 420 02e8 1378     		ldrb	r3, [r2]
 421 02ea 8B42     		cmp	r3, r1
 422 02ec 01D0     		beq	.L62
 423              	.L83:
 424 02ee 1170     		strb	r1, [r2]
 425 02f0 A8E7     		b	.L85
 426              	.L62:
 427 02f2 6420     		mov	r0, #100
 428 02f4 FFF7FEFF 		bl	osSleep
 429 02f8 124A     		ldr	r2, .L87+44
 430 02fa 537B     		ldrb	r3, [r2, #13]
 431 02fc 102B     		cmp	r3, #16
 432 02fe 02D8     		bhi	.L64
 433 0300 937B     		ldrb	r3, [r2, #14]
 434 0302 102B     		cmp	r3, #16
 435 0304 D6D9     		bls	.L86
 436              	.L64:
 437 0306 FFF7FEFF 		bl	ScreenShiftLeft
 438 030a D3E7     		b	.L86
 439              	.L48:
 440 030c 3220     		mov	r0, #50
 441 030e FFF7FEFF 		bl	osSleep
 442 0312 0120     		mov	r0, #1
 443 0314 94E7     		b	.L82
 444              	.L88:
 445 0316 0000     		.align	2
 446              	.L87:
 447 0318 188002E0 		.word	-536707048
 448 031c 0000FF03 		.word	67043328
 449 0320 1C8002E0 		.word	-536707044
 450 0324 088002E0 		.word	-536707064
 451 0328 0C8002E0 		.word	-536707060
 452 032c 00000000 		.word	displayMode
 453 0330 00000000 		.word	currentDisplayMode
 454 0334 00000000 		.word	volumeUp
 455 0338 00000000 		.word	volumeDown
 456 033c 00000000 		.word	currentVolume
ARM GAS  /cygdrive/c/DOCUME~1/mkwapisz/LOCALS~1/Temp/ccu1Zasq.s 			page 9


 457 0340 00000000 		.word	isError
 458 0344 00000000 		.word	currentSongInfo
 459 0348 00000000 		.word	error
 460 034c 00000000 		.word	changeLeft
 461 0350 00000000 		.word	changeRight
 462              		.size	testLcd, .-testLcd
 463              		.comm	currentDisplayMode,1,1
 464              		.ident	"GCC: (GNU) 4.1.1"
ARM GAS  /cygdrive/c/DOCUME~1/mkwapisz/LOCALS~1/Temp/ccu1Zasq.s 			page 10


DEFINED SYMBOLS
                            *ABS*:00000000 testLcd.c
/cygdrive/c/DOCUME~1/mkwapisz/LOCALS~1/Temp/ccu1Zasq.s:1      .text:00000000 $t
/cygdrive/c/DOCUME~1/mkwapisz/LOCALS~1/Temp/ccu1Zasq.s:8      .text:00000000 delay37us
/cygdrive/c/DOCUME~1/mkwapisz/LOCALS~1/Temp/ccu1Zasq.s:30     .text:0000001c $d
/cygdrive/c/DOCUME~1/mkwapisz/LOCALS~1/Temp/ccu1Zasq.s:33     .text:00000020 $t
/cygdrive/c/DOCUME~1/mkwapisz/LOCALS~1/Temp/ccu1Zasq.s:36     .text:00000020 writeLCD
/cygdrive/c/DOCUME~1/mkwapisz/LOCALS~1/Temp/ccu1Zasq.s:115    .text:000000a4 $d
/cygdrive/c/DOCUME~1/mkwapisz/LOCALS~1/Temp/ccu1Zasq.s:125    .text:000000b0 numberToChar
/cygdrive/c/DOCUME~1/mkwapisz/LOCALS~1/Temp/ccu1Zasq.s:122    .text:000000b0 $t
/cygdrive/c/DOCUME~1/mkwapisz/LOCALS~1/Temp/ccu1Zasq.s:144    .text:000000c8 timeToString
/cygdrive/c/DOCUME~1/mkwapisz/LOCALS~1/Temp/ccu1Zasq.s:192    .text:00000128 $d
/cygdrive/c/DOCUME~1/mkwapisz/LOCALS~1/Temp/ccu1Zasq.s:199    .text:0000012c WriteString
/cygdrive/c/DOCUME~1/mkwapisz/LOCALS~1/Temp/ccu1Zasq.s:196    .text:0000012c $t
/cygdrive/c/DOCUME~1/mkwapisz/LOCALS~1/Temp/ccu1Zasq.s:222    .text:0000014c ScreenShiftLeft
/cygdrive/c/DOCUME~1/mkwapisz/LOCALS~1/Temp/ccu1Zasq.s:247    .text:0000017c clearScr
/cygdrive/c/DOCUME~1/mkwapisz/LOCALS~1/Temp/ccu1Zasq.s:301    .text:00000204 $d
/cygdrive/c/DOCUME~1/mkwapisz/LOCALS~1/Temp/ccu1Zasq.s:308    .text:00000208 testLcd
/cygdrive/c/DOCUME~1/mkwapisz/LOCALS~1/Temp/ccu1Zasq.s:305    .text:00000208 $t
/cygdrive/c/DOCUME~1/mkwapisz/LOCALS~1/Temp/ccu1Zasq.s:447    .text:00000318 $d
                            *COM*:00000001 currentDisplayMode

UNDEFINED SYMBOLS
__umodsi3
__udivsi3
osSleep
displayMode
volumeUp
volumeDown
currentVolume
isError
currentSongInfo
error
changeLeft
changeRight
