ARM GAS  /cygdrive/c/DOCUME~1/mkwapisz/LOCALS~1/Temp/cc3KJSTu.s 			page 1


   1              		.code	16
   2              		.file	"testMMC.c"
   3              		.section	.rodata.str1.4,"aMS",%progbits,1
   4 0001 000000   		.align	2
   5              	.LC11:
   6 0004 4552523A 		.ascii	"ERR:file\000"
   6      66696C65 
   6      00
   7              		.text
   8              		.align	2
   9              		.global	testMMC
  10              		.code 16
  11              		.thumb_func
  12              		.type	testMMC, %function
  13              	testMMC:
  14 0000 F0B5     		push	{r4, r5, r6, r7, lr}
  15 0002 021C     		mov	r2, r0
  16 0004 2C49     		ldr	r1, .L15
  17 0006 2D48     		ldr	r0, .L15+4
  18 0008 7223     		mov	r3, #114
  19 000a FFF7FEFF 		bl	file_fopen
  20 000e 0006     		lsl	r0, r0, #24
  21 0010 0028     		cmp	r0, #0
  22 0012 4BD1     		bne	.L2
  23 0014 2A4B     		ldr	r3, .L15+8
  24 0016 1F78     		ldrb	r7, [r3]
  25 0018 0021     		mov	r1, #0
  26 001a 06E0     		b	.L4
  27              	.L5:
  28 001c 294B     		ldr	r3, .L15+12
  29 001e 2A4D     		ldr	r5, .L15+16
  30 0020 0022     		mov	r2, #0
  31 0022 CA54     		strb	r2, [r1, r3]
  32 0024 4B19     		add	r3, r1, r5
  33 0026 1A70     		strb	r2, [r3]
  34 0028 0131     		add	r1, r1, #1
  35              	.L4:
  36 002a B942     		cmp	r1, r7
  37 002c F6DB     		blt	.L5
  38 002e 264D     		ldr	r5, .L15+16
  39 0030 7A1E     		sub	r2, r7, #1
  40 0032 0023     		mov	r3, #0
  41 0034 AB54     		strb	r3, [r5, r2]
  42 0036 214C     		ldr	r4, .L15+4
  43 0038 2249     		ldr	r1, .L15+12
  44 003a 244D     		ldr	r5, .L15+20
  45 003c 8B54     		strb	r3, [r1, r2]
  46 003e 244E     		ldr	r6, .L15+24
  47 0040 E16C     		ldr	r1, [r4, #76]
  48 0042 2B78     		ldrb	r3, [r5]
  49 0044 3160     		str	r1, [r6]
  50 0046 C91A     		sub	r1, r1, r3
  51 0048 224B     		ldr	r3, .L15+28
  52 004a 1B68     		ldr	r3, [r3]
  53 004c 3A1C     		mov	r2, r7
  54 004e C918     		add	r1, r1, r3
  55 0050 201C     		mov	r0, r4
ARM GAS  /cygdrive/c/DOCUME~1/mkwapisz/LOCALS~1/Temp/cc3KJSTu.s 			page 2


  56 0052 1C4B     		ldr	r3, .L15+12
  57 0054 FFF7FEFF 		bl	file_fread
  58 0058 2B78     		ldrb	r3, [r5]
  59 005a 3168     		ldr	r1, [r6]
  60 005c C91A     		sub	r1, r1, r3
  61 005e 1E4B     		ldr	r3, .L15+32
  62 0060 1B68     		ldr	r3, [r3]
  63 0062 C918     		add	r1, r1, r3
  64 0064 164B     		ldr	r3, .L15+8
  65 0066 201C     		mov	r0, r4
  66 0068 1A78     		ldrb	r2, [r3]
  67 006a 174B     		ldr	r3, .L15+16
  68 006c FFF7FEFF 		bl	file_fread
  69 0070 1A4B     		ldr	r3, .L15+36
  70 0072 1449     		ldr	r1, .L15+12
  71 0074 144A     		ldr	r2, .L15+16
  72 0076 1960     		str	r1, [r3]
  73 0078 5A60     		str	r2, [r3, #4]
  74 007a 00E0     		b	.L7
  75              	.L8:
  76 007c 0131     		add	r1, r1, #1
  77              	.L7:
  78 007e 0B78     		ldrb	r3, [r1]
  79 0080 002B     		cmp	r3, #0
  80 0082 FBD1     		bne	.L8
  81 0084 0F4B     		ldr	r3, .L15+12
  82 0086 154A     		ldr	r2, .L15+36
  83 0088 CB1A     		sub	r3, r1, r3
  84 008a 0F49     		ldr	r1, .L15+16
  85 008c 5373     		strb	r3, [r2, #13]
  86 008e 00E0     		b	.L10
  87              	.L11:
  88 0090 0131     		add	r1, r1, #1
  89              	.L10:
  90 0092 0B78     		ldrb	r3, [r1]
  91 0094 002B     		cmp	r3, #0
  92 0096 FBD1     		bne	.L11
  93 0098 0B4B     		ldr	r3, .L15+16
  94 009a 104A     		ldr	r2, .L15+36
  95 009c CB1A     		sub	r3, r1, r3
  96 009e 9373     		strb	r3, [r2, #14]
  97 00a0 FFF7FEFF 		bl	startLCD
  98 00a4 0548     		ldr	r0, .L15+4
  99 00a6 FFF7FEFF 		bl	playWAV
 100 00aa 02E0     		b	.L14
 101              	.L2:
 102 00ac 0C4A     		ldr	r2, .L15+40
 103 00ae 0B4B     		ldr	r3, .L15+36
 104 00b0 1A60     		str	r2, [r3]
 105              	.L14:
 106              		@ sp needed for prologue
 107 00b2 F0BC     		pop	{r4, r5, r6, r7}
 108 00b4 01BC     		pop	{r0}
 109 00b6 0047     		bx	r0
 110              	.L16:
 111              		.align	2
 112              	.L15:
ARM GAS  /cygdrive/c/DOCUME~1/mkwapisz/LOCALS~1/Temp/cc3KJSTu.s 			page 3


 113 00b8 84020000 		.word	efs+644
 114 00bc 00000000 		.word	file
 115 00c0 00000000 		.word	readSize
 116 00c4 00000000 		.word	myName
 117 00c8 00000000 		.word	myAuthor
 118 00cc 00000000 		.word	id3TagSize
 119 00d0 00000000 		.word	fileSize
 120 00d4 00000000 		.word	titleOffset
 121 00d8 00000000 		.word	authorOffset
 122 00dc 00000000 		.word	currentSongInfo
 123 00e0 04000000 		.word	.LC11
 124              		.size	testMMC, .-testMMC
 125              		.section	.rodata.str1.4
 126 000d 000000   		.align	2
 127              	.LC14:
 128 0010 5C00     		.ascii	"\\\000"
 129 0012 0000     		.align	2
 130              	.LC16:
 131 0014 4552523A 		.ascii	"ERR:filesys-1\000"
 131      66696C65 
 131      7379732D 
 131      3100
 132 0022 0000     		.align	2
 133              	.LC18:
 134 0024 4552523A 		.ascii	"ERR:filesys-2\000"
 134      66696C65 
 134      7379732D 
 134      3200
 135 0032 0000     		.align	2
 136              	.LC20:
 137 0034 4552523A 		.ascii	"ERR:filesys-3\000"
 137      66696C65 
 137      7379732D 
 137      3300
 138 0042 0000     		.align	2
 139              	.LC22:
 140 0044 4552523A 		.ascii	"ERR:filesys-4\000"
 140      66696C65 
 140      7379732D 
 140      3400
 141 0052 0000     		.align	2
 142              	.LC24:
 143 0054 4552523A 		.ascii	"ERR:filesys-10\000"
 143      66696C65 
 143      7379732D 
 143      313000
 144 0063 00       		.align	2
 145              	.LC26:
 146 0064 4552523A 		.ascii	"ERR:filesys-11\000"
 146      66696C65 
 146      7379732D 
 146      313100
 147 0073 00       		.align	2
 148              	.LC28:
 149 0074 4552523A 		.ascii	"ERR:filesys-12\000"
 149      66696C65 
 149      7379732D 
ARM GAS  /cygdrive/c/DOCUME~1/mkwapisz/LOCALS~1/Temp/cc3KJSTu.s 			page 4


 149      313200
 150 0083 00       		.align	2
 151              	.LC30:
 152 0084 4552523A 		.ascii	"ERR:filesys-13\000"
 152      66696C65 
 152      7379732D 
 152      313300
 153 0093 00       		.align	2
 154              	.LC32:
 155 0094 4552523A 		.ascii	"ERR:filesys-14\000"
 155      66696C65 
 155      7379732D 
 155      313400
 156 00a3 00       		.align	2
 157              	.LC34:
 158 00a4 4552523A 		.ascii	"ERR:filesys-15\000"
 158      66696C65 
 158      7379732D 
 158      313500
 159 00b3 00       		.align	2
 160              	.LC36:
 161 00b4 4552523A 		.ascii	"ERR:filesys-16\000"
 161      66696C65 
 161      7379732D 
 161      313600
 162 00c3 00       		.align	2
 163              	.LC38:
 164 00c4 4552523A 		.ascii	"ERR:filesys-17\000"
 164      66696C65 
 164      7379732D 
 164      313700
 165 00d3 00       		.align	2
 166              	.LC42:
 167 00d4 2F00     		.ascii	"/\000"
 168 00d6 0000     		.align	2
 169              	.LC44:
 170 00d8 4552523A 		.ascii	"ERR:dir\000"
 170      64697200 
 171              		.align	2
 172              	.LC47:
 173 00e0 4F4B00   		.ascii	"OK\000"
 174              		.text
 175              		.align	2
 176              		.global	initMMC
 177              		.code 16
 178              		.thumb_func
 179              		.type	initMMC, %function
 180              	initMMC:
 181 00e4 00B5     		push	{lr}
 182 00e6 2548     		ldr	r0, .L46
 183 00e8 2549     		ldr	r1, .L46+4
 184 00ea FFF7FEFF 		bl	efs_init
 185 00ee 431C     		add	r3, r0, #1
 186 00f0 01D1     		bne	.L18
 187 00f2 2448     		ldr	r0, .L46+8
 188 00f4 40E0     		b	.L20
 189              	.L18:
ARM GAS  /cygdrive/c/DOCUME~1/mkwapisz/LOCALS~1/Temp/cc3KJSTu.s 			page 5


 190 00f6 831C     		add	r3, r0, #2
 191 00f8 01D1     		bne	.L21
 192 00fa 2348     		ldr	r0, .L46+12
 193 00fc 3CE0     		b	.L20
 194              	.L21:
 195 00fe C31C     		add	r3, r0, #3
 196 0100 01D1     		bne	.L23
 197 0102 2248     		ldr	r0, .L46+16
 198 0104 38E0     		b	.L20
 199              	.L23:
 200 0106 031D     		add	r3, r0, #4
 201 0108 01D1     		bne	.L25
 202 010a 2148     		ldr	r0, .L46+20
 203 010c 34E0     		b	.L20
 204              	.L25:
 205 010e 031C     		mov	r3, r0
 206 0110 0A33     		add	r3, r3, #10
 207 0112 01D1     		bne	.L27
 208 0114 1F48     		ldr	r0, .L46+24
 209 0116 2FE0     		b	.L20
 210              	.L27:
 211 0118 031C     		mov	r3, r0
 212 011a 0B33     		add	r3, r3, #11
 213 011c 01D1     		bne	.L29
 214 011e 1E48     		ldr	r0, .L46+28
 215 0120 2AE0     		b	.L20
 216              	.L29:
 217 0122 031C     		mov	r3, r0
 218 0124 0C33     		add	r3, r3, #12
 219 0126 01D1     		bne	.L31
 220 0128 1C48     		ldr	r0, .L46+32
 221 012a 25E0     		b	.L20
 222              	.L31:
 223 012c 031C     		mov	r3, r0
 224 012e 0D33     		add	r3, r3, #13
 225 0130 01D1     		bne	.L33
 226 0132 1B48     		ldr	r0, .L46+36
 227 0134 20E0     		b	.L20
 228              	.L33:
 229 0136 031C     		mov	r3, r0
 230 0138 0E33     		add	r3, r3, #14
 231 013a 01D1     		bne	.L35
 232 013c 1948     		ldr	r0, .L46+40
 233 013e 1BE0     		b	.L20
 234              	.L35:
 235 0140 031C     		mov	r3, r0
 236 0142 0F33     		add	r3, r3, #15
 237 0144 01D1     		bne	.L37
 238 0146 1848     		ldr	r0, .L46+44
 239 0148 16E0     		b	.L20
 240              	.L37:
 241 014a 031C     		mov	r3, r0
 242 014c 1033     		add	r3, r3, #16
 243 014e 01D1     		bne	.L39
 244 0150 1648     		ldr	r0, .L46+48
 245 0152 11E0     		b	.L20
 246              	.L39:
ARM GAS  /cygdrive/c/DOCUME~1/mkwapisz/LOCALS~1/Temp/cc3KJSTu.s 			page 6


 247 0154 1130     		add	r0, r0, #17
 248 0156 01D1     		bne	.L41
 249 0158 1548     		ldr	r0, .L46+52
 250 015a 0DE0     		b	.L20
 251              	.L41:
 252 015c 1548     		ldr	r0, .L46+56
 253 015e 1649     		ldr	r1, .L46+60
 254 0160 164A     		ldr	r2, .L46+64
 255 0162 FFF7FEFF 		bl	ls_openDir
 256 0166 0006     		lsl	r0, r0, #24
 257 0168 0028     		cmp	r0, #0
 258 016a 01D0     		beq	.L43
 259 016c 1448     		ldr	r0, .L46+68
 260 016e 03E0     		b	.L20
 261              	.L43:
 262 0170 144A     		ldr	r2, .L46+72
 263 0172 0123     		mov	r3, #1
 264 0174 1370     		strb	r3, [r2]
 265 0176 1448     		ldr	r0, .L46+76
 266              	.L20:
 267              		@ sp needed for prologue
 268 0178 02BC     		pop	{r1}
 269 017a 0847     		bx	r1
 270              	.L47:
 271              		.align	2
 272              	.L46:
 273 017c 00000000 		.word	efs
 274 0180 10000000 		.word	.LC14
 275 0184 14000000 		.word	.LC16
 276 0188 24000000 		.word	.LC18
 277 018c 34000000 		.word	.LC20
 278 0190 44000000 		.word	.LC22
 279 0194 54000000 		.word	.LC24
 280 0198 64000000 		.word	.LC26
 281 019c 74000000 		.word	.LC28
 282 01a0 84000000 		.word	.LC30
 283 01a4 94000000 		.word	.LC32
 284 01a8 A4000000 		.word	.LC34
 285 01ac B4000000 		.word	.LC36
 286 01b0 C4000000 		.word	.LC38
 287 01b4 00000000 		.word	list
 288 01b8 84020000 		.word	efs+644
 289 01bc D4000000 		.word	.LC42
 290 01c0 D8000000 		.word	.LC44
 291 01c4 00000000 		.word	mmcInitialized
 292 01c8 E0000000 		.word	.LC47
 293              		.size	initMMC, .-initMMC
 294              		.align	2
 295              		.global	format_file_name
 296              		.code 16
 297              		.thumb_func
 298              		.type	format_file_name, %function
 299              	format_file_name:
 300 01cc 70B5     		push	{r4, r5, r6, lr}
 301 01ce 061C     		mov	r6, r0
 302 01d0 0D1C     		mov	r5, r1
 303 01d2 CA1D     		add	r2, r1, #7
ARM GAS  /cygdrive/c/DOCUME~1/mkwapisz/LOCALS~1/Temp/cc3KJSTu.s 			page 7


 304 01d4 0724     		mov	r4, #7
 305 01d6 05E0     		b	.L49
 306              	.L50:
 307 01d8 631E     		sub	r3, r4, #1
 308 01da 1B06     		lsl	r3, r3, #24
 309 01dc 1C0E     		lsr	r4, r3, #24
 310 01de 013A     		sub	r2, r2, #1
 311 01e0 002C     		cmp	r4, #0
 312 01e2 02D0     		beq	.L51
 313              	.L49:
 314 01e4 1378     		ldrb	r3, [r2]
 315 01e6 202B     		cmp	r3, #32
 316 01e8 F6D0     		beq	.L50
 317              	.L51:
 318 01ea 621C     		add	r2, r4, #1
 319 01ec 301C     		mov	r0, r6
 320 01ee 291C     		mov	r1, r5
 321 01f0 FFF7FEFF 		bl	strncpy
 322 01f4 3419     		add	r4, r6, r4
 323 01f6 2E23     		mov	r3, #46
 324 01f8 6370     		strb	r3, [r4, #1]
 325 01fa AA7A     		ldrb	r2, [r5, #10]
 326 01fc 202A     		cmp	r2, #32
 327 01fe 01D0     		beq	.L52
 328 0200 0222     		mov	r2, #2
 329 0202 03E0     		b	.L54
 330              	.L52:
 331 0204 6B7A     		ldrb	r3, [r5, #9]
 332 0206 5340     		eor	r3, r3, r2
 333 0208 5B42     		neg	r3, r3
 334 020a DA0F     		lsr	r2, r3, #31
 335              	.L54:
 336 020c 291C     		mov	r1, r5
 337 020e A01C     		add	r0, r4, #2
 338 0210 0831     		add	r1, r1, #8
 339 0212 0132     		add	r2, r2, #1
 340 0214 FFF7FEFF 		bl	strncpy
 341 0218 0023     		mov	r3, #0
 342 021a 6371     		strb	r3, [r4, #5]
 343              		@ sp needed for prologue
 344 021c 70BC     		pop	{r4, r5, r6}
 345 021e 01BC     		pop	{r0}
 346 0220 0047     		bx	r0
 347              		.size	format_file_name, .-format_file_name
 348 0222 0000     		.align	2
 349              		.global	getFileNames
 350              		.code 16
 351              		.thumb_func
 352              		.type	getFileNames, %function
 353              	getFileNames:
 354 0224 70B5     		push	{r4, r5, r6, lr}
 355 0226 0026     		mov	r6, #0
 356 0228 16E0     		b	.L73
 357              	.L60:
 358 022a 104A     		ldr	r2, .L74
 359 022c 2B69     		ldr	r3, [r5, #16]
 360 022e 1340     		and	r3, r3, r2
ARM GAS  /cygdrive/c/DOCUME~1/mkwapisz/LOCALS~1/Temp/cc3KJSTu.s 			page 8


 361 0230 0F4A     		ldr	r2, .L74+4
 362 0232 9342     		cmp	r3, r2
 363 0234 10D1     		bne	.L73
 364 0236 0F4C     		ldr	r4, .L74+8
 365 0238 291C     		mov	r1, r5
 366 023a 0831     		add	r1, r1, #8
 367 023c 201C     		mov	r0, r4
 368 023e FFF7FEFF 		bl	format_file_name
 369 0242 0D4B     		ldr	r3, .L74+12
 370 0244 211C     		mov	r1, r4
 371 0246 F218     		add	r2, r6, r3
 372 0248 0D31     		add	r1, r1, #13
 373              	.L62:
 374 024a 2378     		ldrb	r3, [r4]
 375 024c 0134     		add	r4, r4, #1
 376 024e 1370     		strb	r3, [r2]
 377 0250 0132     		add	r2, r2, #1
 378 0252 8C42     		cmp	r4, r1
 379 0254 F9D1     		bne	.L62
 380 0256 0D36     		add	r6, r6, #13
 381              	.L73:
 382 0258 084D     		ldr	r5, .L74+16
 383 025a 281C     		mov	r0, r5
 384 025c FFF7FEFF 		bl	ls_getNext
 385 0260 0006     		lsl	r0, r0, #24
 386 0262 0028     		cmp	r0, #0
 387 0264 E1D0     		beq	.L60
 388              		@ sp needed for prologue
 389 0266 70BC     		pop	{r4, r5, r6}
 390 0268 01BC     		pop	{r0}
 391 026a 0047     		bx	r0
 392              	.L75:
 393              		.align	2
 394              	.L74:
 395 026c FFFFFF00 		.word	16777215
 396 0270 57415600 		.word	5652823
 397 0274 00000000 		.word	file_name
 398 0278 00000000 		.word	files
 399 027c 00000000 		.word	list
 400              		.size	getFileNames, .-getFileNames
 401              		.section	.rodata.str1.4
 402 00e3 00       		.subsection	-1
 403              		.align	2
 404              	.LC58:
 405 0000 00       		.ascii	"\000"
 406              		.global	__modsi3
 407              		.text
 408              		.align	2
 409              		.global	MMCproc
 410              		.code 16
 411              		.thumb_func
 412              		.type	MMCproc, %function
 413              	MMCproc:
 414 0280 30B5     		push	{r4, r5, lr}
 415 0282 FFF7FEFF 		bl	initMMC
 416 0286 584A     		ldr	r2, .L105
 417 0288 0121     		mov	r1, #1
ARM GAS  /cygdrive/c/DOCUME~1/mkwapisz/LOCALS~1/Temp/cc3KJSTu.s 			page 9


 418 028a 1170     		strb	r1, [r2]
 419 028c 0378     		ldrb	r3, [r0]
 420 028e 4F2B     		cmp	r3, #79
 421 0290 02D1     		bne	.L77
 422 0292 4378     		ldrb	r3, [r0, #1]
 423 0294 4B2B     		cmp	r3, #75
 424 0296 05D0     		beq	.L79
 425              	.L77:
 426 0298 544B     		ldr	r3, .L105+4
 427 029a 1960     		str	r1, [r3]
 428 029c 544B     		ldr	r3, .L105+8
 429 029e 1860     		str	r0, [r3]
 430 02a0 0023     		mov	r3, #0
 431 02a2 1370     		strb	r3, [r2]
 432              	.L79:
 433 02a4 534C     		ldr	r4, .L105+12
 434 02a6 5449     		ldr	r1, .L105+16
 435 02a8 544B     		ldr	r3, .L105+20
 436 02aa 6218     		add	r2, r4, r1
 437              	.L80:
 438 02ac 2370     		strb	r3, [r4]
 439 02ae 0D34     		add	r4, r4, #13
 440 02b0 9442     		cmp	r4, r2
 441 02b2 FBD1     		bne	.L80
 442 02b4 FFF7FEFF 		bl	getFileNames
 443 02b8 514B     		ldr	r3, .L105+24
 444 02ba 1B7B     		ldrb	r3, [r3, #12]
 445 02bc 5800     		lsl	r0, r3, #1
 446 02be C018     		add	r0, r0, r3
 447 02c0 504A     		ldr	r2, .L105+28
 448 02c2 8000     		lsl	r0, r0, #2
 449 02c4 C018     		add	r0, r0, r3
 450 02c6 A318     		add	r3, r4, r2
 451 02c8 C018     		add	r0, r0, r3
 452 02ca FFF7FEFF 		bl	testMMC
 453              	.L82:
 454 02ce 4E4D     		ldr	r5, .L105+32
 455 02d0 8024     		mov	r4, #128
 456 02d2 2B68     		ldr	r3, [r5]
 457 02d4 E402     		lsl	r4, r4, #11
 458 02d6 2342     		tst	r3, r4
 459 02d8 1ED1     		bne	.L83
 460 02da 1420     		mov	r0, #20
 461 02dc FFF7FEFF 		bl	osSleep
 462 02e0 2B68     		ldr	r3, [r5]
 463 02e2 1D1C     		mov	r5, r3
 464 02e4 2540     		and	r5, r4
 465 02e6 17D1     		bne	.L83
 466 02e8 4848     		ldr	r0, .L105+36
 467 02ea FFF7FEFF 		bl	file_fclose
 468 02ee 444C     		ldr	r4, .L105+24
 469 02f0 207B     		ldrb	r0, [r4, #12]
 470 02f2 0321     		mov	r1, #3
 471 02f4 0130     		add	r0, r0, #1
 472 02f6 FFF7FEFF 		bl	__modsi3
 473 02fa 0306     		lsl	r3, r0, #24
 474 02fc 1B0E     		lsr	r3, r3, #24
ARM GAS  /cygdrive/c/DOCUME~1/mkwapisz/LOCALS~1/Temp/cc3KJSTu.s 			page 10


 475 02fe 5800     		lsl	r0, r3, #1
 476 0300 C018     		add	r0, r0, r3
 477 0302 8000     		lsl	r0, r0, #2
 478 0304 2373     		strb	r3, [r4, #12]
 479 0306 C018     		add	r0, r0, r3
 480 0308 3A4B     		ldr	r3, .L105+12
 481 030a C018     		add	r0, r0, r3
 482 030c FFF7FEFF 		bl	testMMC
 483 0310 3F4A     		ldr	r2, .L105+40
 484 0312 0123     		mov	r3, #1
 485 0314 A560     		str	r5, [r4, #8]
 486 0316 1370     		strb	r3, [r2]
 487              	.L83:
 488 0318 3B4D     		ldr	r5, .L105+32
 489 031a 8024     		mov	r4, #128
 490 031c 2B68     		ldr	r3, [r5]
 491 031e 2403     		lsl	r4, r4, #12
 492 0320 2342     		tst	r3, r4
 493 0322 1ED1     		bne	.L86
 494 0324 1420     		mov	r0, #20
 495 0326 FFF7FEFF 		bl	osSleep
 496 032a 2B68     		ldr	r3, [r5]
 497 032c 1D1C     		mov	r5, r3
 498 032e 2540     		and	r5, r4
 499 0330 17D1     		bne	.L86
 500 0332 3648     		ldr	r0, .L105+36
 501 0334 FFF7FEFF 		bl	file_fclose
 502 0338 314C     		ldr	r4, .L105+24
 503 033a 207B     		ldrb	r0, [r4, #12]
 504 033c 0321     		mov	r1, #3
 505 033e 0138     		sub	r0, r0, #1
 506 0340 FFF7FEFF 		bl	__modsi3
 507 0344 0306     		lsl	r3, r0, #24
 508 0346 1B0E     		lsr	r3, r3, #24
 509 0348 5800     		lsl	r0, r3, #1
 510 034a C018     		add	r0, r0, r3
 511 034c 8000     		lsl	r0, r0, #2
 512 034e 2373     		strb	r3, [r4, #12]
 513 0350 C018     		add	r0, r0, r3
 514 0352 284B     		ldr	r3, .L105+12
 515 0354 C018     		add	r0, r0, r3
 516 0356 FFF7FEFF 		bl	testMMC
 517 035a 2E4A     		ldr	r2, .L105+44
 518 035c 0123     		mov	r3, #1
 519 035e A560     		str	r5, [r4, #8]
 520 0360 1370     		strb	r3, [r2]
 521              	.L86:
 522 0362 294D     		ldr	r5, .L105+32
 523 0364 8024     		mov	r4, #128
 524 0366 2B68     		ldr	r3, [r5]
 525 0368 A402     		lsl	r4, r4, #10
 526 036a 2342     		tst	r3, r4
 527 036c 0ED1     		bne	.L89
 528 036e 1420     		mov	r0, #20
 529 0370 FFF7FEFF 		bl	osSleep
 530 0374 2B68     		ldr	r3, [r5]
 531 0376 2342     		tst	r3, r4
ARM GAS  /cygdrive/c/DOCUME~1/mkwapisz/LOCALS~1/Temp/cc3KJSTu.s 			page 11


 532 0378 08D1     		bne	.L89
 533 037a 274A     		ldr	r2, .L105+48
 534 037c 0123     		mov	r3, #1
 535 037e 1370     		strb	r3, [r2]
 536 0380 264A     		ldr	r2, .L105+52
 537 0382 1378     		ldrb	r3, [r2]
 538 0384 082B     		cmp	r3, #8
 539 0386 01D8     		bhi	.L89
 540 0388 0133     		add	r3, r3, #1
 541 038a 1370     		strb	r3, [r2]
 542              	.L89:
 543 038c 1E4D     		ldr	r5, .L105+32
 544 038e 8024     		mov	r4, #128
 545 0390 2B68     		ldr	r3, [r5]
 546 0392 6403     		lsl	r4, r4, #13
 547 0394 2342     		tst	r3, r4
 548 0396 0ED1     		bne	.L93
 549 0398 1420     		mov	r0, #20
 550 039a FFF7FEFF 		bl	osSleep
 551 039e 2B68     		ldr	r3, [r5]
 552 03a0 2342     		tst	r3, r4
 553 03a2 08D1     		bne	.L93
 554 03a4 1E4A     		ldr	r2, .L105+56
 555 03a6 0123     		mov	r3, #1
 556 03a8 1370     		strb	r3, [r2]
 557 03aa 1C4A     		ldr	r2, .L105+52
 558 03ac 1378     		ldrb	r3, [r2]
 559 03ae 002B     		cmp	r3, #0
 560 03b0 01D0     		beq	.L93
 561 03b2 013B     		sub	r3, r3, #1
 562 03b4 1370     		strb	r3, [r2]
 563              	.L93:
 564 03b6 144D     		ldr	r5, .L105+32
 565 03b8 8024     		mov	r4, #128
 566 03ba 2B68     		ldr	r3, [r5]
 567 03bc E401     		lsl	r4, r4, #7
 568 03be 2342     		tst	r3, r4
 569 03c0 0ED1     		bne	.L97
 570 03c2 1420     		mov	r0, #20
 571 03c4 FFF7FEFF 		bl	osSleep
 572 03c8 2B68     		ldr	r3, [r5]
 573 03ca 191C     		mov	r1, r3
 574 03cc 2140     		and	r1, r4
 575 03ce 07D1     		bne	.L97
 576 03d0 144A     		ldr	r2, .L105+60
 577 03d2 1378     		ldrb	r3, [r2]
 578 03d4 002B     		cmp	r3, #0
 579 03d6 02D1     		bne	.L100
 580 03d8 0123     		mov	r3, #1
 581 03da 1370     		strb	r3, [r2]
 582 03dc 00E0     		b	.L97
 583              	.L100:
 584 03de 1170     		strb	r1, [r2]
 585              	.L97:
 586 03e0 0A20     		mov	r0, #10
 587 03e2 FFF7FEFF 		bl	osSleep
 588 03e6 72E7     		b	.L82
ARM GAS  /cygdrive/c/DOCUME~1/mkwapisz/LOCALS~1/Temp/cc3KJSTu.s 			page 12


 589              	.L106:
 590              		.align	2
 591              	.L105:
 592 03e8 00000000 		.word	mmcInitialized
 593 03ec 00000000 		.word	isError
 594 03f0 00000000 		.word	error
 595 03f4 00000000 		.word	files
 596 03f8 07050000 		.word	1287
 597 03fc 00000000 		.word	.LC58
 598 0400 00000000 		.word	currentSongInfo
 599 0404 F9FAFFFF 		.word	-1287
 600 0408 008002E0 		.word	-536707072
 601 040c 00000000 		.word	file
 602 0410 00000000 		.word	changeRight
 603 0414 00000000 		.word	changeLeft
 604 0418 00000000 		.word	volumeUp
 605 041c 00000000 		.word	currentVolume
 606 0420 00000000 		.word	volumeDown
 607 0424 00000000 		.word	displayMode
 608              		.size	MMCproc, .-MMCproc
 609              		.global	id3TagSize
 610              		.data
 611              		.type	id3TagSize, %object
 612              		.size	id3TagSize, 1
 613              	id3TagSize:
 614 0000 80       		.byte	-128
 615              		.global	readSize
 616              		.type	readSize, %object
 617              		.size	readSize, 1
 618              	readSize:
 619 0001 1E       		.byte	30
 620              		.global	titleOffset
 621 0002 0000     		.align	2
 622              		.type	titleOffset, %object
 623              		.size	titleOffset, 4
 624              	titleOffset:
 625 0004 03000000 		.word	3
 626              		.global	authorOffset
 627              		.align	2
 628              		.type	authorOffset, %object
 629              		.size	authorOffset, 4
 630              	authorOffset:
 631 0008 21000000 		.word	33
 632              		.comm	currentSongInfo,16,4
 633              		.comm	mmcInitialized,1,1
 634              		.comm	changeLeft,1,1
 635              		.comm	changeRight,1,1
 636              		.comm	rewindForward,1,1
 637              		.comm	rewindBackward,1,1
 638              		.comm	volumeUp,1,1
 639              		.comm	volumeDown,1,1
 640              		.comm	isError,4,4
 641              		.comm	error,4,4
 642              		.comm	displayMode,1,1
 643              		.comm	fileSize,4,4
 644              		.comm	myName,30,1
 645              		.comm	myAuthor,30,1
ARM GAS  /cygdrive/c/DOCUME~1/mkwapisz/LOCALS~1/Temp/cc3KJSTu.s 			page 13


 646              		.comm	efs,708,4
 647              		.comm	file,80,4
 648              		.comm	list,52,4
 649              		.comm	file_name,13,1
 650              		.comm	size,4,4
 651              		.comm	files,3328,1
 652              		.ident	"GCC: (GNU) 4.1.1"
ARM GAS  /cygdrive/c/DOCUME~1/mkwapisz/LOCALS~1/Temp/cc3KJSTu.s 			page 14


DEFINED SYMBOLS
                            *ABS*:00000000 testMMC.c
/cygdrive/c/DOCUME~1/mkwapisz/LOCALS~1/Temp/cc3KJSTu.s:1      .text:00000000 $t
/cygdrive/c/DOCUME~1/mkwapisz/LOCALS~1/Temp/cc3KJSTu.s:13     .text:00000000 testMMC
/cygdrive/c/DOCUME~1/mkwapisz/LOCALS~1/Temp/cc3KJSTu.s:113    .text:000000b8 $d
                            *COM*:000002c4 efs
                            *COM*:00000050 file
/cygdrive/c/DOCUME~1/mkwapisz/LOCALS~1/Temp/cc3KJSTu.s:618    .data:00000001 readSize
                            *COM*:0000001e myName
                            *COM*:0000001e myAuthor
/cygdrive/c/DOCUME~1/mkwapisz/LOCALS~1/Temp/cc3KJSTu.s:613    .data:00000000 id3TagSize
                            *COM*:00000004 fileSize
/cygdrive/c/DOCUME~1/mkwapisz/LOCALS~1/Temp/cc3KJSTu.s:624    .data:00000004 titleOffset
/cygdrive/c/DOCUME~1/mkwapisz/LOCALS~1/Temp/cc3KJSTu.s:630    .data:00000008 authorOffset
                            *COM*:00000010 currentSongInfo
/cygdrive/c/DOCUME~1/mkwapisz/LOCALS~1/Temp/cc3KJSTu.s:180    .text:000000e4 initMMC
/cygdrive/c/DOCUME~1/mkwapisz/LOCALS~1/Temp/cc3KJSTu.s:177    .text:000000e4 $t
/cygdrive/c/DOCUME~1/mkwapisz/LOCALS~1/Temp/cc3KJSTu.s:273    .text:0000017c $d
                            *COM*:00000034 list
                            *COM*:00000001 mmcInitialized
/cygdrive/c/DOCUME~1/mkwapisz/LOCALS~1/Temp/cc3KJSTu.s:299    .text:000001cc format_file_name
/cygdrive/c/DOCUME~1/mkwapisz/LOCALS~1/Temp/cc3KJSTu.s:296    .text:000001cc $t
/cygdrive/c/DOCUME~1/mkwapisz/LOCALS~1/Temp/cc3KJSTu.s:353    .text:00000224 getFileNames
/cygdrive/c/DOCUME~1/mkwapisz/LOCALS~1/Temp/cc3KJSTu.s:395    .text:0000026c $d
                            *COM*:0000000d file_name
                            *COM*:00000d00 files
/cygdrive/c/DOCUME~1/mkwapisz/LOCALS~1/Temp/cc3KJSTu.s:413    .text:00000280 MMCproc
/cygdrive/c/DOCUME~1/mkwapisz/LOCALS~1/Temp/cc3KJSTu.s:410    .text:00000280 $t
/cygdrive/c/DOCUME~1/mkwapisz/LOCALS~1/Temp/cc3KJSTu.s:592    .text:000003e8 $d
                            *COM*:00000004 isError
                            *COM*:00000004 error
                            *COM*:00000001 changeRight
                            *COM*:00000001 changeLeft
                            *COM*:00000001 volumeUp
                            *COM*:00000001 volumeDown
                            *COM*:00000001 displayMode
/cygdrive/c/DOCUME~1/mkwapisz/LOCALS~1/Temp/cc3KJSTu.s:625    .data:00000004 $d
                            *COM*:00000001 rewindForward
                            *COM*:00000001 rewindBackward
                            *COM*:00000004 size

UNDEFINED SYMBOLS
file_fopen
file_fread
startLCD
playWAV
efs_init
ls_openDir
strncpy
ls_getNext
__modsi3
osSleep
file_fclose
currentVolume
