ARM GAS  /cygdrive/c/DOCUME~1/mkwapisz/LOCALS~1/Temp/ccZPuwf2.s 			page 1


   1              		.code	16
   2              		.file	"testLcd.c"
   3              		.text
   4              		.align	2
   5              		.code 16
   6              		.thumb_func
   7              		.type	delay37us, %function
   8              	delay37us:
   9 0000 81B0     		sub	sp, sp, #4
  10 0002 0023     		mov	r3, #0
  11              		@ lr needed for prologue
  12 0004 02E0     		b	.L6
  13              	.L3:
  14 0006 C046     		 nop
  15              		.code	16
  16 0008 009B     		ldr	r3, [sp]
  17 000a 0133     		add	r3, r3, #1
  18              	.L6:
  19 000c 0093     		str	r3, [sp]
  20 000e 009A     		ldr	r2, [sp]
  21 0010 024B     		ldr	r3, .L7
  22 0012 9A42     		cmp	r2, r3
  23 0014 F7D9     		bls	.L3
  24 0016 01B0     		add	sp, sp, #4
  25              		@ sp needed for prologue
  26 0018 7047     		bx	lr
  27              	.L8:
  28 001a 0000     		.align	2
  29              	.L7:
  30 001c 973A0000 		.word	14999
  31              		.size	delay37us, .-delay37us
  32              		.align	2
  33              		.code 16
  34              		.thumb_func
  35              		.type	writeLCD, %function
  36              	writeLCD:
  37 0020 0906     		lsl	r1, r1, #24
  38 0022 0006     		lsl	r0, r0, #24
  39 0024 81B0     		sub	sp, sp, #4
  40              		@ lr needed for prologue
  41 0026 090E     		lsr	r1, r1, #24
  42 0028 0028     		cmp	r0, #0
  43 002a 03D1     		bne	.L10
  44 002c 8023     		mov	r3, #128
  45 002e 1D4A     		ldr	r2, .L21
  46 0030 5B04     		lsl	r3, r3, #17
  47 0032 02E0     		b	.L20
  48              	.L10:
  49 0034 8023     		mov	r3, #128
  50 0036 1C4A     		ldr	r2, .L21+4
  51 0038 5B04     		lsl	r3, r3, #17
  52              	.L20:
  53 003a 1360     		str	r3, [r2]
  54 003c 1B4A     		ldr	r2, .L21+8
  55 003e 8023     		mov	r3, #128
  56 0040 DB03     		lsl	r3, r3, #15
  57 0042 1360     		str	r3, [r2]
ARM GAS  /cygdrive/c/DOCUME~1/mkwapisz/LOCALS~1/Temp/ccZPuwf2.s 			page 2


  58 0044 174B     		ldr	r3, .L21
  59 0046 FF22     		mov	r2, #255
  60 0048 1204     		lsl	r2, r2, #16
  61 004a 1A60     		str	r2, [r3]
  62 004c 0B04     		lsl	r3, r1, #16
  63 004e 1340     		and	r3, r3, r2
  64 0050 154A     		ldr	r2, .L21+4
  65 0052 1360     		str	r3, [r2]
  66 0054 8023     		mov	r3, #128
  67 0056 9B04     		lsl	r3, r3, #18
  68 0058 1360     		str	r3, [r2]
  69 005a 6B46     		mov	r3, sp
  70 005c 0022     		mov	r2, #0
  71 005e 0333     		add	r3, r3, #3
  72 0060 1A70     		strb	r2, [r3]
  73 0062 05E0     		b	.L13
  74              	.L14:
  75 0064 C046     		 nop
  76              		.code	16
  77 0066 0B78     		ldrb	r3, [r1]
  78 0068 0133     		add	r3, r3, #1
  79 006a 1B06     		lsl	r3, r3, #24
  80 006c 1B0E     		lsr	r3, r3, #24
  81 006e 0B70     		strb	r3, [r1]
  82              	.L13:
  83 0070 6946     		mov	r1, sp
  84 0072 0331     		add	r1, r1, #3
  85 0074 0B78     		ldrb	r3, [r1]
  86 0076 0F2B     		cmp	r3, #15
  87 0078 F4D9     		bls	.L14
  88 007a 8023     		mov	r3, #128
  89 007c 094A     		ldr	r2, .L21
  90 007e 9B04     		lsl	r3, r3, #18
  91 0080 1360     		str	r3, [r2]
  92 0082 0023     		mov	r3, #0
  93 0084 0B70     		strb	r3, [r1]
  94 0086 05E0     		b	.L16
  95              	.L17:
  96 0088 C046     		 nop
  97              		.code	16
  98 008a 1378     		ldrb	r3, [r2]
  99 008c 0133     		add	r3, r3, #1
 100 008e 1B06     		lsl	r3, r3, #24
 101 0090 1B0E     		lsr	r3, r3, #24
 102 0092 1370     		strb	r3, [r2]
 103              	.L16:
 104 0094 6A46     		mov	r2, sp
 105 0096 0332     		add	r2, r2, #3
 106 0098 1378     		ldrb	r3, [r2]
 107 009a 0F2B     		cmp	r3, #15
 108 009c F4D9     		bls	.L17
 109 009e 01B0     		add	sp, sp, #4
 110              		@ sp needed for prologue
 111 00a0 7047     		bx	lr
 112              	.L22:
 113 00a2 0000     		.align	2
 114              	.L21:
ARM GAS  /cygdrive/c/DOCUME~1/mkwapisz/LOCALS~1/Temp/ccZPuwf2.s 			page 3


 115 00a4 1C8002E0 		.word	-536707044
 116 00a8 148002E0 		.word	-536707052
 117 00ac 0C8002E0 		.word	-536707060
 118              		.size	writeLCD, .-writeLCD
 119              		.global	__umodsi3
 120              		.align	2
 121              		.global	numberToChar
 122              		.code 16
 123              		.thumb_func
 124              		.type	numberToChar, %function
 125              	numberToChar:
 126 00b0 00B5     		push	{lr}
 127 00b2 0A21     		mov	r1, #10
 128 00b4 FFF7FEFF 		bl	__umodsi3
 129 00b8 3030     		add	r0, r0, #48
 130 00ba 0006     		lsl	r0, r0, #24
 131 00bc 000E     		lsr	r0, r0, #24
 132              		@ sp needed for prologue
 133 00be 02BC     		pop	{r1}
 134 00c0 0847     		bx	r1
 135              		.size	numberToChar, .-numberToChar
 136              		.global	__udivsi3
 137 00c2 0000     		.align	2
 138              		.global	timeToString
 139              		.code 16
 140              		.thumb_func
 141              		.type	timeToString, %function
 142              	timeToString:
 143 00c4 70B5     		push	{r4, r5, r6, lr}
 144 00c6 174B     		ldr	r3, .L28
 145 00c8 0E1C     		mov	r6, r1
 146 00ca 051C     		mov	r5, r0
 147 00cc 9842     		cmp	r0, r3
 148 00ce 00D9     		bls	.L26
 149 00d0 1D1C     		mov	r5, r3
 150              	.L26:
 151 00d2 281C     		mov	r0, r5
 152 00d4 3C21     		mov	r1, #60
 153 00d6 FFF7FEFF 		bl	__udivsi3
 154 00da 3C21     		mov	r1, #60
 155 00dc 041C     		mov	r4, r0
 156 00de 281C     		mov	r0, r5
 157 00e0 FFF7FEFF 		bl	__umodsi3
 158 00e4 0A21     		mov	r1, #10
 159 00e6 051C     		mov	r5, r0
 160 00e8 201C     		mov	r0, r4
 161 00ea FFF7FEFF 		bl	__udivsi3
 162 00ee 3030     		add	r0, r0, #48
 163 00f0 3070     		strb	r0, [r6]
 164 00f2 0A21     		mov	r1, #10
 165 00f4 201C     		mov	r0, r4
 166 00f6 FFF7FEFF 		bl	__umodsi3
 167 00fa 3A23     		mov	r3, #58
 168 00fc 3030     		add	r0, r0, #48
 169 00fe B370     		strb	r3, [r6, #2]
 170 0100 7070     		strb	r0, [r6, #1]
 171 0102 0A21     		mov	r1, #10
ARM GAS  /cygdrive/c/DOCUME~1/mkwapisz/LOCALS~1/Temp/ccZPuwf2.s 			page 4


 172 0104 281C     		mov	r0, r5
 173 0106 FFF7FEFF 		bl	__udivsi3
 174 010a 3030     		add	r0, r0, #48
 175 010c F070     		strb	r0, [r6, #3]
 176 010e 0A21     		mov	r1, #10
 177 0110 281C     		mov	r0, r5
 178 0112 FFF7FEFF 		bl	__umodsi3
 179 0116 0023     		mov	r3, #0
 180 0118 3030     		add	r0, r0, #48
 181 011a 3071     		strb	r0, [r6, #4]
 182 011c 7371     		strb	r3, [r6, #5]
 183              		@ sp needed for prologue
 184 011e 70BC     		pop	{r4, r5, r6}
 185 0120 01BC     		pop	{r0}
 186 0122 0047     		bx	r0
 187              	.L29:
 188              		.align	2
 189              	.L28:
 190 0124 0F0E0000 		.word	3599
 191              		.size	timeToString, .-timeToString
 192              		.align	2
 193              		.global	WriteString
 194              		.code 16
 195              		.thumb_func
 196              		.type	WriteString, %function
 197              	WriteString:
 198 0128 10B5     		push	{r4, lr}
 199 012a 041C     		mov	r4, r0
 200 012c 04E0     		b	.L31
 201              	.L32:
 202 012e 0120     		mov	r0, #1
 203 0130 FFF776FF 		bl	writeLCD
 204 0134 FFF764FF 		bl	delay37us
 205              	.L31:
 206 0138 2178     		ldrb	r1, [r4]
 207 013a 0134     		add	r4, r4, #1
 208 013c 0029     		cmp	r1, #0
 209 013e F6D1     		bne	.L32
 210              		@ sp needed for prologue
 211 0140 10BC     		pop	{r4}
 212 0142 01BC     		pop	{r0}
 213 0144 0047     		bx	r0
 214              		.size	WriteString, .-WriteString
 215 0146 0000     		.align	2
 216              		.global	ScreenShiftLeft
 217              		.code 16
 218              		.thumb_func
 219              		.type	ScreenShiftLeft, %function
 220              	ScreenShiftLeft:
 221 0148 00B5     		push	{lr}
 222 014a 0020     		mov	r0, #0
 223 014c 3821     		mov	r1, #56
 224 014e FFF767FF 		bl	writeLCD
 225 0152 FFF755FF 		bl	delay37us
 226 0156 1821     		mov	r1, #24
 227 0158 0020     		mov	r0, #0
 228 015a FFF761FF 		bl	writeLCD
ARM GAS  /cygdrive/c/DOCUME~1/mkwapisz/LOCALS~1/Temp/ccZPuwf2.s 			page 5


 229 015e 0120     		mov	r0, #1
 230 0160 FFF7FEFF 		bl	osSleep
 231 0164 0020     		mov	r0, #0
 232 0166 0621     		mov	r1, #6
 233 0168 FFF75AFF 		bl	writeLCD
 234 016c 0120     		mov	r0, #1
 235 016e FFF7FEFF 		bl	osSleep
 236              		@ sp needed for prologue
 237 0172 01BC     		pop	{r0}
 238 0174 0047     		bx	r0
 239              		.size	ScreenShiftLeft, .-ScreenShiftLeft
 240 0176 0000     		.align	2
 241              		.global	clearScr
 242              		.code 16
 243              		.thumb_func
 244              		.type	clearScr, %function
 245              	clearScr:
 246 0178 00B5     		push	{lr}
 247 017a 214A     		ldr	r2, .L39
 248 017c 8023     		mov	r3, #128
 249 017e DB05     		lsl	r3, r3, #23
 250 0180 1360     		str	r3, [r2]
 251 0182 3220     		mov	r0, #50
 252 0184 FFF7FEFF 		bl	osSleep
 253 0188 3021     		mov	r1, #48
 254 018a 0020     		mov	r0, #0
 255 018c FFF748FF 		bl	writeLCD
 256 0190 0120     		mov	r0, #1
 257 0192 FFF7FEFF 		bl	osSleep
 258 0196 0020     		mov	r0, #0
 259 0198 3021     		mov	r1, #48
 260 019a FFF741FF 		bl	writeLCD
 261 019e FFF72FFF 		bl	delay37us
 262 01a2 0020     		mov	r0, #0
 263 01a4 3021     		mov	r1, #48
 264 01a6 FFF73BFF 		bl	writeLCD
 265 01aa FFF729FF 		bl	delay37us
 266 01ae 0020     		mov	r0, #0
 267 01b0 3821     		mov	r1, #56
 268 01b2 FFF735FF 		bl	writeLCD
 269 01b6 FFF723FF 		bl	delay37us
 270 01ba 0020     		mov	r0, #0
 271 01bc 0821     		mov	r1, #8
 272 01be FFF72FFF 		bl	writeLCD
 273 01c2 FFF71DFF 		bl	delay37us
 274 01c6 0121     		mov	r1, #1
 275 01c8 0020     		mov	r0, #0
 276 01ca FFF729FF 		bl	writeLCD
 277 01ce 0120     		mov	r0, #1
 278 01d0 FFF7FEFF 		bl	osSleep
 279 01d4 0621     		mov	r1, #6
 280 01d6 0020     		mov	r0, #0
 281 01d8 FFF722FF 		bl	writeLCD
 282 01dc 0120     		mov	r0, #1
 283 01de FFF7FEFF 		bl	osSleep
 284 01e2 0020     		mov	r0, #0
 285 01e4 0C21     		mov	r1, #12
ARM GAS  /cygdrive/c/DOCUME~1/mkwapisz/LOCALS~1/Temp/ccZPuwf2.s 			page 6


 286 01e6 FFF71BFF 		bl	writeLCD
 287 01ea FFF709FF 		bl	delay37us
 288 01ee 0020     		mov	r0, #0
 289 01f0 0221     		mov	r1, #2
 290 01f2 FFF715FF 		bl	writeLCD
 291 01f6 0120     		mov	r0, #1
 292 01f8 FFF7FEFF 		bl	osSleep
 293              		@ sp needed for prologue
 294 01fc 01BC     		pop	{r0}
 295 01fe 0047     		bx	r0
 296              	.L40:
 297              		.align	2
 298              	.L39:
 299 0200 048002E0 		.word	-536707068
 300              		.size	clearScr, .-clearScr
 301              		.align	2
 302              		.global	testLcd
 303              		.code 16
 304              		.thumb_func
 305              		.type	testLcd, %function
 306              	testLcd:
 307 0204 10B5     		push	{r4, lr}
 308 0206 2D4A     		ldr	r2, .L62
 309 0208 2D49     		ldr	r1, .L62+4
 310 020a 1368     		ldr	r3, [r2]
 311 020c 0B43     		orr	r3, r3, r1
 312 020e 1360     		str	r3, [r2]
 313 0210 2C4B     		ldr	r3, .L62+8
 314 0212 1960     		str	r1, [r3]
 315 0214 2C49     		ldr	r1, .L62+12
 316 0216 8022     		mov	r2, #128
 317 0218 0B68     		ldr	r3, [r1]
 318 021a 2C48     		ldr	r0, .L62+16
 319 021c D203     		lsl	r2, r2, #15
 320 021e 1343     		orr	r3, r3, r2
 321 0220 0B60     		str	r3, [r1]
 322 0222 0260     		str	r2, [r0]
 323 0224 8022     		mov	r2, #128
 324 0226 0B68     		ldr	r3, [r1]
 325 0228 D205     		lsl	r2, r2, #23
 326 022a 1343     		orr	r3, r3, r2
 327 022c 0B60     		str	r3, [r1]
 328 022e 0260     		str	r2, [r0]
 329 0230 274B     		ldr	r3, .L62+20
 330 0232 2849     		ldr	r1, .L62+24
 331 0234 1B78     		ldrb	r3, [r3]
 332 0236 82B0     		sub	sp, sp, #8
 333 0238 0B70     		strb	r3, [r1]
 334 023a 0260     		str	r2, [r0]
 335 023c 0A20     		mov	r0, #10
 336              	.L60:
 337 023e FFF7FEFF 		bl	osSleep
 338 0242 FFF7FEFF 		bl	clearScr
 339 0246 244C     		ldr	r4, .L62+28
 340 0248 2378     		ldrb	r3, [r4]
 341 024a 002B     		cmp	r3, #0
 342 024c 03D1     		bne	.L43
ARM GAS  /cygdrive/c/DOCUME~1/mkwapisz/LOCALS~1/Temp/ccZPuwf2.s 			page 7


 343 024e 234B     		ldr	r3, .L62+32
 344 0250 1B78     		ldrb	r3, [r3]
 345 0252 002B     		cmp	r3, #0
 346 0254 13D0     		beq	.L45
 347              	.L43:
 348 0256 224B     		ldr	r3, .L62+36
 349 0258 1878     		ldrb	r0, [r3]
 350 025a FFF7FEFF 		bl	numberToChar
 351 025e 011C     		mov	r1, r0
 352 0260 0120     		mov	r0, #1
 353 0262 FFF7DDFE 		bl	writeLCD
 354 0266 2378     		ldrb	r3, [r4]
 355 0268 002B     		cmp	r3, #0
 356 026a 01D0     		beq	.L46
 357 026c 0023     		mov	r3, #0
 358 026e 2370     		strb	r3, [r4]
 359              	.L46:
 360 0270 1A4A     		ldr	r2, .L62+32
 361 0272 1378     		ldrb	r3, [r2]
 362 0274 002B     		cmp	r3, #0
 363 0276 1CD0     		beq	.L48
 364 0278 0023     		mov	r3, #0
 365 027a 1370     		strb	r3, [r2]
 366 027c 19E0     		b	.L48
 367              	.L45:
 368 027e 194B     		ldr	r3, .L62+40
 369 0280 1B68     		ldr	r3, [r3]
 370 0282 002B     		cmp	r3, #0
 371 0284 11D1     		bne	.L50
 372 0286 184C     		ldr	r4, .L62+44
 373 0288 2068     		ldr	r0, [r4]
 374 028a FFF7FEFF 		bl	WriteString
 375 028e 0020     		mov	r0, #0
 376 0290 C021     		mov	r1, #192
 377 0292 FFF7C5FE 		bl	writeLCD
 378 0296 FFF7B3FE 		bl	delay37us
 379 029a A068     		ldr	r0, [r4, #8]
 380 029c 6C46     		mov	r4, sp
 381 029e 0234     		add	r4, r4, #2
 382 02a0 211C     		mov	r1, r4
 383 02a2 FFF7FEFF 		bl	timeToString
 384 02a6 201C     		mov	r0, r4
 385 02a8 01E0     		b	.L61
 386              	.L50:
 387 02aa 104B     		ldr	r3, .L62+48
 388 02ac 1868     		ldr	r0, [r3]
 389              	.L61:
 390 02ae FFF7FEFF 		bl	WriteString
 391              	.L48:
 392 02b2 3220     		mov	r0, #50
 393 02b4 FFF7FEFF 		bl	osSleep
 394 02b8 0120     		mov	r0, #1
 395 02ba C0E7     		b	.L60
 396              	.L63:
 397              		.align	2
 398              	.L62:
 399 02bc 188002E0 		.word	-536707048
ARM GAS  /cygdrive/c/DOCUME~1/mkwapisz/LOCALS~1/Temp/ccZPuwf2.s 			page 8


 400 02c0 0000FF03 		.word	67043328
 401 02c4 1C8002E0 		.word	-536707044
 402 02c8 088002E0 		.word	-536707064
 403 02cc 0C8002E0 		.word	-536707060
 404 02d0 00000000 		.word	displayMode
 405 02d4 00000000 		.word	currentDisplayMode
 406 02d8 00000000 		.word	volumeUp
 407 02dc 00000000 		.word	volumeDown
 408 02e0 00000000 		.word	currentVolume
 409 02e4 00000000 		.word	isError
 410 02e8 00000000 		.word	currentSongInfo
 411 02ec 00000000 		.word	error
 412              		.size	testLcd, .-testLcd
 413              		.comm	currentDisplayMode,1,1
 414              		.ident	"GCC: (GNU) 4.1.1"
ARM GAS  /cygdrive/c/DOCUME~1/mkwapisz/LOCALS~1/Temp/ccZPuwf2.s 			page 9


DEFINED SYMBOLS
                            *ABS*:00000000 testLcd.c
/cygdrive/c/DOCUME~1/mkwapisz/LOCALS~1/Temp/ccZPuwf2.s:1      .text:00000000 $t
/cygdrive/c/DOCUME~1/mkwapisz/LOCALS~1/Temp/ccZPuwf2.s:8      .text:00000000 delay37us
/cygdrive/c/DOCUME~1/mkwapisz/LOCALS~1/Temp/ccZPuwf2.s:30     .text:0000001c $d
/cygdrive/c/DOCUME~1/mkwapisz/LOCALS~1/Temp/ccZPuwf2.s:33     .text:00000020 $t
/cygdrive/c/DOCUME~1/mkwapisz/LOCALS~1/Temp/ccZPuwf2.s:36     .text:00000020 writeLCD
/cygdrive/c/DOCUME~1/mkwapisz/LOCALS~1/Temp/ccZPuwf2.s:115    .text:000000a4 $d
/cygdrive/c/DOCUME~1/mkwapisz/LOCALS~1/Temp/ccZPuwf2.s:125    .text:000000b0 numberToChar
/cygdrive/c/DOCUME~1/mkwapisz/LOCALS~1/Temp/ccZPuwf2.s:122    .text:000000b0 $t
/cygdrive/c/DOCUME~1/mkwapisz/LOCALS~1/Temp/ccZPuwf2.s:142    .text:000000c4 timeToString
/cygdrive/c/DOCUME~1/mkwapisz/LOCALS~1/Temp/ccZPuwf2.s:190    .text:00000124 $d
/cygdrive/c/DOCUME~1/mkwapisz/LOCALS~1/Temp/ccZPuwf2.s:197    .text:00000128 WriteString
/cygdrive/c/DOCUME~1/mkwapisz/LOCALS~1/Temp/ccZPuwf2.s:194    .text:00000128 $t
/cygdrive/c/DOCUME~1/mkwapisz/LOCALS~1/Temp/ccZPuwf2.s:220    .text:00000148 ScreenShiftLeft
/cygdrive/c/DOCUME~1/mkwapisz/LOCALS~1/Temp/ccZPuwf2.s:245    .text:00000178 clearScr
/cygdrive/c/DOCUME~1/mkwapisz/LOCALS~1/Temp/ccZPuwf2.s:299    .text:00000200 $d
/cygdrive/c/DOCUME~1/mkwapisz/LOCALS~1/Temp/ccZPuwf2.s:306    .text:00000204 testLcd
/cygdrive/c/DOCUME~1/mkwapisz/LOCALS~1/Temp/ccZPuwf2.s:303    .text:00000204 $t
/cygdrive/c/DOCUME~1/mkwapisz/LOCALS~1/Temp/ccZPuwf2.s:399    .text:000002bc $d
                            *COM*:00000001 currentDisplayMode

UNDEFINED SYMBOLS
__umodsi3
__udivsi3
osSleep
displayMode
volumeUp
volumeDown
currentVolume
isError
currentSongInfo
error
