ARM GAS  /cygdrive/c/DOCUME~1/mkwapisz/LOCALS~1/Temp/ccxkxRSv.s 			page 1


   1              		.code	16
   2              		.file	"wavplayer.c"
   3              		.text
   4              		.align	2
   5              		.global	zeroBuffer
   6              		.code 16
   7              		.thumb_func
   8              		.type	zeroBuffer, %function
   9              	zeroBuffer:
  10 0000 014A     		ldr	r2, .L3
  11 0002 0023     		mov	r3, #0
  12              		@ lr needed for prologue
  13 0004 1370     		strb	r3, [r2]
  14              		@ sp needed for prologue
  15 0006 7047     		bx	lr
  16              	.L4:
  17              		.align	2
  18              	.L3:
  19 0008 00000000 		.word	soundTable
  20              		.size	zeroBuffer, .-zeroBuffer
  21              		.global	__floatsisf
  22              		.global	__addsf3
  23              		.global	__divsf3
  24              		.global	__mulsf3
  25              		.global	__fixsfsi
  26              		.align	2
  27              		.global	sendToDAC
  28              		.code 16
  29              		.thumb_func
  30              		.type	sendToDAC, %function
  31              	sendToDAC:
  32 000c 30B5     		push	{r4, r5, lr}
  33 000e 174B     		ldr	r3, .L10
  34 0010 0006     		lsl	r0, r0, #24
  35 0012 C00D     		lsr	r0, r0, #23
  36 0014 C018     		add	r0, r0, r3
  37 0016 FFF7FEFF 		bl	__floatsisf
  38 001a 154B     		ldr	r3, .L10+4
  39 001c 0024     		mov	r4, #0
  40 001e 1C57     		ldrsb	r4, [r3, r4]
  41 0020 051C     		add	r5, r0, #0
  42 0022 201C     		mov	r0, r4
  43 0024 FFF7FEFF 		bl	__floatsisf
  44 0028 002C     		cmp	r4, #0
  45 002a 02DA     		bge	.L6
  46 002c 1149     		ldr	r1, .L10+8
  47 002e FFF7FEFF 		bl	__addsf3
  48              	.L6:
  49 0032 1149     		ldr	r1, .L10+12
  50 0034 FFF7FEFF 		bl	__divsf3
  51 0038 011C     		add	r1, r0, #0
  52 003a 281C     		add	r0, r5, #0
  53 003c FFF7FEFF 		bl	__mulsf3
  54 0040 FFF7FEFF 		bl	__fixsfsi
  55 0044 031C     		mov	r3, r0
  56 0046 7F33     		add	r3, r3, #127
  57 0048 02DA     		bge	.L7
ARM GAS  /cygdrive/c/DOCUME~1/mkwapisz/LOCALS~1/Temp/ccxkxRSv.s 			page 2


  58 004a 7F20     		mov	r0, #127
  59 004c 4042     		neg	r0, r0
  60 004e 02E0     		b	.L8
  61              	.L7:
  62 0050 7F28     		cmp	r0, #127
  63 0052 00DD     		ble	.L8
  64 0054 7F20     		mov	r0, #127
  65              	.L8:
  66 0056 031C     		mov	r3, r0
  67 0058 8033     		add	r3, r3, #128
  68 005a 8022     		mov	r2, #128
  69 005c 5202     		lsl	r2, r2, #9
  70 005e 1B02     		lsl	r3, r3, #8
  71 0060 1343     		orr	r3, r3, r2
  72 0062 064A     		ldr	r2, .L10+16
  73              		@ sp needed for prologue
  74 0064 1360     		str	r3, [r2]
  75 0066 30BC     		pop	{r4, r5}
  76 0068 01BC     		pop	{r0}
  77 006a 0047     		bx	r0
  78              	.L11:
  79              		.align	2
  80              	.L10:
  81 006c 00FFFFFF 		.word	-256
  82 0070 00000000 		.word	currentVolume
  83 0074 00008043 		.word	1132462080
  84 0078 00002041 		.word	1092616192
  85 007c 00C006E0 		.word	-536428544
  86              		.size	sendToDAC, .-sendToDAC
  87              		.global	__floatsidf
  88              		.global	__adddf3
  89              		.global	__fixdfsi
  90              		.global	__subdf3
  91              		.align	2
  92              		.global	ISR_RTC
  93              		.code 16
  94              		.thumb_func
  95              		.type	ISR_RTC, %function
  96              	ISR_RTC:
  97 0080 10B5     		push	{r4, lr}
  98 0082 1E4B     		ldr	r3, .L24
  99 0084 1B78     		ldrb	r3, [r3]
 100 0086 002B     		cmp	r3, #0
 101 0088 1DD1     		bne	.L13
 102 008a 1D4B     		ldr	r3, .L24+4
 103 008c 1B78     		ldrb	r3, [r3]
 104 008e 012B     		cmp	r3, #1
 105 0090 0AD1     		bne	.L15
 106 0092 1C4C     		ldr	r4, .L24+8
 107 0094 2068     		ldr	r0, [r4]
 108 0096 FFF7FEFF 		bl	__floatsidf
 109 009a 1B4A     		ldr	r2, .L24+12
 110 009c 1B4B     		ldr	r3, .L24+16
 111 009e FFF7FEFF 		bl	__adddf3
 112 00a2 FFF7FEFF 		bl	__fixdfsi
 113 00a6 2060     		str	r0, [r4]
 114              	.L15:
ARM GAS  /cygdrive/c/DOCUME~1/mkwapisz/LOCALS~1/Temp/ccxkxRSv.s 			page 3


 115 00a8 194B     		ldr	r3, .L24+20
 116 00aa 1B78     		ldrb	r3, [r3]
 117 00ac 012B     		cmp	r3, #1
 118 00ae 0AD1     		bne	.L13
 119 00b0 144C     		ldr	r4, .L24+8
 120 00b2 2068     		ldr	r0, [r4]
 121 00b4 FFF7FEFF 		bl	__floatsidf
 122 00b8 134A     		ldr	r2, .L24+12
 123 00ba 144B     		ldr	r3, .L24+16
 124 00bc FFF7FEFF 		bl	__subdf3
 125 00c0 FFF7FEFF 		bl	__fixdfsi
 126 00c4 2060     		str	r0, [r4]
 127              	.L13:
 128 00c6 134B     		ldr	r3, .L24+24
 129 00c8 1A68     		ldr	r2, [r3]
 130 00ca 0433     		add	r3, r3, #4
 131 00cc 1968     		ldr	r1, [r3]
 132 00ce 0B01     		lsl	r3, r1, #4
 133 00d0 5B1A     		sub	r3, r3, r1
 134 00d2 9B00     		lsl	r3, r3, #2
 135 00d4 D218     		add	r2, r2, r3
 136 00d6 0B4B     		ldr	r3, .L24+8
 137 00d8 1B68     		ldr	r3, [r3]
 138 00da 0F48     		ldr	r0, .L24+28
 139 00dc D218     		add	r2, r2, r3
 140 00de 8260     		str	r2, [r0, #8]
 141 00e0 0E4A     		ldr	r2, .L24+32
 142 00e2 1378     		ldrb	r3, [r2]
 143 00e4 022B     		cmp	r3, #2
 144 00e6 01D1     		bne	.L18
 145 00e8 0323     		mov	r3, #3
 146 00ea 02E0     		b	.L23
 147              	.L18:
 148 00ec 032B     		cmp	r3, #3
 149 00ee 01D1     		bne	.L22
 150 00f0 0223     		mov	r3, #2
 151              	.L23:
 152 00f2 1370     		strb	r3, [r2]
 153              	.L22:
 154              		@ sp needed for prologue
 155 00f4 10BC     		pop	{r4}
 156 00f6 01BC     		pop	{r0}
 157 00f8 0047     		bx	r0
 158              	.L25:
 159 00fa 0000     		.align	2
 160              	.L24:
 161 00fc 00000000 		.word	canPlay
 162 0100 00000000 		.word	rewindForward
 163 0104 00000000 		.word	rewTime
 164 0108 00002040 		.word	1075838976
 165 010c 00000000 		.word	0
 166 0110 00000000 		.word	rewindBackward
 167 0114 204002E0 		.word	-536723424
 168 0118 00000000 		.word	currentSongInfo
 169 011c 00000000 		.word	displayMode
 170              		.size	ISR_RTC, .-ISR_RTC
 171              		.align	2
ARM GAS  /cygdrive/c/DOCUME~1/mkwapisz/LOCALS~1/Temp/ccxkxRSv.s 			page 4


 172              		.global	ISR
 173              		.code 16
 174              		.thumb_func
 175              		.type	ISR, %function
 176              	ISR:
 177 0120 F0B5     		push	{r4, r5, r6, r7, lr}
 178 0122 654F     		ldr	r7, .L66
 179 0124 3B78     		ldrb	r3, [r7]
 180 0126 81B0     		sub	sp, sp, #4
 181 0128 002B     		cmp	r3, #0
 182 012a 0ED0     		beq	.L27
 183 012c 634B     		ldr	r3, .L66+4
 184 012e 6C46     		mov	r4, sp
 185 0130 0334     		add	r4, r4, #3
 186 0132 1868     		ldr	r0, [r3]
 187 0134 221C     		mov	r2, r4
 188 0136 0121     		mov	r1, #1
 189 0138 FFF7FEFF 		bl	file_read
 190 013c 604A     		ldr	r2, .L66+8
 191 013e 1368     		ldr	r3, [r2]
 192 0140 0133     		add	r3, r3, #1
 193 0142 1360     		str	r3, [r2]
 194 0144 2078     		ldrb	r0, [r4]
 195 0146 FFF7FEFF 		bl	sendToDAC
 196              	.L27:
 197 014a 5C4B     		ldr	r3, .L66+4
 198 014c 1D68     		ldr	r5, [r3]
 199 014e 5D4B     		ldr	r3, .L66+12
 200 0150 1B68     		ldr	r3, [r3]
 201 0152 AE6C     		ldr	r6, [r5, #72]
 202 0154 803B     		sub	r3, r3, #128
 203 0156 9E42     		cmp	r6, r3
 204 0158 02D9     		bls	.L29
 205 015a FFF7FEFF 		bl	StopInterrupts
 206 015e 8CE0     		b	.L65
 207              	.L29:
 208 0160 594C     		ldr	r4, .L66+16
 209 0162 8020     		mov	r0, #128
 210 0164 2368     		ldr	r3, [r4]
 211 0166 0003     		lsl	r0, r0, #12
 212 0168 0342     		tst	r3, r0
 213 016a 1DD1     		bne	.L32
 214 016c 574B     		ldr	r3, .L66+20
 215 016e 1A68     		ldr	r2, [r3]
 216 0170 5749     		ldr	r1, .L66+24
 217 0172 0132     		add	r2, r2, #1
 218 0174 1A60     		str	r2, [r3]
 219 0176 0B68     		ldr	r3, [r1]
 220 0178 013B     		sub	r3, r3, #1
 221 017a 0B60     		str	r3, [r1]
 222 017c 554B     		ldr	r3, .L66+28
 223 017e 9A42     		cmp	r2, r3
 224 0180 00D8     		bhi	.LCB222
 225 0182 95E0     		b	.L61	@long jump
 226              	.LCB222:
 227 0184 2368     		ldr	r3, [r4]
 228 0186 1840     		and	r0, r3
ARM GAS  /cygdrive/c/DOCUME~1/mkwapisz/LOCALS~1/Temp/ccxkxRSv.s 			page 5


 229 0188 00D0     		beq	.LCB226
 230 018a 91E0     		b	.L61	@long jump
 231              	.LCB226:
 232 018c 2C2E     		cmp	r6, #44
 233 018e 00D8     		bhi	.LCB228
 234 0190 8EE0     		b	.L61	@long jump
 235              	.LCB228:
 236 0192 514A     		ldr	r2, .L66+32
 237 0194 0123     		mov	r3, #1
 238 0196 1370     		strb	r3, [r2]
 239 0198 504A     		ldr	r2, .L66+36
 240 019a 0223     		mov	r3, #2
 241 019c 3870     		strb	r0, [r7]
 242 019e 0860     		str	r0, [r1]
 243 01a0 1370     		strb	r3, [r2]
 244 01a2 AB6C     		ldr	r3, [r5, #72]
 245 01a4 0A3B     		sub	r3, r3, #10
 246 01a6 1FE0     		b	.L64
 247              	.L32:
 248 01a8 8020     		mov	r0, #128
 249 01aa 2368     		ldr	r3, [r4]
 250 01ac C002     		lsl	r0, r0, #11
 251 01ae 0342     		tst	r3, r0
 252 01b0 1CD1     		bne	.L37
 253 01b2 464B     		ldr	r3, .L66+20
 254 01b4 1A68     		ldr	r2, [r3]
 255 01b6 4649     		ldr	r1, .L66+24
 256 01b8 0132     		add	r2, r2, #1
 257 01ba 1A60     		str	r2, [r3]
 258 01bc 0B68     		ldr	r3, [r1]
 259 01be 0133     		add	r3, r3, #1
 260 01c0 0B60     		str	r3, [r1]
 261 01c2 444B     		ldr	r3, .L66+28
 262 01c4 9A42     		cmp	r2, r3
 263 01c6 73D9     		bls	.L61
 264 01c8 2368     		ldr	r3, [r4]
 265 01ca 1840     		and	r0, r3
 266 01cc 70D1     		bne	.L61
 267 01ce EB6C     		ldr	r3, [r5, #76]
 268 01d0 9E42     		cmp	r6, r3
 269 01d2 6DD2     		bcs	.L61
 270 01d4 424A     		ldr	r2, .L66+40
 271 01d6 0123     		mov	r3, #1
 272 01d8 1370     		strb	r3, [r2]
 273 01da 404A     		ldr	r2, .L66+36
 274 01dc 0223     		mov	r3, #2
 275 01de 3870     		strb	r0, [r7]
 276 01e0 0860     		str	r0, [r1]
 277 01e2 1370     		strb	r3, [r2]
 278 01e4 AB6C     		ldr	r3, [r5, #72]
 279 01e6 0A33     		add	r3, r3, #10
 280              	.L64:
 281 01e8 AB64     		str	r3, [r5, #72]
 282 01ea 61E0     		b	.L61
 283              	.L37:
 284 01ec 8020     		mov	r0, #128
 285 01ee 2368     		ldr	r3, [r4]
ARM GAS  /cygdrive/c/DOCUME~1/mkwapisz/LOCALS~1/Temp/ccxkxRSv.s 			page 6


 286 01f0 8002     		lsl	r0, r0, #10
 287 01f2 0342     		tst	r3, r0
 288 01f4 0ED1     		bne	.L42
 289 01f6 3549     		ldr	r1, .L66+20
 290 01f8 0B68     		ldr	r3, [r1]
 291 01fa 3A4A     		ldr	r2, .L66+44
 292 01fc 0133     		add	r3, r3, #1
 293 01fe 0B60     		str	r3, [r1]
 294 0200 9342     		cmp	r3, r2
 295 0202 55D9     		bls	.L61
 296 0204 2368     		ldr	r3, [r4]
 297 0206 0340     		and	r3, r0
 298 0208 52D1     		bne	.L61
 299 020a 0B60     		str	r3, [r1]
 300 020c 364A     		ldr	r2, .L66+48
 301              	.L62:
 302 020e 0123     		mov	r3, #1
 303              	.L63:
 304 0210 1370     		strb	r3, [r2]
 305 0212 4DE0     		b	.L61
 306              	.L42:
 307 0214 8020     		mov	r0, #128
 308 0216 2368     		ldr	r3, [r4]
 309 0218 4003     		lsl	r0, r0, #13
 310 021a 0342     		tst	r3, r0
 311 021c 0CD1     		bne	.L46
 312 021e 2B49     		ldr	r1, .L66+20
 313 0220 0B68     		ldr	r3, [r1]
 314 0222 304A     		ldr	r2, .L66+44
 315 0224 0133     		add	r3, r3, #1
 316 0226 0B60     		str	r3, [r1]
 317 0228 9342     		cmp	r3, r2
 318 022a 41D9     		bls	.L61
 319 022c 2368     		ldr	r3, [r4]
 320 022e 0340     		and	r3, r0
 321 0230 3ED1     		bne	.L61
 322 0232 2E4A     		ldr	r2, .L66+52
 323 0234 0B60     		str	r3, [r1]
 324 0236 EAE7     		b	.L62
 325              	.L46:
 326 0238 8020     		mov	r0, #128
 327 023a 2368     		ldr	r3, [r4]
 328 023c C001     		lsl	r0, r0, #7
 329 023e 0342     		tst	r3, r0
 330 0240 10D1     		bne	.L50
 331 0242 2249     		ldr	r1, .L66+20
 332 0244 0B68     		ldr	r3, [r1]
 333 0246 274A     		ldr	r2, .L66+44
 334 0248 0133     		add	r3, r3, #1
 335 024a 0B60     		str	r3, [r1]
 336 024c 9342     		cmp	r3, r2
 337 024e 2FD9     		bls	.L61
 338 0250 2368     		ldr	r3, [r4]
 339 0252 0340     		and	r3, r0
 340 0254 2CD1     		bne	.L61
 341 0256 214A     		ldr	r2, .L66+36
 342 0258 0B60     		str	r3, [r1]
ARM GAS  /cygdrive/c/DOCUME~1/mkwapisz/LOCALS~1/Temp/ccxkxRSv.s 			page 7


 343 025a 1378     		ldrb	r3, [r2]
 344 025c 002B     		cmp	r3, #0
 345 025e 27D1     		bne	.L61
 346 0260 0223     		mov	r3, #2
 347 0262 D5E7     		b	.L63
 348              	.L50:
 349 0264 1A4C     		ldr	r4, .L66+24
 350 0266 1F4B     		ldr	r3, .L66+44
 351 0268 2268     		ldr	r2, [r4]
 352 026a 9A42     		cmp	r2, r3
 353 026c 07DD     		ble	.L55
 354 026e FFF7FEFF 		bl	StopInterrupts
 355 0272 164A     		ldr	r2, .L66+20
 356 0274 0023     		mov	r3, #0
 357 0276 1360     		str	r3, [r2]
 358 0278 2360     		str	r3, [r4]
 359              	.L65:
 360 027a 1D4A     		ldr	r2, .L66+56
 361 027c C7E7     		b	.L62
 362              	.L55:
 363 027e 1D4B     		ldr	r3, .L66+60
 364 0280 9A42     		cmp	r2, r3
 365 0282 07DA     		bge	.L57
 366 0284 FFF7FEFF 		bl	StopInterrupts
 367 0288 104A     		ldr	r2, .L66+20
 368 028a 0023     		mov	r3, #0
 369 028c 1360     		str	r3, [r2]
 370 028e 1A4A     		ldr	r2, .L66+64
 371 0290 2360     		str	r3, [r4]
 372 0292 BCE7     		b	.L62
 373              	.L57:
 374 0294 3A78     		ldrb	r2, [r7]
 375 0296 002A     		cmp	r2, #0
 376 0298 03D1     		bne	.L59
 377 029a 0123     		mov	r3, #1
 378 029c 3B70     		strb	r3, [r7]
 379 029e 0F4B     		ldr	r3, .L66+36
 380 02a0 1A70     		strb	r2, [r3]
 381              	.L59:
 382 02a2 0F4B     		ldr	r3, .L66+40
 383 02a4 0022     		mov	r2, #0
 384 02a6 1A70     		strb	r2, [r3]
 385 02a8 0B4B     		ldr	r3, .L66+32
 386 02aa 1A70     		strb	r2, [r3]
 387 02ac 074B     		ldr	r3, .L66+20
 388 02ae 1A60     		str	r2, [r3]
 389              	.L61:
 390 02b0 01B0     		add	sp, sp, #4
 391              		@ sp needed for prologue
 392 02b2 F0BC     		pop	{r4, r5, r6, r7}
 393 02b4 01BC     		pop	{r0}
 394 02b6 0047     		bx	r0
 395              	.L67:
 396              		.align	2
 397              	.L66:
 398 02b8 00000000 		.word	canPlay
 399 02bc 00000000 		.word	myFile
ARM GAS  /cygdrive/c/DOCUME~1/mkwapisz/LOCALS~1/Temp/ccxkxRSv.s 			page 8


 400 02c0 00000000 		.word	fileOffset
 401 02c4 00000000 		.word	fileSize
 402 02c8 008002E0 		.word	-536707072
 403 02cc 00000000 		.word	joystickTimer
 404 02d0 00000000 		.word	rewindTimer
 405 02d4 A42C0000 		.word	11428
 406 02d8 00000000 		.word	rewindBackward
 407 02dc 00000000 		.word	displayMode
 408 02e0 00000000 		.word	rewindForward
 409 02e4 ED080000 		.word	2285
 410 02e8 00000000 		.word	volumeUp
 411 02ec 00000000 		.word	volumeDown
 412 02f0 00000000 		.word	changeRight
 413 02f4 13F7FFFF 		.word	-2285
 414 02f8 00000000 		.word	changeLeft
 415              		.size	ISR, .-ISR
 416              		.align	2
 417              		.global	playWAV
 418              		.code 16
 419              		.thumb_func
 420              		.type	playWAV, %function
 421              	playWAV:
 422 02fc 00B5     		push	{lr}
 423 02fe 0C4B     		ldr	r3, .L70
 424 0300 0021     		mov	r1, #0
 425 0302 9960     		str	r1, [r3, #8]
 426 0304 0B4A     		ldr	r2, .L70+4
 427 0306 C36C     		ldr	r3, [r0, #76]
 428 0308 1360     		str	r3, [r2]
 429 030a 0B4B     		ldr	r3, .L70+8
 430 030c 2C22     		mov	r2, #44
 431 030e 8264     		str	r2, [r0, #72]
 432 0310 1A60     		str	r2, [r3]
 433 0312 0A4B     		ldr	r3, .L70+12
 434 0314 1860     		str	r0, [r3]
 435 0316 0A4B     		ldr	r3, .L70+16
 436 0318 1960     		str	r1, [r3]
 437 031a 0A4B     		ldr	r3, .L70+20
 438 031c 1960     		str	r1, [r3]
 439 031e 0A4B     		ldr	r3, .L70+24
 440 0320 0A4A     		ldr	r2, .L70+28
 441 0322 1960     		str	r1, [r3]
 442 0324 0123     		mov	r3, #1
 443 0326 1370     		strb	r3, [r2]
 444 0328 FFF7FEFF 		bl	myTimerRTCExec
 445              		@ sp needed for prologue
 446 032c 01BC     		pop	{r0}
 447 032e 0047     		bx	r0
 448              	.L71:
 449              		.align	2
 450              	.L70:
 451 0330 00000000 		.word	currentSongInfo
 452 0334 00000000 		.word	fileSize
 453 0338 00000000 		.word	fileOffset
 454 033c 00000000 		.word	myFile
 455 0340 00000000 		.word	joystickTimer
 456 0344 00000000 		.word	rewindTimer
ARM GAS  /cygdrive/c/DOCUME~1/mkwapisz/LOCALS~1/Temp/ccxkxRSv.s 			page 9


 457 0348 00000000 		.word	rewTime
 458 034c 00000000 		.word	canPlay
 459              		.size	playWAV, .-playWAV
 460              		.comm	currentSongInfo,20,4
 461              		.comm	currentVolume,1,1
 462              		.comm	displayChanged,1,1
 463              		.comm	files,3328,1
 464              		.comm	myFile,4,4
 465              		.comm	soundTable,1,1
 466              		.comm	filePtr,4,4
 467              		.comm	fileOffset,4,4
 468              		.comm	fileSize,4,4
 469              		.comm	joystickTimer,4,4
 470              		.comm	rewindTimer,4,4
 471              		.comm	rewTime,4,4
 472              		.comm	canPlay,1,1
 473              		.ident	"GCC: (GNU) 4.1.1"
ARM GAS  /cygdrive/c/DOCUME~1/mkwapisz/LOCALS~1/Temp/ccxkxRSv.s 			page 10


DEFINED SYMBOLS
                            *ABS*:00000000 wavplayer.c
/cygdrive/c/DOCUME~1/mkwapisz/LOCALS~1/Temp/ccxkxRSv.s:1      .text:00000000 $t
/cygdrive/c/DOCUME~1/mkwapisz/LOCALS~1/Temp/ccxkxRSv.s:9      .text:00000000 zeroBuffer
/cygdrive/c/DOCUME~1/mkwapisz/LOCALS~1/Temp/ccxkxRSv.s:19     .text:00000008 $d
                            *COM*:00000001 soundTable
/cygdrive/c/DOCUME~1/mkwapisz/LOCALS~1/Temp/ccxkxRSv.s:31     .text:0000000c sendToDAC
/cygdrive/c/DOCUME~1/mkwapisz/LOCALS~1/Temp/ccxkxRSv.s:28     .text:0000000c $t
/cygdrive/c/DOCUME~1/mkwapisz/LOCALS~1/Temp/ccxkxRSv.s:81     .text:0000006c $d
                            *COM*:00000001 currentVolume
/cygdrive/c/DOCUME~1/mkwapisz/LOCALS~1/Temp/ccxkxRSv.s:96     .text:00000080 ISR_RTC
/cygdrive/c/DOCUME~1/mkwapisz/LOCALS~1/Temp/ccxkxRSv.s:93     .text:00000080 $t
/cygdrive/c/DOCUME~1/mkwapisz/LOCALS~1/Temp/ccxkxRSv.s:161    .text:000000fc $d
                            *COM*:00000001 canPlay
                            *COM*:00000004 rewTime
                            *COM*:00000014 currentSongInfo
/cygdrive/c/DOCUME~1/mkwapisz/LOCALS~1/Temp/ccxkxRSv.s:176    .text:00000120 ISR
/cygdrive/c/DOCUME~1/mkwapisz/LOCALS~1/Temp/ccxkxRSv.s:173    .text:00000120 $t
/cygdrive/c/DOCUME~1/mkwapisz/LOCALS~1/Temp/ccxkxRSv.s:398    .text:000002b8 $d
                            *COM*:00000004 myFile
                            *COM*:00000004 fileOffset
                            *COM*:00000004 fileSize
                            *COM*:00000004 joystickTimer
                            *COM*:00000004 rewindTimer
/cygdrive/c/DOCUME~1/mkwapisz/LOCALS~1/Temp/ccxkxRSv.s:421    .text:000002fc playWAV
/cygdrive/c/DOCUME~1/mkwapisz/LOCALS~1/Temp/ccxkxRSv.s:418    .text:000002fc $t
/cygdrive/c/DOCUME~1/mkwapisz/LOCALS~1/Temp/ccxkxRSv.s:451    .text:00000330 $d
                            *COM*:00000001 displayChanged
                            *COM*:00000d00 files
                            *COM*:00000004 filePtr

UNDEFINED SYMBOLS
__floatsisf
__addsf3
__divsf3
__mulsf3
__fixsfsi
__floatsidf
__adddf3
__fixdfsi
__subdf3
rewindForward
rewindBackward
displayMode
file_read
StopInterrupts
volumeUp
volumeDown
changeRight
changeLeft
myTimerRTCExec
