ARM GAS  /cygdrive/c/DOCUME~1/mkwapisz/LOCALS~1/Temp/ccW5XQQZ.s 			page 1


   1              		.file	"sd.c"
   8 0000 0C010000 		.text
   8      02002C00 
   8      00000201 
   8      FB0E0D00 
   8      01010101 
   9              	.Ltext0:
  10              		.align	2
  11              		.global	sd_Resp8bError
  12              		.type	sd_Resp8bError, %function
  13              	sd_Resp8bError:
  14              	.LFB6:
  15              		.file 1 "sd.c"
   1:sd.c          **** /*****************************************************************************/
   2:sd.c          **** #include "sd.h"
   3:sd.c          **** /*****************************************************************************/
   4:sd.c          **** 
   5:sd.c          **** signed char sd_Init(hwInterface *iface)
   6:sd.c          **** {
   7:sd.c          **** 	signed short i;
   8:sd.c          **** 	unsigned char resp;
   9:sd.c          **** 	
  10:sd.c          **** 	/* Try to send reset command up to 100 times */
  11:sd.c          **** 	i=100;
  12:sd.c          **** 	do{
  13:sd.c          **** 		sd_Command(iface,0, 0, 0);
  14:sd.c          **** 		resp=sd_Resp8b(iface);
  15:sd.c          **** 	}
  16:sd.c          **** 	while(resp!=1 && i--);
  17:sd.c          **** 	
  18:sd.c          **** 	if(resp!=1){
  19:sd.c          **** 		if(resp==0xff){
  20:sd.c          **** 			return(-1);
  21:sd.c          **** 		}
  22:sd.c          **** 		else{
  23:sd.c          **** 			return sd_Resp8bError(iface,resp);
  24:sd.c          **** 			//return(-2);
  25:sd.c          **** 		}
  26:sd.c          **** 	}
  27:sd.c          **** 
  28:sd.c          **** 	/* Wait till card is ready initialising (returns 0 on CMD1) */
  29:sd.c          **** 	/* Try up to 32000 times. */
  30:sd.c          **** 	i=32000;
  31:sd.c          **** 	do{
  32:sd.c          **** 		sd_Command(iface,1, 0, 0);
  33:sd.c          **** 		
  34:sd.c          **** 		resp=sd_Resp8b(iface);
  35:sd.c          **** 		if(resp!=0)
  36:sd.c          **** 			sd_Resp8bError(iface,resp);
  37:sd.c          **** 	}
  38:sd.c          **** 	while(resp==1 && i--);
ARM GAS  /cygdrive/c/DOCUME~1/mkwapisz/LOCALS~1/Temp/ccW5XQQZ.s 			page 2


  39:sd.c          **** 	
  40:sd.c          **** 	if(resp!=0){
  41:sd.c          **** 		sd_Resp8bError(iface,resp);
  42:sd.c          **** 		return(-3);
  43:sd.c          **** 	}
  44:sd.c          **** 	
  45:sd.c          **** 	return(0);
  46:sd.c          **** }
  47:sd.c          **** /*****************************************************************************/
  48:sd.c          **** 
  49:sd.c          **** void sd_Command(hwInterface *iface,unsigned char cmd, unsigned short paramx, unsigned short paramy)
  50:sd.c          **** {
  51:sd.c          **** 	if_spiSend(iface,0xff);
  52:sd.c          **** 
  53:sd.c          **** 	if_spiSend(iface,0x40 | cmd);
  54:sd.c          **** 	if_spiSend(iface,(euint8) (paramx >> 8)); /* MSB of parameter x */
  55:sd.c          **** 	if_spiSend(iface,(euint8) (paramx)); /* LSB of parameter x */
  56:sd.c          **** 	if_spiSend(iface,(euint8) (paramy >> 8)); /* MSB of parameter y */
  57:sd.c          **** 	if_spiSend(iface,(euint8) (paramy)); /* LSB of parameter y */
  58:sd.c          **** 
  59:sd.c          **** 	if_spiSend(iface,0x95); /* Checksum (should be only valid for first command (0) */
  60:sd.c          **** 
  61:sd.c          **** 	if_spiSend(iface,0xff); /* eat empty command - response */
  62:sd.c          **** }
  63:sd.c          **** /*****************************************************************************/
  64:sd.c          **** 
  65:sd.c          **** unsigned char sd_Resp8b(hwInterface *iface)
  66:sd.c          **** {
  67:sd.c          **** 	unsigned char i;
  68:sd.c          **** 	unsigned char resp;
  69:sd.c          **** 	
  70:sd.c          **** 	/* Respone will come after 1 - 8 pings */
  71:sd.c          **** 	for(i=0;i<8;i++){
  72:sd.c          **** 		resp = if_spiSend(iface,0xff);
  73:sd.c          **** 		if(resp != 0xff)
  74:sd.c          **** 			return(resp);
  75:sd.c          **** 	}
  76:sd.c          **** 		
  77:sd.c          **** 	return(resp);
  78:sd.c          **** }
  79:sd.c          **** /*****************************************************************************/
  80:sd.c          **** 
  81:sd.c          **** unsigned short sd_Resp16b(hwInterface *iface)
  82:sd.c          **** {
  83:sd.c          **** 	unsigned short resp;
  84:sd.c          **** 	
  85:sd.c          **** 	resp = ( sd_Resp8b(iface) << 8 ) & 0xff00;
  86:sd.c          **** 	resp |= if_spiSend(iface,0xff);
  87:sd.c          **** 	
  88:sd.c          **** 	return(resp);
  89:sd.c          **** }
  90:sd.c          **** /*****************************************************************************/
  91:sd.c          **** 
  92:sd.c          **** signed short sd_Resp8bError(hwInterface *iface,unsigned char value)
  93:sd.c          **** {
  16              		.loc 1 93 0
  17              		@ Function supports interworking.
ARM GAS  /cygdrive/c/DOCUME~1/mkwapisz/LOCALS~1/Temp/ccW5XQQZ.s 			page 3


  18              		@ args = 0, pretend = 0, frame = 0
  19              		@ frame_needed = 0, uses_anonymous_args = 0
  20              		@ link register save eliminated.
  21              	.LVL0:
  22 0000 FF1001E2 		and	r1, r1, #255
  94:sd.c          **** 	switch(value)
  23              		.loc 1 94 0
  24 0004 080051E3 		cmp	r1, #8
  25              		.loc 1 93 0
  26              		@ lr needed for prologue
  95:sd.c          **** 	{
  96:sd.c          **** 		case 0x40:
  97:sd.c          **** 			DBG((TXT("Argument out of bounds.\n")));
  98:sd.c          **** 			return -10;
  99:sd.c          **** 			break;
 100:sd.c          **** 		case 0x20:
 101:sd.c          **** 			DBG((TXT("Address out of bounds.\n")));
 102:sd.c          **** 			return -11;
 103:sd.c          **** 			break;
 104:sd.c          **** 		case 0x10:
 105:sd.c          **** 			DBG((TXT("Error during erase sequence.\n")));
 106:sd.c          **** 			return -12;
  27              		.loc 1 106 0
  28 0008 0C00E003 		mvneq	r0, #12
  29              	.LVL1:
  30              		.loc 1 94 0
  31 000c 1EFF2F01 		bxeq	lr
  32 0010 0700008A 		bhi	.L10
  33 0014 020051E3 		cmp	r1, #2
  34 0018 1400000A 		beq	.L4
  35 001c 040051E3 		cmp	r1, #4
 107:sd.c          **** 			break;
 108:sd.c          **** 		case 0x08:
 109:sd.c          **** 			DBG((TXT("CRC failed.\n")));
 110:sd.c          **** 			return -13;
  36              		.loc 1 110 0
  37 0020 0D00E003 		mvneq	r0, #13
  38              		.loc 1 94 0
  39 0024 1EFF2F01 		bxeq	lr
  40 0028 010051E3 		cmp	r1, #1
  41 002c 0B00001A 		bne	.L2
  42 0030 080000EA 		b	.L3
  43              	.L10:
  44 0034 200051E3 		cmp	r1, #32
  45              		.loc 1 98 0
  46 0038 0A00E003 		mvneq	r0, #10
  47              		.loc 1 94 0
  48 003c 1EFF2F01 		bxeq	lr
  49 0040 400051E3 		cmp	r1, #64
  50 0044 0900E003 		mvneq	r0, #9
  51 0048 1EFF2F01 		bxeq	lr
  52 004c 100051E3 		cmp	r1, #16
  53 0050 0200001A 		bne	.L2
  54 0054 030000EA 		b	.L7
  55              	.L3:
  56 0058 0F00E0E3 		mvn	r0, #15
  57 005c 1EFF2FE1 		bx	lr
ARM GAS  /cygdrive/c/DOCUME~1/mkwapisz/LOCALS~1/Temp/ccW5XQQZ.s 			page 4


  58              	.L2:
  59 0060 1000E0E3 		mvn	r0, #16
  60 0064 1EFF2FE1 		bx	lr
  61              	.L7:
  62              		.loc 1 102 0
  63 0068 0B00E0E3 		mvn	r0, #11
  64 006c 1EFF2FE1 		bx	lr
  65              	.L4:
 111:sd.c          **** 			break;
 112:sd.c          **** 		case 0x04:
 113:sd.c          **** 			DBG((TXT("Illegal command.\n")));
 114:sd.c          **** 			return -14;
  66              		.loc 1 114 0
  67 0070 0E00E0E3 		mvn	r0, #14
 115:sd.c          **** 			break;
 116:sd.c          **** 		case 0x02:
 117:sd.c          **** 			DBG((TXT("Erase reset (see SanDisk docs p5-13).\n")));
 118:sd.c          **** 			return -15;
 119:sd.c          **** 			break;
 120:sd.c          **** 		case 0x01:
 121:sd.c          **** 			DBG((TXT("Card is initialising.\n")));
 122:sd.c          **** 			return -16;
 123:sd.c          **** 			break;
 124:sd.c          **** 		default:
 125:sd.c          **** 			DBG((TXT("Unknown error 0x%x (see SanDisk docs p5-13).\n"),value));
 126:sd.c          **** 			return -17;
 127:sd.c          **** 			break;
 128:sd.c          **** 	}
 129:sd.c          **** }
  68              		.loc 1 129 0
  69 0074 1EFF2FE1 		bx	lr
  70              	.LFE6:
  71              		.size	sd_Resp8bError, .-sd_Resp8bError
  72              		.align	2
  73              		.global	sd_Resp8b
  74              		.type	sd_Resp8b, %function
  75              	sd_Resp8b:
  76              	.LFB4:
  77              		.loc 1 66 0
  78              		@ Function supports interworking.
  79              		@ args = 0, pretend = 0, frame = 0
  80              		@ frame_needed = 0, uses_anonymous_args = 0
  81              	.LVL2:
  82 0078 30402DE9 		stmfd	sp!, {r4, r5, lr}
  83              	.LCFI0:
  84              		.loc 1 66 0
  85 007c 0050A0E1 		mov	r5, r0
  86 0080 0040A0E3 		mov	r4, #0
  87              	.LVL3:
  88              	.LVL4:
  89              	.L14:
  90              		.loc 1 72 0
  91 0084 0500A0E1 		mov	r0, r5
  92 0088 FF10A0E3 		mov	r1, #255
  93 008c FEFFFFEB 		bl	if_spiSend
  94              		.loc 1 71 0
  95 0090 013084E2 		add	r3, r4, #1
ARM GAS  /cygdrive/c/DOCUME~1/mkwapisz/LOCALS~1/Temp/ccW5XQQZ.s 			page 5


  96              		.loc 1 73 0
  97 0094 FF0050E3 		cmp	r0, #255
  98              		.loc 1 71 0
  99 0098 FF4003E2 		and	r4, r3, #255
 100              		.loc 1 73 0
 101 009c 0100001A 		bne	.L17
 102              		.loc 1 71 0
 103 00a0 080054E3 		cmp	r4, #8
 104 00a4 F6FFFF1A 		bne	.L14
 105              	.L17:
 106              		.loc 1 78 0
 107 00a8 3040BDE8 		ldmfd	sp!, {r4, r5, lr}
 108 00ac 1EFF2FE1 		bx	lr
 109              	.LFE4:
 110              		.size	sd_Resp8b, .-sd_Resp8b
 111              		.align	2
 112              		.global	sd_Resp16b
 113              		.type	sd_Resp16b, %function
 114              	sd_Resp16b:
 115              	.LFB5:
 116              		.loc 1 82 0
 117              		@ Function supports interworking.
 118              		@ args = 0, pretend = 0, frame = 0
 119              		@ frame_needed = 0, uses_anonymous_args = 0
 120              	.LVL5:
 121 00b0 30402DE9 		stmfd	sp!, {r4, r5, lr}
 122              	.LCFI1:
 123              		.loc 1 82 0
 124 00b4 0050A0E1 		mov	r5, r0
 125              		.loc 1 85 0
 126 00b8 FEFFFFEB 		bl	sd_Resp8b
 127              	.LVL6:
 128              		.loc 1 86 0
 129 00bc FF10A0E3 		mov	r1, #255
 130              		.loc 1 85 0
 131 00c0 004CA0E1 		mov	r4, r0, asl #24
 132              		.loc 1 86 0
 133 00c4 0500A0E1 		mov	r0, r5
 134 00c8 FEFFFFEB 		bl	if_spiSend
 135              		.loc 1 85 0
 136 00cc 2448A0E1 		mov	r4, r4, lsr #16
 137              	.LVL7:
 138              		.loc 1 86 0
 139 00d0 004084E1 		orr	r4, r4, r0
 140              	.LVL8:
 141 00d4 0448A0E1 		mov	r4, r4, asl #16
 142              		.loc 1 89 0
 143 00d8 2408A0E1 		mov	r0, r4, lsr #16
 144 00dc 3040BDE8 		ldmfd	sp!, {r4, r5, lr}
 145 00e0 1EFF2FE1 		bx	lr
 146              	.LFE5:
 147              		.size	sd_Resp16b, .-sd_Resp16b
 148              		.align	2
 149              		.global	sd_Command
 150              		.type	sd_Command, %function
 151              	sd_Command:
 152              	.LFB3:
ARM GAS  /cygdrive/c/DOCUME~1/mkwapisz/LOCALS~1/Temp/ccW5XQQZ.s 			page 6


 153              		.loc 1 50 0
 154              		@ Function supports interworking.
 155              		@ args = 0, pretend = 0, frame = 0
 156              		@ frame_needed = 0, uses_anonymous_args = 0
 157              	.LVL9:
 158 00e4 F0402DE9 		stmfd	sp!, {r4, r5, r6, r7, lr}
 159              	.LCFI2:
 160              		.loc 1 50 0
 161 00e8 0060A0E1 		mov	r6, r0
 162 00ec FF5001E2 		and	r5, r1, #255
 163              		.loc 1 51 0
 164 00f0 FF10A0E3 		mov	r1, #255
 165              	.LVL10:
 166              		.loc 1 50 0
 167 00f4 0248A0E1 		mov	r4, r2, asl #16
 168 00f8 0378A0E1 		mov	r7, r3, asl #16
 169              		.loc 1 51 0
 170 00fc FEFFFFEB 		bl	if_spiSend
 171              	.LVL11:
 172              		.loc 1 53 0
 173 0100 401085E3 		orr	r1, r5, #64
 174 0104 0600A0E1 		mov	r0, r6
 175 0108 FEFFFFEB 		bl	if_spiSend
 176              		.loc 1 54 0
 177 010c 241CA0E1 		mov	r1, r4, lsr #24
 178              		.loc 1 50 0
 179 0110 2448A0E1 		mov	r4, r4, lsr #16
 180              	.LVL12:
 181              		.loc 1 54 0
 182 0114 0600A0E1 		mov	r0, r6
 183              		.loc 1 55 0
 184 0118 FF4004E2 		and	r4, r4, #255
 185              	.LVL13:
 186              		.loc 1 54 0
 187 011c FEFFFFEB 		bl	if_spiSend
 188              		.loc 1 55 0
 189 0120 0410A0E1 		mov	r1, r4
 190 0124 0600A0E1 		mov	r0, r6
 191 0128 FEFFFFEB 		bl	if_spiSend
 192              		.loc 1 56 0
 193 012c 271CA0E1 		mov	r1, r7, lsr #24
 194              		.loc 1 50 0
 195 0130 2778A0E1 		mov	r7, r7, lsr #16
 196              	.LVL14:
 197              		.loc 1 56 0
 198 0134 0600A0E1 		mov	r0, r6
 199              		.loc 1 57 0
 200 0138 FF7007E2 		and	r7, r7, #255
 201              	.LVL15:
 202              		.loc 1 56 0
 203 013c FEFFFFEB 		bl	if_spiSend
 204              		.loc 1 57 0
 205 0140 0710A0E1 		mov	r1, r7
 206 0144 0600A0E1 		mov	r0, r6
 207 0148 FEFFFFEB 		bl	if_spiSend
 208              		.loc 1 59 0
 209 014c 0600A0E1 		mov	r0, r6
ARM GAS  /cygdrive/c/DOCUME~1/mkwapisz/LOCALS~1/Temp/ccW5XQQZ.s 			page 7


 210 0150 9510A0E3 		mov	r1, #149
 211 0154 FEFFFFEB 		bl	if_spiSend
 212              		.loc 1 61 0
 213 0158 0600A0E1 		mov	r0, r6
 214 015c FF10A0E3 		mov	r1, #255
 215 0160 FEFFFFEB 		bl	if_spiSend
 216              		.loc 1 62 0
 217 0164 F040BDE8 		ldmfd	sp!, {r4, r5, r6, r7, lr}
 218 0168 1EFF2FE1 		bx	lr
 219              	.LFE3:
 220              		.size	sd_Command, .-sd_Command
 221              		.align	2
 222              		.global	sd_getDriveSize
 223              		.type	sd_getDriveSize, %function
 224              	sd_getDriveSize:
 225              	.LFB10:
 130:sd.c          **** /*****************************************************************************/
 131:sd.c          **** 
 132:sd.c          **** signed char sd_State(hwInterface *iface)
 133:sd.c          **** {
 134:sd.c          **** 	short value;
 135:sd.c          **** 	
 136:sd.c          **** 	sd_Command(iface,13, 0, 0);
 137:sd.c          **** 	value=sd_Resp16b(iface);
 138:sd.c          **** 
 139:sd.c          **** 	switch(value)
 140:sd.c          **** 	{
 141:sd.c          **** 		case 0x000:
 142:sd.c          **** 			return(1);
 143:sd.c          **** 			break;
 144:sd.c          **** 		case 0x0001:
 145:sd.c          **** 			DBG((TXT("Card is Locked.\n")));
 146:sd.c          **** 			break;
 147:sd.c          **** 		case 0x0002:
 148:sd.c          **** 			DBG((TXT("WP Erase Skip, Lock/Unlock Cmd Failed.\n")));
 149:sd.c          **** 			break;
 150:sd.c          **** 		case 0x0004:
 151:sd.c          **** 			DBG((TXT("General / Unknown error -- card broken?.\n")));
 152:sd.c          **** 			break;
 153:sd.c          **** 		case 0x0008:
 154:sd.c          **** 			DBG((TXT("Internal card controller error.\n")));
 155:sd.c          **** 			break;
 156:sd.c          **** 		case 0x0010:
 157:sd.c          **** 			DBG((TXT("Card internal ECC was applied, but failed to correct the data.\n")));
 158:sd.c          **** 			break;
 159:sd.c          **** 		case 0x0020:
 160:sd.c          **** 			DBG((TXT("Write protect violation.\n")));
 161:sd.c          **** 			break;
 162:sd.c          **** 		case 0x0040:
 163:sd.c          **** 			DBG((TXT("An invalid selection, sectors for erase.\n")));
 164:sd.c          **** 			break;
 165:sd.c          **** 		case 0x0080:
 166:sd.c          **** 			DBG((TXT("Out of Range, CSD_Overwrite.\n")));
 167:sd.c          **** 			break;
 168:sd.c          **** 		default:
 169:sd.c          **** 			if(value>0x00FF)
 170:sd.c          **** 				sd_Resp8bError(iface,(euint8) (value>>8));
ARM GAS  /cygdrive/c/DOCUME~1/mkwapisz/LOCALS~1/Temp/ccW5XQQZ.s 			page 8


 171:sd.c          **** 			else
 172:sd.c          **** 				DBG((TXT("Unknown error: 0x%x (see SanDisk docs p5-14).\n"),value));
 173:sd.c          **** 			break;
 174:sd.c          **** 	}
 175:sd.c          **** 	return(-1);
 176:sd.c          **** }
 177:sd.c          **** /*****************************************************************************/
 178:sd.c          **** 
 179:sd.c          **** /* ****************************************************************************
 180:sd.c          ****  * WAIT ?? -- FIXME
 181:sd.c          ****  * CMDWRITE
 182:sd.c          ****  * WAIT
 183:sd.c          ****  * CARD RESP
 184:sd.c          ****  * WAIT
 185:sd.c          ****  * DATA BLOCK OUT
 186:sd.c          ****  *      START BLOCK
 187:sd.c          ****  *      DATA
 188:sd.c          ****  *      CHKS (2B)
 189:sd.c          ****  * BUSY...
 190:sd.c          ****  */
 191:sd.c          **** 
 192:sd.c          **** signed char sd_writeSector(hwInterface *iface,unsigned long address, unsigned char* buf)
 193:sd.c          **** {
 194:sd.c          **** 	unsigned long place;
 195:sd.c          **** 	unsigned short i;
 196:sd.c          **** 	unsigned short t=0;
 197:sd.c          **** 	
 198:sd.c          **** 	/*DBG((TXT("Trying to write %u to sector %u.\n"),(void *)&buf,address));*/
 199:sd.c          **** 	place=512*address;
 200:sd.c          **** 	sd_Command(iface,CMDWRITE, (euint16) (place >> 16), (euint16) place);
 201:sd.c          **** 
 202:sd.c          **** 	sd_Resp8b(iface); /* Card response */
 203:sd.c          **** 
 204:sd.c          **** 	if_spiSend(iface,0xfe); /* Start block */
 205:sd.c          **** 	for(i=0;i<512;i++) 
 206:sd.c          **** 		if_spiSend(iface,buf[i]); /* Send data */
 207:sd.c          **** 	if_spiSend(iface,0xff); /* Checksum part 1 */
 208:sd.c          **** 	if_spiSend(iface,0xff); /* Checksum part 2 */
 209:sd.c          **** 
 210:sd.c          **** 	if_spiSend(iface,0xff);
 211:sd.c          **** 
 212:sd.c          **** 	while(if_spiSend(iface,0xff)!=0xff){
 213:sd.c          **** 		t++;
 214:sd.c          **** 		/* Removed NOP */
 215:sd.c          **** 	}
 216:sd.c          **** 	/*DBG((TXT("Nopp'ed %u times.\n"),t));*/
 217:sd.c          **** 
 218:sd.c          **** 	return(0);
 219:sd.c          **** }
 220:sd.c          **** /*****************************************************************************/
 221:sd.c          **** 
 222:sd.c          **** /* ****************************************************************************
 223:sd.c          ****  * WAIT ?? -- FIXME
 224:sd.c          ****  * CMDCMD
 225:sd.c          ****  * WAIT
 226:sd.c          ****  * CARD RESP
 227:sd.c          ****  * WAIT
ARM GAS  /cygdrive/c/DOCUME~1/mkwapisz/LOCALS~1/Temp/ccW5XQQZ.s 			page 9


 228:sd.c          ****  * DATA BLOCK IN
 229:sd.c          ****  * 		START BLOCK
 230:sd.c          ****  * 		DATA
 231:sd.c          ****  * 		CHKS (2B)
 232:sd.c          ****  */
 233:sd.c          **** 
 234:sd.c          **** signed char sd_readSector(hwInterface *iface,unsigned long address, unsigned char* buf, unsigned sh
 235:sd.c          **** {
 236:sd.c          **** 	unsigned char cardresp;
 237:sd.c          **** 	unsigned char firstblock;
 238:sd.c          **** 	unsigned char c;
 239:sd.c          **** 	unsigned short fb_timeout = 0xffff;
 240:sd.c          **** 	unsigned long i;
 241:sd.c          **** 	unsigned long place;
 242:sd.c          **** 
 243:sd.c          **** 	/*DBG((TXT("sd_readSector::Trying to read sector %u and store it at %p.\n"),address,&buf[0]));*/
 244:sd.c          **** 	place=512*address;
 245:sd.c          **** 	sd_Command(iface,CMDREAD, (euint16) (place >> 16), (euint16) place);
 246:sd.c          **** 	
 247:sd.c          **** 	cardresp=sd_Resp8b(iface); /* Card response */ 
 248:sd.c          **** 
 249:sd.c          **** 	/* Wait for startblock */
 250:sd.c          **** 	do
 251:sd.c          **** 		firstblock=sd_Resp8b(iface); 
 252:sd.c          **** 	while(firstblock==0xff && fb_timeout--);
 253:sd.c          **** 
 254:sd.c          **** 	if(cardresp!=0x00 || firstblock!=0xfe){
 255:sd.c          **** 		sd_Resp8bError(iface,firstblock);
 256:sd.c          **** 		return(-1);
 257:sd.c          **** 	}
 258:sd.c          **** 	
 259:sd.c          **** 	for(i=0;i<512;i++){
 260:sd.c          **** 		c = if_spiSend(iface,0xff);
 261:sd.c          **** 		if(i<len)
 262:sd.c          **** 			buf[i] = c;
 263:sd.c          **** 	}
 264:sd.c          **** 
 265:sd.c          **** 	/* Checksum (2 byte) - ignore for now */
 266:sd.c          **** 	if_spiSend(iface,0xff);
 267:sd.c          **** 	if_spiSend(iface,0xff);
 268:sd.c          **** 
 269:sd.c          **** 	return(0);
 270:sd.c          **** }
 271:sd.c          **** /*****************************************************************************/
 272:sd.c          **** 
 273:sd.c          **** /* ****************************************************************************
 274:sd.c          ****  calculates size of card from CSD 
 275:sd.c          ****  (extension by Martin Thomas, inspired by code from Holger Klabunde)
 276:sd.c          ****  */
 277:sd.c          **** signed char sd_getDriveSize(hwInterface *iface, unsigned long* drive_size )
 278:sd.c          **** {
 226              		.loc 1 278 0
 227              		@ Function supports interworking.
 228              		@ args = 0, pretend = 0, frame = 16
 229              		@ frame_needed = 0, uses_anonymous_args = 0
 230              	.LVL16:
 231 016c 70402DE9 		stmfd	sp!, {r4, r5, r6, lr}
ARM GAS  /cygdrive/c/DOCUME~1/mkwapisz/LOCALS~1/Temp/ccW5XQQZ.s 			page 10


 232              	.LCFI3:
 279:sd.c          **** 	unsigned char cardresp, i, by;
 280:sd.c          **** 	unsigned char iob[16];
 281:sd.c          **** 	unsigned short c_size, c_size_mult, read_bl_len;
 282:sd.c          **** 	
 283:sd.c          **** 	sd_Command(iface, CMDREADCSD, 0, 0);
 233              		.loc 1 283 0
 234 0170 0020A0E3 		mov	r2, #0
 235              		.loc 1 278 0
 236 0174 0160A0E1 		mov	r6, r1
 237 0178 10D04DE2 		sub	sp, sp, #16
 238              	.LCFI4:
 239              		.loc 1 283 0
 240 017c 0230A0E1 		mov	r3, r2
 241 0180 0910A0E3 		mov	r1, #9
 242              	.LVL17:
 243              		.loc 1 278 0
 244 0184 0050A0E1 		mov	r5, r0
 245              		.loc 1 283 0
 246 0188 FEFFFFEB 		bl	sd_Command
 247              	.LVL18:
 248              	.L27:
 284:sd.c          **** 	
 285:sd.c          **** 	do {
 286:sd.c          **** 		cardresp = sd_Resp8b(iface);
 249              		.loc 1 286 0
 250 018c 0500A0E1 		mov	r0, r5
 251 0190 FEFFFFEB 		bl	sd_Resp8b
 287:sd.c          **** 	} while ( cardresp != 0xFE );
 252              		.loc 1 287 0
 253 0194 FE0050E3 		cmp	r0, #254
 254 0198 FBFFFF1A 		bne	.L27
 255 019c 0040A0E3 		mov	r4, #0
 256              	.L29:
 288:sd.c          **** 
 289:sd.c          **** 	DBG((TXT("CSD:")));
 290:sd.c          **** 	for( i=0; i<16; i++) {
 291:sd.c          **** 		iob[i] = sd_Resp8b(iface);
 257              		.loc 1 291 0
 258 01a0 0500A0E1 		mov	r0, r5
 259 01a4 FEFFFFEB 		bl	sd_Resp8b
 260 01a8 0D00C4E7 		strb	r0, [r4, sp]
 261 01ac 014084E2 		add	r4, r4, #1
 262              		.loc 1 290 0
 263 01b0 100054E3 		cmp	r4, #16
 264 01b4 F9FFFF1A 		bne	.L29
 292:sd.c          **** 		DBG((TXT(" %02x"), iob[i]));
 293:sd.c          **** 	}
 294:sd.c          **** 	DBG((TXT("\n")));
 295:sd.c          **** 
 296:sd.c          **** 	if_spiSend(iface,0xff);
 265              		.loc 1 296 0
 266 01b8 FF10A0E3 		mov	r1, #255
 267 01bc 0500A0E1 		mov	r0, r5
 268 01c0 FEFFFFEB 		bl	if_spiSend
 297:sd.c          **** 	if_spiSend(iface,0xff);
 269              		.loc 1 297 0
ARM GAS  /cygdrive/c/DOCUME~1/mkwapisz/LOCALS~1/Temp/ccW5XQQZ.s 			page 11


 270 01c4 0500A0E1 		mov	r0, r5
 271 01c8 FF10A0E3 		mov	r1, #255
 272 01cc FEFFFFEB 		bl	if_spiSend
 298:sd.c          **** 	
 299:sd.c          **** 	c_size = iob[6] & 0x03; // bits 1..0
 300:sd.c          **** 	c_size <<= 10;
 301:sd.c          **** 	c_size += (euint16)iob[7]<<2;
 302:sd.c          **** 	c_size += iob[8]>>6;
 303:sd.c          **** 
 304:sd.c          **** 	by= iob[5] & 0x0F;
 305:sd.c          **** 	read_bl_len = 1;
 306:sd.c          **** 	read_bl_len <<= by;
 307:sd.c          **** 
 308:sd.c          **** 	by=iob[9] & 0x03;
 309:sd.c          **** 	by <<= 1;
 310:sd.c          **** 	by += iob[10] >> 7;
 311:sd.c          **** 	
 312:sd.c          **** 	c_size_mult = 1;
 313:sd.c          **** 	c_size_mult <<= (2+by);
 314:sd.c          **** 	
 315:sd.c          **** 	*drive_size = (euint32)(c_size+1) * (euint32)c_size_mult * (euint32)read_bl_len;
 273              		.loc 1 315 0
 274 01d0 0510DDE5 		ldrb	r1, [sp, #5]	@ zero_extendqisi2
 275 01d4 0100A0E3 		mov	r0, #1
 276 01d8 0F1001E2 		and	r1, r1, #15
 277 01dc 1011A0E1 		mov	r1, r0, asl r1
 278              		.loc 1 308 0
 279 01e0 0920DDE5 		ldrb	r2, [sp, #9]	@ zero_extendqisi2
 280              		.loc 1 315 0
 281 01e4 0A30DDE5 		ldrb	r3, [sp, #10]	@ zero_extendqisi2
 282              		.loc 1 308 0
 283 01e8 032002E2 		and	r2, r2, #3
 284              	.LVL19:
 285              		.loc 1 315 0
 286 01ec A333A0E1 		mov	r3, r3, lsr #7
 287 01f0 823083E0 		add	r3, r3, r2, asl #1
 288 01f4 023083E2 		add	r3, r3, #2
 289 01f8 1003A0E1 		mov	r0, r0, asl r3
 290              		.loc 1 301 0
 291 01fc 0730DDE5 		ldrb	r3, [sp, #7]	@ zero_extendqisi2
 292              		.loc 1 299 0
 293 0200 0620DDE5 		ldrb	r2, [sp, #6]	@ zero_extendqisi2
 294              	.LVL20:
 295              		.loc 1 301 0
 296 0204 08C0DDE5 		ldrb	ip, [sp, #8]	@ zero_extendqisi2
 297 0208 0331A0E1 		mov	r3, r3, asl #2
 298 020c 2C3383E0 		add	r3, r3, ip, lsr #6
 299              	.LVL21:
 300              		.loc 1 299 0
 301 0210 032002E2 		and	r2, r2, #3
 302              	.LVL22:
 303              		.loc 1 315 0
 304 0214 023583E0 		add	r3, r3, r2, asl #10
 305              	.LVL23:
 306 0218 0118A0E1 		mov	r1, r1, asl #16
 307 021c 2118A0E1 		mov	r1, r1, lsr #16
 308 0220 013083E2 		add	r3, r3, #1
ARM GAS  /cygdrive/c/DOCUME~1/mkwapisz/LOCALS~1/Temp/ccW5XQQZ.s 			page 12


 309 0224 910303E0 		mul	r3, r1, r3
 310 0228 0008A0E1 		mov	r0, r0, asl #16
 311 022c 2008A0E1 		mov	r0, r0, lsr #16
 312 0230 900303E0 		mul	r3, r0, r3
 316:sd.c          **** 	
 317:sd.c          **** 	return 0;
 318:sd.c          **** }
 313              		.loc 1 318 0
 314 0234 0000A0E3 		mov	r0, #0
 315              		.loc 1 315 0
 316 0238 003086E5 		str	r3, [r6, #0]
 317              		.loc 1 318 0
 318 023c 10D08DE2 		add	sp, sp, #16
 319 0240 7040BDE8 		ldmfd	sp!, {r4, r5, r6, lr}
 320 0244 1EFF2FE1 		bx	lr
 321              	.LFE10:
 322              		.size	sd_getDriveSize, .-sd_getDriveSize
 323              		.align	2
 324              		.global	sd_writeSector
 325              		.type	sd_writeSector, %function
 326              	sd_writeSector:
 327              	.LFB8:
 328              		.loc 1 193 0
 329              		@ Function supports interworking.
 330              		@ args = 0, pretend = 0, frame = 0
 331              		@ frame_needed = 0, uses_anonymous_args = 0
 332              	.LVL24:
 333              		.loc 1 200 0
 334 0248 813CA0E1 		mov	r3, r1, asl #25
 335              		.loc 1 199 0
 336 024c 8114A0E1 		mov	r1, r1, asl #9
 337              	.LVL25:
 338              		.loc 1 193 0
 339 0250 70402DE9 		stmfd	sp!, {r4, r5, r6, lr}
 340              	.LCFI5:
 341              		.loc 1 200 0
 342 0254 2338A0E1 		mov	r3, r3, lsr #16
 343              		.loc 1 193 0
 344 0258 0040A0E1 		mov	r4, r0
 345 025c 0260A0E1 		mov	r6, r2
 346              		.loc 1 200 0
 347 0260 2128A0E1 		mov	r2, r1, lsr #16
 348              	.LVL26:
 349 0264 1810A0E3 		mov	r1, #24
 350              	.LVL27:
 351 0268 FEFFFFEB 		bl	sd_Command
 352              	.LVL28:
 353              		.loc 1 202 0
 354 026c 0400A0E1 		mov	r0, r4
 355 0270 FEFFFFEB 		bl	sd_Resp8b
 356              		.loc 1 204 0
 357 0274 0400A0E1 		mov	r0, r4
 358 0278 FE10A0E3 		mov	r1, #254
 359 027c FEFFFFEB 		bl	if_spiSend
 360 0280 0050A0E3 		mov	r5, #0
 361              	.L37:
 362              		.loc 1 206 0
ARM GAS  /cygdrive/c/DOCUME~1/mkwapisz/LOCALS~1/Temp/ccW5XQQZ.s 			page 13


 363 0284 0610D5E7 		ldrb	r1, [r5, r6]	@ zero_extendqisi2
 364 0288 0400A0E1 		mov	r0, r4
 365 028c 015085E2 		add	r5, r5, #1
 366 0290 FEFFFFEB 		bl	if_spiSend
 367              		.loc 1 205 0
 368 0294 020C55E3 		cmp	r5, #512
 369 0298 F9FFFF1A 		bne	.L37
 370              		.loc 1 207 0
 371 029c FF10A0E3 		mov	r1, #255
 372 02a0 0400A0E1 		mov	r0, r4
 373 02a4 FEFFFFEB 		bl	if_spiSend
 374              		.loc 1 208 0
 375 02a8 FF10A0E3 		mov	r1, #255
 376 02ac 0400A0E1 		mov	r0, r4
 377 02b0 FEFFFFEB 		bl	if_spiSend
 378              		.loc 1 210 0
 379 02b4 0400A0E1 		mov	r0, r4
 380 02b8 FF10A0E3 		mov	r1, #255
 381 02bc FEFFFFEB 		bl	if_spiSend
 382              	.L39:
 383              		.loc 1 212 0
 384 02c0 0400A0E1 		mov	r0, r4
 385 02c4 FF10A0E3 		mov	r1, #255
 386 02c8 FEFFFFEB 		bl	if_spiSend
 387 02cc FF0050E3 		cmp	r0, #255
 388 02d0 FAFFFF1A 		bne	.L39
 389              		.loc 1 219 0
 390 02d4 0000A0E3 		mov	r0, #0
 391 02d8 7040BDE8 		ldmfd	sp!, {r4, r5, r6, lr}
 392 02dc 1EFF2FE1 		bx	lr
 393              	.LFE8:
 394              		.size	sd_writeSector, .-sd_writeSector
 395              		.align	2
 396              		.global	sd_readSector
 397              		.type	sd_readSector, %function
 398              	sd_readSector:
 399              	.LFB9:
 400              		.loc 1 235 0
 401              		@ Function supports interworking.
 402              		@ args = 0, pretend = 0, frame = 0
 403              		@ frame_needed = 0, uses_anonymous_args = 0
 404              	.LVL29:
 405              		.loc 1 245 0
 406 02e0 81CCA0E1 		mov	ip, r1, asl #25
 407              		.loc 1 244 0
 408 02e4 8114A0E1 		mov	r1, r1, asl #9
 409              	.LVL30:
 410              		.loc 1 235 0
 411 02e8 F0412DE9 		stmfd	sp!, {r4, r5, r6, r7, r8, lr}
 412              	.LCFI6:
 413              		.loc 1 235 0
 414 02ec 03E8A0E1 		mov	lr, r3, asl #16
 415 02f0 0050A0E1 		mov	r5, r0
 416              		.loc 1 245 0
 417 02f4 2C38A0E1 		mov	r3, ip, lsr #16
 418              	.LVL31:
 419              		.loc 1 235 0
ARM GAS  /cygdrive/c/DOCUME~1/mkwapisz/LOCALS~1/Temp/ccW5XQQZ.s 			page 14


 420 02f8 0280A0E1 		mov	r8, r2
 421              		.loc 1 245 0
 422 02fc 2128A0E1 		mov	r2, r1, lsr #16
 423              	.LVL32:
 424 0300 1110A0E3 		mov	r1, #17
 425              	.LVL33:
 426              		.loc 1 235 0
 427 0304 2E78A0E1 		mov	r7, lr, lsr #16
 428              	.LVL34:
 429              		.loc 1 245 0
 430 0308 FEFFFFEB 		bl	sd_Command
 431              	.LVL35:
 432              		.loc 1 247 0
 433 030c 0500A0E1 		mov	r0, r5
 434 0310 FEFFFFEB 		bl	sd_Resp8b
 435 0314 8C609FE5 		ldr	r6, .L61
 436              	.LVL36:
 437 0318 0040A0E1 		mov	r4, r0
 438              	.LVL37:
 439              	.LVL38:
 440              	.L47:
 441              		.loc 1 251 0
 442 031c 0500A0E1 		mov	r0, r5
 443              	.LVL39:
 444 0320 FEFFFFEB 		bl	sd_Resp8b
 445              		.loc 1 252 0
 446 0324 013046E2 		sub	r3, r6, #1
 447              	.LVL40:
 448 0328 FF0050E3 		cmp	r0, #255
 449 032c 0338A0E1 		mov	r3, r3, asl #16
 450 0330 0300001A 		bne	.L48
 451 0334 010873E3 		cmn	r3, #65536
 452 0338 2368A0E1 		mov	r6, r3, lsr #16
 453 033c 1600000A 		beq	.L50
 454 0340 F5FFFFEA 		b	.L47
 455              	.L48:
 456              		.loc 1 254 0
 457 0344 FE0050E3 		cmp	r0, #254
 458 0348 00005403 		cmpeq	r4, #0
 459 034c 0030A003 		moveq	r3, #0
 460 0350 0130A013 		movne	r3, #1
 461 0354 1000001A 		bne	.L50
 462 0358 0340A0E1 		mov	r4, r3
 463              	.LVL41:
 464              	.L52:
 465              		.loc 1 260 0
 466 035c 0500A0E1 		mov	r0, r5
 467              	.LVL42:
 468 0360 FF10A0E3 		mov	r1, #255
 469 0364 FEFFFFEB 		bl	if_spiSend
 470              		.loc 1 261 0
 471 0368 070054E1 		cmp	r4, r7
 472              		.loc 1 262 0
 473 036c 0800C437 		strccb	r0, [r4, r8]
 474              		.loc 1 259 0
 475 0370 014084E2 		add	r4, r4, #1
 476 0374 020C54E3 		cmp	r4, #512
ARM GAS  /cygdrive/c/DOCUME~1/mkwapisz/LOCALS~1/Temp/ccW5XQQZ.s 			page 15


 477 0378 F7FFFF1A 		bne	.L52
 478              		.loc 1 266 0
 479 037c FF10A0E3 		mov	r1, #255
 480 0380 0500A0E1 		mov	r0, r5
 481 0384 FEFFFFEB 		bl	if_spiSend
 482              		.loc 1 267 0
 483 0388 0500A0E1 		mov	r0, r5
 484 038c FF10A0E3 		mov	r1, #255
 485 0390 FEFFFFEB 		bl	if_spiSend
 486 0394 0000A0E3 		mov	r0, #0
 487 0398 000000EA 		b	.L56
 488              	.LVL43:
 489              	.L50:
 490              		.loc 1 269 0
 491 039c 0000E0E3 		mvn	r0, #0
 492              	.LVL44:
 493              	.L56:
 494              		.loc 1 270 0
 495 03a0 F041BDE8 		ldmfd	sp!, {r4, r5, r6, r7, r8, lr}
 496 03a4 1EFF2FE1 		bx	lr
 497              	.L62:
 498              		.align	2
 499              	.L61:
 500 03a8 FFFF0000 		.word	65535
 501              	.LFE9:
 502              		.size	sd_readSector, .-sd_readSector
 503              		.align	2
 504              		.global	sd_State
 505              		.type	sd_State, %function
 506              	sd_State:
 507              	.LFB7:
 508              		.loc 1 133 0
 509              		@ Function supports interworking.
 510              		@ args = 0, pretend = 0, frame = 0
 511              		@ frame_needed = 0, uses_anonymous_args = 0
 512              	.LVL45:
 513              		.loc 1 136 0
 514 03ac 0020A0E3 		mov	r2, #0
 515              		.loc 1 133 0
 516 03b0 10402DE9 		stmfd	sp!, {r4, lr}
 517              	.LCFI7:
 518              		.loc 1 136 0
 519 03b4 0D10A0E3 		mov	r1, #13
 520 03b8 0230A0E1 		mov	r3, r2
 521              		.loc 1 133 0
 522 03bc 0040A0E1 		mov	r4, r0
 523              		.loc 1 136 0
 524 03c0 FEFFFFEB 		bl	sd_Command
 525              	.LVL46:
 526              		.loc 1 137 0
 527 03c4 0400A0E1 		mov	r0, r4
 528 03c8 FEFFFFEB 		bl	sd_Resp16b
 529              		.loc 1 139 0
 530 03cc 0008B0E1 		movs	r0, r0, asl #16
 531              		.loc 1 176 0
 532 03d0 0000E013 		mvnne	r0, #0
 533 03d4 0100A003 		moveq	r0, #1
ARM GAS  /cygdrive/c/DOCUME~1/mkwapisz/LOCALS~1/Temp/ccW5XQQZ.s 			page 16


 534 03d8 1040BDE8 		ldmfd	sp!, {r4, lr}
 535 03dc 1EFF2FE1 		bx	lr
 536              	.LFE7:
 537              		.size	sd_State, .-sd_State
 538              		.align	2
 539              		.global	sd_Init
 540              		.type	sd_Init, %function
 541              	sd_Init:
 542              	.LFB2:
 543              		.loc 1 6 0
 544              		@ Function supports interworking.
 545              		@ args = 0, pretend = 0, frame = 0
 546              		@ frame_needed = 0, uses_anonymous_args = 0
 547              	.LVL47:
 548 03e0 30402DE9 		stmfd	sp!, {r4, r5, lr}
 549              	.LCFI8:
 550              		.loc 1 6 0
 551 03e4 0040A0E1 		mov	r4, r0
 552 03e8 6450A0E3 		mov	r5, #100
 553              	.LVL48:
 554              	.LVL49:
 555              	.L69:
 556              		.loc 1 13 0
 557 03ec 0010A0E3 		mov	r1, #0
 558 03f0 0120A0E1 		mov	r2, r1
 559 03f4 0130A0E1 		mov	r3, r1
 560 03f8 0400A0E1 		mov	r0, r4
 561              	.LVL50:
 562 03fc FEFFFFEB 		bl	sd_Command
 563              		.loc 1 14 0
 564 0400 0400A0E1 		mov	r0, r4
 565 0404 FEFFFFEB 		bl	sd_Resp8b
 566              		.loc 1 16 0
 567 0408 013045E2 		sub	r3, r5, #1
 568 040c 0338A0E1 		mov	r3, r3, asl #16
 569              	.LVL51:
 570 0410 010050E3 		cmp	r0, #1
 571 0414 0020E0E3 		mvn	r2, #0
 572 0418 2358A0E1 		mov	r5, r3, lsr #16
 573 041c 2100000A 		beq	.L70
 574 0420 430852E1 		cmp	r2, r3, asr #16
 575 0424 F0FFFF1A 		bne	.L69
 576              		.loc 1 19 0
 577 0428 FF0050E3 		cmp	r0, #255
 578 042c 0200A001 		moveq	r0, r2
 579              	.LVL52:
 580 0430 2F00000A 		beq	.L75
 581              	.LVL53:
 582              	.LBB12:
 583              	.LBB13:
 584              		.loc 1 94 0
 585 0434 FF0000E2 		and	r0, r0, #255
 586              	.LVL54:
 587 0438 080050E3 		cmp	r0, #8
 588 043c 0C00E003 		mvneq	r0, #12
 589 0440 2B00000A 		beq	.L75
 590 0444 0800008A 		bhi	.L84
ARM GAS  /cygdrive/c/DOCUME~1/mkwapisz/LOCALS~1/Temp/ccW5XQQZ.s 			page 17


 591 0448 020050E3 		cmp	r0, #2
 592 044c 0E00E003 		mvneq	r0, #14
 593 0450 2700000A 		beq	.L75
 594 0454 040050E3 		cmp	r0, #4
 595 0458 0D00E003 		mvneq	r0, #13
 596 045c 2400000A 		beq	.L75
 597 0460 010050E3 		cmp	r0, #1
 598 0464 0B00001A 		bne	.L76
 599 0468 080000EA 		b	.L77
 600              	.L84:
 601 046c 200050E3 		cmp	r0, #32
 602 0470 0A00E003 		mvneq	r0, #10
 603 0474 1E00000A 		beq	.L75
 604 0478 400050E3 		cmp	r0, #64
 605 047c 0900E003 		mvneq	r0, #9
 606 0480 1B00000A 		beq	.L75
 607 0484 100050E3 		cmp	r0, #16
 608 0488 0200001A 		bne	.L76
 609 048c 030000EA 		b	.L81
 610              	.L77:
 611 0490 0F00E0E3 		mvn	r0, #15
 612 0494 160000EA 		b	.L75
 613              	.L76:
 614 0498 1000E0E3 		mvn	r0, #16
 615 049c 140000EA 		b	.L75
 616              	.L81:
 617 04a0 0B00E0E3 		mvn	r0, #11
 618 04a4 120000EA 		b	.L75
 619              	.LVL55:
 620              	.L70:
 621              	.LBE13:
 622              	.LBE12:
 623              		.loc 1 23 0
 624 04a8 7D5CA0E3 		mov	r5, #32000
 625              	.LVL56:
 626              	.LVL57:
 627              	.L86:
 628              		.loc 1 32 0
 629 04ac 0020A0E3 		mov	r2, #0
 630 04b0 0230A0E1 		mov	r3, r2
 631 04b4 0110A0E3 		mov	r1, #1
 632 04b8 0400A0E1 		mov	r0, r4
 633              	.LVL58:
 634 04bc FEFFFFEB 		bl	sd_Command
 635              		.loc 1 34 0
 636 04c0 0400A0E1 		mov	r0, r4
 637 04c4 FEFFFFEB 		bl	sd_Resp8b
 638              		.loc 1 38 0
 639 04c8 013045E2 		sub	r3, r5, #1
 640              	.LVL59:
 641 04cc 010050E3 		cmp	r0, #1
 642 04d0 0338A0E1 		mov	r3, r3, asl #16
 643 04d4 0300001A 		bne	.L87
 644 04d8 010873E3 		cmn	r3, #65536
 645 04dc 2358A0E1 		mov	r5, r3, lsr #16
 646 04e0 0200000A 		beq	.L89
 647 04e4 F0FFFFEA 		b	.L86
ARM GAS  /cygdrive/c/DOCUME~1/mkwapisz/LOCALS~1/Temp/ccW5XQQZ.s 			page 18


 648              	.L87:
 649              		.loc 1 40 0
 650 04e8 000050E3 		cmp	r0, #0
 651 04ec 0000000A 		beq	.L75
 652              	.L89:
 653 04f0 0200E0E3 		mvn	r0, #2
 654              	.LVL60:
 655              	.L75:
 656              	.LVL61:
 657              		.loc 1 46 0
 658 04f4 3040BDE8 		ldmfd	sp!, {r4, r5, lr}
 659 04f8 1EFF2FE1 		bx	lr
 660              	.LFE2:
 661              		.size	sd_Init, .-sd_Init
 662              		.section	.debug_frame,"",%progbits
 663              	.Lframe0:
 664 0000 0C000000 		.4byte	.LECIE0-.LSCIE0
 665              	.LSCIE0:
 666 0004 FFFFFFFF 		.4byte	0xffffffff
 667 0008 01       		.byte	0x1
 668 0009 00       		.ascii	"\000"
 669 000a 01       		.uleb128 0x1
 670 000b 7C       		.sleb128 -4
 671 000c 0E       		.byte	0xe
 672 000d 0C       		.byte	0xc
 673 000e 0D       		.uleb128 0xd
 674 000f 00       		.uleb128 0x0
 675              		.align	2
 676              	.LECIE0:
 677              	.LSFDE0:
 678 0010 0C000000 		.4byte	.LEFDE0-.LASFDE0
 679              	.LASFDE0:
 680 0014 00000000 		.4byte	.Lframe0
 681 0018 00000000 		.4byte	.LFB6
 682 001c 78000000 		.4byte	.LFE6-.LFB6
 683              		.align	2
 684              	.LEFDE0:
 685              	.LSFDE2:
 686 0020 18000000 		.4byte	.LEFDE2-.LASFDE2
 687              	.LASFDE2:
 688 0024 00000000 		.4byte	.Lframe0
 689 0028 78000000 		.4byte	.LFB4
 690 002c 38000000 		.4byte	.LFE4-.LFB4
 691 0030 44       		.byte	0x4
 692              		.4byte	.LCFI0-.LFB4
 693 0031 0E       		.byte	0xe
 694 0032 0C       		.uleb128 0xc
 695 0033 8E       		.byte	0x8e
 696 0034 01       		.uleb128 0x1
 697 0035 85       		.byte	0x85
 698 0036 02       		.uleb128 0x2
 699 0037 84       		.byte	0x84
 700 0038 03       		.uleb128 0x3
 701 0039 000000   		.align	2
 702              	.LEFDE2:
 703              	.LSFDE4:
 704 003c 18000000 		.4byte	.LEFDE4-.LASFDE4
ARM GAS  /cygdrive/c/DOCUME~1/mkwapisz/LOCALS~1/Temp/ccW5XQQZ.s 			page 19


 705              	.LASFDE4:
 706 0040 00000000 		.4byte	.Lframe0
 707 0044 B0000000 		.4byte	.LFB5
 708 0048 34000000 		.4byte	.LFE5-.LFB5
 709 004c 44       		.byte	0x4
 710              		.4byte	.LCFI1-.LFB5
 711 004d 0E       		.byte	0xe
 712 004e 0C       		.uleb128 0xc
 713 004f 8E       		.byte	0x8e
 714 0050 01       		.uleb128 0x1
 715 0051 85       		.byte	0x85
 716 0052 02       		.uleb128 0x2
 717 0053 84       		.byte	0x84
 718 0054 03       		.uleb128 0x3
 719 0055 000000   		.align	2
 720              	.LEFDE4:
 721              	.LSFDE6:
 722 0058 1C000000 		.4byte	.LEFDE6-.LASFDE6
 723              	.LASFDE6:
 724 005c 00000000 		.4byte	.Lframe0
 725 0060 E4000000 		.4byte	.LFB3
 726 0064 88000000 		.4byte	.LFE3-.LFB3
 727 0068 44       		.byte	0x4
 728              		.4byte	.LCFI2-.LFB3
 729 0069 0E       		.byte	0xe
 730 006a 14       		.uleb128 0x14
 731 006b 8E       		.byte	0x8e
 732 006c 01       		.uleb128 0x1
 733 006d 87       		.byte	0x87
 734 006e 02       		.uleb128 0x2
 735 006f 86       		.byte	0x86
 736 0070 03       		.uleb128 0x3
 737 0071 85       		.byte	0x85
 738 0072 04       		.uleb128 0x4
 739 0073 84       		.byte	0x84
 740 0074 05       		.uleb128 0x5
 741 0075 000000   		.align	2
 742              	.LEFDE6:
 743              	.LSFDE8:
 744 0078 1C000000 		.4byte	.LEFDE8-.LASFDE8
 745              	.LASFDE8:
 746 007c 00000000 		.4byte	.Lframe0
 747 0080 6C010000 		.4byte	.LFB10
 748 0084 DC000000 		.4byte	.LFE10-.LFB10
 749 0088 44       		.byte	0x4
 750              		.4byte	.LCFI3-.LFB10
 751 0089 0E       		.byte	0xe
 752 008a 10       		.uleb128 0x10
 753 008b 8E       		.byte	0x8e
 754 008c 01       		.uleb128 0x1
 755 008d 86       		.byte	0x86
 756 008e 02       		.uleb128 0x2
 757 008f 85       		.byte	0x85
 758 0090 03       		.uleb128 0x3
 759 0091 84       		.byte	0x84
 760 0092 04       		.uleb128 0x4
 761 0093 4C       		.byte	0x4
ARM GAS  /cygdrive/c/DOCUME~1/mkwapisz/LOCALS~1/Temp/ccW5XQQZ.s 			page 20


 762              		.4byte	.LCFI4-.LCFI3
 763 0094 0E       		.byte	0xe
 764 0095 20       		.uleb128 0x20
 765 0096 0000     		.align	2
 766              	.LEFDE8:
 767              	.LSFDE10:
 768 0098 18000000 		.4byte	.LEFDE10-.LASFDE10
 769              	.LASFDE10:
 770 009c 00000000 		.4byte	.Lframe0
 771 00a0 48020000 		.4byte	.LFB8
 772 00a4 98000000 		.4byte	.LFE8-.LFB8
 773 00a8 4C       		.byte	0x4
 774              		.4byte	.LCFI5-.LFB8
 775 00a9 0E       		.byte	0xe
 776 00aa 10       		.uleb128 0x10
 777 00ab 8E       		.byte	0x8e
 778 00ac 01       		.uleb128 0x1
 779 00ad 86       		.byte	0x86
 780 00ae 02       		.uleb128 0x2
 781 00af 85       		.byte	0x85
 782 00b0 03       		.uleb128 0x3
 783 00b1 84       		.byte	0x84
 784 00b2 04       		.uleb128 0x4
 785 00b3 00       		.align	2
 786              	.LEFDE10:
 787              	.LSFDE12:
 788 00b4 1C000000 		.4byte	.LEFDE12-.LASFDE12
 789              	.LASFDE12:
 790 00b8 00000000 		.4byte	.Lframe0
 791 00bc E0020000 		.4byte	.LFB9
 792 00c0 CC000000 		.4byte	.LFE9-.LFB9
 793 00c4 4C       		.byte	0x4
 794              		.4byte	.LCFI6-.LFB9
 795 00c5 0E       		.byte	0xe
 796 00c6 18       		.uleb128 0x18
 797 00c7 8E       		.byte	0x8e
 798 00c8 01       		.uleb128 0x1
 799 00c9 88       		.byte	0x88
 800 00ca 02       		.uleb128 0x2
 801 00cb 87       		.byte	0x87
 802 00cc 03       		.uleb128 0x3
 803 00cd 86       		.byte	0x86
 804 00ce 04       		.uleb128 0x4
 805 00cf 85       		.byte	0x85
 806 00d0 05       		.uleb128 0x5
 807 00d1 84       		.byte	0x84
 808 00d2 06       		.uleb128 0x6
 809 00d3 00       		.align	2
 810              	.LEFDE12:
 811              	.LSFDE14:
 812 00d4 14000000 		.4byte	.LEFDE14-.LASFDE14
 813              	.LASFDE14:
 814 00d8 00000000 		.4byte	.Lframe0
 815 00dc AC030000 		.4byte	.LFB7
 816 00e0 34000000 		.4byte	.LFE7-.LFB7
 817 00e4 48       		.byte	0x4
 818              		.4byte	.LCFI7-.LFB7
ARM GAS  /cygdrive/c/DOCUME~1/mkwapisz/LOCALS~1/Temp/ccW5XQQZ.s 			page 21


 819 00e5 0E       		.byte	0xe
 820 00e6 08       		.uleb128 0x8
 821 00e7 8E       		.byte	0x8e
 822 00e8 01       		.uleb128 0x1
 823 00e9 84       		.byte	0x84
 824 00ea 02       		.uleb128 0x2
 825 00eb 00       		.align	2
 826              	.LEFDE14:
 827              	.LSFDE16:
 828 00ec 18000000 		.4byte	.LEFDE16-.LASFDE16
 829              	.LASFDE16:
 830 00f0 00000000 		.4byte	.Lframe0
 831 00f4 E0030000 		.4byte	.LFB2
 832 00f8 1C010000 		.4byte	.LFE2-.LFB2
 833 00fc 44       		.byte	0x4
 834              		.4byte	.LCFI8-.LFB2
 835 00fd 0E       		.byte	0xe
 836 00fe 0C       		.uleb128 0xc
 837 00ff 8E       		.byte	0x8e
 838 0100 01       		.uleb128 0x1
 839 0101 85       		.byte	0x85
 840 0102 02       		.uleb128 0x2
 841 0103 84       		.byte	0x84
 842 0104 03       		.uleb128 0x3
 843 0105 000000   		.align	2
 844              	.LEFDE16:
 845              		.file 2 "hwinterface.h"
 846              		.text
 847              	.Letext0: