ARM GAS  /cygdrive/c/DOCUME~1/mkwapisz/LOCALS~1/Temp/ccA3lFKO.s 			page 1


   1              		.file	"partition.c"
   8 0000 C9000000 		.text
   8      02006900 
   8      00000201 
   8      FB0E0D00 
   8      01010101 
   9              	.Ltext0:
  10              		.align	2
  11              		.global	part_isFatPart
  12              		.type	part_isFatPart, %function
  13              	part_isFatPart:
  14              	.LFB3:
  15              		.file 1 "partition.c"
   1:partition.c   **** /*****************************************************************************/
   2:partition.c   **** #include "partition.h"
   3:partition.c   **** /*****************************************************************************/
   4:partition.c   **** 
   5:partition.c   **** /* ****************************************************************************  
   6:partition.c   ****  * void part_initPartition(Partition *part,Disc* refDisc)
   7:partition.c   ****  * Description: This function searches the 4 partitions for a FAT class partition
   8:partition.c   ****  * and marks the first one found as the active to be used partition.
   9:partition.c   **** */
  10:partition.c   **** void part_initPartition(Partition *part,Disc* refDisc)
  11:partition.c   **** {
  12:partition.c   **** 	short c;
  13:partition.c   **** 	
  14:partition.c   **** 	part->disc=refDisc;
  15:partition.c   **** 	part->activePartition=-1; /* No partition selected */
  16:partition.c   **** 	part_setError(part,PART_NOERROR);
  17:partition.c   **** 	for(c=3;c>=0;c--){
  18:partition.c   **** 		if(part_isFatPart(part->disc->partitions[c].type))
  19:partition.c   **** 			part->activePartition=c;
  20:partition.c   **** 	} 
  21:partition.c   **** }
  22:partition.c   **** /*****************************************************************************/ 
  23:partition.c   **** 
  24:partition.c   **** 
  25:partition.c   **** /* ****************************************************************************  
  26:partition.c   ****  * short part_isFatPart(unsigned char type)
  27:partition.c   ****  * Description: This functions checks if a partitiontype (char) is of the FAT
  28:partition.c   ****  * type in the broadest sense. I
  29:partition.c   ****  * Return value: If it is FAT, returns 1, otherwise 0.
  30:partition.c   **** */
  31:partition.c   **** short part_isFatPart(unsigned char type)
  32:partition.c   **** {
  16              		.loc 1 32 0
  17              		@ Function supports interworking.
  18              		@ args = 0, pretend = 0, frame = 0
  19              		@ frame_needed = 0, uses_anonymous_args = 0
  20              		@ link register save eliminated.
  21              	.LVL0:
ARM GAS  /cygdrive/c/DOCUME~1/mkwapisz/LOCALS~1/Temp/ccA3lFKO.s 			page 2


  22 0000 FF0000E2 		and	r0, r0, #255
  33:partition.c   **** 	if(type == PT_FAT12  ||
  23              		.loc 1 33 0
  24 0004 040050E3 		cmp	r0, #4
  25 0008 01005013 		cmpne	r0, #1
  26              		.loc 1 32 0
  27              		@ lr needed for prologue
  28              		.loc 1 33 0
  29 000c 0700000A 		beq	.L2
  30 0010 0B0050E3 		cmp	r0, #11
  31 0014 06005013 		cmpne	r0, #6
  32 0018 0400000A 		beq	.L2
  33 001c 5E0050E3 		cmp	r0, #94
  34 0020 5C005013 		cmpne	r0, #92
  35 0024 0000A013 		movne	r0, #0
  36 0028 0100A003 		moveq	r0, #1
  37              	.LVL1:
  38 002c 1EFF2FE1 		bx	lr
  39              	.LVL2:
  40              	.L2:
  41 0030 0100A0E3 		mov	r0, #1
  42              	.LVL3:
  34:partition.c   **** 	   type == PT_FAT16A ||
  35:partition.c   **** 	   type == PT_FAT16  ||
  36:partition.c   **** 	   type == PT_FAT32  ||
  37:partition.c   **** 	   type == PT_FAT32A ||
  38:partition.c   **** 	   type == PT_FAT16B   )
  39:partition.c   **** 	{
  40:partition.c   **** 		return(1);
  41:partition.c   **** 	}
  42:partition.c   **** 	return(0);
  43:partition.c   **** }
  43              		.loc 1 43 0
  44 0034 1EFF2FE1 		bx	lr
  45              	.LFE3:
  46              		.size	part_isFatPart, .-part_isFatPart
  47              		.align	2
  48              		.global	part_initPartition
  49              		.type	part_initPartition, %function
  50              	part_initPartition:
  51              	.LFB2:
  52              		.loc 1 11 0
  53              		@ Function supports interworking.
  54              		@ args = 0, pretend = 0, frame = 0
  55              		@ frame_needed = 0, uses_anonymous_args = 0
  56              	.LVL4:
  57              		.loc 1 15 0
  58 0038 0030E0E3 		mvn	r3, #0
  59              		.loc 1 11 0
  60 003c 30402DE9 		stmfd	sp!, {r4, r5, lr}
  61              	.LCFI0:
  62              		.loc 1 14 0
  63 0040 001080E5 		str	r1, [r0, #0]
  64              		.loc 1 15 0
  65 0044 0430C0E5 		strb	r3, [r0, #4]
  66              		.loc 1 11 0
  67 0048 0040A0E1 		mov	r4, r0
ARM GAS  /cygdrive/c/DOCUME~1/mkwapisz/LOCALS~1/Temp/ccA3lFKO.s 			page 3


  68              		.loc 1 15 0
  69 004c 0350A0E3 		mov	r5, #3
  70              	.LVL5:
  71              	.L8:
  72              		.loc 1 18 0
  73 0050 003094E5 		ldr	r3, [r4, #0]
  74 0054 053283E0 		add	r3, r3, r5, asl #4
  75 0058 0C00D3E5 		ldrb	r0, [r3, #12]	@ zero_extendqisi2
  76 005c FEFFFFEB 		bl	part_isFatPart
  77              	.LVL6:
  78 0060 000050E3 		cmp	r0, #0
  79              		.loc 1 19 0
  80 0064 0450C415 		strneb	r5, [r4, #4]
  81              		.loc 1 17 0
  82 0068 015055E2 		subs	r5, r5, #1
  83 006c F7FFFF2A 		bcs	.L8
  84              		.loc 1 21 0
  85 0070 3040BDE8 		ldmfd	sp!, {r4, r5, lr}
  86 0074 1EFF2FE1 		bx	lr
  87              	.LFE2:
  88              		.size	part_initPartition, .-part_initPartition
  89              		.align	2
  90              		.global	part_getRealLBA
  91              		.type	part_getRealLBA, %function
  92              	part_getRealLBA:
  93              	.LFB6:
  44:partition.c   **** /*****************************************************************************/ 
  45:partition.c   **** 
  46:partition.c   **** signed char part_readBuf(Partition *part, unsigned long address, unsigned char* buf)
  47:partition.c   **** {
  48:partition.c   **** 	return(if_readBuf(part->disc->ioman->iface,part_getRealLBA(part,address), buf));
  49:partition.c   **** }
  50:partition.c   **** 
  51:partition.c   **** /* ****************************************************************************  
  52:partition.c   ****  * short part_writeBuf(Partition *part,unsigned long address,unsigned char* buf)
  53:partition.c   ****  * Description: This function writes 512 bytes, from buf. It's offset is address
  54:partition.c   ****  * sectors from the beginning of the partition.
  55:partition.c   ****  * Return value: It returns whatever the hardware function returns. (-1=error)
  56:partition.c   **** */
  57:partition.c   **** short part_writeBuf(Partition *part,unsigned long address,unsigned char* buf)
  58:partition.c   **** {
  59:partition.c   **** 	/*DBG((TXT("part_writeBuf :: %li\n"),address));*/
  60:partition.c   **** 	return(if_writeBuf(part->disc->ioman->iface,part_getRealLBA(part,address),buf));
  61:partition.c   **** }
  62:partition.c   **** /*****************************************************************************/ 
  63:partition.c   **** 
  64:partition.c   **** 
  65:partition.c   **** /* ****************************************************************************  
  66:partition.c   ****  * unsigned long part_getRealLBA(Partition *part,unsigned long address)
  67:partition.c   ****  * Description: This function calculates what the partition offset for
  68:partition.c   ****  * a partition is + the address.
  69:partition.c   ****  * Return value: Sector address.
  70:partition.c   **** */
  71:partition.c   **** unsigned long part_getRealLBA(Partition *part,unsigned long address)
  72:partition.c   **** {
  94              		.loc 1 72 0
  95              		@ Function supports interworking.
ARM GAS  /cygdrive/c/DOCUME~1/mkwapisz/LOCALS~1/Temp/ccA3lFKO.s 			page 4


  96              		@ args = 0, pretend = 0, frame = 0
  97              		@ frame_needed = 0, uses_anonymous_args = 0
  98              		@ link register save eliminated.
  99              	.LVL7:
 100 0078 D420D0E1 		ldrsb	r2, [r0, #4]
 101 007c 003090E5 		ldr	r3, [r0, #0]
 102 0080 023283E0 		add	r3, r3, r2, asl #4
 103 0084 100093E5 		ldr	r0, [r3, #16]
 104              	.LVL8:
  73:partition.c   **** 	return(part->disc->partitions[part->activePartition].LBA_begin+address);
  74:partition.c   **** }
 105              		.loc 1 74 0
 106 0088 000081E0 		add	r0, r1, r0
 107              		.loc 1 72 0
 108              		@ lr needed for prologue
 109              		.loc 1 74 0
 110 008c 1EFF2FE1 		bx	lr
 111              	.LFE6:
 112              		.size	part_getRealLBA, .-part_getRealLBA
 113              		.align	2
 114              		.global	part_relSect
 115              		.type	part_relSect, %function
 116              	part_relSect:
 117              	.LFB8:
  75:partition.c   **** /*****************************************************************************/ 
  76:partition.c   **** 
  77:partition.c   **** /* ****************************************************************************  
  78:partition.c   ****  * unsigned char* part_getSect(Partition *part, unsigned long address, unsigned char mode)
  79:partition.c   ****  * Description: This function calls ioman_getSector, but recalculates the sector
  80:partition.c   ****  * address to be partition relative.
  81:partition.c   ****  * Return value: Whatever getSector returns. (pointer or 0)
  82:partition.c   **** */
  83:partition.c   **** unsigned char* part_getSect(Partition *part, unsigned long address, unsigned char mode)
  84:partition.c   **** {
  85:partition.c   **** 	return(ioman_getSector(part->disc->ioman,part_getRealLBA(part,address),mode));
  86:partition.c   **** }
  87:partition.c   **** 
  88:partition.c   **** /* ****************************************************************************  
  89:partition.c   ****  * signed char part_relSect(Partition *part, unsigned char* buf)
  90:partition.c   ****  * Description: This function calls ioman_releaseSector.
  91:partition.c   ****  * Return value: Whatever releaseSector returns.
  92:partition.c   **** */
  93:partition.c   **** signed char part_relSect(Partition *part, unsigned char* buf)
  94:partition.c   **** {
 118              		.loc 1 94 0
 119              		@ Function supports interworking.
 120              		@ args = 0, pretend = 0, frame = 0
 121              		@ frame_needed = 0, uses_anonymous_args = 0
 122              	.LVL9:
  95:partition.c   **** 	return(ioman_releaseSector(part->disc->ioman,buf));
 123              		.loc 1 95 0
 124 0090 003090E5 		ldr	r3, [r0, #0]
 125              		.loc 1 94 0
 126 0094 04E02DE5 		str	lr, [sp, #-4]!
 127              	.LCFI1:
 128              		.loc 1 95 0
 129 0098 000093E5 		ldr	r0, [r3, #0]
ARM GAS  /cygdrive/c/DOCUME~1/mkwapisz/LOCALS~1/Temp/ccA3lFKO.s 			page 5


 130              	.LVL10:
 131 009c FEFFFFEB 		bl	ioman_releaseSector
 132              	.LVL11:
 133 00a0 000CA0E1 		mov	r0, r0, asl #24
  96:partition.c   **** }
 134              		.loc 1 96 0
 135 00a4 400CA0E1 		mov	r0, r0, asr #24
 136 00a8 04E09DE4 		ldr	lr, [sp], #4
 137 00ac 1EFF2FE1 		bx	lr
 138              	.LFE8:
 139              		.size	part_relSect, .-part_relSect
 140              		.align	2
 141              		.global	part_readBuf
 142              		.type	part_readBuf, %function
 143              	part_readBuf:
 144              	.LFB4:
 145              		.loc 1 47 0
 146              		@ Function supports interworking.
 147              		@ args = 0, pretend = 0, frame = 0
 148              		@ frame_needed = 0, uses_anonymous_args = 0
 149              	.LVL12:
 150 00b0 04E02DE5 		str	lr, [sp, #-4]!
 151              	.LCFI2:
 152              		.loc 1 48 0
 153 00b4 D430D0E1 		ldrsb	r3, [r0, #4]
 154 00b8 000090E5 		ldr	r0, [r0, #0]
 155              	.LVL13:
 156 00bc 033280E0 		add	r3, r0, r3, asl #4
 157 00c0 103093E5 		ldr	r3, [r3, #16]
 158 00c4 000090E5 		ldr	r0, [r0, #0]
 159 00c8 031081E0 		add	r1, r1, r3
 160              	.LVL14:
 161 00cc 000090E5 		ldr	r0, [r0, #0]
 162 00d0 FEFFFFEB 		bl	if_readBuf
 163              	.LVL15:
 164 00d4 000CA0E1 		mov	r0, r0, asl #24
 165              		.loc 1 49 0
 166 00d8 400CA0E1 		mov	r0, r0, asr #24
 167 00dc 04E09DE4 		ldr	lr, [sp], #4
 168 00e0 1EFF2FE1 		bx	lr
 169              	.LFE4:
 170              		.size	part_readBuf, .-part_readBuf
 171              		.align	2
 172              		.global	part_directSectorWrite
 173              		.type	part_directSectorWrite, %function
 174              	part_directSectorWrite:
 175              	.LFB11:
  97:partition.c   **** 
  98:partition.c   **** signed char part_flushPart(Partition *part,unsigned long addr_l, unsigned long addr_h)
  99:partition.c   **** {
 100:partition.c   **** 	return( 
 101:partition.c   **** 		ioman_flushRange(part->disc->ioman,part_getRealLBA(part,addr_l),part_getRealLBA(part,addr_h)) 
 102:partition.c   **** 	);	
 103:partition.c   **** }
 104:partition.c   **** 
 105:partition.c   **** signed char part_directSectorRead(Partition *part,unsigned long address, unsigned char* buf)
 106:partition.c   **** {
ARM GAS  /cygdrive/c/DOCUME~1/mkwapisz/LOCALS~1/Temp/ccA3lFKO.s 			page 6


 107:partition.c   **** 	return(
 108:partition.c   **** 		ioman_directSectorRead(part->disc->ioman,part_getRealLBA(part,address),buf)
 109:partition.c   **** 	);
 110:partition.c   **** }
 111:partition.c   **** 
 112:partition.c   **** signed char part_directSectorWrite(Partition *part,unsigned long address, unsigned char* buf)
 113:partition.c   **** {
 176              		.loc 1 113 0
 177              		@ Function supports interworking.
 178              		@ args = 0, pretend = 0, frame = 0
 179              		@ frame_needed = 0, uses_anonymous_args = 0
 180              	.LVL16:
 181 00e4 04E02DE5 		str	lr, [sp, #-4]!
 182              	.LCFI3:
 114:partition.c   **** 	return(
 183              		.loc 1 114 0
 184 00e8 D430D0E1 		ldrsb	r3, [r0, #4]
 185 00ec 000090E5 		ldr	r0, [r0, #0]
 186              	.LVL17:
 187 00f0 033280E0 		add	r3, r0, r3, asl #4
 188 00f4 103093E5 		ldr	r3, [r3, #16]
 189 00f8 000090E5 		ldr	r0, [r0, #0]
 190 00fc 031081E0 		add	r1, r1, r3
 191              	.LVL18:
 192 0100 FEFFFFEB 		bl	ioman_directSectorWrite
 193              	.LVL19:
 194 0104 000CA0E1 		mov	r0, r0, asl #24
 115:partition.c   **** 		ioman_directSectorWrite(part->disc->ioman,part_getRealLBA(part,address),buf)
 116:partition.c   **** 	);
 117:partition.c   **** }
 195              		.loc 1 117 0
 196 0108 400CA0E1 		mov	r0, r0, asr #24
 197 010c 04E09DE4 		ldr	lr, [sp], #4
 198 0110 1EFF2FE1 		bx	lr
 199              	.LFE11:
 200              		.size	part_directSectorWrite, .-part_directSectorWrite
 201              		.align	2
 202              		.global	part_directSectorRead
 203              		.type	part_directSectorRead, %function
 204              	part_directSectorRead:
 205              	.LFB10:
 206              		.loc 1 106 0
 207              		@ Function supports interworking.
 208              		@ args = 0, pretend = 0, frame = 0
 209              		@ frame_needed = 0, uses_anonymous_args = 0
 210              	.LVL20:
 211 0114 04E02DE5 		str	lr, [sp, #-4]!
 212              	.LCFI4:
 213              		.loc 1 107 0
 214 0118 D430D0E1 		ldrsb	r3, [r0, #4]
 215 011c 000090E5 		ldr	r0, [r0, #0]
 216              	.LVL21:
 217 0120 033280E0 		add	r3, r0, r3, asl #4
 218 0124 103093E5 		ldr	r3, [r3, #16]
 219 0128 000090E5 		ldr	r0, [r0, #0]
 220 012c 031081E0 		add	r1, r1, r3
 221              	.LVL22:
ARM GAS  /cygdrive/c/DOCUME~1/mkwapisz/LOCALS~1/Temp/ccA3lFKO.s 			page 7


 222 0130 FEFFFFEB 		bl	ioman_directSectorRead
 223              	.LVL23:
 224 0134 000CA0E1 		mov	r0, r0, asl #24
 225              		.loc 1 110 0
 226 0138 400CA0E1 		mov	r0, r0, asr #24
 227 013c 04E09DE4 		ldr	lr, [sp], #4
 228 0140 1EFF2FE1 		bx	lr
 229              	.LFE10:
 230              		.size	part_directSectorRead, .-part_directSectorRead
 231              		.align	2
 232              		.global	part_flushPart
 233              		.type	part_flushPart, %function
 234              	part_flushPart:
 235              	.LFB9:
 236              		.loc 1 99 0
 237              		@ Function supports interworking.
 238              		@ args = 0, pretend = 0, frame = 0
 239              		@ frame_needed = 0, uses_anonymous_args = 0
 240              	.LVL24:
 241 0144 04E02DE5 		str	lr, [sp, #-4]!
 242              	.LCFI5:
 243              	.LBB12:
 244              	.LBB13:
 245              		.loc 1 73 0
 246 0148 D430D0E1 		ldrsb	r3, [r0, #4]
 247              	.LBE13:
 248              	.LBE12:
 249              		.loc 1 100 0
 250 014c 000090E5 		ldr	r0, [r0, #0]
 251              	.LVL25:
 252              	.LBB14:
 253              	.LBB15:
 254              		.loc 1 73 0
 255 0150 033280E0 		add	r3, r0, r3, asl #4
 256 0154 103093E5 		ldr	r3, [r3, #16]
 257              	.LBE15:
 258              	.LBE14:
 259              		.loc 1 100 0
 260 0158 000090E5 		ldr	r0, [r0, #0]
 261 015c 022083E0 		add	r2, r3, r2
 262              	.LVL26:
 263 0160 011083E0 		add	r1, r3, r1
 264              	.LVL27:
 265 0164 FEFFFFEB 		bl	ioman_flushRange
 266 0168 000CA0E1 		mov	r0, r0, asl #24
 267              		.loc 1 103 0
 268 016c 400CA0E1 		mov	r0, r0, asr #24
 269 0170 04E09DE4 		ldr	lr, [sp], #4
 270 0174 1EFF2FE1 		bx	lr
 271              	.LFE9:
 272              		.size	part_flushPart, .-part_flushPart
 273              		.align	2
 274              		.global	part_getSect
 275              		.type	part_getSect, %function
 276              	part_getSect:
 277              	.LFB7:
 278              		.loc 1 84 0
ARM GAS  /cygdrive/c/DOCUME~1/mkwapisz/LOCALS~1/Temp/ccA3lFKO.s 			page 8


 279              		@ Function supports interworking.
 280              		@ args = 0, pretend = 0, frame = 0
 281              		@ frame_needed = 0, uses_anonymous_args = 0
 282              	.LVL28:
 283 0178 04E02DE5 		str	lr, [sp, #-4]!
 284              	.LCFI6:
 285              		.loc 1 85 0
 286 017c D430D0E1 		ldrsb	r3, [r0, #4]
 287 0180 000090E5 		ldr	r0, [r0, #0]
 288              	.LVL29:
 289 0184 033280E0 		add	r3, r0, r3, asl #4
 290 0188 103093E5 		ldr	r3, [r3, #16]
 291              		.loc 1 84 0
 292 018c FF2002E2 		and	r2, r2, #255
 293              		.loc 1 85 0
 294 0190 031081E0 		add	r1, r1, r3
 295              	.LVL30:
 296 0194 000090E5 		ldr	r0, [r0, #0]
 297 0198 FEFFFFEB 		bl	ioman_getSector
 298              	.LVL31:
 299              		.loc 1 86 0
 300 019c 04E09DE4 		ldr	lr, [sp], #4
 301 01a0 1EFF2FE1 		bx	lr
 302              	.LFE7:
 303              		.size	part_getSect, .-part_getSect
 304              		.align	2
 305              		.global	part_writeBuf
 306              		.type	part_writeBuf, %function
 307              	part_writeBuf:
 308              	.LFB5:
 309              		.loc 1 58 0
 310              		@ Function supports interworking.
 311              		@ args = 0, pretend = 0, frame = 0
 312              		@ frame_needed = 0, uses_anonymous_args = 0
 313              	.LVL32:
 314 01a4 04E02DE5 		str	lr, [sp, #-4]!
 315              	.LCFI7:
 316              		.loc 1 60 0
 317 01a8 D430D0E1 		ldrsb	r3, [r0, #4]
 318 01ac 000090E5 		ldr	r0, [r0, #0]
 319              	.LVL33:
 320 01b0 033280E0 		add	r3, r0, r3, asl #4
 321 01b4 103093E5 		ldr	r3, [r3, #16]
 322 01b8 000090E5 		ldr	r0, [r0, #0]
 323 01bc 031081E0 		add	r1, r1, r3
 324              	.LVL34:
 325 01c0 000090E5 		ldr	r0, [r0, #0]
 326 01c4 FEFFFFEB 		bl	if_writeBuf
 327              	.LVL35:
 328 01c8 000CA0E1 		mov	r0, r0, asl #24
 329              		.loc 1 61 0
 330 01cc 400CA0E1 		mov	r0, r0, asr #24
 331 01d0 04E09DE4 		ldr	lr, [sp], #4
 332 01d4 1EFF2FE1 		bx	lr
 333              	.LFE5:
 334              		.size	part_writeBuf, .-part_writeBuf
 335              		.section	.debug_frame,"",%progbits
ARM GAS  /cygdrive/c/DOCUME~1/mkwapisz/LOCALS~1/Temp/ccA3lFKO.s 			page 9


 336              	.Lframe0:
 337 0000 0C000000 		.4byte	.LECIE0-.LSCIE0
 338              	.LSCIE0:
 339 0004 FFFFFFFF 		.4byte	0xffffffff
 340 0008 01       		.byte	0x1
 341 0009 00       		.ascii	"\000"
 342 000a 01       		.uleb128 0x1
 343 000b 7C       		.sleb128 -4
 344 000c 0E       		.byte	0xe
 345 000d 0C       		.byte	0xc
 346 000e 0D       		.uleb128 0xd
 347 000f 00       		.uleb128 0x0
 348              		.align	2
 349              	.LECIE0:
 350              	.LSFDE0:
 351 0010 0C000000 		.4byte	.LEFDE0-.LASFDE0
 352              	.LASFDE0:
 353 0014 00000000 		.4byte	.Lframe0
 354 0018 00000000 		.4byte	.LFB3
 355 001c 38000000 		.4byte	.LFE3-.LFB3
 356              		.align	2
 357              	.LEFDE0:
 358              	.LSFDE2:
 359 0020 18000000 		.4byte	.LEFDE2-.LASFDE2
 360              	.LASFDE2:
 361 0024 00000000 		.4byte	.Lframe0
 362 0028 38000000 		.4byte	.LFB2
 363 002c 40000000 		.4byte	.LFE2-.LFB2
 364 0030 48       		.byte	0x4
 365              		.4byte	.LCFI0-.LFB2
 366 0031 0E       		.byte	0xe
 367 0032 0C       		.uleb128 0xc
 368 0033 8E       		.byte	0x8e
 369 0034 01       		.uleb128 0x1
 370 0035 85       		.byte	0x85
 371 0036 02       		.uleb128 0x2
 372 0037 84       		.byte	0x84
 373 0038 03       		.uleb128 0x3
 374 0039 000000   		.align	2
 375              	.LEFDE2:
 376              	.LSFDE4:
 377 003c 0C000000 		.4byte	.LEFDE4-.LASFDE4
 378              	.LASFDE4:
 379 0040 00000000 		.4byte	.Lframe0
 380 0044 78000000 		.4byte	.LFB6
 381 0048 18000000 		.4byte	.LFE6-.LFB6
 382              		.align	2
 383              	.LEFDE4:
 384              	.LSFDE6:
 385 004c 14000000 		.4byte	.LEFDE6-.LASFDE6
 386              	.LASFDE6:
 387 0050 00000000 		.4byte	.Lframe0
 388 0054 90000000 		.4byte	.LFB8
 389 0058 20000000 		.4byte	.LFE8-.LFB8
 390 005c 48       		.byte	0x4
 391              		.4byte	.LCFI1-.LFB8
 392 005d 0E       		.byte	0xe
ARM GAS  /cygdrive/c/DOCUME~1/mkwapisz/LOCALS~1/Temp/ccA3lFKO.s 			page 10


 393 005e 04       		.uleb128 0x4
 394 005f 8E       		.byte	0x8e
 395 0060 01       		.uleb128 0x1
 396 0061 000000   		.align	2
 397              	.LEFDE6:
 398              	.LSFDE8:
 399 0064 14000000 		.4byte	.LEFDE8-.LASFDE8
 400              	.LASFDE8:
 401 0068 00000000 		.4byte	.Lframe0
 402 006c B0000000 		.4byte	.LFB4
 403 0070 34000000 		.4byte	.LFE4-.LFB4
 404 0074 44       		.byte	0x4
 405              		.4byte	.LCFI2-.LFB4
 406 0075 0E       		.byte	0xe
 407 0076 04       		.uleb128 0x4
 408 0077 8E       		.byte	0x8e
 409 0078 01       		.uleb128 0x1
 410 0079 000000   		.align	2
 411              	.LEFDE8:
 412              	.LSFDE10:
 413 007c 14000000 		.4byte	.LEFDE10-.LASFDE10
 414              	.LASFDE10:
 415 0080 00000000 		.4byte	.Lframe0
 416 0084 E4000000 		.4byte	.LFB11
 417 0088 30000000 		.4byte	.LFE11-.LFB11
 418 008c 44       		.byte	0x4
 419              		.4byte	.LCFI3-.LFB11
 420 008d 0E       		.byte	0xe
 421 008e 04       		.uleb128 0x4
 422 008f 8E       		.byte	0x8e
 423 0090 01       		.uleb128 0x1
 424 0091 000000   		.align	2
 425              	.LEFDE10:
 426              	.LSFDE12:
 427 0094 14000000 		.4byte	.LEFDE12-.LASFDE12
 428              	.LASFDE12:
 429 0098 00000000 		.4byte	.Lframe0
 430 009c 14010000 		.4byte	.LFB10
 431 00a0 30000000 		.4byte	.LFE10-.LFB10
 432 00a4 44       		.byte	0x4
 433              		.4byte	.LCFI4-.LFB10
 434 00a5 0E       		.byte	0xe
 435 00a6 04       		.uleb128 0x4
 436 00a7 8E       		.byte	0x8e
 437 00a8 01       		.uleb128 0x1
 438 00a9 000000   		.align	2
 439              	.LEFDE12:
 440              	.LSFDE14:
 441 00ac 14000000 		.4byte	.LEFDE14-.LASFDE14
 442              	.LASFDE14:
 443 00b0 00000000 		.4byte	.Lframe0
 444 00b4 44010000 		.4byte	.LFB9
 445 00b8 34000000 		.4byte	.LFE9-.LFB9
 446 00bc 44       		.byte	0x4
 447              		.4byte	.LCFI5-.LFB9
 448 00bd 0E       		.byte	0xe
 449 00be 04       		.uleb128 0x4
ARM GAS  /cygdrive/c/DOCUME~1/mkwapisz/LOCALS~1/Temp/ccA3lFKO.s 			page 11


 450 00bf 8E       		.byte	0x8e
 451 00c0 01       		.uleb128 0x1
 452 00c1 000000   		.align	2
 453              	.LEFDE14:
 454              	.LSFDE16:
 455 00c4 14000000 		.4byte	.LEFDE16-.LASFDE16
 456              	.LASFDE16:
 457 00c8 00000000 		.4byte	.Lframe0
 458 00cc 78010000 		.4byte	.LFB7
 459 00d0 2C000000 		.4byte	.LFE7-.LFB7
 460 00d4 44       		.byte	0x4
 461              		.4byte	.LCFI6-.LFB7
 462 00d5 0E       		.byte	0xe
 463 00d6 04       		.uleb128 0x4
 464 00d7 8E       		.byte	0x8e
 465 00d8 01       		.uleb128 0x1
 466 00d9 000000   		.align	2
 467              	.LEFDE16:
 468              	.LSFDE18:
 469 00dc 14000000 		.4byte	.LEFDE18-.LASFDE18
 470              	.LASFDE18:
 471 00e0 00000000 		.4byte	.Lframe0
 472 00e4 A4010000 		.4byte	.LFB5
 473 00e8 34000000 		.4byte	.LFE5-.LFB5
 474 00ec 44       		.byte	0x4
 475              		.4byte	.LCFI7-.LFB5
 476 00ed 0E       		.byte	0xe
 477 00ee 04       		.uleb128 0x4
 478 00ef 8E       		.byte	0x8e
 479 00f0 01       		.uleb128 0x1
 480 00f1 000000   		.align	2
 481              	.LEFDE18:
 482              		.file 2 "partition.h"
 483              		.file 3 "disc.h"
 484              		.file 4 "ioman.h"
 485              		.file 5 "../mmc/hwinterface.h"
 486              		.file 6 "../mmc/types.h"
 487              		.text
 488              	.Letext0: