ARM GAS  /cygdrive/c/DOCUME~1/mkwapisz/LOCALS~1/Temp/ccuTaHuv.s 			page 1


   1              		.file	"dir.c"
   8 0000 66010000 		.text
   8      02006B00 
   8      00000201 
   8      FB0E0D00 
   8      01010101 
   9              	.Ltext0:
  10              		.align	2
  11              		.global	dir_findFreeEntryinBuf
  12              		.type	dir_findFreeEntryinBuf, %function
  13              	dir_findFreeEntryinBuf:
  14              	.LFB9:
  15              		.file 1 "dir.c"
   1:dir.c         **** /*****************************************************************************/
   2:dir.c         **** #include "dir.h"
   3:dir.c         **** /*****************************************************************************/
   4:dir.c         **** 
   5:dir.c         **** /* ****************************************************************************  
   6:dir.c         ****  * void dir_getFileStructure(FileSystem *fs,FileRecord *filerec,FileLocation *loc)
   7:dir.c         ****  * Description: This function stores the filerecord located at loc in filerec.
   8:dir.c         ****  * It fetches the required sector for this.
   9:dir.c         ****  * Return value: void
  10:dir.c         **** */
  11:dir.c         **** void dir_getFileStructure(FileSystem *fs,FileRecord *filerec,FileLocation *loc)
  12:dir.c         **** {
  13:dir.c         **** 	unsigned char *buf;
  14:dir.c         **** 
  15:dir.c         **** 	buf=part_getSect(fs->part,loc->Sector,IOM_MODE_READONLY);
  16:dir.c         **** 	*filerec=*(((FileRecord*)buf)+loc->Offset);
  17:dir.c         **** 	part_relSect(fs->part,buf);
  18:dir.c         **** }	
  19:dir.c         **** 
  20:dir.c         **** /*****************************************************************************/
  21:dir.c         **** 
  22:dir.c         **** /* ****************************************************************************  
  23:dir.c         ****  * void dir_createDirectoryEntry(FileSystem *fs,FileRecord *filerec,FileLocation *loc)
  24:dir.c         ****  * Description: This function writes the filerecord stored in filerec to disc at
  25:dir.c         ****  * location loc. 
  26:dir.c         ****  * Return value: void
  27:dir.c         **** */
  28:dir.c         **** void dir_createDirectoryEntry(FileSystem *fs,FileRecord *filerec,FileLocation *loc)
  29:dir.c         **** {
  30:dir.c         **** 	unsigned char *buf;
  31:dir.c         **** 	
  32:dir.c         **** 	buf = part_getSect(fs->part,loc->Sector,IOM_MODE_READWRITE);
  33:dir.c         **** 	memCpy(filerec,buf+(loc->Offset*sizeof(*filerec)),sizeof(*filerec));
  34:dir.c         **** 	part_relSect(fs->part,buf);
  35:dir.c         **** }
  36:dir.c         **** /*****************************************************************************/
  37:dir.c         **** 
  38:dir.c         **** /* ****************************************************************************  
ARM GAS  /cygdrive/c/DOCUME~1/mkwapisz/LOCALS~1/Temp/ccuTaHuv.s 			page 2


  39:dir.c         ****  * void dir_createDefaultEntry(FileSystem *fs,FileRecord *filerec,char* fatfilename)
  40:dir.c         ****  * Description: This function fills in a filerecord with safe default values, and
  41:dir.c         ****  * a given fatfilename. If your system has a means of knowing time, here is an 
  42:dir.c         ****  * excellent place to apply it to the filerecord.  
  43:dir.c         ****  * Return value: void
  44:dir.c         **** */
  45:dir.c         **** void dir_createDefaultEntry(FileSystem *fs,FileRecord *filerec,char* fatfilename)
  46:dir.c         **** {
  47:dir.c         **** 	memCpy(fatfilename,filerec->FileName,11);
  48:dir.c         **** 	filerec->Attribute=0x00;
  49:dir.c         **** 	filerec->NTReserved=0x00;
  50:dir.c         **** 	filerec->MilliSecTimeStamp=0x00;
  51:dir.c         **** 	filerec->CreatedTime=time_getTime();
  52:dir.c         **** 	filerec->CreatedDate=time_getDate(); 
  53:dir.c         **** 	filerec->AccessDate=filerec->CreatedDate;
  54:dir.c         **** 	filerec->FirstClusterHigh=0x0000;
  55:dir.c         **** 	filerec->WriteTime=filerec->CreatedTime;
  56:dir.c         **** 	filerec->WriteDate=filerec->CreatedDate;
  57:dir.c         **** 	filerec->FirstClusterLow=0x0000;
  58:dir.c         **** 	filerec->FileSize=0x00000000;
  59:dir.c         **** }
  60:dir.c         **** /*****************************************************************************/
  61:dir.c         **** 
  62:dir.c         **** /* ****************************************************************************  
  63:dir.c         ****  * void dir_setFirstCluster(File *file,unsigned long cluster_addr)
  64:dir.c         ****  * Description: This function requires modification to release it from
  65:dir.c         ****  * depending on the file object.
  66:dir.c         ****  * Return value:
  67:dir.c         **** */
  68:dir.c         **** void dir_setFirstCluster(FileSystem *fs,FileLocation *loc,unsigned long cluster_addr)
  69:dir.c         **** {
  70:dir.c         **** 	unsigned char *buf;
  71:dir.c         ****  	
  72:dir.c         ****  	buf = part_getSect(fs->part,loc->Sector,IOM_MODE_READWRITE);
  73:dir.c         **** 	(((FileRecord*)buf)+loc->Offset)->FirstClusterHigh=cluster_addr>>16;
  74:dir.c         **** 	(((FileRecord*)buf)+loc->Offset)->FirstClusterLow=cluster_addr&0xFFFF;	
  75:dir.c         **** 	part_relSect(fs->part,buf);
  76:dir.c         **** }
  77:dir.c         **** /*****************************************************************************/
  78:dir.c         **** 
  79:dir.c         **** /* ****************************************************************************  
  80:dir.c         ****  * void dir_setFileSize(FileSystem *fs, FileLocation *loc,unsigned long numbytes)
  81:dir.c         ****  * Description: This function changes the filesize recorded at loc->Sector
  82:dir.c         ****  * to 'numbytes'.
  83:dir.c         ****  * Return value: void
  84:dir.c         **** */
  85:dir.c         **** void dir_setFileSize(FileSystem *fs, FileLocation *loc,unsigned long numbytes)
  86:dir.c         **** {
  87:dir.c         **** 	unsigned char *buf;
  88:dir.c         **** 	
  89:dir.c         **** 	buf = part_getSect(fs->part,loc->Sector,IOM_MODE_READWRITE);
  90:dir.c         **** 	(((FileRecord*)buf)+loc->Offset)->FileSize=numbytes;
  91:dir.c         **** 	part_relSect(fs->part,buf);
  92:dir.c         **** }
  93:dir.c         **** /*****************************************************************************/
  94:dir.c         **** 
  95:dir.c         **** /* ****************************************************************************  
ARM GAS  /cygdrive/c/DOCUME~1/mkwapisz/LOCALS~1/Temp/ccuTaHuv.s 			page 3


  96:dir.c         ****  * signed char dir_updateDirectoryEntry(FileSystem *fs,FileRecord *entry,FileLocation *loc))
  97:dir.c         ****  * This function changes the entire entity stores at loc to the data recorded
  98:dir.c         ****  * in entry. This is for custom updates to the directoryentry.
  99:dir.c         ****  * Return value: 0 on success, -1 on failure
 100:dir.c         **** */
 101:dir.c         **** signed char dir_updateDirectoryEntry(FileSystem *fs,FileRecord *entry,FileLocation *loc)
 102:dir.c         **** {
 103:dir.c         **** 	unsigned char *buf;
 104:dir.c         **** 	
 105:dir.c         **** 	buf = part_getSect(fs->part,loc->Sector,IOM_MODE_READWRITE);
 106:dir.c         **** 	memCpy(entry,buf+(loc->Offset*sizeof(*entry)),sizeof(*entry));
 107:dir.c         **** 	part_relSect(fs->part,buf);
 108:dir.c         **** 	return(0);
 109:dir.c         **** }
 110:dir.c         **** 
 111:dir.c         **** /* ****************************************************************************  
 112:dir.c         ****  * unsigned long dir_findFileinBuf(unsigned char *buf, char *fatname, FileLocation *loc)
 113:dir.c         ****  * This function searches for a given fatfilename in the buffer provided.
 114:dir.c         ****  * It will iterate through the 16 direntry's in the buffer and searches
 115:dir.c         ****  * for the fatfilename. If found, it will store the offset and attribute
 116:dir.c         ****  * entry of the directoryrecord in the loc structure.
 117:dir.c         ****  * If loc is 0, then it's members are not touched.
 118:dir.c         ****  * Return value: This function returns 0 when it cannot find the file,
 119:dir.c         ****  * if it can find the file it will return the first cluster number.
 120:dir.c         **** */
 121:dir.c         **** unsigned long dir_findFileinBuf(unsigned char *buf, char *fatname, FileLocation *loc)
 122:dir.c         **** {
 123:dir.c         **** 	FileRecord fileEntry;
 124:dir.c         **** 	unsigned char c;
 125:dir.c         **** 	
 126:dir.c         **** 	for(c=0; c<16; c++)
 127:dir.c         **** 	{
 128:dir.c         **** 		fileEntry = *(((FileRecord*)buf) + c);
 129:dir.c         **** 		/* Check if the entry is for short filenames */
 130:dir.c         **** 		if( !( (fileEntry.Attribute & 0x0F) == 0x0F ) )
 131:dir.c         **** 		{
 132:dir.c         **** 			if( strMatch((char*)fileEntry.FileName,fatname,11) == 0 )
 133:dir.c         **** 			{
 134:dir.c         **** 				/* The entry has been found, return the location in the dir */
 135:dir.c         **** 				if(loc)loc->Offset = c;
 136:dir.c         **** 				if(loc)loc->attrib = fileEntry.Attribute;
 137:dir.c         **** 				if((((unsigned long )fileEntry.FirstClusterHigh)<<16)+ fileEntry.FirstClusterLow==0){
 138:dir.c         **** 					return(1); /* Lie about cluster, 0 means not found! */
 139:dir.c         **** 				}else{
 140:dir.c         **** 					return
 141:dir.c         **** 							(
 142:dir.c         **** 							(((unsigned long )fileEntry.FirstClusterHigh)<<16)
 143:dir.c         **** 							+ fileEntry.FirstClusterLow
 144:dir.c         **** 							);
 145:dir.c         **** 				}
 146:dir.c         **** 			}
 147:dir.c         **** 		}
 148:dir.c         **** 	}
 149:dir.c         **** 	return(0);
 150:dir.c         **** }
 151:dir.c         **** 
 152:dir.c         **** /* ****************************************************************************  
ARM GAS  /cygdrive/c/DOCUME~1/mkwapisz/LOCALS~1/Temp/ccuTaHuv.s 			page 4


 153:dir.c         ****  * unsigned long dir_findFreeEntryinBuf(unsigned char* buf, FileLocation *loc)
 154:dir.c         ****  * This function searches for a free entry in a given sector 'buf'.
 155:dir.c         ****  * It will put the offset into the loc->Offset field, given that loc is not 0.
 156:dir.c         ****  * Return value: 1 when it found a free spot, 0 if it hasn't.
 157:dir.c         **** */
 158:dir.c         **** unsigned long dir_findFreeEntryinBuf(unsigned char* buf, FileLocation *loc)
 159:dir.c         **** {
  16              		.loc 1 159 0
  17              		@ Function supports interworking.
  18              		@ args = 0, pretend = 0, frame = 32
  19              		@ frame_needed = 0, uses_anonymous_args = 0
  20              	.LVL0:
  21 0000 F0402DE9 		stmfd	sp!, {r4, r5, r6, r7, lr}
  22              	.LCFI0:
  23 0004 0070A0E1 		mov	r7, r0
  24 0008 20D04DE2 		sub	sp, sp, #32
  25              	.LCFI1:
  26              		.loc 1 159 0
  27 000c 0160A0E1 		mov	r6, r1
  28 0010 0050A0E3 		mov	r5, #0
  29              	.LVL1:
  30              	.L2:
 160:dir.c         **** 	FileRecord fileEntry;
 161:dir.c         **** 	unsigned char c;
 162:dir.c         **** 	
 163:dir.c         **** 	for(c=0;c<16;c++){
 164:dir.c         **** 		fileEntry = *(((FileRecord*)buf) + c);
  31              		.loc 1 164 0
  32 0014 85C287E0 		add	ip, r7, r5, asl #5
  33 0018 0F00BCE8 		ldmia	ip!, {r0, r1, r2, r3}
  34              	.LVL2:
  35 001c 0DE0A0E1 		mov	lr, sp
  36 0020 0F00AEE8 		stmia	lr!, {r0, r1, r2, r3}
 165:dir.c         **** 		if( !( (fileEntry.Attribute & 0x0F) == 0x0F ) ){
  37              		.loc 1 165 0
  38 0024 0B40DDE5 		ldrb	r4, [sp, #11]	@ zero_extendqisi2
  39              		.loc 1 164 0
  40 0028 0F009CE8 		ldmia	ip, {r0, r1, r2, r3}
  41              		.loc 1 165 0
  42 002c 0F4004E2 		and	r4, r4, #15
  43 0030 0F0054E3 		cmp	r4, #15
  44              		.loc 1 164 0
  45 0034 0F008EE8 		stmia	lr, {r0, r1, r2, r3}
  46              		.loc 1 159 0
  47 0038 FF2005E2 		and	r2, r5, #255
  48              	.LVL3:
  49              		.loc 1 164 0
  50 003c 0030DDE5 		ldrb	r3, [sp, #0]	@ zero_extendqisi2
 166:dir.c         **** 			if(fileEntry.FileName[0] == 0x00 ||
 167:dir.c         **** 			   fileEntry.FileName[0] == 0xE5 ){
 168:dir.c         **** 				if(loc)loc->Offset=c;
  51              		.loc 1 168 0
  52 0040 015085E2 		add	r5, r5, #1
  53              		.loc 1 165 0
  54 0044 0700000A 		beq	.L3
  55              		.loc 1 166 0
  56 0048 E50053E3 		cmp	r3, #229
ARM GAS  /cygdrive/c/DOCUME~1/mkwapisz/LOCALS~1/Temp/ccuTaHuv.s 			page 5


  57 004c 00005313 		cmpne	r3, #0
  58 0050 0400001A 		bne	.L3
  59              		.loc 1 168 0
  60 0054 000056E3 		cmp	r6, #0
  61 0058 0100A003 		moveq	r0, #1
  62 005c 0100A013 		movne	r0, #1
  63 0060 0420C615 		strneb	r2, [r6, #4]
  64 0064 020000EA 		b	.L8
  65              	.L3:
  66              		.loc 1 163 0
  67 0068 100055E3 		cmp	r5, #16
  68 006c E8FFFF1A 		bne	.L2
  69 0070 0000A0E3 		mov	r0, #0
  70              	.L8:
 169:dir.c         **** 				return(1);
 170:dir.c         **** 			}
 171:dir.c         **** 		}
 172:dir.c         **** 	}
 173:dir.c         **** 	return(0);
 174:dir.c         **** }
  71              		.loc 1 174 0
  72 0074 20D08DE2 		add	sp, sp, #32
  73 0078 F040BDE8 		ldmfd	sp!, {r4, r5, r6, r7, lr}
  74 007c 1EFF2FE1 		bx	lr
  75              	.LFE9:
  76              		.size	dir_findFreeEntryinBuf, .-dir_findFreeEntryinBuf
  77              		.align	2
  78              		.global	dir_addCluster
  79              		.type	dir_addCluster, %function
  80              	dir_addCluster:
  81              	.LFB15:
 175:dir.c         **** 
 176:dir.c         **** /* ****************************************************************************  
 177:dir.c         ****  * unsigned long  dir_findinBuf(unsigned char *buf, char *fatname, FileLocation *loc)
 178:dir.c         ****  * Description: This function searches for a given fatfilename in a buffer.
 179:dir.c         ****  * Return value: Returns 0 on not found, and the firstcluster when the name is found.
 180:dir.c         **** */
 181:dir.c         **** unsigned long  dir_findinBuf(unsigned char *buf, char *fatname, FileLocation *loc, unsigned char mo
 182:dir.c         **** {
 183:dir.c         **** 	switch(mode){
 184:dir.c         **** 		case DIRFIND_FILE:
 185:dir.c         **** 			return(dir_findFileinBuf(buf,fatname,loc));
 186:dir.c         **** 			break;
 187:dir.c         **** 		case DIRFIND_FREE:
 188:dir.c         **** 			return(dir_findFreeEntryinBuf(buf,loc));
 189:dir.c         **** 			break;
 190:dir.c         **** 		default:
 191:dir.c         **** 			return(0);
 192:dir.c         **** 			break;
 193:dir.c         **** 	}
 194:dir.c         **** 	return(0);
 195:dir.c         **** }
 196:dir.c         **** /*****************************************************************************/
 197:dir.c         **** 
 198:dir.c         **** /* ****************************************************************************  
 199:dir.c         ****  * unsigned long dir_findinCluster(FileSystem *fs,unsigned long cluster,char *fatname, FileLocation
 200:dir.c         ****  * This function will search for an existing (fatname) or free directory entry
ARM GAS  /cygdrive/c/DOCUME~1/mkwapisz/LOCALS~1/Temp/ccuTaHuv.s 			page 6


 201:dir.c         ****  * in a full cluster.
 202:dir.c         ****  * Return value: 0 on failure, firstcluster on finding file, and 1 on finding free spot.
 203:dir.c         **** */
 204:dir.c         **** unsigned long dir_findinCluster(FileSystem *fs,unsigned long cluster,char *fatname, FileLocation *l
 205:dir.c         **** {
 206:dir.c         **** 	unsigned char c,*buf=0;
 207:dir.c         **** 	unsigned long fclus;
 208:dir.c         **** 	
 209:dir.c         **** 	for(c=0;c<fs->volumeId.SectorsPerCluster;c++){
 210:dir.c         **** 		buf = part_getSect(fs->part,fs_clusterToSector(fs,cluster)+c,IOM_MODE_READONLY);
 211:dir.c         **** 		if((fclus=dir_findinBuf(buf,fatname,loc,mode))){
 212:dir.c         **** 			if(loc)loc->Sector=fs_clusterToSector(fs,cluster)+c;
 213:dir.c         **** 			part_relSect(fs->part,buf);
 214:dir.c         **** 			return(fclus);
 215:dir.c         **** 		}
 216:dir.c         **** 		part_relSect(fs->part,buf); /* Thanks Mike ;) */
 217:dir.c         **** 	}
 218:dir.c         **** 	return(0);
 219:dir.c         **** }
 220:dir.c         **** 
 221:dir.c         **** /* ****************************************************************************  
 222:dir.c         ****  * unsigned long dir_findinDir(FileSystem *fs, char* fatname,unsigned long firstcluster, FileLocati
 223:dir.c         ****  * This function will search for an existing (fatname) or free directory entry
 224:dir.c         ****  * in a directory, following the clusterchains.
 225:dir.c         ****  * Return value: 0 on failure, firstcluster on finding file, and 1 on finding free spot.
 226:dir.c         **** */
 227:dir.c         **** unsigned long dir_findinDir(FileSystem *fs, char* fatname,unsigned long firstcluster, FileLocation 
 228:dir.c         **** {
 229:dir.c         **** 	unsigned long c=0,cluster;
 230:dir.c         **** 	ClusterChain Cache;
 231:dir.c         **** 	
 232:dir.c         **** 	Cache.DiscCluster = Cache.FirstCluster = firstcluster;
 233:dir.c         **** 	Cache.LogicCluster = Cache.LastCluster = Cache.Linear = 0;
 234:dir.c         **** 	
 235:dir.c         **** 	if(firstcluster <= 1){
 236:dir.c         **** 		return(dir_findinRootArea(fs,fatname,loc,mode));	
 237:dir.c         **** 	}
 238:dir.c         **** 	
 239:dir.c         **** 	while(!fat_LogicToDiscCluster(fs,&Cache,c++)){
 240:dir.c         **** 		if((cluster=dir_findinCluster(fs,Cache.DiscCluster,fatname,loc,mode))){
 241:dir.c         **** 			return(cluster);
 242:dir.c         **** 		}
 243:dir.c         **** 	}
 244:dir.c         **** 	return(0);
 245:dir.c         **** }
 246:dir.c         **** 
 247:dir.c         **** /* ****************************************************************************  
 248:dir.c         ****  * unsigned long dir_findinDir(FileSystem *fs, char* fatname,unsigned long firstcluster, FileLocati
 249:dir.c         ****  * This function will search for an existing (fatname) or free directory entry
 250:dir.c         ****  * in the rootdirectory-area of a FAT12/FAT16 filesystem.
 251:dir.c         ****  * Return value: 0 on failure, firstcluster on finding file, and 1 on finding free spot.
 252:dir.c         **** */
 253:dir.c         **** unsigned long dir_findinRootArea(FileSystem *fs,char* fatname, FileLocation *loc, unsigned char mod
 254:dir.c         **** {
 255:dir.c         **** 	unsigned long c,fclus;
 256:dir.c         **** 	unsigned char *buf=0;
 257:dir.c         **** 	
ARM GAS  /cygdrive/c/DOCUME~1/mkwapisz/LOCALS~1/Temp/ccuTaHuv.s 			page 7


 258:dir.c         **** 	if((fs->type != FAT12) && (fs->type != FAT16))return(0);
 259:dir.c         **** 	
 260:dir.c         **** 	for(c=fs->FirstSectorRootDir;c<(fs->FirstSectorRootDir+fs->volumeId.RootEntryCount/32);c++){
 261:dir.c         **** 		buf = part_getSect(fs->part,c,IOM_MODE_READONLY);
 262:dir.c         **** 		if((fclus=dir_findinBuf(buf,fatname,loc,mode))){
 263:dir.c         **** 			if(loc)loc->Sector=c;
 264:dir.c         **** 			part_relSect(fs->part,buf);
 265:dir.c         **** 			return(fclus);
 266:dir.c         **** 		}	
 267:dir.c         **** 		part_relSect(fs->part,buf);	
 268:dir.c         **** 	}
 269:dir.c         **** 	part_relSect(fs->part,buf);
 270:dir.c         **** 	return(0);
 271:dir.c         **** }
 272:dir.c         **** 
 273:dir.c         **** /* ****************************************************************************  
 274:dir.c         ****  * signed char dir_getFatFileName(char* filename, char* fatfilename)
 275:dir.c         ****  * This function will take a full directory path, and strip off all leading
 276:dir.c         ****  * dirs and characters, leaving you with the MS-DOS notation of the actual filename.
 277:dir.c         ****  * Return value: 1 on success, 0 on not being able to produca a filename
 278:dir.c         **** */
 279:dir.c         **** signed char dir_getFatFileName(char* filename, char* fatfilename)
 280:dir.c         **** {
 281:dir.c         **** 	char ffnamec[11],*next,nn=0;
 282:dir.c         **** 	
 283:dir.c         **** 	memClr(ffnamec,11); memClr(fatfilename,11);
 284:dir.c         **** 	next = filename;
 285:dir.c         **** 	
 286:dir.c         **** 	if(*filename=='/')next++;
 287:dir.c         **** 	
 288:dir.c         **** 	while((next=file_normalToFatName(next,ffnamec))){
 289:dir.c         **** 		memCpy(ffnamec,fatfilename,11);	
 290:dir.c         **** 		nn++;
 291:dir.c         **** 	}
 292:dir.c         **** 	if(nn)return(1);
 293:dir.c         **** 	return(0);
 294:dir.c         **** }
 295:dir.c         **** 
 296:dir.c         **** /* ****************************************************************************  
 297:dir.c         ****  * signed char dir_addCluster(FileSystem *fs,unsigned long firstCluster)
 298:dir.c         ****  * This function extends a directory by 1 cluster + optional the number of
 299:dir.c         ****  * clusters you want pre-allocated. It will also delete the contents of that
 300:dir.c         ****  * cluster. (or clusters)
 301:dir.c         ****  * Return value: 0 on success, -1 on fail
 302:dir.c         **** */
 303:dir.c         **** signed char dir_addCluster(FileSystem *fs,unsigned long firstCluster)
 304:dir.c         **** {
  82              		.loc 1 304 0
  83              		@ Function supports interworking.
  84              		@ args = 0, pretend = 0, frame = 24
  85              		@ frame_needed = 0, uses_anonymous_args = 0
  86              	.LVL4:
  87 0080 30402DE9 		stmfd	sp!, {r4, r5, lr}
  88              	.LCFI2:
  89 0084 18D04DE2 		sub	sp, sp, #24
  90              	.LCFI3:
  91              		.loc 1 304 0
ARM GAS  /cygdrive/c/DOCUME~1/mkwapisz/LOCALS~1/Temp/ccuTaHuv.s 			page 8


  92 0088 0120A0E1 		mov	r2, r1
  93 008c 0050A0E1 		mov	r5, r0
 305:dir.c         **** 	unsigned long lastc,logicalc;
 306:dir.c         **** 	ClusterChain cache;
 307:dir.c         **** 		
 308:dir.c         **** 	fs_initClusterChain(fs,&cache,firstCluster);
  94              		.loc 1 308 0
  95 0090 0D10A0E1 		mov	r1, sp
  96              	.LVL5:
  97 0094 FEFFFFEB 		bl	fs_initClusterChain
  98              	.LVL6:
 309:dir.c         **** 	if(fat_allocClusterChain(fs,&cache,1)){
  99              		.loc 1 309 0
 100 0098 0D10A0E1 		mov	r1, sp
 101 009c 0500A0E1 		mov	r0, r5
 102 00a0 0120A0E3 		mov	r2, #1
 103 00a4 FEFFFFEB 		bl	fat_allocClusterChain
 104 00a8 0038A0E1 		mov	r3, r0, asl #16
 105 00ac 2348B0E1 		movs	r4, r3, lsr #16
 310:dir.c         **** 		return(-1);
 311:dir.c         **** 	}
 312:dir.c         **** 	lastc = fs_getLastCluster(fs,&cache);
 106              		.loc 1 312 0
 107 00b0 0D10A0E1 		mov	r1, sp
 108 00b4 0500A0E1 		mov	r0, r5
 109              		.loc 1 309 0
 110 00b8 0030E0E3 		mvn	r3, #0
 111 00bc 0400001A 		bne	.L16
 112              	.LVL7:
 113              		.loc 1 312 0
 114 00c0 FEFFFFEB 		bl	fs_getLastCluster
 115              	.LVL8:
 116 00c4 0010A0E1 		mov	r1, r0
 117              	.LVL9:
 313:dir.c         **** 	if(CLUSTER_PREALLOC_DIRECTORY){
 314:dir.c         **** 		if(fat_allocClusterChain(fs,&cache,CLUSTER_PREALLOC_DIRECTORY)){
 315:dir.c         **** 			return(-1);
 316:dir.c         **** 		}
 317:dir.c         **** 		logicalc = fat_DiscToLogicCluster(fs,firstCluster,lastc);
 318:dir.c         **** 		while(!fat_LogicToDiscCluster(fs,&cache,++logicalc)){
 319:dir.c         **** 			fs_clearCluster(fs,cache.DiscCluster);
 320:dir.c         **** 		}
 321:dir.c         **** 	}else{
 322:dir.c         **** 			fs_clearCluster(fs,lastc);
 118              		.loc 1 322 0
 119 00c8 0500A0E1 		mov	r0, r5
 120 00cc FEFFFFEB 		bl	fs_clearCluster
 121              	.LVL10:
 122 00d0 0430A0E1 		mov	r3, r4
 123              	.LVL11:
 124              	.L16:
 323:dir.c         **** 	}
 324:dir.c         **** 	return(0);
 325:dir.c         **** }
 125              		.loc 1 325 0
 126 00d4 0300A0E1 		mov	r0, r3
 127 00d8 18D08DE2 		add	sp, sp, #24
ARM GAS  /cygdrive/c/DOCUME~1/mkwapisz/LOCALS~1/Temp/ccuTaHuv.s 			page 9


 128 00dc 3040BDE8 		ldmfd	sp!, {r4, r5, lr}
 129 00e0 1EFF2FE1 		bx	lr
 130              	.LFE15:
 131              		.size	dir_addCluster, .-dir_addCluster
 132              		.align	2
 133              		.global	dir_createDefaultEntry
 134              		.type	dir_createDefaultEntry, %function
 135              	dir_createDefaultEntry:
 136              	.LFB4:
 137              		.loc 1 46 0
 138              		@ Function supports interworking.
 139              		@ args = 0, pretend = 0, frame = 0
 140              		@ frame_needed = 0, uses_anonymous_args = 0
 141              	.LVL12:
 142 00e4 10402DE9 		stmfd	sp!, {r4, lr}
 143              	.LCFI4:
 144              		.loc 1 47 0
 145 00e8 0200A0E1 		mov	r0, r2
 146              	.LVL13:
 147 00ec 0B20A0E3 		mov	r2, #11
 148              	.LVL14:
 149              		.loc 1 46 0
 150 00f0 0140A0E1 		mov	r4, r1
 151              		.loc 1 47 0
 152 00f4 FEFFFFEB 		bl	memCpy
 153              	.LVL15:
 154              		.loc 1 48 0
 155 00f8 0030A0E3 		mov	r3, #0
 156              		.loc 1 58 0
 157 00fc 1C3084E5 		str	r3, [r4, #28]
 158              		.loc 1 48 0
 159 0100 0B30C4E5 		strb	r3, [r4, #11]
 160              		.loc 1 49 0
 161 0104 0C30C4E5 		strb	r3, [r4, #12]
 162              		.loc 1 50 0
 163 0108 0D30C4E5 		strb	r3, [r4, #13]
 164              		.loc 1 51 0
 165 010c BE30C4E1 		strh	r3, [r4, #14]	@ movhi
 166              		.loc 1 52 0
 167 0110 B031C4E1 		strh	r3, [r4, #16]	@ movhi
 168              		.loc 1 53 0
 169 0114 B231C4E1 		strh	r3, [r4, #18]	@ movhi
 170              		.loc 1 54 0
 171 0118 B431C4E1 		strh	r3, [r4, #20]	@ movhi
 172              		.loc 1 55 0
 173 011c B631C4E1 		strh	r3, [r4, #22]	@ movhi
 174              		.loc 1 56 0
 175 0120 B831C4E1 		strh	r3, [r4, #24]	@ movhi
 176              		.loc 1 57 0
 177 0124 BA31C4E1 		strh	r3, [r4, #26]	@ movhi
 178              		.loc 1 59 0
 179 0128 1040BDE8 		ldmfd	sp!, {r4, lr}
 180 012c 1EFF2FE1 		bx	lr
 181              	.LFE4:
 182              		.size	dir_createDefaultEntry, .-dir_createDefaultEntry
 183              		.align	2
 184              		.global	dir_getFatFileName
ARM GAS  /cygdrive/c/DOCUME~1/mkwapisz/LOCALS~1/Temp/ccuTaHuv.s 			page 10


 185              		.type	dir_getFatFileName, %function
 186              	dir_getFatFileName:
 187              	.LFB14:
 188              		.loc 1 280 0
 189              		@ Function supports interworking.
 190              		@ args = 0, pretend = 0, frame = 12
 191              		@ frame_needed = 0, uses_anonymous_args = 0
 192              	.LVL16:
 193 0130 F0402DE9 		stmfd	sp!, {r4, r5, r6, r7, lr}
 194              	.LCFI5:
 195 0134 0CD04DE2 		sub	sp, sp, #12
 196              	.LCFI6:
 197              		.loc 1 280 0
 198 0138 0040A0E1 		mov	r4, r0
 199 013c 0170A0E1 		mov	r7, r1
 200              		.loc 1 283 0
 201 0140 01008DE2 		add	r0, sp, #1
 202              	.LVL17:
 203 0144 0B10A0E3 		mov	r1, #11
 204              	.LVL18:
 205 0148 FEFFFFEB 		bl	memClr
 206 014c 0700A0E1 		mov	r0, r7
 207 0150 0B10A0E3 		mov	r1, #11
 208 0154 FEFFFFEB 		bl	memClr
 209              		.loc 1 286 0
 210 0158 0030D4E5 		ldrb	r3, [r4, #0]	@ zero_extendqisi2
 211 015c 2F0053E3 		cmp	r3, #47
 212 0160 0450A011 		movne	r5, r4
 213              	.LVL19:
 214 0164 01508402 		addeq	r5, r4, #1
 215 0168 0060A0E3 		mov	r6, #0
 216 016c 010000EA 		b	.L24
 217              	.LVL20:
 218              	.L25:
 219              		.loc 1 289 0
 220 0170 FEFFFFEB 		bl	memCpy
 221              	.LVL21:
 222 0174 016086E2 		add	r6, r6, #1
 223              	.LVL22:
 224              	.L24:
 225              		.loc 1 288 0
 226 0178 01408DE2 		add	r4, sp, #1
 227              	.LVL23:
 228 017c 0500A0E1 		mov	r0, r5
 229 0180 0410A0E1 		mov	r1, r4
 230 0184 FEFFFFEB 		bl	file_normalToFatName
 231 0188 005050E2 		subs	r5, r0, #0
 232              		.loc 1 289 0
 233 018c 0710A0E1 		mov	r1, r7
 234 0190 0B20A0E3 		mov	r2, #11
 235 0194 0400A0E1 		mov	r0, r4
 236              		.loc 1 288 0
 237 0198 F4FFFF1A 		bne	.L25
 238              	.LVL24:
 239 019c FF0016E3 		tst	r6, #255
 240              		.loc 1 294 0
 241 01a0 0000A003 		moveq	r0, #0
ARM GAS  /cygdrive/c/DOCUME~1/mkwapisz/LOCALS~1/Temp/ccuTaHuv.s 			page 11


 242 01a4 0100A013 		movne	r0, #1
 243 01a8 0CD08DE2 		add	sp, sp, #12
 244 01ac F040BDE8 		ldmfd	sp!, {r4, r5, r6, r7, lr}
 245 01b0 1EFF2FE1 		bx	lr
 246              	.LFE14:
 247              		.size	dir_getFatFileName, .-dir_getFatFileName
 248              		.align	2
 249              		.global	dir_updateDirectoryEntry
 250              		.type	dir_updateDirectoryEntry, %function
 251              	dir_updateDirectoryEntry:
 252              	.LFB7:
 253              		.loc 1 102 0
 254              		@ Function supports interworking.
 255              		@ args = 0, pretend = 0, frame = 0
 256              		@ frame_needed = 0, uses_anonymous_args = 0
 257              	.LVL25:
 258 01b4 F0402DE9 		stmfd	sp!, {r4, r5, r6, r7, lr}
 259              	.LCFI7:
 260              		.loc 1 102 0
 261 01b8 0250A0E1 		mov	r5, r2
 262 01bc 0070A0E1 		mov	r7, r0
 263 01c0 0160A0E1 		mov	r6, r1
 264              		.loc 1 105 0
 265 01c4 0220A0E3 		mov	r2, #2
 266              	.LVL26:
 267 01c8 001095E5 		ldr	r1, [r5, #0]
 268              	.LVL27:
 269 01cc 000090E5 		ldr	r0, [r0, #0]
 270              	.LVL28:
 271 01d0 FEFFFFEB 		bl	part_getSect
 272              		.loc 1 106 0
 273 01d4 0410D5E5 		ldrb	r1, [r5, #4]	@ zero_extendqisi2
 274              		.loc 1 105 0
 275 01d8 0040A0E1 		mov	r4, r0
 276              	.LVL29:
 277              		.loc 1 106 0
 278 01dc 811284E0 		add	r1, r4, r1, asl #5
 279 01e0 0600A0E1 		mov	r0, r6
 280 01e4 2020A0E3 		mov	r2, #32
 281 01e8 FEFFFFEB 		bl	memCpy
 282              		.loc 1 107 0
 283 01ec 000097E5 		ldr	r0, [r7, #0]
 284 01f0 0410A0E1 		mov	r1, r4
 285 01f4 FEFFFFEB 		bl	part_relSect
 286              		.loc 1 109 0
 287 01f8 0000A0E3 		mov	r0, #0
 288 01fc F040BDE8 		ldmfd	sp!, {r4, r5, r6, r7, lr}
 289 0200 1EFF2FE1 		bx	lr
 290              	.LFE7:
 291              		.size	dir_updateDirectoryEntry, .-dir_updateDirectoryEntry
 292              		.align	2
 293              		.global	dir_setFileSize
 294              		.type	dir_setFileSize, %function
 295              	dir_setFileSize:
 296              	.LFB6:
 297              		.loc 1 86 0
 298              		@ Function supports interworking.
ARM GAS  /cygdrive/c/DOCUME~1/mkwapisz/LOCALS~1/Temp/ccuTaHuv.s 			page 12


 299              		@ args = 0, pretend = 0, frame = 0
 300              		@ frame_needed = 0, uses_anonymous_args = 0
 301              	.LVL30:
 302 0204 70402DE9 		stmfd	sp!, {r4, r5, r6, lr}
 303              	.LCFI8:
 304              		.loc 1 86 0
 305 0208 0050A0E1 		mov	r5, r0
 306 020c 0140A0E1 		mov	r4, r1
 307 0210 0260A0E1 		mov	r6, r2
 308              		.loc 1 89 0
 309 0214 001091E5 		ldr	r1, [r1, #0]
 310              	.LVL31:
 311 0218 0220A0E3 		mov	r2, #2
 312              	.LVL32:
 313 021c 000090E5 		ldr	r0, [r0, #0]
 314              	.LVL33:
 315 0220 FEFFFFEB 		bl	part_getSect
 316              		.loc 1 90 0
 317 0224 0430D4E5 		ldrb	r3, [r4, #4]	@ zero_extendqisi2
 318              	.LVL34:
 319 0228 833280E0 		add	r3, r0, r3, asl #5
 320              	.LVL35:
 321              		.loc 1 89 0
 322 022c 0010A0E1 		mov	r1, r0
 323              	.LVL36:
 324              		.loc 1 90 0
 325 0230 1C6083E5 		str	r6, [r3, #28]
 326              		.loc 1 91 0
 327 0234 000095E5 		ldr	r0, [r5, #0]
 328 0238 FEFFFFEB 		bl	part_relSect
 329              	.LVL37:
 330              		.loc 1 92 0
 331 023c 7040BDE8 		ldmfd	sp!, {r4, r5, r6, lr}
 332 0240 1EFF2FE1 		bx	lr
 333              	.LFE6:
 334              		.size	dir_setFileSize, .-dir_setFileSize
 335              		.align	2
 336              		.global	dir_setFirstCluster
 337              		.type	dir_setFirstCluster, %function
 338              	dir_setFirstCluster:
 339              	.LFB5:
 340              		.loc 1 69 0
 341              		@ Function supports interworking.
 342              		@ args = 0, pretend = 0, frame = 0
 343              		@ frame_needed = 0, uses_anonymous_args = 0
 344              	.LVL38:
 345 0244 70402DE9 		stmfd	sp!, {r4, r5, r6, lr}
 346              	.LCFI9:
 347              		.loc 1 69 0
 348 0248 0140A0E1 		mov	r4, r1
 349 024c 0250A0E1 		mov	r5, r2
 350 0250 0060A0E1 		mov	r6, r0
 351              		.loc 1 72 0
 352 0254 001091E5 		ldr	r1, [r1, #0]
 353              	.LVL39:
 354 0258 0220A0E3 		mov	r2, #2
 355              	.LVL40:
ARM GAS  /cygdrive/c/DOCUME~1/mkwapisz/LOCALS~1/Temp/ccuTaHuv.s 			page 13


 356 025c 000090E5 		ldr	r0, [r0, #0]
 357              	.LVL41:
 358 0260 FEFFFFEB 		bl	part_getSect
 359              		.loc 1 73 0
 360 0264 0430D4E5 		ldrb	r3, [r4, #4]	@ zero_extendqisi2
 361 0268 2528A0E1 		mov	r2, r5, lsr #16
 362              	.LVL42:
 363 026c 833280E0 		add	r3, r0, r3, asl #5
 364 0270 B421C3E1 		strh	r2, [r3, #20]	@ movhi
 365              		.loc 1 74 0
 366 0274 0430D4E5 		ldrb	r3, [r4, #4]	@ zero_extendqisi2
 367 0278 833280E0 		add	r3, r0, r3, asl #5
 368              	.LVL43:
 369              		.loc 1 72 0
 370 027c 0010A0E1 		mov	r1, r0
 371              	.LVL44:
 372              		.loc 1 74 0
 373 0280 BA51C3E1 		strh	r5, [r3, #26]	@ movhi
 374              		.loc 1 75 0
 375 0284 000096E5 		ldr	r0, [r6, #0]
 376 0288 FEFFFFEB 		bl	part_relSect
 377              	.LVL45:
 378              		.loc 1 76 0
 379 028c 7040BDE8 		ldmfd	sp!, {r4, r5, r6, lr}
 380 0290 1EFF2FE1 		bx	lr
 381              	.LFE5:
 382              		.size	dir_setFirstCluster, .-dir_setFirstCluster
 383              		.align	2
 384              		.global	dir_createDirectoryEntry
 385              		.type	dir_createDirectoryEntry, %function
 386              	dir_createDirectoryEntry:
 387              	.LFB3:
 388              		.loc 1 29 0
 389              		@ Function supports interworking.
 390              		@ args = 0, pretend = 0, frame = 0
 391              		@ frame_needed = 0, uses_anonymous_args = 0
 392              	.LVL46:
 393 0294 F0402DE9 		stmfd	sp!, {r4, r5, r6, r7, lr}
 394              	.LCFI10:
 395              		.loc 1 29 0
 396 0298 0250A0E1 		mov	r5, r2
 397 029c 0070A0E1 		mov	r7, r0
 398 02a0 0160A0E1 		mov	r6, r1
 399              		.loc 1 32 0
 400 02a4 0220A0E3 		mov	r2, #2
 401              	.LVL47:
 402 02a8 001095E5 		ldr	r1, [r5, #0]
 403              	.LVL48:
 404 02ac 000090E5 		ldr	r0, [r0, #0]
 405              	.LVL49:
 406 02b0 FEFFFFEB 		bl	part_getSect
 407              		.loc 1 33 0
 408 02b4 0410D5E5 		ldrb	r1, [r5, #4]	@ zero_extendqisi2
 409              		.loc 1 32 0
 410 02b8 0040A0E1 		mov	r4, r0
 411              	.LVL50:
 412              		.loc 1 33 0
ARM GAS  /cygdrive/c/DOCUME~1/mkwapisz/LOCALS~1/Temp/ccuTaHuv.s 			page 14


 413 02bc 811284E0 		add	r1, r4, r1, asl #5
 414 02c0 0600A0E1 		mov	r0, r6
 415 02c4 2020A0E3 		mov	r2, #32
 416 02c8 FEFFFFEB 		bl	memCpy
 417              		.loc 1 34 0
 418 02cc 000097E5 		ldr	r0, [r7, #0]
 419 02d0 0410A0E1 		mov	r1, r4
 420 02d4 FEFFFFEB 		bl	part_relSect
 421              		.loc 1 35 0
 422 02d8 F040BDE8 		ldmfd	sp!, {r4, r5, r6, r7, lr}
 423 02dc 1EFF2FE1 		bx	lr
 424              	.LFE3:
 425              		.size	dir_createDirectoryEntry, .-dir_createDirectoryEntry
 426              		.align	2
 427              		.global	dir_getFileStructure
 428              		.type	dir_getFileStructure, %function
 429              	dir_getFileStructure:
 430              	.LFB2:
 431              		.loc 1 12 0
 432              		@ Function supports interworking.
 433              		@ args = 0, pretend = 0, frame = 0
 434              		@ frame_needed = 0, uses_anonymous_args = 0
 435              	.LVL51:
 436 02e0 F0402DE9 		stmfd	sp!, {r4, r5, r6, r7, lr}
 437              	.LCFI11:
 438              		.loc 1 12 0
 439 02e4 0260A0E1 		mov	r6, r2
 440 02e8 0070A0E1 		mov	r7, r0
 441 02ec 0140A0E1 		mov	r4, r1
 442              		.loc 1 15 0
 443 02f0 0120A0E3 		mov	r2, #1
 444              	.LVL52:
 445 02f4 001096E5 		ldr	r1, [r6, #0]
 446              	.LVL53:
 447 02f8 000090E5 		ldr	r0, [r0, #0]
 448              	.LVL54:
 449 02fc FEFFFFEB 		bl	part_getSect
 450              		.loc 1 16 0
 451 0300 04C0D6E5 		ldrb	ip, [r6, #4]	@ zero_extendqisi2
 452              	.LVL55:
 453 0304 8CC280E0 		add	ip, r0, ip, asl #5
 454              	.LVL56:
 455              		.loc 1 15 0
 456 0308 0050A0E1 		mov	r5, r0
 457              	.LVL57:
 458              		.loc 1 16 0
 459 030c 0F00BCE8 		ldmia	ip!, {r0, r1, r2, r3}
 460 0310 04E0A0E1 		mov	lr, r4
 461 0314 0F00AEE8 		stmia	lr!, {r0, r1, r2, r3}
 462 0318 0F009CE8 		ldmia	ip, {r0, r1, r2, r3}
 463 031c 0F008EE8 		stmia	lr, {r0, r1, r2, r3}
 464              		.loc 1 17 0
 465 0320 0510A0E1 		mov	r1, r5
 466 0324 000097E5 		ldr	r0, [r7, #0]
 467 0328 FEFFFFEB 		bl	part_relSect
 468              		.loc 1 18 0
 469 032c F040BDE8 		ldmfd	sp!, {r4, r5, r6, r7, lr}
ARM GAS  /cygdrive/c/DOCUME~1/mkwapisz/LOCALS~1/Temp/ccuTaHuv.s 			page 15


 470 0330 1EFF2FE1 		bx	lr
 471              	.LFE2:
 472              		.size	dir_getFileStructure, .-dir_getFileStructure
 473              		.align	2
 474              		.global	dir_findFileinBuf
 475              		.type	dir_findFileinBuf, %function
 476              	dir_findFileinBuf:
 477              	.LFB8:
 478              		.loc 1 122 0
 479              		@ Function supports interworking.
 480              		@ args = 0, pretend = 0, frame = 32
 481              		@ frame_needed = 0, uses_anonymous_args = 0
 482              	.LVL58:
 483 0334 F0412DE9 		stmfd	sp!, {r4, r5, r6, r7, r8, lr}
 484              	.LCFI12:
 485 0338 0080A0E1 		mov	r8, r0
 486 033c 20D04DE2 		sub	sp, sp, #32
 487              	.LCFI13:
 488              		.loc 1 122 0
 489 0340 0170A0E1 		mov	r7, r1
 490 0344 0250A0E1 		mov	r5, r2
 491 0348 0060A0E3 		mov	r6, #0
 492              	.LVL59:
 493              	.L39:
 494              		.loc 1 128 0
 495 034c 86C288E0 		add	ip, r8, r6, asl #5
 496 0350 0F00BCE8 		ldmia	ip!, {r0, r1, r2, r3}
 497 0354 0DE0A0E1 		mov	lr, sp
 498 0358 0F00AEE8 		stmia	lr!, {r0, r1, r2, r3}
 499              		.loc 1 130 0
 500 035c 0B40DDE5 		ldrb	r4, [sp, #11]	@ zero_extendqisi2
 501              	.LVL60:
 502              		.loc 1 128 0
 503 0360 0F009CE8 		ldmia	ip, {r0, r1, r2, r3}
 504              		.loc 1 130 0
 505 0364 0F4004E2 		and	r4, r4, #15
 506 0368 0F0054E3 		cmp	r4, #15
 507              		.loc 1 128 0
 508 036c 0F008EE8 		stmia	lr, {r0, r1, r2, r3}
 509              		.loc 1 122 0
 510 0370 FF4006E2 		and	r4, r6, #255
 511              	.LVL61:
 512              		.loc 1 132 0
 513 0374 0D00A0E1 		mov	r0, sp
 514 0378 0710A0E1 		mov	r1, r7
 515 037c 0B20A0E3 		mov	r2, #11
 516              		.loc 1 137 0
 517 0380 016086E2 		add	r6, r6, #1
 518              		.loc 1 130 0
 519 0384 0C00000A 		beq	.L40
 520              	.LVL62:
 521              		.loc 1 132 0
 522 0388 FEFFFFEB 		bl	strMatch
 523              	.LVL63:
 524 038c 000050E3 		cmp	r0, #0
 525 0390 0900001A 		bne	.L40
 526              		.loc 1 135 0
ARM GAS  /cygdrive/c/DOCUME~1/mkwapisz/LOCALS~1/Temp/ccuTaHuv.s 			page 16


 527 0394 000055E3 		cmp	r5, #0
 528              		.loc 1 136 0
 529 0398 0B30DD15 		ldrneb	r3, [sp, #11]	@ zero_extendqisi2
 530              		.loc 1 135 0
 531 039c 0440C515 		strneb	r4, [r5, #4]
 532              		.loc 1 136 0
 533 03a0 0530C515 		strneb	r3, [r5, #5]
 534              		.loc 1 137 0
 535 03a4 B421DDE1 		ldrh	r2, [sp, #20]
 536 03a8 BA31DDE1 		ldrh	r3, [sp, #26]
 537 03ac 020883E0 		add	r0, r3, r2, asl #16
 538 03b0 000050E3 		cmp	r0, #0
 539 03b4 01008002 		addeq	r0, r0, #1
 540 03b8 020000EA 		b	.L45
 541              	.LVL64:
 542              	.L40:
 543              		.loc 1 126 0
 544 03bc 100056E3 		cmp	r6, #16
 545 03c0 E1FFFF1A 		bne	.L39
 546 03c4 0000A0E3 		mov	r0, #0
 547              	.L45:
 548              		.loc 1 150 0
 549 03c8 20D08DE2 		add	sp, sp, #32
 550 03cc F041BDE8 		ldmfd	sp!, {r4, r5, r6, r7, r8, lr}
 551 03d0 1EFF2FE1 		bx	lr
 552              	.LFE8:
 553              		.size	dir_findFileinBuf, .-dir_findFileinBuf
 554              		.align	2
 555              		.global	dir_findinBuf
 556              		.type	dir_findinBuf, %function
 557              	dir_findinBuf:
 558              	.LFB10:
 559              		.loc 1 182 0
 560              		@ Function supports interworking.
 561              		@ args = 0, pretend = 0, frame = 0
 562              		@ frame_needed = 0, uses_anonymous_args = 0
 563              		@ link register save eliminated.
 564              	.LVL65:
 565              		.loc 1 183 0
 566 03d4 FF3013E2 		ands	r3, r3, #255
 567              		.loc 1 182 0
 568              		@ lr needed for prologue
 569              		.loc 1 183 0
 570 03d8 0200000A 		beq	.L53
 571 03dc 010053E3 		cmp	r3, #1
 572 03e0 0300001A 		bne	.L58
 573 03e4 000000EA 		b	.L54
 574              	.L53:
 575              		.loc 1 195 0
 576              		.loc 1 185 0
 577 03e8 FEFFFFEA 		b	dir_findFileinBuf
 578              	.LVL66:
 579              	.L54:
 580              		.loc 1 188 0
 581 03ec 0210A0E1 		mov	r1, r2
 582              	.LVL67:
 583              		.loc 1 195 0
ARM GAS  /cygdrive/c/DOCUME~1/mkwapisz/LOCALS~1/Temp/ccuTaHuv.s 			page 17


 584              		.loc 1 188 0
 585 03f0 FEFFFFEA 		b	dir_findFreeEntryinBuf
 586              	.LVL68:
 587              	.L58:
 588              		.loc 1 195 0
 589 03f4 0000A0E3 		mov	r0, #0
 590              	.LVL69:
 591 03f8 1EFF2FE1 		bx	lr
 592              	.LFE10:
 593              		.size	dir_findinBuf, .-dir_findinBuf
 594              		.align	2
 595              		.global	dir_findinRootArea
 596              		.type	dir_findinRootArea, %function
 597              	dir_findinRootArea:
 598              	.LFB13:
 599              		.loc 1 254 0
 600              		@ Function supports interworking.
 601              		@ args = 0, pretend = 0, frame = 0
 602              		@ frame_needed = 0, uses_anonymous_args = 0
 603              	.LVL70:
 604 03fc F0472DE9 		stmfd	sp!, {r4, r5, r6, r7, r8, r9, sl, lr}
 605              	.LCFI14:
 606              		.loc 1 254 0
 607 0400 0040A0E1 		mov	r4, r0
 608              		.loc 1 258 0
 609 0404 3C00D0E5 		ldrb	r0, [r0, #60]	@ zero_extendqisi2
 610              	.LVL71:
 611 0408 010040E2 		sub	r0, r0, #1
 612 040c 010050E3 		cmp	r0, #1
 613              		.loc 1 254 0
 614 0410 0190A0E1 		mov	r9, r1
 615 0414 0270A0E1 		mov	r7, r2
 616 0418 FFA003E2 		and	sl, r3, #255
 617              		.loc 1 260 0
 618 041c 2C509495 		ldrls	r5, [r4, #44]
 619              	.LVL72:
 620 0420 0080A093 		movls	r8, #0
 621              	.LVL73:
 622              		.loc 1 258 0
 623 0424 1300009A 		bls	.L63
 624              	.LVL74:
 625 0428 1C0000EA 		b	.L71
 626              	.LVL75:
 627              	.L64:
 628              		.loc 1 261 0
 629 042c 000094E5 		ldr	r0, [r4, #0]
 630 0430 FEFFFFEB 		bl	part_getSect
 631              	.LVL76:
 632              		.loc 1 262 0
 633 0434 0910A0E1 		mov	r1, r9
 634 0438 0720A0E1 		mov	r2, r7
 635 043c 0A30A0E1 		mov	r3, sl
 636              		.loc 1 261 0
 637 0440 0080A0E1 		mov	r8, r0
 638              		.loc 1 262 0
 639 0444 FEFFFFEB 		bl	dir_findinBuf
 640 0448 006050E2 		subs	r6, r0, #0
ARM GAS  /cygdrive/c/DOCUME~1/mkwapisz/LOCALS~1/Temp/ccuTaHuv.s 			page 18


 641              		.loc 1 267 0
 642 044c 0810A0E1 		mov	r1, r8
 643              		.loc 1 262 0
 644 0450 0500000A 		beq	.L65
 645              	.LVL77:
 646              		.loc 1 263 0
 647 0454 000057E3 		cmp	r7, #0
 648 0458 00508715 		strne	r5, [r7, #0]
 649              		.loc 1 264 0
 650 045c 000094E5 		ldr	r0, [r4, #0]
 651 0460 0810A0E1 		mov	r1, r8
 652 0464 FEFFFFEB 		bl	part_relSect
 653              	.LVL78:
 654 0468 0D0000EA 		b	.L62
 655              	.LVL79:
 656              	.L65:
 657              		.loc 1 267 0
 658 046c 000094E5 		ldr	r0, [r4, #0]
 659 0470 FEFFFFEB 		bl	part_relSect
 660              	.LVL80:
 661              		.loc 1 260 0
 662 0474 015085E2 		add	r5, r5, #1
 663              	.LVL81:
 664              	.L63:
 665 0478 BC00D4E1 		ldrh	r0, [r4, #12]
 666 047c 2C3094E5 		ldr	r3, [r4, #44]
 667 0480 A03283E0 		add	r3, r3, r0, lsr #5
 668 0484 030055E1 		cmp	r5, r3
 669              		.loc 1 261 0
 670 0488 0510A0E1 		mov	r1, r5
 671 048c 0120A0E3 		mov	r2, #1
 672              		.loc 1 260 0
 673 0490 E5FFFF3A 		bcc	.L64
 674              	.LVL82:
 675              		.loc 1 269 0
 676 0494 000094E5 		ldr	r0, [r4, #0]
 677 0498 0810A0E1 		mov	r1, r8
 678              	.LVL83:
 679 049c FEFFFFEB 		bl	part_relSect
 680              	.LVL84:
 681              	.L71:
 682 04a0 0060A0E3 		mov	r6, #0
 683              	.L62:
 684              		.loc 1 271 0
 685 04a4 0600A0E1 		mov	r0, r6
 686 04a8 F047BDE8 		ldmfd	sp!, {r4, r5, r6, r7, r8, r9, sl, lr}
 687 04ac 1EFF2FE1 		bx	lr
 688              	.LFE13:
 689              		.size	dir_findinRootArea, .-dir_findinRootArea
 690              		.align	2
 691              		.global	dir_findinCluster
 692              		.type	dir_findinCluster, %function
 693              	dir_findinCluster:
 694              	.LFB11:
 695              		.loc 1 205 0
 696              		@ Function supports interworking.
 697              		@ args = 4, pretend = 0, frame = 4
ARM GAS  /cygdrive/c/DOCUME~1/mkwapisz/LOCALS~1/Temp/ccuTaHuv.s 			page 19


 698              		@ frame_needed = 0, uses_anonymous_args = 0
 699              	.LVL85:
 700 04b0 F04F2DE9 		stmfd	sp!, {r4, r5, r6, r7, r8, r9, sl, fp, lr}
 701              	.LCFI15:
 702 04b4 04D04DE2 		sub	sp, sp, #4
 703              	.LCFI16:
 704              		.loc 1 205 0
 705 04b8 28C0DDE5 		ldrb	ip, [sp, #40]	@ zero_extendqisi2
 706 04bc 0050A0E1 		mov	r5, r0
 707 04c0 0190A0E1 		mov	r9, r1
 708 04c4 02B0A0E1 		mov	fp, r2
 709 04c8 0370A0E1 		mov	r7, r3
 710 04cc 00A0A0E3 		mov	sl, #0
 711 04d0 00C08DE5 		str	ip, [sp, #0]
 712 04d4 1B0000EA 		b	.L73
 713              	.LVL86:
 714              	.L74:
 715              		.loc 1 210 0
 716 04d8 004095E5 		ldr	r4, [r5, #0]
 717              	.LVL87:
 718 04dc FEFFFFEB 		bl	fs_clusterToSector
 719              	.LVL88:
 720 04e0 0120A0E3 		mov	r2, #1
 721 04e4 061080E0 		add	r1, r0, r6
 722 04e8 0400A0E1 		mov	r0, r4
 723 04ec FEFFFFEB 		bl	part_getSect
 724              		.loc 1 211 0
 725 04f0 0B10A0E1 		mov	r1, fp
 726 04f4 0720A0E1 		mov	r2, r7
 727 04f8 00309DE5 		ldr	r3, [sp, #0]
 728              		.loc 1 210 0
 729 04fc 0080A0E1 		mov	r8, r0
 730              		.loc 1 211 0
 731 0500 FEFFFFEB 		bl	dir_findinBuf
 732 0504 004050E2 		subs	r4, r0, #0
 733              	.LVL89:
 734 0508 01A08AE2 		add	sl, sl, #1
 735              		.loc 1 216 0
 736 050c 0810A0E1 		mov	r1, r8
 737              		.loc 1 211 0
 738 0510 0A00000A 		beq	.L75
 739              	.LVL90:
 740              		.loc 1 212 0
 741 0514 000057E3 		cmp	r7, #0
 742 0518 0400000A 		beq	.L77
 743 051c 0910A0E1 		mov	r1, r9
 744              	.LVL91:
 745 0520 0500A0E1 		mov	r0, r5
 746 0524 FEFFFFEB 		bl	fs_clusterToSector
 747 0528 060080E0 		add	r0, r0, r6
 748 052c 000087E5 		str	r0, [r7, #0]
 749              	.LVL92:
 750              	.L77:
 751              		.loc 1 213 0
 752 0530 000095E5 		ldr	r0, [r5, #0]
 753 0534 0810A0E1 		mov	r1, r8
 754 0538 FEFFFFEB 		bl	part_relSect
ARM GAS  /cygdrive/c/DOCUME~1/mkwapisz/LOCALS~1/Temp/ccuTaHuv.s 			page 20


 755 053c 080000EA 		b	.L79
 756              	.LVL93:
 757              	.L75:
 758              		.loc 1 216 0
 759 0540 000095E5 		ldr	r0, [r5, #0]
 760 0544 FEFFFFEB 		bl	part_relSect
 761              	.LVL94:
 762              	.L73:
 763              		.loc 1 209 0
 764 0548 0630D5E5 		ldrb	r3, [r5, #6]	@ zero_extendqisi2
 765              		.loc 1 216 0
 766 054c FF600AE2 		and	r6, sl, #255
 767              		.loc 1 209 0
 768 0550 060053E1 		cmp	r3, r6
 769              		.loc 1 210 0
 770 0554 0910A0E1 		mov	r1, r9
 771 0558 0500A0E1 		mov	r0, r5
 772              		.loc 1 209 0
 773 055c DDFFFF8A 		bhi	.L74
 774              	.LVL95:
 775 0560 0040A0E3 		mov	r4, #0
 776              	.LVL96:
 777              	.L79:
 778              		.loc 1 219 0
 779 0564 0400A0E1 		mov	r0, r4
 780 0568 04D08DE2 		add	sp, sp, #4
 781 056c F04FBDE8 		ldmfd	sp!, {r4, r5, r6, r7, r8, r9, sl, fp, lr}
 782 0570 1EFF2FE1 		bx	lr
 783              	.LFE11:
 784              		.size	dir_findinCluster, .-dir_findinCluster
 785              		.align	2
 786              		.global	dir_findinDir
 787              		.type	dir_findinDir, %function
 788              	dir_findinDir:
 789              	.LFB12:
 790              		.loc 1 228 0
 791              		@ Function supports interworking.
 792              		@ args = 4, pretend = 0, frame = 24
 793              		@ frame_needed = 0, uses_anonymous_args = 0
 794              	.LVL97:
 795 0574 F0412DE9 		stmfd	sp!, {r4, r5, r6, r7, r8, lr}
 796              	.LCFI17:
 797              		.loc 1 233 0
 798 0578 00C0A0E3 		mov	ip, #0
 799              		.loc 1 228 0
 800 057c 1CD04DE2 		sub	sp, sp, #28
 801              	.LCFI18:
 802              		.loc 1 235 0
 803 0580 010052E3 		cmp	r2, #1
 804              		.loc 1 228 0
 805 0584 0370A0E1 		mov	r7, r3
 806              		.loc 1 232 0
 807 0588 10208DE5 		str	r2, [sp, #16]
 808 058c 0C208DE5 		str	r2, [sp, #12]
 809              		.loc 1 233 0
 810 0590 04C0CDE5 		strb	ip, [sp, #4]
 811 0594 14C08DE5 		str	ip, [sp, #20]
ARM GAS  /cygdrive/c/DOCUME~1/mkwapisz/LOCALS~1/Temp/ccuTaHuv.s 			page 21


 812 0598 08C08DE5 		str	ip, [sp, #8]
 813              		.loc 1 228 0
 814 059c 0050A0E1 		mov	r5, r0
 815 05a0 0180A0E1 		mov	r8, r1
 816 05a4 3460DDE5 		ldrb	r6, [sp, #52]	@ zero_extendqisi2
 817              		.loc 1 235 0
 818 05a8 0C30A081 		movhi	r3, ip
 819              	.LVL98:
 820 05ac 0900008A 		bhi	.L85
 821              	.LVL99:
 822              		.loc 1 236 0
 823 05b0 0720A0E1 		mov	r2, r7
 824              	.LVL100:
 825 05b4 0630A0E1 		mov	r3, r6
 826              	.LVL101:
 827 05b8 FEFFFFEB 		bl	dir_findinRootArea
 828 05bc 100000EA 		b	.L86
 829              	.LVL102:
 830              	.L87:
 831              		.loc 1 240 0
 832 05c0 0C109DE5 		ldr	r1, [sp, #12]
 833 05c4 00608DE5 		str	r6, [sp, #0]
 834 05c8 FEFFFFEB 		bl	dir_findinCluster
 835              	.LVL103:
 836 05cc 000050E3 		cmp	r0, #0
 837              	.LVL104:
 838 05d0 0B00001A 		bne	.L86
 839 05d4 0430A0E1 		mov	r3, r4
 840              	.LVL105:
 841              	.L85:
 842              		.loc 1 239 0
 843 05d8 0320A0E1 		mov	r2, r3
 844              	.LVL106:
 845 05dc 04108DE2 		add	r1, sp, #4
 846 05e0 0500A0E1 		mov	r0, r5
 847              	.LVL107:
 848 05e4 014083E2 		add	r4, r3, #1
 849 05e8 FEFFFFEB 		bl	fat_LogicToDiscCluster
 850              	.LVL108:
 851 05ec 0008B0E1 		movs	r0, r0, asl #16
 852              		.loc 1 240 0
 853 05f0 0820A0E1 		mov	r2, r8
 854 05f4 0730A0E1 		mov	r3, r7
 855 05f8 0500A0E1 		mov	r0, r5
 856              		.loc 1 239 0
 857 05fc EFFFFF0A 		beq	.L87
 858              	.LVL109:
 859 0600 0000A0E3 		mov	r0, #0
 860              	.LVL110:
 861              	.L86:
 862              	.LVL111:
 863              		.loc 1 245 0
 864 0604 1CD08DE2 		add	sp, sp, #28
 865 0608 F041BDE8 		ldmfd	sp!, {r4, r5, r6, r7, r8, lr}
 866 060c 1EFF2FE1 		bx	lr
 867              	.LFE12:
 868              		.size	dir_findinDir, .-dir_findinDir
ARM GAS  /cygdrive/c/DOCUME~1/mkwapisz/LOCALS~1/Temp/ccuTaHuv.s 			page 22


 869              		.section	.debug_frame,"",%progbits
 870              	.Lframe0:
 871 0000 0C000000 		.4byte	.LECIE0-.LSCIE0
 872              	.LSCIE0:
 873 0004 FFFFFFFF 		.4byte	0xffffffff
 874 0008 01       		.byte	0x1
 875 0009 00       		.ascii	"\000"
 876 000a 01       		.uleb128 0x1
 877 000b 7C       		.sleb128 -4
 878 000c 0E       		.byte	0xe
 879 000d 0C       		.byte	0xc
 880 000e 0D       		.uleb128 0xd
 881 000f 00       		.uleb128 0x0
 882              		.align	2
 883              	.LECIE0:
 884              	.LSFDE0:
 885 0010 1C000000 		.4byte	.LEFDE0-.LASFDE0
 886              	.LASFDE0:
 887 0014 00000000 		.4byte	.Lframe0
 888 0018 00000000 		.4byte	.LFB9
 889 001c 80000000 		.4byte	.LFE9-.LFB9
 890 0020 44       		.byte	0x4
 891              		.4byte	.LCFI0-.LFB9
 892 0021 0E       		.byte	0xe
 893 0022 14       		.uleb128 0x14
 894 0023 8E       		.byte	0x8e
 895 0024 01       		.uleb128 0x1
 896 0025 87       		.byte	0x87
 897 0026 02       		.uleb128 0x2
 898 0027 86       		.byte	0x86
 899 0028 03       		.uleb128 0x3
 900 0029 85       		.byte	0x85
 901 002a 04       		.uleb128 0x4
 902 002b 84       		.byte	0x84
 903 002c 05       		.uleb128 0x5
 904 002d 48       		.byte	0x4
 905              		.4byte	.LCFI1-.LCFI0
 906 002e 0E       		.byte	0xe
 907 002f 34       		.uleb128 0x34
 908              		.align	2
 909              	.LEFDE0:
 910              	.LSFDE2:
 911 0030 18000000 		.4byte	.LEFDE2-.LASFDE2
 912              	.LASFDE2:
 913 0034 00000000 		.4byte	.Lframe0
 914 0038 80000000 		.4byte	.LFB15
 915 003c 64000000 		.4byte	.LFE15-.LFB15
 916 0040 44       		.byte	0x4
 917              		.4byte	.LCFI2-.LFB15
 918 0041 0E       		.byte	0xe
 919 0042 0C       		.uleb128 0xc
 920 0043 44       		.byte	0x4
 921              		.4byte	.LCFI3-.LCFI2
 922 0044 0E       		.byte	0xe
 923 0045 24       		.uleb128 0x24
 924 0046 8E       		.byte	0x8e
 925 0047 01       		.uleb128 0x1
ARM GAS  /cygdrive/c/DOCUME~1/mkwapisz/LOCALS~1/Temp/ccuTaHuv.s 			page 23


 926 0048 85       		.byte	0x85
 927 0049 02       		.uleb128 0x2
 928 004a 84       		.byte	0x84
 929 004b 03       		.uleb128 0x3
 930              		.align	2
 931              	.LEFDE2:
 932              	.LSFDE4:
 933 004c 14000000 		.4byte	.LEFDE4-.LASFDE4
 934              	.LASFDE4:
 935 0050 00000000 		.4byte	.Lframe0
 936 0054 E4000000 		.4byte	.LFB4
 937 0058 4C000000 		.4byte	.LFE4-.LFB4
 938 005c 44       		.byte	0x4
 939              		.4byte	.LCFI4-.LFB4
 940 005d 0E       		.byte	0xe
 941 005e 08       		.uleb128 0x8
 942 005f 8E       		.byte	0x8e
 943 0060 01       		.uleb128 0x1
 944 0061 84       		.byte	0x84
 945 0062 02       		.uleb128 0x2
 946 0063 00       		.align	2
 947              	.LEFDE4:
 948              	.LSFDE6:
 949 0064 1C000000 		.4byte	.LEFDE6-.LASFDE6
 950              	.LASFDE6:
 951 0068 00000000 		.4byte	.Lframe0
 952 006c 30010000 		.4byte	.LFB14
 953 0070 84000000 		.4byte	.LFE14-.LFB14
 954 0074 44       		.byte	0x4
 955              		.4byte	.LCFI5-.LFB14
 956 0075 0E       		.byte	0xe
 957 0076 14       		.uleb128 0x14
 958 0077 44       		.byte	0x4
 959              		.4byte	.LCFI6-.LCFI5
 960 0078 0E       		.byte	0xe
 961 0079 20       		.uleb128 0x20
 962 007a 8E       		.byte	0x8e
 963 007b 01       		.uleb128 0x1
 964 007c 87       		.byte	0x87
 965 007d 02       		.uleb128 0x2
 966 007e 86       		.byte	0x86
 967 007f 03       		.uleb128 0x3
 968 0080 85       		.byte	0x85
 969 0081 04       		.uleb128 0x4
 970 0082 84       		.byte	0x84
 971 0083 05       		.uleb128 0x5
 972              		.align	2
 973              	.LEFDE6:
 974              	.LSFDE8:
 975 0084 1C000000 		.4byte	.LEFDE8-.LASFDE8
 976              	.LASFDE8:
 977 0088 00000000 		.4byte	.Lframe0
 978 008c B4010000 		.4byte	.LFB7
 979 0090 50000000 		.4byte	.LFE7-.LFB7
 980 0094 44       		.byte	0x4
 981              		.4byte	.LCFI7-.LFB7
 982 0095 0E       		.byte	0xe
ARM GAS  /cygdrive/c/DOCUME~1/mkwapisz/LOCALS~1/Temp/ccuTaHuv.s 			page 24


 983 0096 14       		.uleb128 0x14
 984 0097 8E       		.byte	0x8e
 985 0098 01       		.uleb128 0x1
 986 0099 87       		.byte	0x87
 987 009a 02       		.uleb128 0x2
 988 009b 86       		.byte	0x86
 989 009c 03       		.uleb128 0x3
 990 009d 85       		.byte	0x85
 991 009e 04       		.uleb128 0x4
 992 009f 84       		.byte	0x84
 993 00a0 05       		.uleb128 0x5
 994 00a1 000000   		.align	2
 995              	.LEFDE8:
 996              	.LSFDE10:
 997 00a4 18000000 		.4byte	.LEFDE10-.LASFDE10
 998              	.LASFDE10:
 999 00a8 00000000 		.4byte	.Lframe0
 1000 00ac 04020000 		.4byte	.LFB6
 1001 00b0 40000000 		.4byte	.LFE6-.LFB6
 1002 00b4 44       		.byte	0x4
 1003              		.4byte	.LCFI8-.LFB6
 1004 00b5 0E       		.byte	0xe
 1005 00b6 10       		.uleb128 0x10
 1006 00b7 8E       		.byte	0x8e
 1007 00b8 01       		.uleb128 0x1
 1008 00b9 86       		.byte	0x86
 1009 00ba 02       		.uleb128 0x2
 1010 00bb 85       		.byte	0x85
 1011 00bc 03       		.uleb128 0x3
 1012 00bd 84       		.byte	0x84
 1013 00be 04       		.uleb128 0x4
 1014 00bf 00       		.align	2
 1015              	.LEFDE10:
 1016              	.LSFDE12:
 1017 00c0 18000000 		.4byte	.LEFDE12-.LASFDE12
 1018              	.LASFDE12:
 1019 00c4 00000000 		.4byte	.Lframe0
 1020 00c8 44020000 		.4byte	.LFB5
 1021 00cc 50000000 		.4byte	.LFE5-.LFB5
 1022 00d0 44       		.byte	0x4
 1023              		.4byte	.LCFI9-.LFB5
 1024 00d1 0E       		.byte	0xe
 1025 00d2 10       		.uleb128 0x10
 1026 00d3 8E       		.byte	0x8e
 1027 00d4 01       		.uleb128 0x1
 1028 00d5 86       		.byte	0x86
 1029 00d6 02       		.uleb128 0x2
 1030 00d7 85       		.byte	0x85
 1031 00d8 03       		.uleb128 0x3
 1032 00d9 84       		.byte	0x84
 1033 00da 04       		.uleb128 0x4
 1034 00db 00       		.align	2
 1035              	.LEFDE12:
 1036              	.LSFDE14:
 1037 00dc 1C000000 		.4byte	.LEFDE14-.LASFDE14
 1038              	.LASFDE14:
 1039 00e0 00000000 		.4byte	.Lframe0
ARM GAS  /cygdrive/c/DOCUME~1/mkwapisz/LOCALS~1/Temp/ccuTaHuv.s 			page 25


 1040 00e4 94020000 		.4byte	.LFB3
 1041 00e8 4C000000 		.4byte	.LFE3-.LFB3
 1042 00ec 44       		.byte	0x4
 1043              		.4byte	.LCFI10-.LFB3
 1044 00ed 0E       		.byte	0xe
 1045 00ee 14       		.uleb128 0x14
 1046 00ef 8E       		.byte	0x8e
 1047 00f0 01       		.uleb128 0x1
 1048 00f1 87       		.byte	0x87
 1049 00f2 02       		.uleb128 0x2
 1050 00f3 86       		.byte	0x86
 1051 00f4 03       		.uleb128 0x3
 1052 00f5 85       		.byte	0x85
 1053 00f6 04       		.uleb128 0x4
 1054 00f7 84       		.byte	0x84
 1055 00f8 05       		.uleb128 0x5
 1056 00f9 000000   		.align	2
 1057              	.LEFDE14:
 1058              	.LSFDE16:
 1059 00fc 1C000000 		.4byte	.LEFDE16-.LASFDE16
 1060              	.LASFDE16:
 1061 0100 00000000 		.4byte	.Lframe0
 1062 0104 E0020000 		.4byte	.LFB2
 1063 0108 54000000 		.4byte	.LFE2-.LFB2
 1064 010c 44       		.byte	0x4
 1065              		.4byte	.LCFI11-.LFB2
 1066 010d 0E       		.byte	0xe
 1067 010e 14       		.uleb128 0x14
 1068 010f 8E       		.byte	0x8e
 1069 0110 01       		.uleb128 0x1
 1070 0111 87       		.byte	0x87
 1071 0112 02       		.uleb128 0x2
 1072 0113 86       		.byte	0x86
 1073 0114 03       		.uleb128 0x3
 1074 0115 85       		.byte	0x85
 1075 0116 04       		.uleb128 0x4
 1076 0117 84       		.byte	0x84
 1077 0118 05       		.uleb128 0x5
 1078 0119 000000   		.align	2
 1079              	.LEFDE16:
 1080              	.LSFDE18:
 1081 011c 20000000 		.4byte	.LEFDE18-.LASFDE18
 1082              	.LASFDE18:
 1083 0120 00000000 		.4byte	.Lframe0
 1084 0124 34030000 		.4byte	.LFB8
 1085 0128 A0000000 		.4byte	.LFE8-.LFB8
 1086 012c 44       		.byte	0x4
 1087              		.4byte	.LCFI12-.LFB8
 1088 012d 0E       		.byte	0xe
 1089 012e 18       		.uleb128 0x18
 1090 012f 8E       		.byte	0x8e
 1091 0130 01       		.uleb128 0x1
 1092 0131 88       		.byte	0x88
 1093 0132 02       		.uleb128 0x2
 1094 0133 87       		.byte	0x87
 1095 0134 03       		.uleb128 0x3
 1096 0135 86       		.byte	0x86
ARM GAS  /cygdrive/c/DOCUME~1/mkwapisz/LOCALS~1/Temp/ccuTaHuv.s 			page 26


 1097 0136 04       		.uleb128 0x4
 1098 0137 85       		.byte	0x85
 1099 0138 05       		.uleb128 0x5
 1100 0139 84       		.byte	0x84
 1101 013a 06       		.uleb128 0x6
 1102 013b 48       		.byte	0x4
 1103              		.4byte	.LCFI13-.LCFI12
 1104 013c 0E       		.byte	0xe
 1105 013d 38       		.uleb128 0x38
 1106 013e 0000     		.align	2
 1107              	.LEFDE18:
 1108              	.LSFDE20:
 1109 0140 0C000000 		.4byte	.LEFDE20-.LASFDE20
 1110              	.LASFDE20:
 1111 0144 00000000 		.4byte	.Lframe0
 1112 0148 D4030000 		.4byte	.LFB10
 1113 014c 28000000 		.4byte	.LFE10-.LFB10
 1114              		.align	2
 1115              	.LEFDE20:
 1116              	.LSFDE22:
 1117 0150 20000000 		.4byte	.LEFDE22-.LASFDE22
 1118              	.LASFDE22:
 1119 0154 00000000 		.4byte	.Lframe0
 1120 0158 FC030000 		.4byte	.LFB13
 1121 015c B4000000 		.4byte	.LFE13-.LFB13
 1122 0160 44       		.byte	0x4
 1123              		.4byte	.LCFI14-.LFB13
 1124 0161 0E       		.byte	0xe
 1125 0162 20       		.uleb128 0x20
 1126 0163 8E       		.byte	0x8e
 1127 0164 01       		.uleb128 0x1
 1128 0165 8A       		.byte	0x8a
 1129 0166 02       		.uleb128 0x2
 1130 0167 89       		.byte	0x89
 1131 0168 03       		.uleb128 0x3
 1132 0169 88       		.byte	0x88
 1133 016a 04       		.uleb128 0x4
 1134 016b 87       		.byte	0x87
 1135 016c 05       		.uleb128 0x5
 1136 016d 86       		.byte	0x86
 1137 016e 06       		.uleb128 0x6
 1138 016f 85       		.byte	0x85
 1139 0170 07       		.uleb128 0x7
 1140 0171 84       		.byte	0x84
 1141 0172 08       		.uleb128 0x8
 1142 0173 00       		.align	2
 1143              	.LEFDE22:
 1144              	.LSFDE24:
 1145 0174 24000000 		.4byte	.LEFDE24-.LASFDE24
 1146              	.LASFDE24:
 1147 0178 00000000 		.4byte	.Lframe0
 1148 017c B0040000 		.4byte	.LFB11
 1149 0180 C4000000 		.4byte	.LFE11-.LFB11
 1150 0184 44       		.byte	0x4
 1151              		.4byte	.LCFI15-.LFB11
 1152 0185 0E       		.byte	0xe
 1153 0186 24       		.uleb128 0x24
ARM GAS  /cygdrive/c/DOCUME~1/mkwapisz/LOCALS~1/Temp/ccuTaHuv.s 			page 27


 1154 0187 44       		.byte	0x4
 1155              		.4byte	.LCFI16-.LCFI15
 1156 0188 0E       		.byte	0xe
 1157 0189 28       		.uleb128 0x28
 1158 018a 8E       		.byte	0x8e
 1159 018b 01       		.uleb128 0x1
 1160 018c 8B       		.byte	0x8b
 1161 018d 02       		.uleb128 0x2
 1162 018e 8A       		.byte	0x8a
 1163 018f 03       		.uleb128 0x3
 1164 0190 89       		.byte	0x89
 1165 0191 04       		.uleb128 0x4
 1166 0192 88       		.byte	0x88
 1167 0193 05       		.uleb128 0x5
 1168 0194 87       		.byte	0x87
 1169 0195 06       		.uleb128 0x6
 1170 0196 86       		.byte	0x86
 1171 0197 07       		.uleb128 0x7
 1172 0198 85       		.byte	0x85
 1173 0199 08       		.uleb128 0x8
 1174 019a 84       		.byte	0x84
 1175 019b 09       		.uleb128 0x9
 1176              		.align	2
 1177              	.LEFDE24:
 1178              	.LSFDE26:
 1179 019c 20000000 		.4byte	.LEFDE26-.LASFDE26
 1180              	.LASFDE26:
 1181 01a0 00000000 		.4byte	.Lframe0
 1182 01a4 74050000 		.4byte	.LFB12
 1183 01a8 9C000000 		.4byte	.LFE12-.LFB12
 1184 01ac 44       		.byte	0x4
 1185              		.4byte	.LCFI17-.LFB12
 1186 01ad 0E       		.byte	0xe
 1187 01ae 18       		.uleb128 0x18
 1188 01af 48       		.byte	0x4
 1189              		.4byte	.LCFI18-.LCFI17
 1190 01b0 0E       		.byte	0xe
 1191 01b1 34       		.uleb128 0x34
 1192 01b2 8E       		.byte	0x8e
 1193 01b3 01       		.uleb128 0x1
 1194 01b4 88       		.byte	0x88
 1195 01b5 02       		.uleb128 0x2
 1196 01b6 87       		.byte	0x87
 1197 01b7 03       		.uleb128 0x3
 1198 01b8 86       		.byte	0x86
 1199 01b9 04       		.uleb128 0x4
 1200 01ba 85       		.byte	0x85
 1201 01bb 05       		.uleb128 0x5
 1202 01bc 84       		.byte	0x84
 1203 01bd 06       		.uleb128 0x6
 1204 01be 0000     		.align	2
 1205              	.LEFDE26:
 1206              		.file 2 "fs.h"
 1207              		.file 3 "partition.h"
 1208              		.file 4 "disc.h"
 1209              		.file 5 "ioman.h"
 1210              		.file 6 "../mmc/hwinterface.h"
ARM GAS  /cygdrive/c/DOCUME~1/mkwapisz/LOCALS~1/Temp/ccuTaHuv.s 			page 28


 1211              		.file 7 "../mmc/types.h"
 1212              		.text
 1213              	.Letext0: