ARM GAS  /cygdrive/c/DOCUME~1/mkwapisz/LOCALS~1/Temp/ccdVY8Mc.s 			page 1


   1              		.file	"fat.c"
   8 0000 30020000 		.text
   8      02006B00 
   8      00000201 
   8      FB0E0D00 
   8      01010101 
   9              	.Ltext0:
  10              		.align	2
  11              		.global	fat_getSectorAddressFatEntry
  12              		.type	fat_getSectorAddressFatEntry, %function
  13              	fat_getSectorAddressFatEntry:
  14              	.LFB2:
  15              		.file 1 "fat.c"
   1:fat.c         **** /*****************************************************************************/
   2:fat.c         **** #include "fs.h"
   3:fat.c         **** /*****************************************************************************/
   4:fat.c         **** 
   5:fat.c         **** /* ****************************************************************************  
   6:fat.c         ****  * unsigned long fat_getSectorAddressFatEntry(FileSystem *fs,unsigned long cluster_addr)
   7:fat.c         ****  * Description: Returns the sectornumber that holds the fat entry for cluster cluster_addr.
   8:fat.c         ****  * This works for all FAT types.
   9:fat.c         ****  * Return value: Sectornumber, or 0. Warning, no boundary check.
  10:fat.c         **** */
  11:fat.c         **** unsigned long fat_getSectorAddressFatEntry(FileSystem *fs,unsigned long cluster_addr)
  12:fat.c         **** { 
  16              		.loc 1 12 0
  17              		@ Function supports interworking.
  18              		@ args = 0, pretend = 0, frame = 0
  19              		@ frame_needed = 0, uses_anonymous_args = 0
  20              		@ link register save eliminated.
  21              	.LVL0:
  13:fat.c         **** 	unsigned long base = fs->volumeId.ReservedSectorCount,res;
  14:fat.c         **** 	
  15:fat.c         **** 	switch(fs->type){
  22              		.loc 1 15 0
  23 0000 3C30D0E5 		ldrb	r3, [r0, #60]	@ zero_extendqisi2
  24 0004 020053E3 		cmp	r3, #2
  25              		.loc 1 12 0
  26              		@ lr needed for prologue
  27              		.loc 1 13 0
  28 0008 B8C0D0E1 		ldrh	ip, [r0, #8]
  29              	.LVL1:
  30              		.loc 1 15 0
  31 000c 0900000A 		beq	.L4
  32 0010 030053E3 		cmp	r3, #3
  33 0014 0A00000A 		beq	.L5
  34 0018 010053E3 		cmp	r3, #1
  35 001c 0D00001A 		bne	.L2
  16:fat.c         **** 		case FAT12:
  17:fat.c         **** 			res=(cluster_addr*3/1024);
  36              		.loc 1 17 0
ARM GAS  /cygdrive/c/DOCUME~1/mkwapisz/LOCALS~1/Temp/ccdVY8Mc.s 			page 2


  37 0020 023083E2 		add	r3, r3, #2
  38 0024 910303E0 		mul	r3, r1, r3
  18:fat.c         **** 			if(res>=fs->FatSectorCount){
  39              		.loc 1 18 0
  40 0028 242090E5 		ldr	r2, [r0, #36]
  41              		.loc 1 17 0
  42 002c 2305A0E1 		mov	r0, r3, lsr #10
  43              	.LVL2:
  44              		.loc 1 18 0
  45 0030 020050E1 		cmp	r0, r2
  46 0034 050000EA 		b	.L12
  47              	.LVL3:
  48              	.L4:
  19:fat.c         **** 				return(0);
  20:fat.c         **** 			}else{
  21:fat.c         **** 				return(base+res);
  22:fat.c         **** 			}
  23:fat.c         **** 			break;
  24:fat.c         **** 		case FAT16:
  25:fat.c         **** 			res=cluster_addr/256;
  26:fat.c         **** 			if(res>=fs->FatSectorCount){
  49              		.loc 1 26 0
  50 0038 243090E5 		ldr	r3, [r0, #36]
  51              		.loc 1 25 0
  52 003c 2104A0E1 		mov	r0, r1, lsr #8
  53              	.LVL4:
  54 0040 010000EA 		b	.L13
  55              	.LVL5:
  56              	.L5:
  27:fat.c         **** 				return(0);
  28:fat.c         **** 			}else{
  29:fat.c         **** 				return(base+res);
  30:fat.c         **** 			}
  31:fat.c         **** 			break;
  32:fat.c         **** 		case FAT32:
  33:fat.c         **** 			res=cluster_addr/128;
  34:fat.c         **** 			if(res>=fs->FatSectorCount){
  57              		.loc 1 34 0
  58 0044 243090E5 		ldr	r3, [r0, #36]
  59              		.loc 1 33 0
  60 0048 A103A0E1 		mov	r0, r1, lsr #7
  61              	.LVL6:
  62              	.L13:
  63              	.LVL7:
  64              		.loc 1 34 0
  65 004c 030050E1 		cmp	r0, r3
  66              	.LVL8:
  67              	.L12:
  68              	.LVL9:
  35:fat.c         **** 				return(0);
  36:fat.c         **** 			}else{
  37:fat.c         **** 				return(base+res);
  69              		.loc 1 37 0
  70 0050 00008C30 		addcc	r0, ip, r0
  71              	.LVL10:
  72              		.loc 1 34 0
  73 0054 1EFF2F31 		bxcc	lr
ARM GAS  /cygdrive/c/DOCUME~1/mkwapisz/LOCALS~1/Temp/ccdVY8Mc.s 			page 3


  74              	.LVL11:
  75              	.L2:
  76              		.loc 1 37 0
  77 0058 0000A0E3 		mov	r0, #0
  78              	.LVL12:
  38:fat.c         **** 			}
  39:fat.c         **** 			break; 
  40:fat.c         **** 	}
  41:fat.c         **** 	return(0);
  42:fat.c         **** }
  79              		.loc 1 42 0
  80 005c 1EFF2FE1 		bx	lr
  81              	.LFE2:
  82              		.size	fat_getSectorAddressFatEntry, .-fat_getSectorAddressFatEntry
  83              		.align	2
  84              		.global	fat_isEocMarker
  85              		.type	fat_isEocMarker, %function
  86              	fat_isEocMarker:
  87              	.LFB5:
  43:fat.c         **** /*****************************************************************************/ 
  44:fat.c         **** 
  45:fat.c         **** 
  46:fat.c         **** /* ****************************************************************************  
  47:fat.c         ****  * unsigned long fat_getNextClusterAddress(FileSystem *fs,unsigned long cluster_addr
  48:fat.c         ****  * Description: This function loads the sector of the fat which contains the entry
  49:fat.c         ****  * for cluster_addr. It then fetches and (if required) calculates it's value.
  50:fat.c         ****  * This value is the EoC marker -or- the number of the next cluster in the chain.
  51:fat.c         ****  * Return value: Clusternumber or EoC
  52:fat.c         **** */
  53:fat.c         **** unsigned long fat_getNextClusterAddress(FileSystem *fs,unsigned long cluster_addr,unsigned short *l
  54:fat.c         **** {
  55:fat.c         **** 	unsigned char *buf; 
  56:fat.c         **** 	unsigned char hb,lb;
  57:fat.c         **** 	unsigned short offset;
  58:fat.c         **** 	unsigned long sector;
  59:fat.c         **** 	unsigned long nextcluster=0;
  60:fat.c         **** 	
  61:fat.c         **** 	sector=fat_getSectorAddressFatEntry(fs,cluster_addr);
  62:fat.c         **** 	if( (fs->FatSectorCount <= (sector-fs->volumeId.ReservedSectorCount)) || sector==0 )
  63:fat.c         **** 	{
  64:fat.c         **** 		return(0);
  65:fat.c         **** 	}
  66:fat.c         **** 	
  67:fat.c         **** 	buf=part_getSect(fs->part,sector,IOM_MODE_READONLY);
  68:fat.c         **** 		
  69:fat.c         **** 	switch(fs->type)
  70:fat.c         **** 	{
  71:fat.c         **** 		case FAT12:
  72:fat.c         **** 			offset = ((cluster_addr%1024)*3/2)%512;
  73:fat.c         **** 			hb = buf[offset];
  74:fat.c         **** 			if(offset == 511){
  75:fat.c         **** 				part_relSect(fs->part,buf);
  76:fat.c         **** 				buf=part_getSect(fs->part,sector+1,IOM_MODE_READONLY);
  77:fat.c         **** 				lb = buf[0];
  78:fat.c         **** 			}else{
  79:fat.c         **** 				lb = buf[offset + 1];
  80:fat.c         **** 			}
ARM GAS  /cygdrive/c/DOCUME~1/mkwapisz/LOCALS~1/Temp/ccdVY8Mc.s 			page 4


  81:fat.c         **** 			if(cluster_addr%2==0){
  82:fat.c         **** 				nextcluster = ( ((lb&0x0F)<<8) + (hb) );
  83:fat.c         **** 			}else{
  84:fat.c         **** 				nextcluster = ( (lb<<4) + (hb>>4) );
  85:fat.c         **** 			}
  86:fat.c         **** 			break;
  87:fat.c         **** 		case FAT16:
  88:fat.c         **** 			offset=cluster_addr%256;
  89:fat.c         **** 			nextcluster = *((unsigned short *)buf + offset);
  90:fat.c         **** 			break;
  91:fat.c         **** 		case FAT32:
  92:fat.c         **** 			offset=cluster_addr%128;
  93:fat.c         **** 			nextcluster = *((unsigned long *)buf + offset);
  94:fat.c         **** 			break;
  95:fat.c         **** 	}
  96:fat.c         **** 	
  97:fat.c         **** 	part_relSect(fs->part,buf);
  98:fat.c         **** 	
  99:fat.c         **** 	return(nextcluster);
 100:fat.c         **** }
 101:fat.c         **** /*****************************************************************************/ 
 102:fat.c         **** 
 103:fat.c         **** 
 104:fat.c         **** /* ****************************************************************************  
 105:fat.c         ****  * void fat_setNextClusterAddress(FileSystem *fs,unsigned long cluster_addr,unsigned long next_clus
 106:fat.c         ****  * Description: This function makes an entry in the fattable for cluster_addr. The value it puts th
 107:fat.c         ****  * is next_cluster_addr. 
 108:fat.c         **** */
 109:fat.c         **** void fat_setNextClusterAddress(FileSystem *fs,unsigned long cluster_addr,unsigned long next_cluster
 110:fat.c         **** {
 111:fat.c         **** 	unsigned char *buf,*buf2; 
 112:fat.c         **** 	unsigned short offset;
 113:fat.c         **** 	unsigned long sector;
 114:fat.c         **** 	
 115:fat.c         **** 	sector=fat_getSectorAddressFatEntry(fs,cluster_addr);
 116:fat.c         **** 	
 117:fat.c         **** 	if(( fs->FatSectorCount <= (sector - fs->volumeId.ReservedSectorCount )||(sector==0))){
 118:fat.c         **** 	    DBG((TXT("HARDERROR:::fat_getNextClusterAddress READ PAST FAT BOUNDARY\n")));
 119:fat.c         **** 	    return;
 120:fat.c         **** 	}
 121:fat.c         **** 	
 122:fat.c         **** 	buf=part_getSect(fs->part,sector,IOM_MODE_READWRITE);
 123:fat.c         **** 		
 124:fat.c         **** 	switch(fs->type){
 125:fat.c         **** 		case FAT12:
 126:fat.c         **** 			offset = ((cluster_addr%1024)*3/2)%512;
 127:fat.c         **** 			if(offset == 511){
 128:fat.c         **** 				if(cluster_addr%2==0){
 129:fat.c         **** 					buf[offset]=next_cluster_addr&0xFF;
 130:fat.c         **** 				}else{
 131:fat.c         **** 					buf[offset]=(buf[offset]&0xF)+((next_cluster_addr<<4)&0xF0);
 132:fat.c         **** 				}
 133:fat.c         **** 				buf2=part_getSect(fs->part,fat_getSectorAddressFatEntry(fs,cluster_addr)+1,IOM_MODE_READWRITE);
 134:fat.c         **** 				if(cluster_addr%2==0){
 135:fat.c         **** 					buf2[0]=(buf2[0]&0xF0)+((next_cluster_addr>>8)&0xF);
 136:fat.c         **** 				}else{
 137:fat.c         **** 					buf2[0]=(next_cluster_addr>>4)&0xFF;
ARM GAS  /cygdrive/c/DOCUME~1/mkwapisz/LOCALS~1/Temp/ccdVY8Mc.s 			page 5


 138:fat.c         **** 				}
 139:fat.c         **** 				part_relSect(fs->part,buf2);
 140:fat.c         **** 			}else{
 141:fat.c         **** 				if(cluster_addr%2==0){
 142:fat.c         **** 					buf[offset]=next_cluster_addr&0xFF;
 143:fat.c         **** 					buf[offset+1]=(buf[offset+1]&0xF0)+((next_cluster_addr>>8)&0xF);
 144:fat.c         **** 				}else{
 145:fat.c         **** 					buf[offset]=(buf[offset]&0xF)+((next_cluster_addr<<4)&0xF0);
 146:fat.c         **** 					buf[offset+1]=(next_cluster_addr>>4)&0xFF;
 147:fat.c         **** 				}
 148:fat.c         **** 			}
 149:fat.c         **** 			part_relSect(fs->part,buf);
 150:fat.c         **** 			break;
 151:fat.c         **** 		case FAT16:
 152:fat.c         **** 			offset=cluster_addr%256;
 153:fat.c         **** 			*((unsigned short*)buf+offset)=next_cluster_addr;
 154:fat.c         **** 			part_relSect(fs->part,buf);
 155:fat.c         **** 			break;
 156:fat.c         **** 		case FAT32:
 157:fat.c         **** 			offset=cluster_addr%128;
 158:fat.c         **** 			*((unsigned long*)buf+offset)=next_cluster_addr;
 159:fat.c         **** 			part_relSect(fs->part,buf);
 160:fat.c         **** 			break;
 161:fat.c         **** 	}
 162:fat.c         **** 	
 163:fat.c         **** }
 164:fat.c         **** /*****************************************************************************/ 
 165:fat.c         **** 
 166:fat.c         **** 
 167:fat.c         **** /* ****************************************************************************  
 168:fat.c         ****  * short fat_isEocMarker(FileSystem *fs,unsigned long fat_entry)
 169:fat.c         ****  * Description: Checks if a certain value is the EoC marker for the filesystem
 170:fat.c         ****  * noted in fs->type.
 171:fat.c         ****  * Return value: Returns 0 when it is the EoC marker, and 1 otherwise.
 172:fat.c         **** */
 173:fat.c         **** short fat_isEocMarker(FileSystem *fs,unsigned long fat_entry)
 174:fat.c         **** {
  88              		.loc 1 174 0
  89              		@ Function supports interworking.
  90              		@ args = 0, pretend = 0, frame = 0
  91              		@ frame_needed = 0, uses_anonymous_args = 0
  92              		@ link register save eliminated.
  93              	.LVL13:
 175:fat.c         **** 	switch(fs->type){
  94              		.loc 1 175 0
  95 0060 3C30D0E5 		ldrb	r3, [r0, #60]	@ zero_extendqisi2
  96 0064 020053E3 		cmp	r3, #2
  97              		.loc 1 174 0
  98              		@ lr needed for prologue
  99              		.loc 1 175 0
 100 0068 0700000A 		beq	.L17
 101 006c 030053E3 		cmp	r3, #3
 102 0070 0F02C1E3 		bic	r0, r1, #-268435456
 103              	.LVL14:
 104 0074 0900000A 		beq	.L18
 105 0078 010053E3 		cmp	r3, #1
 106 007c 0100A0E3 		mov	r0, #1
ARM GAS  /cygdrive/c/DOCUME~1/mkwapisz/LOCALS~1/Temp/ccdVY8Mc.s 			page 6


 107 0080 28309F05 		ldreq	r3, .L22
 108 0084 1EFF2F11 		bxne	lr
 109 0088 000000EA 		b	.L21
 110              	.LVL15:
 111              	.L17:
 112 008c 20309FE5 		ldr	r3, .L22+4
 113              	.L21:
 114 0090 030051E1 		cmp	r1, r3
 115 0094 0000A093 		movls	r0, #0
 116 0098 0100A083 		movhi	r0, #1
 117              	.LVL16:
 118 009c 1EFF2FE1 		bx	lr
 119              	.L18:
 120 00a0 9F0270E3 		cmn	r0, #-268435447
 121 00a4 0000A093 		movls	r0, #0
 122 00a8 0100A083 		movhi	r0, #1
 176:fat.c         **** 		case FAT12:
 177:fat.c         **** 			if(fat_entry<0xFF8){
 178:fat.c         **** 				return(0);
 179:fat.c         **** 			}
 180:fat.c         **** 			break;
 181:fat.c         **** 		case FAT16:
 182:fat.c         **** 			if(fat_entry<0xFFF8){
 183:fat.c         **** 				return(0);
 184:fat.c         **** 			}
 185:fat.c         **** 			break;
 186:fat.c         **** 		case FAT32:
 187:fat.c         **** 			if((fat_entry&0x0FFFFFFF)<0xFFFFFF8){
 188:fat.c         **** 				return(0);
 189:fat.c         **** 			}
 190:fat.c         **** 			break;
 191:fat.c         **** 	}
 192:fat.c         **** 	return(1);
 193:fat.c         **** }
 123              		.loc 1 193 0
 124 00ac 1EFF2FE1 		bx	lr
 125              	.L23:
 126              		.align	2
 127              	.L22:
 128 00b0 F70F0000 		.word	4087
 129 00b4 F7FF0000 		.word	65527
 130              	.LFE5:
 131              		.size	fat_isEocMarker, .-fat_isEocMarker
 132              		.align	2
 133              		.global	fat_giveEocMarker
 134              		.type	fat_giveEocMarker, %function
 135              	fat_giveEocMarker:
 136              	.LFB6:
 194:fat.c         **** /*****************************************************************************/ 
 195:fat.c         **** 
 196:fat.c         **** 
 197:fat.c         **** /* ****************************************************************************  
 198:fat.c         ****  * unsigned long fat_giveEocMarker(FileSystem *fs)
 199:fat.c         ****  * Description: Returns an EoC markernumber valid for the filesystem noted in
 200:fat.c         ****  * fs->type.
 201:fat.c         ****  * Note, for FAT32, the upper 4 bits are set to zero, although they should be un
 202:fat.c         ****  * touched according to MicroSoft specifications. I didn't care.
ARM GAS  /cygdrive/c/DOCUME~1/mkwapisz/LOCALS~1/Temp/ccdVY8Mc.s 			page 7


 203:fat.c         ****  * Return value: The EoC marker cast to an ulong.
 204:fat.c         **** */
 205:fat.c         **** unsigned long fat_giveEocMarker(FileSystem *fs)
 206:fat.c         **** {
 137              		.loc 1 206 0
 138              		@ Function supports interworking.
 139              		@ args = 0, pretend = 0, frame = 0
 140              		@ frame_needed = 0, uses_anonymous_args = 0
 141              		@ link register save eliminated.
 142              	.LVL17:
 207:fat.c         **** 	switch(fs->type)
 143              		.loc 1 207 0
 144 00b8 3C30D0E5 		ldrb	r3, [r0, #60]	@ zero_extendqisi2
 145 00bc 020053E3 		cmp	r3, #2
 146              		.loc 1 206 0
 147              		@ lr needed for prologue
 148              		.loc 1 207 0
 149 00c0 0600000A 		beq	.L27
 150 00c4 030053E3 		cmp	r3, #3
 151 00c8 0F02E0E3 		mvn	r0, #-268435456
 152              	.LVL18:
 153 00cc 1EFF2F01 		bxeq	lr
 154 00d0 010053E3 		cmp	r3, #1
 155 00d4 1F0280E2 		add	r0, r0, #-268435455
 156 00d8 08009F05 		ldreq	r0, .L32
 157 00dc 1EFF2FE1 		bx	lr
 158              	.LVL19:
 159              	.L27:
 208:fat.c         **** 	{
 209:fat.c         **** 		case FAT12:
 210:fat.c         **** 			return(0xFFF);
 160              		.loc 1 210 0
 161 00e0 04009FE5 		ldr	r0, .L32+4
 162              	.LVL20:
 211:fat.c         **** 			break;
 212:fat.c         **** 		case FAT16:
 213:fat.c         **** 			return(0xFFFF);
 214:fat.c         **** 			break;
 215:fat.c         **** 		case FAT32:
 216:fat.c         **** 			return(0x0FFFFFFF);
 217:fat.c         **** 			break;
 218:fat.c         **** 	}
 219:fat.c         **** 	return(0);
 220:fat.c         **** }
 163              		.loc 1 220 0
 164 00e4 1EFF2FE1 		bx	lr
 165              	.L33:
 166              		.align	2
 167              	.L32:
 168 00e8 FF0F0000 		.word	4095
 169 00ec FFFF0000 		.word	65535
 170              	.LFE6:
 171              		.size	fat_giveEocMarker, .-fat_giveEocMarker
 172              		.align	2
 173              		.global	fat_setNextClusterAddressWBuf
 174              		.type	fat_setNextClusterAddressWBuf, %function
 175              	fat_setNextClusterAddressWBuf:
ARM GAS  /cygdrive/c/DOCUME~1/mkwapisz/LOCALS~1/Temp/ccdVY8Mc.s 			page 8


 176              	.LFB8:
 221:fat.c         **** /*****************************************************************************/ 
 222:fat.c         **** 
 223:fat.c         **** /* ****************************************************************************  
 224:fat.c         ****  * unsigned long fat_getNextClusterAddressWBuf(FileSystem *fs,unsigned long cluster_addr, unsigned 
 225:fat.c         ****  * Description: This function retrieves the contents of a FAT field. It does not fetch
 226:fat.c         ****  * it's own buffer, it is given as a parameter. (ioman makes this function rather obsolete)
 227:fat.c         ****  * Only in the case of a FAT12 crosssector data entry a sector is retrieved here.
 228:fat.c         ****  * Return value: The value of the clusterfield is returned.
 229:fat.c         **** */
 230:fat.c         **** unsigned long fat_getNextClusterAddressWBuf(FileSystem *fs,unsigned long cluster_addr, unsigned cha
 231:fat.c         **** {
 232:fat.c         **** 	unsigned char  *buf2; /* For FAT12 fallover only */
 233:fat.c         **** 	unsigned char hb,lb;
 234:fat.c         **** 	unsigned short offset;
 235:fat.c         **** 	unsigned long nextcluster=0;
 236:fat.c         **** 	
 237:fat.c         **** 	switch(fs->type)
 238:fat.c         **** 	{
 239:fat.c         **** 		case FAT12:
 240:fat.c         **** 			offset = ((cluster_addr%1024)*3/2)%512;
 241:fat.c         **** 			hb = buf[offset];
 242:fat.c         **** 			if(offset == 511){
 243:fat.c         **** 				buf2=part_getSect(fs->part,fat_getSectorAddressFatEntry(fs,cluster_addr)+1,IOM_MODE_READONLY);
 244:fat.c         **** 				lb = buf2[0];
 245:fat.c         **** 				part_relSect(fs->part,buf2);
 246:fat.c         **** 			}else{
 247:fat.c         **** 				lb = buf[offset + 1];
 248:fat.c         **** 			}
 249:fat.c         **** 			if(cluster_addr%2==0){
 250:fat.c         **** 				nextcluster = ( ((lb&0x0F)<<8) + (hb) );
 251:fat.c         **** 			}else{
 252:fat.c         **** 				nextcluster = ( (lb<<4) + (hb>>4) );
 253:fat.c         **** 			}
 254:fat.c         **** 			break;
 255:fat.c         **** 		case FAT16:
 256:fat.c         **** 			offset=cluster_addr%256;
 257:fat.c         **** 			nextcluster = *((unsigned short*)buf + offset);
 258:fat.c         **** 			break;
 259:fat.c         **** 		case FAT32:
 260:fat.c         **** 			offset=cluster_addr%128;
 261:fat.c         **** 			nextcluster = *((unsigned long*)buf + offset);
 262:fat.c         **** 			break;
 263:fat.c         **** 	}
 264:fat.c         **** 	return(nextcluster);
 265:fat.c         **** }
 266:fat.c         **** /*****************************************************************************/ 
 267:fat.c         **** 
 268:fat.c         **** /* ****************************************************************************  
 269:fat.c         ****  * void fat_setNextClusterAddressWBuf(FileSystem *fs,unsigned long cluster_addr,unsigned long next_
 270:fat.c         ****  * Description: This function fills in a fat entry. The entry is cluster_addr and the
 271:fat.c         ****  * data entered is next_cluster_addr. This function is also given a *buf, so it does
 272:fat.c         ****  * not write the data itself, except in the case of FAT 12 cross sector data, where
 273:fat.c         ****  * the second sector is handled by this function.
 274:fat.c         ****  * Return value:
 275:fat.c         **** */
 276:fat.c         **** void fat_setNextClusterAddressWBuf(FileSystem *fs,unsigned long cluster_addr,unsigned long next_clu
ARM GAS  /cygdrive/c/DOCUME~1/mkwapisz/LOCALS~1/Temp/ccdVY8Mc.s 			page 9


 277:fat.c         **** {
 177              		.loc 1 277 0
 178              		@ Function supports interworking.
 179              		@ args = 0, pretend = 0, frame = 0
 180              		@ frame_needed = 0, uses_anonymous_args = 0
 181              	.LVL21:
 182 00f0 70402DE9 		stmfd	sp!, {r4, r5, r6, lr}
 183              	.LCFI0:
 278:fat.c         **** 	unsigned short offset;
 279:fat.c         **** 	unsigned char *buf2;
 280:fat.c         **** 		
 281:fat.c         **** 	switch(fs->type)
 184              		.loc 1 281 0
 185 00f4 3CC0D0E5 		ldrb	ip, [r0, #60]	@ zero_extendqisi2
 186 00f8 02005CE3 		cmp	ip, #2
 187              		.loc 1 277 0
 188 00fc 03E0A0E1 		mov	lr, r3
 282:fat.c         **** 	{
 283:fat.c         **** 		case FAT12:
 284:fat.c         **** 			offset = ((cluster_addr%1024)*3/2)%512;
 285:fat.c         **** 			if(offset == 511){
 286:fat.c         **** 				if(cluster_addr%2==0){
 287:fat.c         **** 					buf[offset]=next_cluster_addr&0xFF;
 288:fat.c         **** 				}else{
 289:fat.c         **** 					buf[offset]=(buf[offset]&0xF)+((next_cluster_addr<<4)&0xF0);
 290:fat.c         **** 				}
 291:fat.c         **** 				buf2=part_getSect(fs->part,fat_getSectorAddressFatEntry(fs,cluster_addr)+1,IOM_MODE_READWRITE);
 292:fat.c         **** 				if(cluster_addr%2==0){
 293:fat.c         **** 					buf2[0]=(buf2[0]&0xF0)+((next_cluster_addr>>8)&0xF);
 294:fat.c         **** 				}else{
 295:fat.c         **** 					buf2[0]=(next_cluster_addr>>4)&0xFF;
 296:fat.c         **** 				}
 297:fat.c         **** 				part_relSect(fs->part,buf2);
 298:fat.c         **** 			}else{
 299:fat.c         **** 				if(cluster_addr%2==0){
 300:fat.c         **** 					buf[offset]=next_cluster_addr&0xFF;
 301:fat.c         **** 					buf[offset+1]=(buf[offset+1]&0xF0)+((next_cluster_addr>>8)&0xF);
 302:fat.c         **** 				}else{
 303:fat.c         **** 					buf[offset]=(buf[offset]&0xF)+((next_cluster_addr<<4)&0xF0);
 304:fat.c         **** 					buf[offset+1]=(next_cluster_addr>>4)&0xFF;
 305:fat.c         **** 				}
 306:fat.c         **** 			}
 307:fat.c         **** 			break;
 308:fat.c         **** 		case FAT16:
 309:fat.c         **** 			offset=cluster_addr%256;
 310:fat.c         **** 			*((unsigned short*)buf+offset)=next_cluster_addr;
 189              		.loc 1 310 0
 190 0100 FF300102 		andeq	r3, r1, #255
 191              	.LVL22:
 192 0104 8330A001 		moveq	r3, r3, asl #1
 193              		.loc 1 277 0
 194 0108 0060A0E1 		mov	r6, r0
 195 010c 0240A0E1 		mov	r4, r2
 196 0110 0150A0E1 		mov	r5, r1
 197              		.loc 1 310 0
 198 0114 BE208301 		streqh	r2, [r3, lr]	@ movhi
 199              		.loc 1 281 0
ARM GAS  /cygdrive/c/DOCUME~1/mkwapisz/LOCALS~1/Temp/ccdVY8Mc.s 			page 10


 200 0118 3D00000A 		beq	.L46
 201              	.LVL23:
 202 011c 03005CE3 		cmp	ip, #3
 311:fat.c         **** 			break;
 312:fat.c         **** 		case FAT32:
 313:fat.c         **** 			offset=cluster_addr%128;
 314:fat.c         **** 			*((unsigned long*)buf+offset)=next_cluster_addr;
 203              		.loc 1 314 0
 204 0120 7F300102 		andeq	r3, r1, #127
 205 0124 03218E07 		streq	r2, [lr, r3, asl #2]
 206              		.loc 1 281 0
 207 0128 3900000A 		beq	.L46
 208              	.LVL24:
 209 012c 01005CE3 		cmp	ip, #1
 210 0130 3700001A 		bne	.L46
 211              		.loc 1 284 0
 212 0134 013BA0E1 		mov	r3, r1, asl #22
 213 0138 233BA0E1 		mov	r3, r3, lsr #22
 214 013c 0320A0E3 		mov	r2, #3
 215              	.LVL25:
 216 0140 920303E0 		mul	r3, r2, r3
 217 0144 A330A0E1 		mov	r3, r3, lsr #1
 218 0148 83CBA0E1 		mov	ip, r3, asl #23
 219              	.LVL26:
 220              		.loc 1 285 0
 221 014c C8309FE5 		ldr	r3, .L48
 222              		.loc 1 284 0
 223 0150 ACCBA0E1 		mov	ip, ip, lsr #23
 224              		.loc 1 285 0
 225 0154 03005CE1 		cmp	ip, r3
 226 0158 013001E2 		and	r3, r1, #1
 227 015c 1C00001A 		bne	.L39
 228              		.loc 1 286 0
 229 0160 000053E3 		cmp	r3, #0
 230 0164 0B00001A 		bne	.L41
 231              		.loc 1 287 0
 232 0168 FF41CEE5 		strb	r4, [lr, #511]
 233              		.loc 1 291 0
 234 016c FEFFFFEB 		bl	fat_getSectorAddressFatEntry
 235              	.LVL27:
 236 0170 0220A0E3 		mov	r2, #2
 237 0174 011080E2 		add	r1, r0, #1
 238 0178 000096E5 		ldr	r0, [r6, #0]
 239 017c FEFFFFEB 		bl	part_getSect
 240              	.LVL28:
 241              		.loc 1 293 0
 242 0180 0030D0E5 		ldrb	r3, [r0, #0]	@ zero_extendqisi2
 243 0184 042AA0E1 		mov	r2, r4, asl #20
 244 0188 0F30C3E3 		bic	r3, r3, #15
 245              	.LVL29:
 246              		.loc 1 291 0
 247 018c 0010A0E1 		mov	r1, r0
 248              	.LVL30:
 249              		.loc 1 293 0
 250 0190 223E83E0 		add	r3, r3, r2, lsr #28
 251 0194 0A0000EA 		b	.L47
 252              	.LVL31:
ARM GAS  /cygdrive/c/DOCUME~1/mkwapisz/LOCALS~1/Temp/ccdVY8Mc.s 			page 11


 253              	.L41:
 254              		.loc 1 289 0
 255 0198 0C30DEE7 		ldrb	r3, [lr, ip]	@ zero_extendqisi2
 256 019c 0F3003E2 		and	r3, r3, #15
 257 01a0 043283E0 		add	r3, r3, r4, asl #4
 258 01a4 0C30CEE7 		strb	r3, [lr, ip]
 259              		.loc 1 291 0
 260 01a8 FEFFFFEB 		bl	fat_getSectorAddressFatEntry
 261              	.LVL32:
 262 01ac 0220A0E3 		mov	r2, #2
 263 01b0 011080E2 		add	r1, r0, #1
 264 01b4 000096E5 		ldr	r0, [r6, #0]
 265 01b8 FEFFFFEB 		bl	part_getSect
 266              		.loc 1 295 0
 267 01bc 2432A0E1 		mov	r3, r4, lsr #4
 268              		.loc 1 291 0
 269 01c0 0010A0E1 		mov	r1, r0
 270              	.LVL33:
 271              	.L47:
 272              		.loc 1 295 0
 273 01c4 0030C1E5 		strb	r3, [r1, #0]
 274              		.loc 1 297 0
 275 01c8 000096E5 		ldr	r0, [r6, #0]
 276 01cc FEFFFFEB 		bl	part_relSect
 277              	.LVL34:
 278 01d0 0F0000EA 		b	.L46
 279              	.LVL35:
 280              	.L39:
 281              		.loc 1 299 0
 282 01d4 000053E3 		cmp	r3, #0
 283 01d8 0C108EE0 		add	r1, lr, ip
 284              	.LVL36:
 285 01dc 0600001A 		bne	.L44
 286              		.loc 1 300 0
 287 01e0 0C40CEE7 		strb	r4, [lr, ip]
 288              		.loc 1 301 0
 289 01e4 0130D1E5 		ldrb	r3, [r1, #1]	@ zero_extendqisi2
 290 01e8 042AA0E1 		mov	r2, r4, asl #20
 291 01ec 0F30C3E3 		bic	r3, r3, #15
 292 01f0 223E83E0 		add	r3, r3, r2, lsr #28
 293 01f4 0130C1E5 		strb	r3, [r1, #1]
 294 01f8 050000EA 		b	.L46
 295              	.L44:
 296              		.loc 1 303 0
 297 01fc 0C30DEE7 		ldrb	r3, [lr, ip]	@ zero_extendqisi2
 298 0200 0F3003E2 		and	r3, r3, #15
 299 0204 043283E0 		add	r3, r3, r4, asl #4
 300              		.loc 1 304 0
 301 0208 2422A0E1 		mov	r2, r4, lsr #4
 302              		.loc 1 303 0
 303 020c 0C30CEE7 		strb	r3, [lr, ip]
 304              		.loc 1 304 0
 305 0210 0120C1E5 		strb	r2, [r1, #1]
 306              	.LVL37:
 307              	.L46:
 315:fat.c         **** 			break;
 316:fat.c         **** 	}
ARM GAS  /cygdrive/c/DOCUME~1/mkwapisz/LOCALS~1/Temp/ccdVY8Mc.s 			page 12


 317:fat.c         **** }
 308              		.loc 1 317 0
 309 0214 7040BDE8 		ldmfd	sp!, {r4, r5, r6, lr}
 310 0218 1EFF2FE1 		bx	lr
 311              	.L49:
 312              		.align	2
 313              	.L48:
 314 021c FF010000 		.word	511
 315              	.LFE8:
 316              		.size	fat_setNextClusterAddressWBuf, .-fat_setNextClusterAddressWBuf
 317              		.align	2
 318              		.global	fat_getNextClusterAddressWBuf
 319              		.type	fat_getNextClusterAddressWBuf, %function
 320              	fat_getNextClusterAddressWBuf:
 321              	.LFB7:
 322              		.loc 1 231 0
 323              		@ Function supports interworking.
 324              		@ args = 0, pretend = 0, frame = 0
 325              		@ frame_needed = 0, uses_anonymous_args = 0
 326              	.LVL38:
 327 0220 F0402DE9 		stmfd	sp!, {r4, r5, r6, r7, lr}
 328              	.LCFI1:
 329              		.loc 1 237 0
 330 0224 3C40D0E5 		ldrb	r4, [r0, #60]	@ zero_extendqisi2
 331 0228 020054E3 		cmp	r4, #2
 332              		.loc 1 257 0
 333 022c FF300102 		andeq	r3, r1, #255
 334 0230 8330A001 		moveq	r3, r3, asl #1
 335              		.loc 1 231 0
 336 0234 0060A0E1 		mov	r6, r0
 337 0238 02C0A0E1 		mov	ip, r2
 338 023c 0150A0E1 		mov	r5, r1
 339              		.loc 1 257 0
 340 0240 B2009301 		ldreqh	r0, [r3, r2]
 341              	.LVL39:
 342              		.loc 1 237 0
 343 0244 2200000A 		beq	.L55
 344              	.LVL40:
 345 0248 030054E3 		cmp	r4, #3
 346              		.loc 1 261 0
 347 024c 7F300102 		andeq	r3, r1, #127
 348 0250 03019207 		ldreq	r0, [r2, r3, asl #2]
 349              		.loc 1 237 0
 350 0254 1E00000A 		beq	.L55
 351              	.LVL41:
 352 0258 010054E3 		cmp	r4, #1
 353 025c 0000A013 		movne	r0, #0
 354 0260 1B00001A 		bne	.L55
 355              		.loc 1 240 0
 356 0264 013BA0E1 		mov	r3, r1, asl #22
 357 0268 0320A0E3 		mov	r2, #3
 358              	.LVL42:
 359 026c 233BA0E1 		mov	r3, r3, lsr #22
 360 0270 920303E0 		mul	r3, r2, r3
 361 0274 A330A0E1 		mov	r3, r3, lsr #1
 362 0278 832BA0E1 		mov	r2, r3, asl #23
 363              		.loc 1 242 0
ARM GAS  /cygdrive/c/DOCUME~1/mkwapisz/LOCALS~1/Temp/ccdVY8Mc.s 			page 13


 364 027c 58309FE5 		ldr	r3, .L62
 365              		.loc 1 240 0
 366 0280 A22BA0E1 		mov	r2, r2, lsr #23
 367              		.loc 1 242 0
 368 0284 030052E1 		cmp	r2, r3
 369              		.loc 1 247 0
 370 0288 02308C10 		addne	r3, ip, r2
 371              		.loc 1 241 0
 372 028c 0270DCE7 		ldrb	r7, [ip, r2]	@ zero_extendqisi2
 373              	.LVL43:
 374              		.loc 1 247 0
 375 0290 0140D315 		ldrneb	r4, [r3, #1]	@ zero_extendqisi2
 376              	.LVL44:
 377              		.loc 1 242 0
 378 0294 0900001A 		bne	.L58
 379              		.loc 1 243 0
 380 0298 FEFFFFEB 		bl	fat_getSectorAddressFatEntry
 381              	.LVL45:
 382 029c 0420A0E1 		mov	r2, r4
 383 02a0 011080E2 		add	r1, r0, #1
 384 02a4 000096E5 		ldr	r0, [r6, #0]
 385 02a8 FEFFFFEB 		bl	part_getSect
 386 02ac 0030A0E1 		mov	r3, r0
 387              	.LVL46:
 388              		.loc 1 245 0
 389 02b0 0010A0E1 		mov	r1, r0
 390 02b4 000096E5 		ldr	r0, [r6, #0]
 391              		.loc 1 244 0
 392 02b8 0040D3E5 		ldrb	r4, [r3, #0]	@ zero_extendqisi2
 393              	.LVL47:
 394              		.loc 1 245 0
 395 02bc FEFFFFEB 		bl	part_relSect
 396              	.LVL48:
 397              	.L58:
 398              		.loc 1 249 0
 399 02c0 010015E3 		tst	r5, #1
 400              		.loc 1 250 0
 401 02c4 0F300402 		andeq	r3, r4, #15
 402              		.loc 1 252 0
 403 02c8 2732A011 		movne	r3, r7, lsr #4
 404              		.loc 1 250 0
 405 02cc 03048700 		addeq	r0, r7, r3, asl #8
 406              		.loc 1 252 0
 407 02d0 04028310 		addne	r0, r3, r4, asl #4
 408              	.LVL49:
 409              	.L55:
 410              	.LVL50:
 411              		.loc 1 265 0
 412 02d4 F040BDE8 		ldmfd	sp!, {r4, r5, r6, r7, lr}
 413 02d8 1EFF2FE1 		bx	lr
 414              	.L63:
 415              		.align	2
 416              	.L62:
 417 02dc FF010000 		.word	511
 418              	.LFE7:
 419              		.size	fat_getNextClusterAddressWBuf, .-fat_getNextClusterAddressWBuf
 420              		.align	2
ARM GAS  /cygdrive/c/DOCUME~1/mkwapisz/LOCALS~1/Temp/ccdVY8Mc.s 			page 14


 421              		.global	fat_getNextClusterChain
 422              		.type	fat_getNextClusterChain, %function
 423              	fat_getNextClusterChain:
 424              	.LFB9:
 318:fat.c         **** /*****************************************************************************/
 319:fat.c         **** 
 320:fat.c         **** /* ****************************************************************************  
 321:fat.c         ****  * signed short fat_getNextClusterChain(FileSystem *fs, ClusterChain *Cache)
 322:fat.c         ****  * Description: This function is to advance the clusterchain of a Cache.
 323:fat.c         ****  * First, the function verifies if the Cache is valid. It could correct it if it 
 324:fat.c         ****  * is not, but this is not done at the time. If the cachen is valid, the next step is
 325:fat.c         ****  * to see what the next cluster is, if this is the End of Clustermark, the cache is
 326:fat.c         ****  * updated to know the lastcluster but will remain untouched otherwise. -1 is returned.
 327:fat.c         ****  * If there are more clusters the function scans the rest of the chain until the next
 328:fat.c         ****  * cluster is no longer lineair, or until it has run out of fat data (only 1 sector) is
 329:fat.c         ****  * examined, namely the one fetched to check for EoC.
 330:fat.c         ****  * With lineair is meant that logical cluster n+1 should be 1 more than logical cluster n
 331:fat.c         ****  * at the disc level.
 332:fat.c         ****  * Return value: 0 on success, or -1 when EoC.
 333:fat.c         **** */
 334:fat.c         **** signed short fat_getNextClusterChain(FileSystem *fs, ClusterChain *Cache)
 335:fat.c         **** {
 425              		.loc 1 335 0
 426              		@ Function supports interworking.
 427              		@ args = 0, pretend = 0, frame = 0
 428              		@ frame_needed = 0, uses_anonymous_args = 0
 429              	.LVL51:
 430 02e0 F0472DE9 		stmfd	sp!, {r4, r5, r6, r7, r8, r9, sl, lr}
 431              	.LCFI2:
 432              		.loc 1 335 0
 433 02e4 0160A0E1 		mov	r6, r1
 336:fat.c         **** 	unsigned long sect,lr,nlr,dc;
 337:fat.c         **** 	signed short lin=0;
 338:fat.c         **** 	unsigned char *buf;
 339:fat.c         **** 
 340:fat.c         **** 	if(Cache->DiscCluster==0)
 434              		.loc 1 340 0
 435 02e8 081091E5 		ldr	r1, [r1, #8]
 436              	.LVL52:
 437 02ec 000051E3 		cmp	r1, #0
 438              		.loc 1 335 0
 439 02f0 0070A0E1 		mov	r7, r0
 440              		.loc 1 340 0
 441 02f4 1500000A 		beq	.L78
 442              	.LVL53:
 341:fat.c         **** 	{
 342:fat.c         **** 		return(-1);
 343:fat.c         **** 	}
 344:fat.c         **** 
 345:fat.c         **** 	sect=fat_getSectorAddressFatEntry(fs,Cache->DiscCluster);
 443              		.loc 1 345 0
 444 02f8 FEFFFFEB 		bl	fat_getSectorAddressFatEntry
 346:fat.c         **** 	buf=part_getSect(fs->part,sect,IOM_MODE_READONLY);
 445              		.loc 1 346 0
 446 02fc 0120A0E3 		mov	r2, #1
 447              	.LVL54:
 448 0300 0010A0E1 		mov	r1, r0
ARM GAS  /cygdrive/c/DOCUME~1/mkwapisz/LOCALS~1/Temp/ccdVY8Mc.s 			page 15


 449              	.LVL55:
 450              		.loc 1 345 0
 451 0304 0090A0E1 		mov	r9, r0
 452              		.loc 1 346 0
 453 0308 000097E5 		ldr	r0, [r7, #0]
 454 030c FEFFFFEB 		bl	part_getSect
 455              	.LVL56:
 456 0310 0080A0E1 		mov	r8, r0
 457              	.LVL57:
 347:fat.c         **** 	dc=fat_getNextClusterAddressWBuf(fs,Cache->DiscCluster,buf);
 458              		.loc 1 347 0
 459 0314 0820A0E1 		mov	r2, r8
 460 0318 081096E5 		ldr	r1, [r6, #8]
 461 031c 0700A0E1 		mov	r0, r7
 462 0320 FEFFFFEB 		bl	fat_getNextClusterAddressWBuf
 463 0324 0040A0E1 		mov	r4, r0
 464              	.LVL58:
 348:fat.c         **** 	if(fat_isEocMarker(fs,dc))
 465              		.loc 1 348 0
 466 0328 0410A0E1 		mov	r1, r4
 467 032c 0700A0E1 		mov	r0, r7
 468 0330 FEFFFFEB 		bl	fat_isEocMarker
 469 0334 000050E3 		cmp	r0, #0
 470 0338 0600000A 		beq	.L68
 349:fat.c         **** 	{
 350:fat.c         **** 		Cache->LastCluster=Cache->DiscCluster;
 471              		.loc 1 350 0
 472 033c 083096E5 		ldr	r3, [r6, #8]
 351:fat.c         **** 		part_relSect(fs->part,buf);
 473              		.loc 1 351 0
 474 0340 000097E5 		ldr	r0, [r7, #0]
 475              		.loc 1 350 0
 476 0344 103086E5 		str	r3, [r6, #16]
 477              		.loc 1 351 0
 478 0348 0810A0E1 		mov	r1, r8
 479 034c FEFFFFEB 		bl	part_relSect
 480              	.LVL59:
 481              	.L78:
 482 0350 0000E0E3 		mvn	r0, #0
 483 0354 210000EA 		b	.L67
 484              	.L68:
 352:fat.c         **** 		return(-1);
 353:fat.c         **** 	}
 354:fat.c         **** 	
 355:fat.c         **** 	Cache->DiscCluster=dc;
 356:fat.c         **** 	Cache->LogicCluster++;
 485              		.loc 1 356 0
 486 0358 043096E5 		ldr	r3, [r6, #4]
 357:fat.c         **** 		
 358:fat.c         **** 	lr=Cache->DiscCluster-1;
 359:fat.c         **** 	nlr=lr+1;
 487              		.loc 1 359 0
 488 035c 0450A0E1 		mov	r5, r4
 489              	.LVL60:
 490              		.loc 1 356 0
 491 0360 013083E2 		add	r3, r3, #1
 492              		.loc 1 359 0
ARM GAS  /cygdrive/c/DOCUME~1/mkwapisz/LOCALS~1/Temp/ccdVY8Mc.s 			page 16


 493 0364 00A0A0E1 		mov	sl, r0
 494              		.loc 1 358 0
 495 0368 012044E2 		sub	r2, r4, #1
 496              	.LVL61:
 497              		.loc 1 356 0
 498 036c 180086E9 		stmib	r6, {r3, r4}	@ phole stm
 499 0370 020000EA 		b	.L70
 500              	.LVL62:
 501              	.L71:
 360:fat.c         **** 	
 361:fat.c         **** 	while(nlr-1==lr && fat_getSectorAddressFatEntry(fs,nlr)==sect)
 362:fat.c         **** 	{
 363:fat.c         **** 		lr=nlr;
 364:fat.c         **** 		nlr=fat_getNextClusterAddressWBuf(fs,lr,buf);
 502              		.loc 1 364 0
 503 0374 FEFFFFEB 		bl	fat_getNextClusterAddressWBuf
 504              	.LVL63:
 505 0378 0520A0E1 		mov	r2, r5
 506              	.LVL64:
 507 037c 0050A0E1 		mov	r5, r0
 508              	.LVL65:
 509              	.L70:
 510              		.loc 1 361 0
 511 0380 013045E2 		sub	r3, r5, #1
 512 0384 020053E1 		cmp	r3, r2
 513              		.loc 1 364 0
 514 0388 0A38A0E1 		mov	r3, sl, asl #16
 515              		.loc 1 361 0
 516 038c 0510A0E1 		mov	r1, r5
 517 0390 0700A0E1 		mov	r0, r7
 518              		.loc 1 364 0
 519 0394 2348A0E1 		mov	r4, r3, lsr #16
 520              	.LVL66:
 521              		.loc 1 361 0
 522 0398 0600001A 		bne	.L72
 523              	.LVL67:
 524 039c FEFFFFEB 		bl	fat_getSectorAddressFatEntry
 525              	.LVL68:
 526 03a0 090050E1 		cmp	r0, r9
 527              		.loc 1 364 0
 528 03a4 0510A0E1 		mov	r1, r5
 529 03a8 0820A0E1 		mov	r2, r8
 530 03ac 0700A0E1 		mov	r0, r7
 531              		.loc 1 361 0
 532 03b0 01A08AE2 		add	sl, sl, #1
 533 03b4 EEFFFF0A 		beq	.L71
 534              	.LVL69:
 535              	.L72:
 365:fat.c         **** 		lin++;	
 366:fat.c         **** 	}
 367:fat.c         **** 	
 368:fat.c         **** 	Cache->Linear=lin-1<0?0:lin-1;
 536              		.loc 1 368 0
 537 03b8 0438A0E1 		mov	r3, r4, asl #16
 538 03bc 000053E3 		cmp	r3, #0
 539 03c0 013044C2 		subgt	r3, r4, #1
 540 03c4 0030A0D3 		movle	r3, #0
ARM GAS  /cygdrive/c/DOCUME~1/mkwapisz/LOCALS~1/Temp/ccdVY8Mc.s 			page 17


 541 03c8 FF3003C2 		andgt	r3, r3, #255
 542 03cc 0030C6E5 		strb	r3, [r6, #0]
 369:fat.c         **** 	
 370:fat.c         **** 	part_relSect(fs->part,buf);
 543              		.loc 1 370 0
 544 03d0 0810A0E1 		mov	r1, r8
 545              	.LVL70:
 546 03d4 000097E5 		ldr	r0, [r7, #0]
 547              	.LVL71:
 548 03d8 FEFFFFEB 		bl	part_relSect
 549              	.LVL72:
 550 03dc 0000A0E3 		mov	r0, #0
 551              	.LVL73:
 552              	.L67:
 371:fat.c         **** 	return(0);
 372:fat.c         **** }
 553              		.loc 1 372 0
 554 03e0 F047BDE8 		ldmfd	sp!, {r4, r5, r6, r7, r8, r9, sl, lr}
 555 03e4 1EFF2FE1 		bx	lr
 556              	.LFE9:
 557              		.size	fat_getNextClusterChain, .-fat_getNextClusterChain
 558              		.align	2
 559              		.global	fat_LogicToDiscCluster
 560              		.type	fat_LogicToDiscCluster, %function
 561              	fat_LogicToDiscCluster:
 562              	.LFB10:
 373:fat.c         **** /*****************************************************************************/
 374:fat.c         **** 
 375:fat.c         **** 
 376:fat.c         **** /* ****************************************************************************  
 377:fat.c         ****  * signed short fat_LogicToDiscCluster(FileSystem *fs, ClusterChain *Cache,unsigned long logicclust
 378:fat.c         ****  * Description: This function is used to follow clusterchains. When called it will convert
 379:fat.c         ****  * a logical cluster, to a disc cluster, using a Cache object. All it does is call
 380:fat.c         ****  * getNextClusterChain in the proper manner, and rewind clusterchains if required.
 381:fat.c         ****  * It is NOT recommended to go backwards in clusterchains, since this will require
 382:fat.c         ****  * scanning the entire chain every time.
 383:fat.c         ****  * Return value: 0 on success and -1 on failure (meaning out of bounds).
 384:fat.c         **** */
 385:fat.c         **** signed short fat_LogicToDiscCluster(FileSystem *fs, ClusterChain *Cache,unsigned long logiccluster)
 386:fat.c         **** {
 563              		.loc 1 386 0
 564              		@ Function supports interworking.
 565              		@ args = 0, pretend = 0, frame = 0
 566              		@ frame_needed = 0, uses_anonymous_args = 0
 567              	.LVL74:
 387:fat.c         **** 	if(logiccluster<Cache->LogicCluster || Cache->DiscCluster==0){
 568              		.loc 1 387 0
 569 03e8 043091E5 		ldr	r3, [r1, #4]
 570 03ec 030052E1 		cmp	r2, r3
 571              		.loc 1 386 0
 572 03f0 70402DE9 		stmfd	sp!, {r4, r5, r6, lr}
 573              	.LCFI3:
 574              		.loc 1 386 0
 575 03f4 0140A0E1 		mov	r4, r1
 576 03f8 0250A0E1 		mov	r5, r2
 577 03fc 0060A0E1 		mov	r6, r0
 578              		.loc 1 387 0
ARM GAS  /cygdrive/c/DOCUME~1/mkwapisz/LOCALS~1/Temp/ccdVY8Mc.s 			page 18


 579 0400 0200003A 		bcc	.L80
 580              	.LVL75:
 581 0404 083091E5 		ldr	r3, [r1, #8]
 582 0408 000053E3 		cmp	r3, #0
 583 040c 0400001A 		bne	.L93
 584              	.L80:
 388:fat.c         **** 		Cache->LogicCluster=0;
 389:fat.c         **** 		Cache->DiscCluster=Cache->FirstCluster;
 585              		.loc 1 389 0
 586 0410 0C3094E5 		ldr	r3, [r4, #12]
 587              		.loc 1 388 0
 588 0414 0020A0E3 		mov	r2, #0
 589              		.loc 1 389 0
 590 0418 083084E5 		str	r3, [r4, #8]
 390:fat.c         **** 		Cache->Linear=0;
 591              		.loc 1 390 0
 592 041c 0020C4E5 		strb	r2, [r4, #0]
 593              		.loc 1 388 0
 594 0420 042084E5 		str	r2, [r4, #4]
 595              	.LVL76:
 596              	.L93:
 391:fat.c         **** 	}
 392:fat.c         **** 	
 393:fat.c         **** 	if(Cache->LogicCluster==logiccluster){
 597              		.loc 1 393 0
 598 0424 043094E5 		ldr	r3, [r4, #4]
 599 0428 050053E1 		cmp	r3, r5
 600 042c 1200000A 		beq	.L83
 394:fat.c         **** 		return(0);
 395:fat.c         **** 	}
 396:fat.c         **** 	
 397:fat.c         **** 	while(Cache->LogicCluster!=logiccluster)
 398:fat.c         **** 	{
 399:fat.c         **** 		if(Cache->Linear!=0)
 601              		.loc 1 399 0
 602 0430 0030D4E5 		ldrb	r3, [r4, #0]	@ zero_extendqisi2
 603 0434 000053E3 		cmp	r3, #0
 400:fat.c         **** 		{
 401:fat.c         **** 			Cache->Linear--;
 402:fat.c         **** 			Cache->LogicCluster++;
 403:fat.c         **** 			Cache->DiscCluster++;
 404:fat.c         **** 		}
 405:fat.c         **** 		else
 406:fat.c         **** 		{
 407:fat.c         **** 			if((fat_getNextClusterChain(fs,Cache))!=0){
 604              		.loc 1 407 0
 605 0438 0600A0E1 		mov	r0, r6
 606 043c 0410A0E1 		mov	r1, r4
 607              		.loc 1 401 0
 608 0440 01C043E2 		sub	ip, r3, #1
 609              		.loc 1 399 0
 610 0444 0700000A 		beq	.L85
 611              	.LVL77:
 612              		.loc 1 402 0
 613 0448 043094E5 		ldr	r3, [r4, #4]
 614              		.loc 1 403 0
 615 044c 082094E5 		ldr	r2, [r4, #8]
ARM GAS  /cygdrive/c/DOCUME~1/mkwapisz/LOCALS~1/Temp/ccdVY8Mc.s 			page 19


 616              		.loc 1 402 0
 617 0450 013083E2 		add	r3, r3, #1
 618              		.loc 1 403 0
 619 0454 012082E2 		add	r2, r2, #1
 620              		.loc 1 401 0
 621 0458 00C0C4E5 		strb	ip, [r4, #0]
 622              		.loc 1 402 0
 623 045c 043084E5 		str	r3, [r4, #4]
 624              		.loc 1 403 0
 625 0460 082084E5 		str	r2, [r4, #8]
 626 0464 EEFFFFEA 		b	.L93
 627              	.LVL78:
 628              	.L85:
 629              		.loc 1 407 0
 630 0468 FEFFFFEB 		bl	fat_getNextClusterChain
 631              	.LVL79:
 632 046c 0008B0E1 		movs	r0, r0, asl #16
 633 0470 EBFFFF0A 		beq	.L93
 634 0474 0000E0E3 		mvn	r0, #0
 635 0478 000000EA 		b	.L89
 636              	.LVL80:
 637              	.L83:
 638              		.loc 1 397 0
 639 047c 0000A0E3 		mov	r0, #0
 640              	.L89:
 408:fat.c         **** 				return(-1);
 409:fat.c         **** 			}
 410:fat.c         **** 		}
 411:fat.c         **** 	}
 412:fat.c         **** 	return(0);
 413:fat.c         **** }
 641              		.loc 1 413 0
 642 0480 7040BDE8 		ldmfd	sp!, {r4, r5, r6, lr}
 643 0484 1EFF2FE1 		bx	lr
 644              	.LFE10:
 645              		.size	fat_LogicToDiscCluster, .-fat_LogicToDiscCluster
 646              		.align	2
 647              		.global	fat_DiscToLogicCluster
 648              		.type	fat_DiscToLogicCluster, %function
 649              	fat_DiscToLogicCluster:
 650              	.LFB14:
 414:fat.c         **** /*****************************************************************************/
 415:fat.c         **** 
 416:fat.c         **** /* ****************************************************************************  
 417:fat.c         ****  * short fat_allocClusterChain(FileSystem *fs,ClusterChain *Cache,unsigned long num_clusters)
 418:fat.c         ****  * Description: This function extends a clusterchain by num_clusters. It returns the
 419:fat.c         ****  * number of clusters it *failed* to allocate. 
 420:fat.c         ****  * Return value: 0 on success, all other values are the number of clusters it could
 421:fat.c         ****  * not allocate.
 422:fat.c         **** */
 423:fat.c         **** short fat_allocClusterChain(FileSystem *fs,ClusterChain *Cache,unsigned long num_clusters)
 424:fat.c         **** {
 425:fat.c         **** 	unsigned long cc,ncl=num_clusters,lc;
 426:fat.c         **** 	unsigned char *bufa=0,*bufb=0;
 427:fat.c         **** 	unsigned char  overflow=0;
 428:fat.c         **** 
 429:fat.c         **** 	if(Cache->FirstCluster<=1)return(num_clusters);
ARM GAS  /cygdrive/c/DOCUME~1/mkwapisz/LOCALS~1/Temp/ccdVY8Mc.s 			page 20


 430:fat.c         **** 	
 431:fat.c         **** 	lc=fs_getLastCluster(fs,Cache);
 432:fat.c         **** 	cc=lc;
 433:fat.c         **** 	
 434:fat.c         **** 	while(ncl > 0){
 435:fat.c         **** 		cc++;
 436:fat.c         **** 		if(cc>=fs->DataClusterCount+1){
 437:fat.c         **** 			if(overflow){
 438:fat.c         **** 				bufa=part_getSect(fs->part,fat_getSectorAddressFatEntry(fs,lc),IOM_MODE_READWRITE);
 439:fat.c         **** 				fat_setNextClusterAddressWBuf(fs,lc,fat_giveEocMarker(fs),bufa);
 440:fat.c         **** 				Cache->LastCluster=lc;
 441:fat.c         **** 				part_relSect(fs->part,bufa);
 442:fat.c         **** 				fs->FreeClusterCount-=num_clusters-ncl;
 443:fat.c         **** 				return(num_clusters-ncl);
 444:fat.c         **** 			}
 445:fat.c         **** 			cc=2;
 446:fat.c         **** 			overflow++;
 447:fat.c         **** 		}
 448:fat.c         **** 		bufa=part_getSect(fs->part,fat_getSectorAddressFatEntry(fs,cc),IOM_MODE_READONLY);
 449:fat.c         **** 		if(fat_getNextClusterAddressWBuf(fs,cc,bufa)==0){
 450:fat.c         **** 			bufb=part_getSect(fs->part,fat_getSectorAddressFatEntry(fs,lc),IOM_MODE_READWRITE);
 451:fat.c         **** 			fat_setNextClusterAddressWBuf(fs,lc,cc,bufb);
 452:fat.c         **** 			part_relSect(fs->part,bufb);
 453:fat.c         **** 			ncl--;
 454:fat.c         **** 			lc=cc;
 455:fat.c         **** 		}
 456:fat.c         **** 		part_relSect(fs->part,bufa);
 457:fat.c         **** 		if(ncl==0){
 458:fat.c         **** 			bufa=part_getSect(fs->part,fat_getSectorAddressFatEntry(fs,lc),IOM_MODE_READWRITE);
 459:fat.c         **** 			fat_setNextClusterAddressWBuf(fs,lc,fat_giveEocMarker(fs),bufa);
 460:fat.c         **** 			Cache->LastCluster=lc;
 461:fat.c         **** 			part_relSect(fs->part,bufa);
 462:fat.c         **** 		}
 463:fat.c         **** 	}
 464:fat.c         **** 	if(Cache->ClusterCount)Cache->ClusterCount+=num_clusters;
 465:fat.c         **** 	return(0);
 466:fat.c         **** }
 467:fat.c         **** 
 468:fat.c         **** /* ****************************************************************************  
 469:fat.c         ****  * short fat_unlinkClusterChain(FileSystem *fs,ClusterChain *Cache)
 470:fat.c         ****  * Description: This function removes a clusterchain. Starting at FirstCluster
 471:fat.c         ****  * it follows the chain until the end, resetting all values to 0.
 472:fat.c         ****  * Return value: 0 on success.
 473:fat.c         **** */
 474:fat.c         **** short fat_unlinkClusterChain(FileSystem *fs,ClusterChain *Cache)
 475:fat.c         **** {
 476:fat.c         **** 	unsigned long c,tbd=0;
 477:fat.c         **** 	
 478:fat.c         **** 	Cache->LogicCluster=0;
 479:fat.c         **** 	Cache->DiscCluster=Cache->FirstCluster;
 480:fat.c         **** 	
 481:fat.c         **** 	c=0;
 482:fat.c         **** 	
 483:fat.c         **** 	while(!fat_LogicToDiscCluster(fs,Cache,c++)){
 484:fat.c         **** 		if(tbd!=0){
 485:fat.c         **** 			fat_setNextClusterAddress(fs,tbd,0);
 486:fat.c         **** 		}
ARM GAS  /cygdrive/c/DOCUME~1/mkwapisz/LOCALS~1/Temp/ccdVY8Mc.s 			page 21


 487:fat.c         **** 		tbd=Cache->DiscCluster;
 488:fat.c         **** 	}
 489:fat.c         **** 	fat_setNextClusterAddress(fs,Cache->DiscCluster,0);
 490:fat.c         **** 	fs->FreeClusterCount+=c;	
 491:fat.c         ****  	return(0);
 492:fat.c         **** }
 493:fat.c         **** 
 494:fat.c         **** unsigned long fat_countClustersInChain(FileSystem *fs,unsigned long firstcluster)
 495:fat.c         **** {
 496:fat.c         **** 	ClusterChain cache;
 497:fat.c         **** 	unsigned long c=0;
 498:fat.c         **** 	
 499:fat.c         **** 	if(firstcluster<=1)return(0);
 500:fat.c         **** 	
 501:fat.c         **** 	cache.DiscCluster = cache.LogicCluster = cache.LastCluster = cache.Linear = 0;
 502:fat.c         **** 	cache.FirstCluster = firstcluster;
 503:fat.c         **** 	
 504:fat.c         **** 	while(!(fat_LogicToDiscCluster(fs,&cache,c++)));
 505:fat.c         **** 	
 506:fat.c         **** 	return(c-1);
 507:fat.c         **** }
 508:fat.c         **** 
 509:fat.c         **** unsigned long fat_DiscToLogicCluster(FileSystem *fs,unsigned long firstcluster,unsigned long disccl
 510:fat.c         **** {
 651              		.loc 1 510 0
 652              		@ Function supports interworking.
 653              		@ args = 0, pretend = 0, frame = 24
 654              		@ frame_needed = 0, uses_anonymous_args = 0
 655              	.LVL81:
 656 0488 F0402DE9 		stmfd	sp!, {r4, r5, r6, r7, lr}
 657              	.LCFI4:
 511:fat.c         **** 	ClusterChain cache;
 512:fat.c         **** 	unsigned long c=0,r=0;
 513:fat.c         **** 	
 514:fat.c         **** 	cache.DiscCluster = cache.LogicCluster = cache.LastCluster = cache.Linear = 0;
 658              		.loc 1 514 0
 659 048c 0030A0E3 		mov	r3, #0
 660              		.loc 1 510 0
 661 0490 18D04DE2 		sub	sp, sp, #24
 662              	.LCFI5:
 515:fat.c         **** 	cache.FirstCluster = firstcluster;
 663              		.loc 1 515 0
 664 0494 0350A0E1 		mov	r5, r3
 665              	.LVL82:
 666              		.loc 1 510 0
 667 0498 0070A0E1 		mov	r7, r0
 668 049c 0260A0E1 		mov	r6, r2
 669              		.loc 1 515 0
 670 04a0 0340A0E1 		mov	r4, r3
 671              	.LVL83:
 672 04a4 0C108DE5 		str	r1, [sp, #12]
 673              		.loc 1 514 0
 674 04a8 0030CDE5 		strb	r3, [sp, #0]
 675 04ac 10308DE5 		str	r3, [sp, #16]
 676 04b0 04308DE5 		str	r3, [sp, #4]
 677 04b4 08308DE5 		str	r3, [sp, #8]
 678 04b8 020000EA 		b	.L102
ARM GAS  /cygdrive/c/DOCUME~1/mkwapisz/LOCALS~1/Temp/ccdVY8Mc.s 			page 22


 679              	.LVL84:
 680              	.L96:
 516:fat.c         **** 	
 517:fat.c         **** 	while(!(fat_LogicToDiscCluster(fs,&cache,c++)) && !r){
 518:fat.c         **** 		if(cache.DiscCluster == disccluster){
 681              		.loc 1 518 0
 682 04bc 08309DE5 		ldr	r3, [sp, #8]
 683 04c0 060053E1 		cmp	r3, r6
 519:fat.c         **** 			r = cache.LogicCluster;
 684              		.loc 1 519 0
 685 04c4 04509D05 		ldreq	r5, [sp, #4]
 686              	.LVL85:
 687              	.L102:
 688              	.LVL86:
 689              		.loc 1 517 0
 690 04c8 0420A0E1 		mov	r2, r4
 691 04cc 0700A0E1 		mov	r0, r7
 692 04d0 0D10A0E1 		mov	r1, sp
 693              	.LVL87:
 694 04d4 FEFFFFEB 		bl	fat_LogicToDiscCluster
 695 04d8 0008B0E1 		movs	r0, r0, asl #16
 696 04dc 014084E2 		add	r4, r4, #1
 697              	.LVL88:
 698 04e0 0100001A 		bne	.L99
 699 04e4 000055E3 		cmp	r5, #0
 700 04e8 F3FFFF0A 		beq	.L96
 701              	.L99:
 520:fat.c         **** 		}
 521:fat.c         **** 	}
 522:fat.c         **** 	return(r);
 523:fat.c         **** }
 702              		.loc 1 523 0
 703 04ec 0500A0E1 		mov	r0, r5
 704 04f0 18D08DE2 		add	sp, sp, #24
 705 04f4 F040BDE8 		ldmfd	sp!, {r4, r5, r6, r7, lr}
 706 04f8 1EFF2FE1 		bx	lr
 707              	.LFE14:
 708              		.size	fat_DiscToLogicCluster, .-fat_DiscToLogicCluster
 709              		.align	2
 710              		.global	fat_countClustersInChain
 711              		.type	fat_countClustersInChain, %function
 712              	fat_countClustersInChain:
 713              	.LFB13:
 714              		.loc 1 495 0
 715              		@ Function supports interworking.
 716              		@ args = 0, pretend = 0, frame = 24
 717              		@ frame_needed = 0, uses_anonymous_args = 0
 718              	.LVL89:
 719 04fc 30402DE9 		stmfd	sp!, {r4, r5, lr}
 720              	.LCFI6:
 721              		.loc 1 499 0
 722 0500 010051E3 		cmp	r1, #1
 723              		.loc 1 495 0
 724 0504 0050A0E1 		mov	r5, r0
 725 0508 18D04DE2 		sub	sp, sp, #24
 726              	.LCFI7:
 727              		.loc 1 499 0
ARM GAS  /cygdrive/c/DOCUME~1/mkwapisz/LOCALS~1/Temp/ccdVY8Mc.s 			page 23


 728 050c 0000A093 		movls	r0, #0
 729              	.LVL90:
 730 0510 0E00009A 		bls	.L106
 731              		.loc 1 501 0
 732 0514 0030A0E3 		mov	r3, #0
 733              		.loc 1 502 0
 734 0518 0C108DE5 		str	r1, [sp, #12]
 735              		.loc 1 501 0
 736 051c 0030CDE5 		strb	r3, [sp, #0]
 737 0520 10308DE5 		str	r3, [sp, #16]
 738 0524 04308DE5 		str	r3, [sp, #4]
 739 0528 08308DE5 		str	r3, [sp, #8]
 740              	.L107:
 741              	.LVL91:
 742              		.loc 1 504 0
 743 052c 0320A0E1 		mov	r2, r3
 744 0530 0500A0E1 		mov	r0, r5
 745 0534 0D10A0E1 		mov	r1, sp
 746              	.LVL92:
 747 0538 014083E2 		add	r4, r3, #1
 748              	.LVL93:
 749 053c FEFFFFEB 		bl	fat_LogicToDiscCluster
 750              	.LVL94:
 751 0540 0008B0E1 		movs	r0, r0, asl #16
 752 0544 0430A0E1 		mov	r3, r4
 753              	.LVL95:
 754 0548 F7FFFF0A 		beq	.L107
 755              		.loc 1 506 0
 756 054c 010044E2 		sub	r0, r4, #1
 757              	.LVL96:
 758              	.L106:
 759              		.loc 1 507 0
 760 0550 18D08DE2 		add	sp, sp, #24
 761 0554 3040BDE8 		ldmfd	sp!, {r4, r5, lr}
 762 0558 1EFF2FE1 		bx	lr
 763              	.LFE13:
 764              		.size	fat_countClustersInChain, .-fat_countClustersInChain
 765              		.align	2
 766              		.global	fat_setNextClusterAddress
 767              		.type	fat_setNextClusterAddress, %function
 768              	fat_setNextClusterAddress:
 769              	.LFB4:
 770              		.loc 1 110 0
 771              		@ Function supports interworking.
 772              		@ args = 0, pretend = 0, frame = 0
 773              		@ frame_needed = 0, uses_anonymous_args = 0
 774              	.LVL97:
 775 055c F0402DE9 		stmfd	sp!, {r4, r5, r6, r7, lr}
 776              	.LCFI8:
 777              		.loc 1 110 0
 778 0560 0060A0E1 		mov	r6, r0
 779 0564 0250A0E1 		mov	r5, r2
 780 0568 0170A0E1 		mov	r7, r1
 781              		.loc 1 115 0
 782 056c FEFFFFEB 		bl	fat_getSectorAddressFatEntry
 783              	.LVL98:
 784              		.loc 1 117 0
ARM GAS  /cygdrive/c/DOCUME~1/mkwapisz/LOCALS~1/Temp/ccdVY8Mc.s 			page 24


 785 0570 B830D6E1 		ldrh	r3, [r6, #8]
 786 0574 242096E5 		ldr	r2, [r6, #36]
 787              	.LVL99:
 788 0578 003063E0 		rsb	r3, r3, r0
 789 057c 000050E3 		cmp	r0, #0
 790 0580 03005211 		cmpne	r2, r3
 791 0584 5000009A 		bls	.L125
 792              		.loc 1 122 0
 793 0588 0010A0E1 		mov	r1, r0
 794 058c 0220A0E3 		mov	r2, #2
 795 0590 000096E5 		ldr	r0, [r6, #0]
 796              	.LVL100:
 797 0594 FEFFFFEB 		bl	part_getSect
 798              	.LVL101:
 799              		.loc 1 124 0
 800 0598 3C30D6E5 		ldrb	r3, [r6, #60]	@ zero_extendqisi2
 801 059c 020053E3 		cmp	r3, #2
 802              		.loc 1 122 0
 803 05a0 0040A0E1 		mov	r4, r0
 804              	.LVL102:
 805              		.loc 1 124 0
 806 05a4 3F00000A 		beq	.L115
 807 05a8 030053E3 		cmp	r3, #3
 808 05ac 4100000A 		beq	.L116
 809 05b0 010053E3 		cmp	r3, #1
 810 05b4 4400001A 		bne	.L125
 811              		.loc 1 126 0
 812 05b8 073BA0E1 		mov	r3, r7, asl #22
 813 05bc 233BA0E1 		mov	r3, r3, lsr #22
 814 05c0 0320A0E3 		mov	r2, #3
 815 05c4 920303E0 		mul	r3, r2, r3
 816 05c8 A330A0E1 		mov	r3, r3, lsr #1
 817 05cc 831BA0E1 		mov	r1, r3, asl #23
 818              	.LVL103:
 819              		.loc 1 127 0
 820 05d0 FC309FE5 		ldr	r3, .L128
 821              		.loc 1 126 0
 822 05d4 A11BA0E1 		mov	r1, r1, lsr #23
 823              		.loc 1 127 0
 824 05d8 030051E1 		cmp	r1, r3
 825 05dc 013007E2 		and	r3, r7, #1
 826 05e0 1F00001A 		bne	.L117
 827              		.loc 1 128 0
 828 05e4 000053E3 		cmp	r3, #0
 829 05e8 0C00001A 		bne	.L119
 830              		.loc 1 133 0
 831 05ec 0710A0E1 		mov	r1, r7
 832              	.LVL104:
 833              		.loc 1 129 0
 834 05f0 FF51C0E5 		strb	r5, [r0, #511]
 835              		.loc 1 133 0
 836 05f4 0600A0E1 		mov	r0, r6
 837 05f8 FEFFFFEB 		bl	fat_getSectorAddressFatEntry
 838 05fc 0220A0E3 		mov	r2, #2
 839 0600 011080E2 		add	r1, r0, #1
 840 0604 000096E5 		ldr	r0, [r6, #0]
 841 0608 FEFFFFEB 		bl	part_getSect
ARM GAS  /cygdrive/c/DOCUME~1/mkwapisz/LOCALS~1/Temp/ccdVY8Mc.s 			page 25


 842              	.LVL105:
 843              		.loc 1 135 0
 844 060c 0030D0E5 		ldrb	r3, [r0, #0]	@ zero_extendqisi2
 845 0610 052AA0E1 		mov	r2, r5, asl #20
 846 0614 0F30C3E3 		bic	r3, r3, #15
 847 0618 223E83E0 		add	r3, r3, r2, lsr #28
 848 061c 0B0000EA 		b	.L126
 849              	.LVL106:
 850              	.L119:
 851              		.loc 1 131 0
 852 0620 0130D0E7 		ldrb	r3, [r0, r1]	@ zero_extendqisi2
 853 0624 0F3003E2 		and	r3, r3, #15
 854 0628 053283E0 		add	r3, r3, r5, asl #4
 855 062c 0130C0E7 		strb	r3, [r0, r1]
 856              		.loc 1 133 0
 857 0630 0710A0E1 		mov	r1, r7
 858              	.LVL107:
 859 0634 0600A0E1 		mov	r0, r6
 860 0638 FEFFFFEB 		bl	fat_getSectorAddressFatEntry
 861 063c 0220A0E3 		mov	r2, #2
 862 0640 011080E2 		add	r1, r0, #1
 863 0644 000096E5 		ldr	r0, [r6, #0]
 864 0648 FEFFFFEB 		bl	part_getSect
 865              		.loc 1 137 0
 866 064c 2532A0E1 		mov	r3, r5, lsr #4
 867              	.LVL108:
 868              	.L126:
 869 0650 0030C0E5 		strb	r3, [r0, #0]
 870              		.loc 1 139 0
 871 0654 0010A0E1 		mov	r1, r0
 872 0658 000096E5 		ldr	r0, [r6, #0]
 873              	.LVL109:
 874 065c FEFFFFEB 		bl	part_relSect
 875              	.LVL110:
 876 0660 160000EA 		b	.L127
 877              	.LVL111:
 878              	.L117:
 879              		.loc 1 141 0
 880 0664 000053E3 		cmp	r3, #0
 881 0668 010080E0 		add	r0, r0, r1
 882 066c 0600001A 		bne	.L123
 883              		.loc 1 142 0
 884 0670 0150C4E7 		strb	r5, [r4, r1]
 885              		.loc 1 143 0
 886 0674 0130D0E5 		ldrb	r3, [r0, #1]	@ zero_extendqisi2
 887 0678 052AA0E1 		mov	r2, r5, asl #20
 888 067c 0F30C3E3 		bic	r3, r3, #15
 889 0680 223E83E0 		add	r3, r3, r2, lsr #28
 890 0684 0130C0E5 		strb	r3, [r0, #1]
 891 0688 0C0000EA 		b	.L127
 892              	.L123:
 893              		.loc 1 145 0
 894 068c 0130D4E7 		ldrb	r3, [r4, r1]	@ zero_extendqisi2
 895 0690 0F3003E2 		and	r3, r3, #15
 896 0694 053283E0 		add	r3, r3, r5, asl #4
 897              		.loc 1 146 0
 898 0698 2522A0E1 		mov	r2, r5, lsr #4
ARM GAS  /cygdrive/c/DOCUME~1/mkwapisz/LOCALS~1/Temp/ccdVY8Mc.s 			page 26


 899              		.loc 1 145 0
 900 069c 0130C4E7 		strb	r3, [r4, r1]
 901              		.loc 1 146 0
 902 06a0 0120C0E5 		strb	r2, [r0, #1]
 903 06a4 050000EA 		b	.L127
 904              	.LVL112:
 905              	.L115:
 906              		.loc 1 153 0
 907 06a8 FF3007E2 		and	r3, r7, #255
 908 06ac 8330A0E1 		mov	r3, r3, asl #1
 909 06b0 B05083E1 		strh	r5, [r3, r0]	@ movhi
 910 06b4 010000EA 		b	.L127
 911              	.LVL113:
 912              	.L116:
 913              		.loc 1 158 0
 914 06b8 7F3007E2 		and	r3, r7, #127
 915 06bc 035180E7 		str	r5, [r0, r3, asl #2]
 916              	.LVL114:
 917              	.L127:
 918              		.loc 1 159 0
 919 06c0 000096E5 		ldr	r0, [r6, #0]
 920 06c4 0410A0E1 		mov	r1, r4
 921              	.LVL115:
 922 06c8 FEFFFFEB 		bl	part_relSect
 923              	.LVL116:
 924              	.L125:
 925              		.loc 1 163 0
 926 06cc F040BDE8 		ldmfd	sp!, {r4, r5, r6, r7, lr}
 927 06d0 1EFF2FE1 		bx	lr
 928              	.L129:
 929              		.align	2
 930              	.L128:
 931 06d4 FF010000 		.word	511
 932              	.LFE4:
 933              		.size	fat_setNextClusterAddress, .-fat_setNextClusterAddress
 934              		.align	2
 935              		.global	fat_unlinkClusterChain
 936              		.type	fat_unlinkClusterChain, %function
 937              	fat_unlinkClusterChain:
 938              	.LFB12:
 939              		.loc 1 475 0
 940              		@ Function supports interworking.
 941              		@ args = 0, pretend = 0, frame = 0
 942              		@ frame_needed = 0, uses_anonymous_args = 0
 943              	.LVL117:
 944 06d8 F0402DE9 		stmfd	sp!, {r4, r5, r6, r7, lr}
 945              	.LCFI9:
 946              		.loc 1 478 0
 947 06dc 0020A0E3 		mov	r2, #0
 948              		.loc 1 479 0
 949 06e0 0C3091E5 		ldr	r3, [r1, #12]
 950              		.loc 1 475 0
 951 06e4 0140A0E1 		mov	r4, r1
 952              		.loc 1 479 0
 953 06e8 02C0A0E1 		mov	ip, r2
 954              	.LVL118:
 955              		.loc 1 475 0
ARM GAS  /cygdrive/c/DOCUME~1/mkwapisz/LOCALS~1/Temp/ccdVY8Mc.s 			page 27


 956 06ec 0050A0E1 		mov	r5, r0
 957              		.loc 1 479 0
 958 06f0 0260A0E1 		mov	r6, r2
 959              	.LVL119:
 960 06f4 0C0081E9 		stmib	r1, {r2, r3}	@ phole stm
 961 06f8 030000EA 		b	.L131
 962              	.LVL120:
 963              	.L132:
 964              		.loc 1 484 0
 965 06fc 000056E3 		cmp	r6, #0
 966              	.LVL121:
 967              		.loc 1 485 0
 968 0700 FEFFFF1B 		blne	fat_setNextClusterAddress
 969              	.LVL122:
 970              	.L133:
 971              		.loc 1 487 0
 972 0704 086094E5 		ldr	r6, [r4, #8]
 973 0708 07C0A0E1 		mov	ip, r7
 974              	.LVL123:
 975              	.L131:
 976              		.loc 1 483 0
 977 070c 0C20A0E1 		mov	r2, ip
 978 0710 0410A0E1 		mov	r1, r4
 979 0714 0500A0E1 		mov	r0, r5
 980 0718 01708CE2 		add	r7, ip, #1
 981 071c FEFFFFEB 		bl	fat_LogicToDiscCluster
 982              	.LVL124:
 983 0720 0028A0E1 		mov	r2, r0, asl #16
 984 0724 2228B0E1 		movs	r2, r2, lsr #16
 985              		.loc 1 485 0
 986 0728 0610A0E1 		mov	r1, r6
 987 072c 0500A0E1 		mov	r0, r5
 988              		.loc 1 483 0
 989 0730 F1FFFF0A 		beq	.L132
 990              	.LVL125:
 991              		.loc 1 489 0
 992 0734 081094E5 		ldr	r1, [r4, #8]
 993              	.LVL126:
 994 0738 0020A0E3 		mov	r2, #0
 995 073c FEFFFFEB 		bl	fat_setNextClusterAddress
 996              	.LVL127:
 997              		.loc 1 490 0
 998 0740 343095E5 		ldr	r3, [r5, #52]
 999              		.loc 1 492 0
 1000 0744 0000A0E3 		mov	r0, #0
 1001              		.loc 1 490 0
 1002 0748 073083E0 		add	r3, r3, r7
 1003 074c 343085E5 		str	r3, [r5, #52]
 1004              		.loc 1 492 0
 1005 0750 F040BDE8 		ldmfd	sp!, {r4, r5, r6, r7, lr}
 1006 0754 1EFF2FE1 		bx	lr
 1007              	.LFE12:
 1008              		.size	fat_unlinkClusterChain, .-fat_unlinkClusterChain
 1009              		.align	2
 1010              		.global	fat_getNextClusterAddress
 1011              		.type	fat_getNextClusterAddress, %function
 1012              	fat_getNextClusterAddress:
ARM GAS  /cygdrive/c/DOCUME~1/mkwapisz/LOCALS~1/Temp/ccdVY8Mc.s 			page 28


 1013              	.LFB3:
 1014              		.loc 1 54 0
 1015              		@ Function supports interworking.
 1016              		@ args = 0, pretend = 0, frame = 0
 1017              		@ frame_needed = 0, uses_anonymous_args = 0
 1018              	.LVL128:
 1019 0758 F0412DE9 		stmfd	sp!, {r4, r5, r6, r7, r8, lr}
 1020              	.LCFI10:
 1021              		.loc 1 54 0
 1022 075c 0050A0E1 		mov	r5, r0
 1023 0760 0170A0E1 		mov	r7, r1
 1024              		.loc 1 61 0
 1025 0764 FEFFFFEB 		bl	fat_getSectorAddressFatEntry
 1026              	.LVL129:
 1027              		.loc 1 62 0
 1028 0768 B830D5E1 		ldrh	r3, [r5, #8]
 1029 076c 242095E5 		ldr	r2, [r5, #36]
 1030              	.LVL130:
 1031 0770 003063E0 		rsb	r3, r3, r0
 1032 0774 000050E3 		cmp	r0, #0
 1033 0778 03005211 		cmpne	r2, r3
 1034              	.LVL131:
 1035              		.loc 1 61 0
 1036 077c 0060A0E1 		mov	r6, r0
 1037              	.LVL132:
 1038              		.loc 1 62 0
 1039 0780 0080A083 		movhi	r8, #0
 1040 0784 0180A093 		movls	r8, #1
 1041 0788 0040A093 		movls	r4, #0
 1042              	.LVL133:
 1043 078c 2D00009A 		bls	.L140
 1044              		.loc 1 67 0
 1045 0790 0610A0E1 		mov	r1, r6
 1046 0794 000095E5 		ldr	r0, [r5, #0]
 1047 0798 0120A0E3 		mov	r2, #1
 1048 079c FEFFFFEB 		bl	part_getSect
 1049              		.loc 1 69 0
 1050 07a0 3C40D5E5 		ldrb	r4, [r5, #60]	@ zero_extendqisi2
 1051              	.LVL134:
 1052 07a4 020054E3 		cmp	r4, #2
 1053              		.loc 1 89 0
 1054 07a8 FF300702 		andeq	r3, r7, #255
 1055 07ac 8330A001 		moveq	r3, r3, asl #1
 1056              		.loc 1 67 0
 1057 07b0 0010A0E1 		mov	r1, r0
 1058              	.LVL135:
 1059              		.loc 1 89 0
 1060 07b4 B0409301 		ldreqh	r4, [r3, r0]
 1061              	.LVL136:
 1062              		.loc 1 69 0
 1063 07b8 2000000A 		beq	.L145
 1064              	.LVL137:
 1065              	.LVL138:
 1066 07bc 030054E3 		cmp	r4, #3
 1067              		.loc 1 93 0
 1068 07c0 7F300702 		andeq	r3, r7, #127
 1069 07c4 03419007 		ldreq	r4, [r0, r3, asl #2]
ARM GAS  /cygdrive/c/DOCUME~1/mkwapisz/LOCALS~1/Temp/ccdVY8Mc.s 			page 29


 1070              	.LVL139:
 1071              		.loc 1 69 0
 1072 07c8 1C00000A 		beq	.L145
 1073              	.LVL140:
 1074 07cc 010054E3 		cmp	r4, #1
 1075 07d0 0840A011 		movne	r4, r8
 1076              	.LVL141:
 1077 07d4 1900001A 		bne	.L145
 1078              		.loc 1 72 0
 1079 07d8 073BA0E1 		mov	r3, r7, asl #22
 1080 07dc 0320A0E3 		mov	r2, #3
 1081 07e0 233BA0E1 		mov	r3, r3, lsr #22
 1082 07e4 920303E0 		mul	r3, r2, r3
 1083 07e8 A330A0E1 		mov	r3, r3, lsr #1
 1084 07ec 832BA0E1 		mov	r2, r3, asl #23
 1085              		.loc 1 74 0
 1086 07f0 5C309FE5 		ldr	r3, .L152
 1087              		.loc 1 72 0
 1088 07f4 A22BA0E1 		mov	r2, r2, lsr #23
 1089              		.loc 1 74 0
 1090 07f8 030052E1 		cmp	r2, r3
 1091              		.loc 1 79 0
 1092 07fc 02308010 		addne	r3, r0, r2
 1093              		.loc 1 73 0
 1094 0800 0280D0E7 		ldrb	r8, [r0, r2]	@ zero_extendqisi2
 1095              	.LVL142:
 1096              		.loc 1 79 0
 1097 0804 0100D315 		ldrneb	r0, [r3, #1]	@ zero_extendqisi2
 1098              	.LVL143:
 1099              		.loc 1 74 0
 1100 0808 0700001A 		bne	.L148
 1101              		.loc 1 75 0
 1102 080c 000095E5 		ldr	r0, [r5, #0]
 1103              	.LVL144:
 1104 0810 FEFFFFEB 		bl	part_relSect
 1105              	.LVL145:
 1106              		.loc 1 76 0
 1107 0814 011086E2 		add	r1, r6, #1
 1108              	.LVL146:
 1109 0818 0420A0E1 		mov	r2, r4
 1110 081c 000095E5 		ldr	r0, [r5, #0]
 1111 0820 FEFFFFEB 		bl	part_getSect
 1112 0824 0010A0E1 		mov	r1, r0
 1113              	.LVL147:
 1114              		.loc 1 77 0
 1115 0828 0000D0E5 		ldrb	r0, [r0, #0]	@ zero_extendqisi2
 1116              	.LVL148:
 1117              	.L148:
 1118              		.loc 1 81 0
 1119 082c 010017E3 		tst	r7, #1
 1120              		.loc 1 82 0
 1121 0830 0F300002 		andeq	r3, r0, #15
 1122              		.loc 1 84 0
 1123 0834 2832A011 		movne	r3, r8, lsr #4
 1124              		.loc 1 82 0
 1125 0838 03448800 		addeq	r4, r8, r3, asl #8
 1126              		.loc 1 84 0
ARM GAS  /cygdrive/c/DOCUME~1/mkwapisz/LOCALS~1/Temp/ccdVY8Mc.s 			page 30


 1127 083c 00428310 		addne	r4, r3, r0, asl #4
 1128              	.LVL149:
 1129              	.L145:
 1130              		.loc 1 97 0
 1131 0840 000095E5 		ldr	r0, [r5, #0]
 1132              	.LVL150:
 1133 0844 FEFFFFEB 		bl	part_relSect
 1134              	.LVL151:
 1135              	.L140:
 1136              		.loc 1 100 0
 1137 0848 0400A0E1 		mov	r0, r4
 1138 084c F041BDE8 		ldmfd	sp!, {r4, r5, r6, r7, r8, lr}
 1139 0850 1EFF2FE1 		bx	lr
 1140              	.L153:
 1141              		.align	2
 1142              	.L152:
 1143 0854 FF010000 		.word	511
 1144              	.LFE3:
 1145              		.size	fat_getNextClusterAddress, .-fat_getNextClusterAddress
 1146              		.align	2
 1147              		.global	fat_countFreeClusters
 1148              		.type	fat_countFreeClusters, %function
 1149              	fat_countFreeClusters:
 1150              	.LFB15:
 524:fat.c         **** 
 525:fat.c         **** unsigned long fat_countFreeClusters(FileSystem *fs)
 526:fat.c         **** {
 1151              		.loc 1 526 0
 1152              		@ Function supports interworking.
 1153              		@ args = 0, pretend = 0, frame = 0
 1154              		@ frame_needed = 0, uses_anonymous_args = 0
 1155              	.LVL152:
 1156 0858 70402DE9 		stmfd	sp!, {r4, r5, r6, lr}
 1157              	.LCFI11:
 1158              		.loc 1 526 0
 1159 085c 0060A0E1 		mov	r6, r0
 1160 0860 0240A0E3 		mov	r4, #2
 1161              	.LVL153:
 1162 0864 0050A0E3 		mov	r5, #0
 1163              	.LVL154:
 1164 0868 020000EA 		b	.L161
 1165              	.LVL155:
 1166              	.L156:
 527:fat.c         **** 	unsigned long c=2,fc=0;
 528:fat.c         **** 	
 529:fat.c         **** 	while(c<=fs->DataClusterCount+1){
 530:fat.c         **** 		if(fat_getNextClusterAddress(fs,c,0)==0)fc++;
 1167              		.loc 1 530 0
 1168 086c FEFFFFEB 		bl	fat_getNextClusterAddress
 1169              	.LVL156:
 1170 0870 000050E3 		cmp	r0, #0
 1171 0874 01508502 		addeq	r5, r5, #1
 1172              	.LVL157:
 1173              	.L161:
 1174              		.loc 1 529 0
 1175 0878 203096E5 		ldr	r3, [r6, #32]
 1176 087c 013083E2 		add	r3, r3, #1
ARM GAS  /cygdrive/c/DOCUME~1/mkwapisz/LOCALS~1/Temp/ccdVY8Mc.s 			page 31


 1177 0880 030054E1 		cmp	r4, r3
 1178              		.loc 1 530 0
 1179 0884 0410A0E1 		mov	r1, r4
 1180 0888 0600A0E1 		mov	r0, r6
 1181 088c 0020A0E3 		mov	r2, #0
 531:fat.c         **** 		c++;
 1182              		.loc 1 531 0
 1183 0890 014084E2 		add	r4, r4, #1
 1184              		.loc 1 529 0
 1185 0894 F4FFFF9A 		bls	.L156
 1186              	.LVL158:
 532:fat.c         **** 	}
 533:fat.c         **** 	return(fc);
 534:fat.c         **** }
 1187              		.loc 1 534 0
 1188 0898 0500A0E1 		mov	r0, r5
 1189              	.LVL159:
 1190 089c 7040BDE8 		ldmfd	sp!, {r4, r5, r6, lr}
 1191 08a0 1EFF2FE1 		bx	lr
 1192              	.LFE15:
 1193              		.size	fat_countFreeClusters, .-fat_countFreeClusters
 1194              		.align	2
 1195              		.global	fat_allocClusterChain
 1196              		.type	fat_allocClusterChain, %function
 1197              	fat_allocClusterChain:
 1198              	.LFB11:
 1199              		.loc 1 424 0
 1200              		@ Function supports interworking.
 1201              		@ args = 0, pretend = 0, frame = 4
 1202              		@ frame_needed = 0, uses_anonymous_args = 0
 1203              	.LVL160:
 1204 08a4 F04F2DE9 		stmfd	sp!, {r4, r5, r6, r7, r8, r9, sl, fp, lr}
 1205              	.LCFI12:
 1206              		.loc 1 429 0
 1207 08a8 0C3091E5 		ldr	r3, [r1, #12]
 1208 08ac 010053E3 		cmp	r3, #1
 1209 08b0 0238A091 		movls	r3, r2, asl #16
 1210              		.loc 1 424 0
 1211 08b4 0050A0E1 		mov	r5, r0
 1212 08b8 04D04DE2 		sub	sp, sp, #4
 1213              	.LCFI13:
 1214              		.loc 1 424 0
 1215 08bc 0190A0E1 		mov	r9, r1
 1216 08c0 02B0A0E1 		mov	fp, r2
 1217              		.loc 1 429 0
 1218 08c4 4308A091 		movls	r0, r3, asr #16
 1219              	.LVL161:
 1220 08c8 7E00009A 		bls	.L165
 1221              	.LVL162:
 1222              		.loc 1 431 0
 1223 08cc FEFFFFEB 		bl	fs_getLastCluster
 1224 08d0 0BA0A0E1 		mov	sl, fp
 1225              	.LVL163:
 1226 08d4 0030A0E3 		mov	r3, #0
 1227 08d8 0080A0E1 		mov	r8, r0
 1228              	.LVL164:
 1229 08dc 0060A0E1 		mov	r6, r0
ARM GAS  /cygdrive/c/DOCUME~1/mkwapisz/LOCALS~1/Temp/ccdVY8Mc.s 			page 32


 1230              	.LVL165:
 1231 08e0 00308DE5 		str	r3, [sp, #0]
 1232              	.LVL166:
 1233 08e4 6A0000EA 		b	.L199
 1234              	.LVL167:
 1235              	.L167:
 1236              		.loc 1 436 0
 1237 08e8 203095E5 		ldr	r3, [r5, #32]
 1238 08ec 013083E2 		add	r3, r3, #1
 1239 08f0 030056E1 		cmp	r6, r3
 1240 08f4 2600003A 		bcc	.L168
 1241              	.LVL168:
 1242              		.loc 1 437 0
 1243 08f8 00309DE5 		ldr	r3, [sp, #0]
 1244 08fc 000053E3 		cmp	r3, #0
 1245              		.loc 1 443 0
 1246 0900 0130A0E3 		mov	r3, #1
 1247 0904 0260A0E3 		mov	r6, #2
 1248 0908 00308DE5 		str	r3, [sp, #0]
 1249              		.loc 1 437 0
 1250 090c 2000000A 		beq	.L168
 1251              		.loc 1 438 0
 1252 0910 0810A0E1 		mov	r1, r8
 1253 0914 0500A0E1 		mov	r0, r5
 1254 0918 FEFFFFEB 		bl	fat_getSectorAddressFatEntry
 1255 091c 0620A0E1 		mov	r2, r6
 1256 0920 0010A0E1 		mov	r1, r0
 1257 0924 000095E5 		ldr	r0, [r5, #0]
 1258 0928 FEFFFFEB 		bl	part_getSect
 1259              	.LBB6:
 1260              	.LBB7:
 1261              		.loc 1 207 0
 1262 092c 3C30D5E5 		ldrb	r3, [r5, #60]	@ zero_extendqisi2
 1263              	.LVL169:
 1264 0930 060053E1 		cmp	r3, r6
 1265              	.LBE7:
 1266              	.LBE6:
 1267              		.loc 1 438 0
 1268 0934 0040A0E1 		mov	r4, r0
 1269              	.LVL170:
 1270              	.LBB8:
 1271              	.LBB9:
 1272              		.loc 1 207 0
 1273 0938 94219F05 		ldreq	r2, .L200
 1274 093c 0500000A 		beq	.L176
 1275 0940 030053E3 		cmp	r3, #3
 1276 0944 0F22E003 		mvneq	r2, #-268435456
 1277 0948 0200000A 		beq	.L176
 1278 094c 010053E3 		cmp	r3, #1
 1279 0950 0020A013 		movne	r2, #0
 1280 0954 7C219F05 		ldreq	r2, .L200+4
 1281              	.L176:
 1282              	.LBE9:
 1283              	.LBE8:
 1284              		.loc 1 439 0
 1285 0958 0430A0E1 		mov	r3, r4
 1286 095c 0500A0E1 		mov	r0, r5
ARM GAS  /cygdrive/c/DOCUME~1/mkwapisz/LOCALS~1/Temp/ccdVY8Mc.s 			page 33


 1287 0960 0810A0E1 		mov	r1, r8
 1288 0964 FEFFFFEB 		bl	fat_setNextClusterAddressWBuf
 1289              		.loc 1 441 0
 1290 0968 0410A0E1 		mov	r1, r4
 1291              		.loc 1 440 0
 1292 096c 108089E5 		str	r8, [r9, #16]
 1293              		.loc 1 441 0
 1294 0970 000095E5 		ldr	r0, [r5, #0]
 1295 0974 FEFFFFEB 		bl	part_relSect
 1296              		.loc 1 442 0
 1297 0978 0B306AE0 		rsb	r3, sl, fp
 1298 097c 342095E5 		ldr	r2, [r5, #52]
 1299              		.loc 1 443 0
 1300 0980 0318A0E1 		mov	r1, r3, asl #16
 1301              		.loc 1 442 0
 1302 0984 022063E0 		rsb	r2, r3, r2
 1303              		.loc 1 443 0
 1304 0988 4108A0E1 		mov	r0, r1, asr #16
 1305              		.loc 1 442 0
 1306 098c 342085E5 		str	r2, [r5, #52]
 1307 0990 4C0000EA 		b	.L165
 1308              	.LVL171:
 1309              	.L168:
 1310              		.loc 1 448 0
 1311 0994 0610A0E1 		mov	r1, r6
 1312 0998 FEFFFFEB 		bl	fat_getSectorAddressFatEntry
 1313 099c 0120A0E3 		mov	r2, #1
 1314 09a0 0010A0E1 		mov	r1, r0
 1315 09a4 000095E5 		ldr	r0, [r5, #0]
 1316 09a8 FEFFFFEB 		bl	part_getSect
 1317 09ac 0070A0E1 		mov	r7, r0
 1318              		.loc 1 449 0
 1319 09b0 0610A0E1 		mov	r1, r6
 1320 09b4 0500A0E1 		mov	r0, r5
 1321 09b8 0720A0E1 		mov	r2, r7
 1322 09bc FEFFFFEB 		bl	fat_getNextClusterAddressWBuf
 1323 09c0 000050E3 		cmp	r0, #0
 1324              		.loc 1 456 0
 1325 09c4 0710A0E1 		mov	r1, r7
 1326              		.loc 1 450 0
 1327 09c8 0500A0E1 		mov	r0, r5
 1328              		.loc 1 449 0
 1329 09cc 3A00001A 		bne	.L177
 1330              	.LVL172:
 1331              		.loc 1 450 0
 1332 09d0 0810A0E1 		mov	r1, r8
 1333              	.LVL173:
 1334 09d4 FEFFFFEB 		bl	fat_getSectorAddressFatEntry
 1335              	.LVL174:
 1336 09d8 0220A0E3 		mov	r2, #2
 1337 09dc 0010A0E1 		mov	r1, r0
 1338 09e0 000095E5 		ldr	r0, [r5, #0]
 1339 09e4 FEFFFFEB 		bl	part_getSect
 1340 09e8 0040A0E1 		mov	r4, r0
 1341              		.loc 1 451 0
 1342 09ec 0810A0E1 		mov	r1, r8
 1343 09f0 0620A0E1 		mov	r2, r6
ARM GAS  /cygdrive/c/DOCUME~1/mkwapisz/LOCALS~1/Temp/ccdVY8Mc.s 			page 34


 1344 09f4 0430A0E1 		mov	r3, r4
 1345 09f8 0500A0E1 		mov	r0, r5
 1346 09fc FEFFFFEB 		bl	fat_setNextClusterAddressWBuf
 1347              		.loc 1 452 0
 1348 0a00 0410A0E1 		mov	r1, r4
 1349 0a04 000095E5 		ldr	r0, [r5, #0]
 1350 0a08 FEFFFFEB 		bl	part_relSect
 1351              		.loc 1 453 0
 1352 0a0c 01A04AE2 		sub	sl, sl, #1
 1353              		.loc 1 456 0
 1354 0a10 0710A0E1 		mov	r1, r7
 1355 0a14 000095E5 		ldr	r0, [r5, #0]
 1356 0a18 FEFFFFEB 		bl	part_relSect
 1357              		.loc 1 457 0
 1358 0a1c 00005AE3 		cmp	sl, #0
 1359 0a20 0680A0E1 		mov	r8, r6
 1360 0a24 1A00001A 		bne	.L199
 1361              		.loc 1 458 0
 1362 0a28 0610A0E1 		mov	r1, r6
 1363 0a2c 0500A0E1 		mov	r0, r5
 1364 0a30 FEFFFFEB 		bl	fat_getSectorAddressFatEntry
 1365 0a34 0220A0E3 		mov	r2, #2
 1366 0a38 0010A0E1 		mov	r1, r0
 1367 0a3c 000095E5 		ldr	r0, [r5, #0]
 1368 0a40 FEFFFFEB 		bl	part_getSect
 1369              	.LBB10:
 1370              	.LBB11:
 1371              		.loc 1 207 0
 1372 0a44 3C30D5E5 		ldrb	r3, [r5, #60]	@ zero_extendqisi2
 1373 0a48 020053E3 		cmp	r3, #2
 1374              	.LBE11:
 1375              	.LBE10:
 1376              		.loc 1 458 0
 1377 0a4c 0040A0E1 		mov	r4, r0
 1378              	.LVL175:
 1379              	.LBB12:
 1380              	.LBB13:
 1381              		.loc 1 207 0
 1382 0a50 7C209F05 		ldreq	r2, .L200
 1383 0a54 0500000A 		beq	.L185
 1384 0a58 030053E3 		cmp	r3, #3
 1385 0a5c 0F22E003 		mvneq	r2, #-268435456
 1386 0a60 0200000A 		beq	.L185
 1387 0a64 010053E3 		cmp	r3, #1
 1388 0a68 0A20A011 		movne	r2, sl
 1389 0a6c 64209F05 		ldreq	r2, .L200+4
 1390              	.L185:
 1391              	.LBE13:
 1392              	.LBE12:
 1393              		.loc 1 459 0
 1394 0a70 0500A0E1 		mov	r0, r5
 1395 0a74 0610A0E1 		mov	r1, r6
 1396 0a78 0430A0E1 		mov	r3, r4
 1397 0a7c FEFFFFEB 		bl	fat_setNextClusterAddressWBuf
 1398              		.loc 1 460 0
 1399 0a80 106089E5 		str	r6, [r9, #16]
 1400              		.loc 1 461 0
ARM GAS  /cygdrive/c/DOCUME~1/mkwapisz/LOCALS~1/Temp/ccdVY8Mc.s 			page 35


 1401 0a84 000095E5 		ldr	r0, [r5, #0]
 1402 0a88 0410A0E1 		mov	r1, r4
 1403 0a8c FEFFFFEB 		bl	part_relSect
 1404 0a90 030000EA 		b	.L192
 1405              	.LVL176:
 1406              	.L199:
 1407              		.loc 1 434 0
 1408 0a94 00005AE3 		cmp	sl, #0
 1409              		.loc 1 448 0
 1410 0a98 0500A0E1 		mov	r0, r5
 1411              		.loc 1 435 0
 1412 0a9c 016086E2 		add	r6, r6, #1
 1413              		.loc 1 434 0
 1414 0aa0 90FFFF1A 		bne	.L167
 1415              	.LVL177:
 1416              	.L192:
 1417              		.loc 1 464 0
 1418 0aa4 140099E5 		ldr	r0, [r9, #20]
 1419 0aa8 000050E3 		cmp	r0, #0
 1420 0aac 0B308010 		addne	r3, r0, fp
 1421 0ab0 0000A013 		movne	r0, #0
 1422 0ab4 14308915 		strne	r3, [r9, #20]
 1423 0ab8 020000EA 		b	.L165
 1424              	.LVL178:
 1425              	.L177:
 1426              		.loc 1 456 0
 1427 0abc 000095E5 		ldr	r0, [r5, #0]
 1428              	.LVL179:
 1429 0ac0 FEFFFFEB 		bl	part_relSect
 1430              	.LVL180:
 1431 0ac4 F2FFFFEA 		b	.L199
 1432              	.LVL181:
 1433              	.L165:
 1434              		.loc 1 466 0
 1435 0ac8 04D08DE2 		add	sp, sp, #4
 1436 0acc F04FBDE8 		ldmfd	sp!, {r4, r5, r6, r7, r8, r9, sl, fp, lr}
 1437 0ad0 1EFF2FE1 		bx	lr
 1438              	.L201:
 1439              		.align	2
 1440              	.L200:
 1441 0ad4 FFFF0000 		.word	65535
 1442 0ad8 FF0F0000 		.word	4095
 1443              	.LFE11:
 1444              		.size	fat_allocClusterChain, .-fat_allocClusterChain
 1445              		.section	.debug_frame,"",%progbits
 1446              	.Lframe0:
 1447 0000 0C000000 		.4byte	.LECIE0-.LSCIE0
 1448              	.LSCIE0:
 1449 0004 FFFFFFFF 		.4byte	0xffffffff
 1450 0008 01       		.byte	0x1
 1451 0009 00       		.ascii	"\000"
 1452 000a 01       		.uleb128 0x1
 1453 000b 7C       		.sleb128 -4
 1454 000c 0E       		.byte	0xe
 1455 000d 0C       		.byte	0xc
 1456 000e 0D       		.uleb128 0xd
 1457 000f 00       		.uleb128 0x0
ARM GAS  /cygdrive/c/DOCUME~1/mkwapisz/LOCALS~1/Temp/ccdVY8Mc.s 			page 36


 1458              		.align	2
 1459              	.LECIE0:
 1460              	.LSFDE0:
 1461 0010 0C000000 		.4byte	.LEFDE0-.LASFDE0
 1462              	.LASFDE0:
 1463 0014 00000000 		.4byte	.Lframe0
 1464 0018 00000000 		.4byte	.LFB2
 1465 001c 60000000 		.4byte	.LFE2-.LFB2
 1466              		.align	2
 1467              	.LEFDE0:
 1468              	.LSFDE2:
 1469 0020 0C000000 		.4byte	.LEFDE2-.LASFDE2
 1470              	.LASFDE2:
 1471 0024 00000000 		.4byte	.Lframe0
 1472 0028 60000000 		.4byte	.LFB5
 1473 002c 58000000 		.4byte	.LFE5-.LFB5
 1474              		.align	2
 1475              	.LEFDE2:
 1476              	.LSFDE4:
 1477 0030 0C000000 		.4byte	.LEFDE4-.LASFDE4
 1478              	.LASFDE4:
 1479 0034 00000000 		.4byte	.Lframe0
 1480 0038 B8000000 		.4byte	.LFB6
 1481 003c 38000000 		.4byte	.LFE6-.LFB6
 1482              		.align	2
 1483              	.LEFDE4:
 1484              	.LSFDE6:
 1485 0040 18000000 		.4byte	.LEFDE6-.LASFDE6
 1486              	.LASFDE6:
 1487 0044 00000000 		.4byte	.Lframe0
 1488 0048 F0000000 		.4byte	.LFB8
 1489 004c 30010000 		.4byte	.LFE8-.LFB8
 1490 0050 44       		.byte	0x4
 1491              		.4byte	.LCFI0-.LFB8
 1492 0051 0E       		.byte	0xe
 1493 0052 10       		.uleb128 0x10
 1494 0053 8E       		.byte	0x8e
 1495 0054 01       		.uleb128 0x1
 1496 0055 86       		.byte	0x86
 1497 0056 02       		.uleb128 0x2
 1498 0057 85       		.byte	0x85
 1499 0058 03       		.uleb128 0x3
 1500 0059 84       		.byte	0x84
 1501 005a 04       		.uleb128 0x4
 1502 005b 00       		.align	2
 1503              	.LEFDE6:
 1504              	.LSFDE8:
 1505 005c 1C000000 		.4byte	.LEFDE8-.LASFDE8
 1506              	.LASFDE8:
 1507 0060 00000000 		.4byte	.Lframe0
 1508 0064 20020000 		.4byte	.LFB7
 1509 0068 C0000000 		.4byte	.LFE7-.LFB7
 1510 006c 44       		.byte	0x4
 1511              		.4byte	.LCFI1-.LFB7
 1512 006d 0E       		.byte	0xe
 1513 006e 14       		.uleb128 0x14
 1514 006f 8E       		.byte	0x8e
ARM GAS  /cygdrive/c/DOCUME~1/mkwapisz/LOCALS~1/Temp/ccdVY8Mc.s 			page 37


 1515 0070 01       		.uleb128 0x1
 1516 0071 87       		.byte	0x87
 1517 0072 02       		.uleb128 0x2
 1518 0073 86       		.byte	0x86
 1519 0074 03       		.uleb128 0x3
 1520 0075 85       		.byte	0x85
 1521 0076 04       		.uleb128 0x4
 1522 0077 84       		.byte	0x84
 1523 0078 05       		.uleb128 0x5
 1524 0079 000000   		.align	2
 1525              	.LEFDE8:
 1526              	.LSFDE10:
 1527 007c 20000000 		.4byte	.LEFDE10-.LASFDE10
 1528              	.LASFDE10:
 1529 0080 00000000 		.4byte	.Lframe0
 1530 0084 E0020000 		.4byte	.LFB9
 1531 0088 08010000 		.4byte	.LFE9-.LFB9
 1532 008c 44       		.byte	0x4
 1533              		.4byte	.LCFI2-.LFB9
 1534 008d 0E       		.byte	0xe
 1535 008e 20       		.uleb128 0x20
 1536 008f 8E       		.byte	0x8e
 1537 0090 01       		.uleb128 0x1
 1538 0091 8A       		.byte	0x8a
 1539 0092 02       		.uleb128 0x2
 1540 0093 89       		.byte	0x89
 1541 0094 03       		.uleb128 0x3
 1542 0095 88       		.byte	0x88
 1543 0096 04       		.uleb128 0x4
 1544 0097 87       		.byte	0x87
 1545 0098 05       		.uleb128 0x5
 1546 0099 86       		.byte	0x86
 1547 009a 06       		.uleb128 0x6
 1548 009b 85       		.byte	0x85
 1549 009c 07       		.uleb128 0x7
 1550 009d 84       		.byte	0x84
 1551 009e 08       		.uleb128 0x8
 1552 009f 00       		.align	2
 1553              	.LEFDE10:
 1554              	.LSFDE12:
 1555 00a0 18000000 		.4byte	.LEFDE12-.LASFDE12
 1556              	.LASFDE12:
 1557 00a4 00000000 		.4byte	.Lframe0
 1558 00a8 E8030000 		.4byte	.LFB10
 1559 00ac A0000000 		.4byte	.LFE10-.LFB10
 1560 00b0 4C       		.byte	0x4
 1561              		.4byte	.LCFI3-.LFB10
 1562 00b1 0E       		.byte	0xe
 1563 00b2 10       		.uleb128 0x10
 1564 00b3 8E       		.byte	0x8e
 1565 00b4 01       		.uleb128 0x1
 1566 00b5 86       		.byte	0x86
 1567 00b6 02       		.uleb128 0x2
 1568 00b7 85       		.byte	0x85
 1569 00b8 03       		.uleb128 0x3
 1570 00b9 84       		.byte	0x84
 1571 00ba 04       		.uleb128 0x4
ARM GAS  /cygdrive/c/DOCUME~1/mkwapisz/LOCALS~1/Temp/ccdVY8Mc.s 			page 38


 1572 00bb 00       		.align	2
 1573              	.LEFDE12:
 1574              	.LSFDE14:
 1575 00bc 1C000000 		.4byte	.LEFDE14-.LASFDE14
 1576              	.LASFDE14:
 1577 00c0 00000000 		.4byte	.Lframe0
 1578 00c4 88040000 		.4byte	.LFB14
 1579 00c8 74000000 		.4byte	.LFE14-.LFB14
 1580 00cc 44       		.byte	0x4
 1581              		.4byte	.LCFI4-.LFB14
 1582 00cd 0E       		.byte	0xe
 1583 00ce 14       		.uleb128 0x14
 1584 00cf 48       		.byte	0x4
 1585              		.4byte	.LCFI5-.LCFI4
 1586 00d0 0E       		.byte	0xe
 1587 00d1 2C       		.uleb128 0x2c
 1588 00d2 8E       		.byte	0x8e
 1589 00d3 01       		.uleb128 0x1
 1590 00d4 87       		.byte	0x87
 1591 00d5 02       		.uleb128 0x2
 1592 00d6 86       		.byte	0x86
 1593 00d7 03       		.uleb128 0x3
 1594 00d8 85       		.byte	0x85
 1595 00d9 04       		.uleb128 0x4
 1596 00da 84       		.byte	0x84
 1597 00db 05       		.uleb128 0x5
 1598              		.align	2
 1599              	.LEFDE14:
 1600              	.LSFDE16:
 1601 00dc 18000000 		.4byte	.LEFDE16-.LASFDE16
 1602              	.LASFDE16:
 1603 00e0 00000000 		.4byte	.Lframe0
 1604 00e4 FC040000 		.4byte	.LFB13
 1605 00e8 60000000 		.4byte	.LFE13-.LFB13
 1606 00ec 44       		.byte	0x4
 1607              		.4byte	.LCFI6-.LFB13
 1608 00ed 0E       		.byte	0xe
 1609 00ee 0C       		.uleb128 0xc
 1610 00ef 8E       		.byte	0x8e
 1611 00f0 01       		.uleb128 0x1
 1612 00f1 85       		.byte	0x85
 1613 00f2 02       		.uleb128 0x2
 1614 00f3 84       		.byte	0x84
 1615 00f4 03       		.uleb128 0x3
 1616 00f5 4C       		.byte	0x4
 1617              		.4byte	.LCFI7-.LCFI6
 1618 00f6 0E       		.byte	0xe
 1619 00f7 24       		.uleb128 0x24
 1620              		.align	2
 1621              	.LEFDE16:
 1622              	.LSFDE18:
 1623 00f8 1C000000 		.4byte	.LEFDE18-.LASFDE18
 1624              	.LASFDE18:
 1625 00fc 00000000 		.4byte	.Lframe0
 1626 0100 5C050000 		.4byte	.LFB4
 1627 0104 7C010000 		.4byte	.LFE4-.LFB4
 1628 0108 44       		.byte	0x4
ARM GAS  /cygdrive/c/DOCUME~1/mkwapisz/LOCALS~1/Temp/ccdVY8Mc.s 			page 39


 1629              		.4byte	.LCFI8-.LFB4
 1630 0109 0E       		.byte	0xe
 1631 010a 14       		.uleb128 0x14
 1632 010b 8E       		.byte	0x8e
 1633 010c 01       		.uleb128 0x1
 1634 010d 87       		.byte	0x87
 1635 010e 02       		.uleb128 0x2
 1636 010f 86       		.byte	0x86
 1637 0110 03       		.uleb128 0x3
 1638 0111 85       		.byte	0x85
 1639 0112 04       		.uleb128 0x4
 1640 0113 84       		.byte	0x84
 1641 0114 05       		.uleb128 0x5
 1642 0115 000000   		.align	2
 1643              	.LEFDE18:
 1644              	.LSFDE20:
 1645 0118 1C000000 		.4byte	.LEFDE20-.LASFDE20
 1646              	.LASFDE20:
 1647 011c 00000000 		.4byte	.Lframe0
 1648 0120 D8060000 		.4byte	.LFB12
 1649 0124 80000000 		.4byte	.LFE12-.LFB12
 1650 0128 44       		.byte	0x4
 1651              		.4byte	.LCFI9-.LFB12
 1652 0129 0E       		.byte	0xe
 1653 012a 14       		.uleb128 0x14
 1654 012b 8E       		.byte	0x8e
 1655 012c 01       		.uleb128 0x1
 1656 012d 87       		.byte	0x87
 1657 012e 02       		.uleb128 0x2
 1658 012f 86       		.byte	0x86
 1659 0130 03       		.uleb128 0x3
 1660 0131 85       		.byte	0x85
 1661 0132 04       		.uleb128 0x4
 1662 0133 84       		.byte	0x84
 1663 0134 05       		.uleb128 0x5
 1664 0135 000000   		.align	2
 1665              	.LEFDE20:
 1666              	.LSFDE22:
 1667 0138 1C000000 		.4byte	.LEFDE22-.LASFDE22
 1668              	.LASFDE22:
 1669 013c 00000000 		.4byte	.Lframe0
 1670 0140 58070000 		.4byte	.LFB3
 1671 0144 00010000 		.4byte	.LFE3-.LFB3
 1672 0148 44       		.byte	0x4
 1673              		.4byte	.LCFI10-.LFB3
 1674 0149 0E       		.byte	0xe
 1675 014a 18       		.uleb128 0x18
 1676 014b 8E       		.byte	0x8e
 1677 014c 01       		.uleb128 0x1
 1678 014d 88       		.byte	0x88
 1679 014e 02       		.uleb128 0x2
 1680 014f 87       		.byte	0x87
 1681 0150 03       		.uleb128 0x3
 1682 0151 86       		.byte	0x86
 1683 0152 04       		.uleb128 0x4
 1684 0153 85       		.byte	0x85
 1685 0154 05       		.uleb128 0x5
ARM GAS  /cygdrive/c/DOCUME~1/mkwapisz/LOCALS~1/Temp/ccdVY8Mc.s 			page 40


 1686 0155 84       		.byte	0x84
 1687 0156 06       		.uleb128 0x6
 1688 0157 00       		.align	2
 1689              	.LEFDE22:
 1690              	.LSFDE24:
 1691 0158 18000000 		.4byte	.LEFDE24-.LASFDE24
 1692              	.LASFDE24:
 1693 015c 00000000 		.4byte	.Lframe0
 1694 0160 58080000 		.4byte	.LFB15
 1695 0164 4C000000 		.4byte	.LFE15-.LFB15
 1696 0168 44       		.byte	0x4
 1697              		.4byte	.LCFI11-.LFB15
 1698 0169 0E       		.byte	0xe
 1699 016a 10       		.uleb128 0x10
 1700 016b 8E       		.byte	0x8e
 1701 016c 01       		.uleb128 0x1
 1702 016d 86       		.byte	0x86
 1703 016e 02       		.uleb128 0x2
 1704 016f 85       		.byte	0x85
 1705 0170 03       		.uleb128 0x3
 1706 0171 84       		.byte	0x84
 1707 0172 04       		.uleb128 0x4
 1708 0173 00       		.align	2
 1709              	.LEFDE24:
 1710              	.LSFDE26:
 1711 0174 24000000 		.4byte	.LEFDE26-.LASFDE26
 1712              	.LASFDE26:
 1713 0178 00000000 		.4byte	.Lframe0
 1714 017c A4080000 		.4byte	.LFB11
 1715 0180 38020000 		.4byte	.LFE11-.LFB11
 1716 0184 44       		.byte	0x4
 1717              		.4byte	.LCFI12-.LFB11
 1718 0185 0E       		.byte	0xe
 1719 0186 24       		.uleb128 0x24
 1720 0187 8E       		.byte	0x8e
 1721 0188 01       		.uleb128 0x1
 1722 0189 8B       		.byte	0x8b
 1723 018a 02       		.uleb128 0x2
 1724 018b 8A       		.byte	0x8a
 1725 018c 03       		.uleb128 0x3
 1726 018d 89       		.byte	0x89
 1727 018e 04       		.uleb128 0x4
 1728 018f 88       		.byte	0x88
 1729 0190 05       		.uleb128 0x5
 1730 0191 87       		.byte	0x87
 1731 0192 06       		.uleb128 0x6
 1732 0193 86       		.byte	0x86
 1733 0194 07       		.uleb128 0x7
 1734 0195 85       		.byte	0x85
 1735 0196 08       		.uleb128 0x8
 1736 0197 84       		.byte	0x84
 1737 0198 09       		.uleb128 0x9
 1738 0199 54       		.byte	0x4
 1739              		.4byte	.LCFI13-.LCFI12
 1740 019a 0E       		.byte	0xe
 1741 019b 28       		.uleb128 0x28
 1742              		.align	2
ARM GAS  /cygdrive/c/DOCUME~1/mkwapisz/LOCALS~1/Temp/ccdVY8Mc.s 			page 41


 1743              	.LEFDE26:
 1744              		.file 2 "fs.h"
 1745              		.file 3 "partition.h"
 1746              		.file 4 "disc.h"
 1747              		.file 5 "ioman.h"
 1748              		.file 6 "../mmc/hwinterface.h"
 1749              		.file 7 "../mmc/types.h"
 1750              		.text
 1751              	.Letext0: