ARM GAS  /cygdrive/c/DOCUME~1/mkwapisz/LOCALS~1/Temp/ccPR5o87.s 			page 1


   1              		.file	"fs.c"
   8 0000 01020000 		.text
   8      02006A00 
   8      00000201 
   8      FB0E0D00 
   8      01010101 
   9              	.Ltext0:
  10              		.align	2
  11              		.global	fs_verifySanity
  12              		.type	fs_verifySanity, %function
  13              	fs_verifySanity:
  14              	.LFB5:
  15              		.file 1 "fs.c"
   1:fs.c          **** /*****************************************************************************/
   2:fs.c          **** #include "fs.h"
   3:fs.c          **** #include "fat.h"
   4:fs.c          **** #include "dir.h"
   5:fs.c          **** /*****************************************************************************/
   6:fs.c          **** 
   7:fs.c          **** /* ****************************************************************************  
   8:fs.c          ****  * short fs_initFs(FileSystem *fs,Partition *part)
   9:fs.c          ****  * Description: This functions glues the initialisation of the filesystem together.
  10:fs.c          ****  * It loads the volumeID, computes the FS type and searches for the rootsector.
  11:fs.c          ****  * Return value: Returns 0 on succes and -1 on error (if magic code is wrong)
  12:fs.c          **** */
  13:fs.c          **** short fs_initFs(FileSystem *fs,Partition *part)
  14:fs.c          **** {
  15:fs.c          **** 	if(!fs_isValidFat(part)){
  16:fs.c          **** 		return(-1);
  17:fs.c          **** 	}
  18:fs.c          **** 	fs->part=part;
  19:fs.c          **** 	fs_loadVolumeId(fs,part);
  20:fs.c          **** 	if(!fs_verifySanity(fs))return(-2);
  21:fs.c          ****   	fs_countDataSectors(fs);
  22:fs.c          **** 	fs_determineFatType(fs);
  23:fs.c          **** 	fs_findFirstSectorRootDir(fs);
  24:fs.c          **** 	fs_initCurrentDir(fs); 
  25:fs.c          **** 	return(0);
  26:fs.c          **** }
  27:fs.c          **** /*****************************************************************************/ 
  28:fs.c          **** 
  29:fs.c          **** /* ****************************************************************************  
  30:fs.c          ****  * short fs_isValidFat(Partition *part)
  31:fs.c          ****  * Description: This functions loads the volumeID and checks if the magic
  32:fs.c          ****  * value is present.
  33:fs.c          ****  * Return value: returns 0 when magic code is missing, 1 if it is there.
  34:fs.c          **** */
  35:fs.c          **** short fs_isValidFat(Partition *part)
  36:fs.c          **** {
  37:fs.c          **** 	unsigned char *buf;
  38:fs.c          **** 	
ARM GAS  /cygdrive/c/DOCUME~1/mkwapisz/LOCALS~1/Temp/ccPR5o87.s 			page 2


  39:fs.c          **** 	buf=part_getSect(part,0,IOM_MODE_READONLY|IOM_MODE_EXP_REQ); /* Load Volume label */
  40:fs.c          **** 	if( ex_getb16(buf,0x1FE) != 0xAA55 ){
  41:fs.c          **** 		return (0);
  42:fs.c          **** 	}
  43:fs.c          **** 	part_relSect(part,buf);
  44:fs.c          **** 	return(1);
  45:fs.c          **** }
  46:fs.c          **** /*****************************************************************************/ 
  47:fs.c          **** 
  48:fs.c          **** /* ****************************************************************************  
  49:fs.c          ****  * void fs_loadVolumeId(FileSystem *fs, Partition *part)
  50:fs.c          ****  * Description: This function loads all relevant fields from the volumeid.
  51:fs.c          **** */
  52:fs.c          **** void fs_loadVolumeId(FileSystem *fs, Partition *part)
  53:fs.c          **** {
  54:fs.c          **** 	unsigned char *buf;
  55:fs.c          **** 	
  56:fs.c          **** 	buf=part_getSect(part,0,IOM_MODE_READONLY|IOM_MODE_EXP_REQ);
  57:fs.c          **** 	
  58:fs.c          **** 	fs->volumeId.BytesPerSector=ex_getb16(buf,0x0B);
  59:fs.c          **** 	fs->volumeId.SectorsPerCluster=*((char*)(buf+0x0D));
  60:fs.c          **** 	fs->volumeId.ReservedSectorCount=ex_getb16(buf,0x0E);
  61:fs.c          **** 	fs->volumeId.NumberOfFats=*((char*)(buf+0x10));
  62:fs.c          **** 	fs->volumeId.RootEntryCount=ex_getb16(buf,0x11);
  63:fs.c          **** 	fs->volumeId.SectorCount16=ex_getb16(buf,0x13);
  64:fs.c          **** 	fs->volumeId.FatSectorCount16=ex_getb16(buf,0x16);
  65:fs.c          **** 	fs->volumeId.SectorCount32=ex_getb32(buf,0x20);
  66:fs.c          **** 	fs->volumeId.FatSectorCount32=ex_getb32(buf,0x24);
  67:fs.c          **** 	fs->volumeId.RootCluster=ex_getb32(buf,0x2C);
  68:fs.c          **** 	
  69:fs.c          **** 	part_relSect(part,buf);
  70:fs.c          **** 	
  71:fs.c          **** }
  72:fs.c          **** /*****************************************************************************/ 
  73:fs.c          **** 
  74:fs.c          **** /* ****************************************************************************  
  75:fs.c          ****  * signed short fs_verifySanity(FileSystem *fs)
  76:fs.c          ****  * Description: Does some sanity calculations.
  77:fs.c          ****  * Return value: 1 on success, 0 when discrepancies were found.
  78:fs.c          **** */
  79:fs.c          **** signed short fs_verifySanity(FileSystem *fs)
  80:fs.c          **** {
  16              		.loc 1 80 0
  17              		@ Function supports interworking.
  18              		@ args = 0, pretend = 0, frame = 0
  19              		@ frame_needed = 0, uses_anonymous_args = 0
  20              	.LVL0:
  21 0000 04E02DE5 		str	lr, [sp, #-4]!
  22              	.LCFI0:
  81:fs.c          **** 	signed short sane=1; /* Sane until proven otherwise */
  82:fs.c          **** 	/* First check, BPS, we only support 512 */
  83:fs.c          **** 	if(fs->volumeId.BytesPerSector!=512)sane=0;
  84:fs.c          **** 	/* Check is SPC is valid (multiple of 2, and clustersize >=32KB */
  85:fs.c          **** 	if(!((fs->volumeId.SectorsPerCluster == 1 ) |
  23              		.loc 1 85 0
  24 0004 0630D0E5 		ldrb	r3, [r0, #6]	@ zero_extendqisi2
  25 0008 011043E2 		sub	r1, r3, #1
ARM GAS  /cygdrive/c/DOCUME~1/mkwapisz/LOCALS~1/Temp/ccPR5o87.s 			page 3


  26 000c 100053E3 		cmp	r3, #16
  27 0010 01005113 		cmpne	r1, #1
  28 0014 0010A083 		movhi	r1, #0
  29 0018 0110A093 		movls	r1, #1
  30 001c 040053E3 		cmp	r3, #4
  31 0020 08005313 		cmpne	r3, #8
  32 0024 0020A013 		movne	r2, #0
  33 0028 0120A003 		moveq	r2, #1
  34 002c 200053E3 		cmp	r3, #32
  35 0030 01208203 		orreq	r2, r2, #1
  36 0034 400053E3 		cmp	r3, #64
  37 0038 01108103 		orreq	r1, r1, #1
  38 003c 012092E1 		orrs	r2, r2, r1
  39 0040 02E0A0E1 		mov	lr, r2
  40              	.LVL1:
  41              		.loc 1 83 0
  42 0044 B430D0E1 		ldrh	r3, [r0, #4]
  43              		.loc 1 85 0
  44 0048 0200000A 		beq	.L4
  45 004c 020C53E3 		cmp	r3, #512
  46 0050 00E0A013 		movne	lr, #0
  47 0054 01E0A003 		moveq	lr, #1
  48              	.L4:
  86:fs.c          **** 	     (fs->volumeId.SectorsPerCluster == 2 ) |
  87:fs.c          **** 	     (fs->volumeId.SectorsPerCluster == 4 ) |
  88:fs.c          **** 	     (fs->volumeId.SectorsPerCluster == 8 ) |
  89:fs.c          **** 	     (fs->volumeId.SectorsPerCluster == 16) |
  90:fs.c          **** 	     (fs->volumeId.SectorsPerCluster == 32) |
  91:fs.c          **** 	     (fs->volumeId.SectorsPerCluster == 64) ))sane=0;
  92:fs.c          **** 	/* Any number of FAT's should be supported... (untested) */
  93:fs.c          **** 	/* There should be at least 1 reserved sector */
  94:fs.c          **** 	if(fs->volumeId.ReservedSectorCount==0)sane=0;
  49              		.loc 1 94 0
  50 0058 B830D0E1 		ldrh	r3, [r0, #8]
  95:fs.c          **** 	if(fs->volumeId.FatSectorCount16 != 0){
  51              		.loc 1 95 0
  52 005c B0C1D0E1 		ldrh	ip, [r0, #16]
  53              		.loc 1 94 0
  54 0060 000053E3 		cmp	r3, #0
  55 0064 00E0A003 		moveq	lr, #0
  56              		.loc 1 95 0
  57 0068 00005CE3 		cmp	ip, #0
  58 006c 001090E5 		ldr	r1, [r0, #0]
  59 0070 0500000A 		beq	.L7
  96:fs.c          **** 		if(fs->volumeId.FatSectorCount16 > fs->part->disc->partitions[fs->part->activePartition].numSecto
  60              		.loc 1 96 0
  61 0074 D430D1E1 		ldrsb	r3, [r1, #4]
  62 0078 002091E5 		ldr	r2, [r1, #0]
  63 007c 032282E0 		add	r2, r2, r3, asl #4
  64 0080 143092E5 		ldr	r3, [r2, #20]
  65 0084 03005CE1 		cmp	ip, r3
  66 0088 050000EA 		b	.L12
  67              	.L7:
  97:fs.c          **** 	}else{
  98:fs.c          **** 		if(fs->volumeId.FatSectorCount32 > fs->part->disc->partitions[fs->part->activePartition].numSecto
  68              		.loc 1 98 0
  69 008c D420D1E1 		ldrsb	r2, [r1, #4]
ARM GAS  /cygdrive/c/DOCUME~1/mkwapisz/LOCALS~1/Temp/ccPR5o87.s 			page 4


  70 0090 003091E5 		ldr	r3, [r1, #0]
  71 0094 023283E0 		add	r3, r3, r2, asl #4
  72 0098 143093E5 		ldr	r3, [r3, #20]
  73 009c 182090E5 		ldr	r2, [r0, #24]
  74 00a0 030052E1 		cmp	r2, r3
  75              	.L12:
  76 00a4 00E0A083 		movhi	lr, #0
  77 00a8 0E08A0E1 		mov	r0, lr, asl #16
  78              	.LVL2:
  99:fs.c          **** 	} 
 100:fs.c          **** 	return(sane);
 101:fs.c          **** }
  79              		.loc 1 101 0
  80 00ac 4008A0E1 		mov	r0, r0, asr #16
  81 00b0 04E09DE4 		ldr	lr, [sp], #4
  82 00b4 1EFF2FE1 		bx	lr
  83              	.LFE5:
  84              		.size	fs_verifySanity, .-fs_verifySanity
  85              		.global	__divsi3
  86              		.global	__udivsi3
  87              		.align	2
  88              		.global	fs_countDataSectors
  89              		.type	fs_countDataSectors, %function
  90              	fs_countDataSectors:
  91              	.LFB6:
 102:fs.c          **** /*****************************************************************************/
 103:fs.c          **** 
 104:fs.c          **** /* ****************************************************************************  
 105:fs.c          ****  * void fs_countDataSectors(FileSystem *fs)
 106:fs.c          ****  * Description: This functions calculates the sectorcounts, fatsectorcounts and
 107:fs.c          ****  * dataclustercounts. It fills in the general fields.
 108:fs.c          **** */
 109:fs.c          **** void fs_countDataSectors(FileSystem *fs)
 110:fs.c          **** {
  92              		.loc 1 110 0
  93              		@ Function supports interworking.
  94              		@ args = 0, pretend = 0, frame = 0
  95              		@ frame_needed = 0, uses_anonymous_args = 0
  96              	.LVL3:
 111:fs.c          ****   unsigned long rootDirSectors,dataSectorCount;
 112:fs.c          **** 
 113:fs.c          ****   rootDirSectors=((fs->volumeId.RootEntryCount*32) +
 114:fs.c          ****                  (fs->volumeId.BytesPerSector - 1)) /
 115:fs.c          ****                  fs->volumeId.BytesPerSector;
 116:fs.c          **** 
 117:fs.c          ****   if(fs->volumeId.FatSectorCount16 != 0)
  97              		.loc 1 117 0
  98 00b8 B021D0E1 		ldrh	r2, [r0, #16]
  99              		.loc 1 110 0
 100 00bc 30402DE9 		stmfd	sp!, {r4, r5, lr}
 101              	.LCFI1:
 102              		.loc 1 117 0
 103 00c0 000052E3 		cmp	r2, #0
 104              		.loc 1 110 0
 105 00c4 0050A0E1 		mov	r5, r0
 118:fs.c          ****   {
 119:fs.c          ****     fs->FatSectorCount=fs->volumeId.FatSectorCount16;
ARM GAS  /cygdrive/c/DOCUME~1/mkwapisz/LOCALS~1/Temp/ccPR5o87.s 			page 5


 120:fs.c          ****     fs->volumeId.FatSectorCount32=0;
 121:fs.c          ****   }
 122:fs.c          ****   else
 123:fs.c          ****   {
 124:fs.c          ****     fs->FatSectorCount=fs->volumeId.FatSectorCount32;
 106              		.loc 1 124 0
 107 00c8 18309505 		ldreq	r3, [r5, #24]
 108              		.loc 1 119 0
 109 00cc 24208515 		strne	r2, [r5, #36]
 125:fs.c          ****     fs->volumeId.FatSectorCount16=0;
 110              		.loc 1 125 0
 111 00d0 B021C501 		streqh	r2, [r5, #16]	@ movhi
 126:fs.c          ****   }
 127:fs.c          **** 
 128:fs.c          ****   if(fs->volumeId.SectorCount16!=0)
 112              		.loc 1 128 0
 113 00d4 BE20D5E1 		ldrh	r2, [r5, #14]
 114              		.loc 1 120 0
 115 00d8 0030A013 		movne	r3, #0
 116 00dc 18308515 		strne	r3, [r5, #24]
 117              		.loc 1 124 0
 118 00e0 24308505 		streq	r3, [r5, #36]
 119              		.loc 1 128 0
 120 00e4 000052E3 		cmp	r2, #0
 121              		.loc 1 113 0
 122 00e8 B410D0E1 		ldrh	r1, [r0, #4]
 129:fs.c          ****   {
 130:fs.c          ****     fs->SectorCount=fs->volumeId.SectorCount16;
 131:fs.c          ****     fs->volumeId.SectorCount32=0;
 132:fs.c          ****   }
 133:fs.c          ****   else
 134:fs.c          ****   {
 135:fs.c          ****     fs->SectorCount=fs->volumeId.SectorCount32;
 123              		.loc 1 135 0
 124 00ec 14309505 		ldreq	r3, [r5, #20]
 125              		.loc 1 113 0
 126 00f0 BC00D0E1 		ldrh	r0, [r0, #12]
 127              	.LVL4:
 128              		.loc 1 131 0
 129 00f4 0030A013 		movne	r3, #0
 130              		.loc 1 130 0
 131 00f8 28208515 		strne	r2, [r5, #40]
 132              		.loc 1 131 0
 133 00fc 14308515 		strne	r3, [r5, #20]
 136:fs.c          ****     fs->volumeId.SectorCount16=0;
 134              		.loc 1 136 0
 135 0100 BE20C501 		streqh	r2, [r5, #14]	@ movhi
 136              		.loc 1 135 0
 137 0104 28308505 		streq	r3, [r5, #40]
 137:fs.c          ****   }
 138:fs.c          **** 
 139:fs.c          ****   dataSectorCount=fs->SectorCount - (
 140:fs.c          ****                   fs->volumeId.ReservedSectorCount +
 141:fs.c          ****                   (fs->volumeId.NumberOfFats * fs->FatSectorCount) +
 142:fs.c          ****                   rootDirSectors);
 143:fs.c          **** 
 144:fs.c          ****   fs->DataClusterCount=dataSectorCount/fs->volumeId.SectorsPerCluster;
ARM GAS  /cygdrive/c/DOCUME~1/mkwapisz/LOCALS~1/Temp/ccPR5o87.s 			page 6


 138              		.loc 1 144 0
 139 0108 800281E0 		add	r0, r1, r0, asl #5
 140 010c B8C0D5E1 		ldrh	ip, [r5, #8]
 141 0110 0A20D5E5 		ldrb	r2, [r5, #10]	@ zero_extendqisi2
 142 0114 243095E5 		ldr	r3, [r5, #36]
 143 0118 010040E2 		sub	r0, r0, #1
 144 011c 93C224E0 		mla	r4, r3, r2, ip
 145 0120 FEFFFFEB 		bl	__divsi3
 146 0124 283095E5 		ldr	r3, [r5, #40]
 147 0128 004084E0 		add	r4, r4, r0
 148 012c 030064E0 		rsb	r0, r4, r3
 149 0130 0610D5E5 		ldrb	r1, [r5, #6]	@ zero_extendqisi2
 150 0134 FEFFFFEB 		bl	__udivsi3
 151 0138 200085E5 		str	r0, [r5, #32]
 145:fs.c          **** }
 152              		.loc 1 145 0
 153 013c 3040BDE8 		ldmfd	sp!, {r4, r5, lr}
 154 0140 1EFF2FE1 		bx	lr
 155              	.LFE6:
 156              		.size	fs_countDataSectors, .-fs_countDataSectors
 157              		.align	2
 158              		.global	fs_determineFatType
 159              		.type	fs_determineFatType, %function
 160              	fs_determineFatType:
 161              	.LFB7:
 146:fs.c          **** /*****************************************************************************/ 
 147:fs.c          **** 
 148:fs.c          **** /* ****************************************************************************  
 149:fs.c          ****  * void fs_determineFatType(FileSystem *fs)
 150:fs.c          ****  * Description: This function looks af the Dataclustercount and determines the
 151:fs.c          ****  * FAT type. It fills in fs->type.
 152:fs.c          **** */
 153:fs.c          **** void fs_determineFatType(FileSystem *fs)
 154:fs.c          **** {
 162              		.loc 1 154 0
 163              		@ Function supports interworking.
 164              		@ args = 0, pretend = 0, frame = 0
 165              		@ frame_needed = 0, uses_anonymous_args = 0
 166              		@ link register save eliminated.
 167              	.LVL5:
 155:fs.c          **** 	if(fs->DataClusterCount < 4085)
 168              		.loc 1 155 0
 169 0144 34309FE5 		ldr	r3, .L29
 170 0148 202090E5 		ldr	r2, [r0, #32]
 171 014c 030052E1 		cmp	r2, r3
 156:fs.c          **** 	{
 157:fs.c          **** 		fs->type=FAT12;
 158:fs.c          **** 		fs->volumeId.RootCluster=0;
 172              		.loc 1 158 0
 173 0150 0030A093 		movls	r3, #0
 174 0154 1C308095 		strls	r3, [r0, #28]
 175              		.loc 1 154 0
 176              		@ lr needed for prologue
 177              		.loc 1 157 0
 178 0158 01308392 		addls	r3, r3, #1
 179              		.loc 1 155 0
 180 015c 0500009A 		bls	.L28
ARM GAS  /cygdrive/c/DOCUME~1/mkwapisz/LOCALS~1/Temp/ccPR5o87.s 			page 7


 159:fs.c          **** 	}
 160:fs.c          **** 	else if(fs->DataClusterCount < 65525)
 181              		.loc 1 160 0
 182 0160 1C309FE5 		ldr	r3, .L29+4
 183 0164 030052E1 		cmp	r2, r3
 161:fs.c          **** 	{
 162:fs.c          **** 		fs->type=FAT16;
 163:fs.c          **** 		fs->volumeId.RootCluster=0;
 184              		.loc 1 163 0
 185 0168 0030A093 		movls	r3, #0
 186 016c 1C308095 		strls	r3, [r0, #28]
 164:fs.c          **** 	}
 165:fs.c          **** 	else
 166:fs.c          **** 	{
 167:fs.c          **** 		fs->type=FAT32;
 187              		.loc 1 167 0
 188 0170 0330A083 		movhi	r3, #3
 189              		.loc 1 162 0
 190 0174 02308392 		addls	r3, r3, #2
 191              	.L28:
 192              		.loc 1 167 0
 193 0178 3C30C0E5 		strb	r3, [r0, #60]
 194 017c 1EFF2FE1 		bx	lr
 195              	.L30:
 196              		.align	2
 197              	.L29:
 198 0180 F40F0000 		.word	4084
 199 0184 F4FF0000 		.word	65524
 200              	.LFE7:
 201              		.size	fs_determineFatType, .-fs_determineFatType
 202              		.align	2
 203              		.global	fs_findFirstSectorRootDir
 204              		.type	fs_findFirstSectorRootDir, %function
 205              	fs_findFirstSectorRootDir:
 206              	.LFB8:
 168:fs.c          **** 	}
 169:fs.c          **** }
 170:fs.c          **** /*****************************************************************************/ 
 171:fs.c          **** 
 172:fs.c          **** /* ****************************************************************************  
 173:fs.c          ****  * void fs_findFirstSectorRootDir(FileSystem *fs)
 174:fs.c          ****  * Description: This functions fills in the fs->FirstSectorRootDir field, even
 175:fs.c          ****  * for FAT32, although that is not necessary (because you have FirstClusterRootDir).
 176:fs.c          **** */
 177:fs.c          **** void fs_findFirstSectorRootDir(FileSystem *fs)
 178:fs.c          **** {
 207              		.loc 1 178 0
 208              		@ Function supports interworking.
 209              		@ args = 0, pretend = 0, frame = 0
 210              		@ frame_needed = 0, uses_anonymous_args = 0
 211              		@ link register save eliminated.
 212              	.LVL6:
 179:fs.c          **** 	if(fs->type==FAT32)
 213              		.loc 1 179 0
 214 0188 3C30D0E5 		ldrb	r3, [r0, #60]	@ zero_extendqisi2
 215 018c 030053E3 		cmp	r3, #3
 180:fs.c          **** 		fs->FirstSectorRootDir = fs->volumeId.ReservedSectorCount + 
ARM GAS  /cygdrive/c/DOCUME~1/mkwapisz/LOCALS~1/Temp/ccPR5o87.s 			page 8


 216              		.loc 1 180 0
 217 0190 1C309005 		ldreq	r3, [r0, #28]
 218 0194 B810D0E1 		ldrh	r1, [r0, #8]
 219 0198 0620D005 		ldreqb	r2, [r0, #6]	@ zero_extendqisi2
 220 019c 02304302 		subeq	r3, r3, #2
 221 01a0 93122200 		mlaeq	r2, r3, r2, r1
 222 01a4 0AC0D0E5 		ldrb	ip, [r0, #10]	@ zero_extendqisi2
 223 01a8 18309005 		ldreq	r3, [r0, #24]
 181:fs.c          **** 		                         (fs->volumeId.NumberOfFats*fs->volumeId.FatSectorCount32) +
 182:fs.c          **** 								 (fs->volumeId.RootCluster-2)*fs->volumeId.SectorsPerCluster;
 183:fs.c          **** 	else
 184:fs.c          **** 		fs->FirstSectorRootDir = fs->volumeId.ReservedSectorCount + 
 224              		.loc 1 184 0
 225 01ac B031D011 		ldrneh	r3, [r0, #16]
 226              		.loc 1 180 0
 227 01b0 9C232300 		mlaeq	r3, ip, r3, r2
 228              		.loc 1 184 0
 229 01b4 9C132310 		mlane	r3, ip, r3, r1
 230              		.loc 1 178 0
 231              		@ lr needed for prologue
 232              		.loc 1 184 0
 233 01b8 2C3080E5 		str	r3, [r0, #44]
 234 01bc 1EFF2FE1 		bx	lr
 235              	.LFE8:
 236              		.size	fs_findFirstSectorRootDir, .-fs_findFirstSectorRootDir
 237              		.align	2
 238              		.global	fs_initCurrentDir
 239              		.type	fs_initCurrentDir, %function
 240              	fs_initCurrentDir:
 241              	.LFB9:
 185:fs.c          **** 		                         (fs->volumeId.NumberOfFats*fs->volumeId.FatSectorCount16);
 186:fs.c          **** }
 187:fs.c          **** /*****************************************************************************/ 
 188:fs.c          **** 
 189:fs.c          **** void fs_initCurrentDir(FileSystem *fs)
 190:fs.c          **** {
 242              		.loc 1 190 0
 243              		@ Function supports interworking.
 244              		@ args = 0, pretend = 0, frame = 0
 245              		@ frame_needed = 0, uses_anonymous_args = 0
 246              		@ link register save eliminated.
 247              	.LVL7:
 248              	.LBB6:
 249              	.LBB7:
 191:fs.c          **** 	fs->FirstClusterCurrentDir = fs_getFirstClusterRootDir(fs);
 192:fs.c          **** }
 193:fs.c          **** /*****************************************************************************/
 194:fs.c          **** 
 195:fs.c          **** /* ****************************************************************************  
 196:fs.c          ****  * long fs_clusterToSector(FileSystem *fs,unsigned long cluster)
 197:fs.c          ****  * Description: This function converts a clusternumber in the effective sector
 198:fs.c          ****  * number where this cluster starts. Boundary check is not implemented
 199:fs.c          ****  * Return value: A long is returned representing the sectornumber.
 200:fs.c          **** */
 201:fs.c          **** unsigned long fs_clusterToSector(FileSystem *fs,unsigned long cluster)
 202:fs.c          **** {
 203:fs.c          **** 	eint32 base;
ARM GAS  /cygdrive/c/DOCUME~1/mkwapisz/LOCALS~1/Temp/ccPR5o87.s 			page 9


 204:fs.c          **** 	
 205:fs.c          **** 	if(fs->type==FAT32)
 206:fs.c          **** 	{
 207:fs.c          **** 		base=
 208:fs.c          **** 			fs->volumeId.ReservedSectorCount+
 209:fs.c          **** 			fs->FatSectorCount*fs->volumeId.NumberOfFats;
 210:fs.c          **** 	}
 211:fs.c          **** 	else
 212:fs.c          **** 	{
 213:fs.c          **** 		base=
 214:fs.c          **** 			fs->volumeId.ReservedSectorCount+
 215:fs.c          **** 			fs->FatSectorCount*fs->volumeId.NumberOfFats+
 216:fs.c          **** 			fs->volumeId.RootEntryCount/16;
 217:fs.c          **** 	}
 218:fs.c          **** 	return( base + (cluster-2)*fs->volumeId.SectorsPerCluster );
 219:fs.c          **** }
 220:fs.c          **** /*****************************************************************************/ 
 221:fs.c          **** 
 222:fs.c          **** /* Function is unused, but may be usefull */
 223:fs.c          **** unsigned long fs_sectorToCluster(FileSystem *fs,unsigned long sector)
 224:fs.c          **** {
 225:fs.c          **** 	eint32 base;
 226:fs.c          **** 	
 227:fs.c          **** 	if(fs->type==FAT32)
 228:fs.c          **** 	{
 229:fs.c          **** 		base=
 230:fs.c          **** 			fs->volumeId.ReservedSectorCount+
 231:fs.c          **** 			fs->FatSectorCount*fs->volumeId.NumberOfFats;
 232:fs.c          **** 	}
 233:fs.c          **** 	else
 234:fs.c          **** 	{
 235:fs.c          **** 		base=
 236:fs.c          **** 			fs->volumeId.ReservedSectorCount+
 237:fs.c          **** 			fs->FatSectorCount*fs->volumeId.NumberOfFats+
 238:fs.c          **** 			fs->volumeId.RootEntryCount/16;
 239:fs.c          **** 	}
 240:fs.c          **** 	return(((sector-base)-((sector-base)%fs->volumeId.SectorsPerCluster))/fs->volumeId.SectorsPerClust
 241:fs.c          **** }
 242:fs.c          **** /*****************************************************************************/
 243:fs.c          **** 
 244:fs.c          **** /* ****************************************************************************  
 245:fs.c          ****  * unsigned long fs_getNextFreeCluster(FileSystem *fs,unsigned long startingcluster)
 246:fs.c          ****  * Description: This functions searches for a free cluster, starting it's search at
 247:fs.c          ****  * cluster startingcluster. This allow to speed up searches and try to avoid 
 248:fs.c          ****  * fragmentation. Implementing rollover search is still to be done.
 249:fs.c          ****  * Return value: If a free cluster is found it's number is returned. If none is 
 250:fs.c          ****  * found 0 is returned.
 251:fs.c          **** */
 252:fs.c          **** unsigned long fs_getNextFreeCluster(FileSystem *fs,unsigned long startingcluster)
 253:fs.c          **** {
 254:fs.c          **** 	unsigned long r;
 255:fs.c          **** 	
 256:fs.c          **** 	while(startingcluster<fs->DataClusterCount){
 257:fs.c          **** 		r=fat_getNextClusterAddress(fs,startingcluster,0);
 258:fs.c          **** 		if(r==0){
 259:fs.c          **** 			return(startingcluster);
 260:fs.c          **** 		}
ARM GAS  /cygdrive/c/DOCUME~1/mkwapisz/LOCALS~1/Temp/ccPR5o87.s 			page 10


 261:fs.c          **** 		startingcluster++;
 262:fs.c          **** 	}
 263:fs.c          **** 	return(0);
 264:fs.c          **** }
 265:fs.c          **** /*****************************************************************************/ 
 266:fs.c          **** 
 267:fs.c          **** /* ****************************************************************************  
 268:fs.c          ****  * unsigned long fs_giveFreeClusterHint(FileSystem *fs)
 269:fs.c          ****  * 
 270:fs.c          ****  * Description: This function should return a clusternumber that is free or
 271:fs.c          ****  * lies close before free clusters. The result MUST be checked to see if 
 272:fs.c          ****  * it is free! Implementationhint: search the largest clusternumber in the
 273:fs.c          ****  * files in the rootdirectory.
 274:fs.c          ****  * 
 275:fs.c          ****  * Return value: Returns it's best guess.
 276:fs.c          **** */
 277:fs.c          **** unsigned long fs_giveFreeClusterHint(FileSystem *fs)
 278:fs.c          **** {
 279:fs.c          **** 	return(2); /* Now THIS is a hint ;) */
 280:fs.c          **** }
 281:fs.c          **** /*****************************************************************************/ 
 282:fs.c          **** 
 283:fs.c          **** /* ****************************************************************************
 284:fs.c          ****  * signed char fs_findFile(FileSystem *fs,char* filename,FileLocation *loc,unsigned long *lastDir)
 285:fs.c          ****  *
 286:fs.c          ****  * Description: This function looks if the given filename is on the given fs
 287:fs.c          ****  * and, if found, fills in its location in loc.
 288:fs.c          ****  * The function will first check if the pathname starts with a slash. If so it will
 289:fs.c          ****  * set the starting directory to the rootdirectory. Else, it will take the firstcluster-
 290:fs.c          ****  * currentdir (That you can change with chdir()) as startingpoint.
 291:fs.c          ****  * The lastdir pointer will be the first cluster of the last directory fs_findfile
 292:fs.c          ****  * enters. It starts out at the root/current dir and then traverses the path along with
 293:fs.c          ****  * fs_findFile. 
 294:fs.c          ****  * It is set to 0 in case of errors (like dir/dir/dir/file/dir/dir...)
 295:fs.c          ****  * Return value: Returns 0 when nothing was found, 1 when the thing found
 296:fs.c          ****  * was a file and 2 if the thing found was a directory.
 297:fs.c          **** */
 298:fs.c          **** 
 299:fs.c          **** signed char fs_findFile(FileSystem *fs,char* filename,FileLocation *loc,unsigned long *lastDir)
 300:fs.c          **** {
 301:fs.c          **** 	unsigned long fccd,tmpclus;
 302:fs.c          **** 	char ffname[11],*next,it=0,filefound=0;
 303:fs.c          **** 	
 304:fs.c          **** 	if(*filename=='/'){
 305:fs.c          **** 		fccd = fs_getFirstClusterRootDir(fs);
 306:fs.c          **** 		filename++;
 307:fs.c          **** 		if(lastDir)*lastDir=fccd;
 308:fs.c          **** 		if(!*filename){
 309:fs.c          **** 			return(2);
 310:fs.c          **** 		}
 311:fs.c          **** 	}else{
 312:fs.c          **** 		fccd = fs->FirstClusterCurrentDir;
 313:fs.c          **** 		if(lastDir)*lastDir=fccd;
 314:fs.c          **** 	}
 315:fs.c          **** 	
 316:fs.c          **** 	
 317:fs.c          **** 	while((next=file_normalToFatName(filename,ffname))!=0){
ARM GAS  /cygdrive/c/DOCUME~1/mkwapisz/LOCALS~1/Temp/ccPR5o87.s 			page 11


 318:fs.c          **** 		if((tmpclus=dir_findinDir(fs,ffname,fccd,loc,DIRFIND_FILE))==0){
 319:fs.c          **** 			/* We didn't find what we wanted */
 320:fs.c          **** 			/* We should check, to see if there is more after it, so that
 321:fs.c          **** 			 * we can invalidate lastDir
 322:fs.c          **** 			 */
 323:fs.c          **** 			if((file_normalToFatName(next,ffname))!=0){
 324:fs.c          **** 				if(lastDir)*lastDir=0;
 325:fs.c          **** 			}			 
 326:fs.c          **** 			return(0);
 327:fs.c          **** 		}
 328:fs.c          **** 		it++;
 329:fs.c          **** 		if(loc->attrib&ATTR_DIRECTORY){
 330:fs.c          **** 			fccd = tmpclus;
 331:fs.c          **** 			filename = next;
 332:fs.c          **** 			if(lastDir)*lastDir=fccd;
 333:fs.c          **** 			if(filefound)*lastDir=0;
 334:fs.c          **** 		}else{
 335:fs.c          **** 			filefound=1;
 336:fs.c          **** 			if((file_normalToFatName(next,ffname))!=0){
 337:fs.c          **** 				if(lastDir)*lastDir=0;
 338:fs.c          **** 				return(0);
 339:fs.c          **** 			}else{
 340:fs.c          **** 				filename=next;	
 341:fs.c          **** 			}
 342:fs.c          **** 		}
 343:fs.c          **** 	}
 344:fs.c          **** 	
 345:fs.c          **** 	if(it==0)return(0);
 346:fs.c          **** 	if(loc->attrib&ATTR_DIRECTORY || !filefound)return(2);
 347:fs.c          **** 	return(1);
 348:fs.c          **** }
 349:fs.c          **** /*****************************************************************************/
 350:fs.c          **** 
 351:fs.c          **** signed short fs_findFreeFile(FileSystem *fs,char* filename,FileLocation *loc,unsigned char mode)
 352:fs.c          **** {
 353:fs.c          **** 	unsigned long targetdir=0;
 354:fs.c          **** 	char ffname[11];
 355:fs.c          **** 	
 356:fs.c          **** 	if(fs_findFile(fs,filename,loc,&targetdir))return(0);
 357:fs.c          **** 	if(!dir_getFatFileName(filename,ffname))return(0);
 358:fs.c          **** 	if(dir_findinDir(fs,ffname,targetdir,loc,DIRFIND_FREE)){
 359:fs.c          **** 		return(1);
 360:fs.c          **** 	}else{
 361:fs.c          **** 		if(dir_addCluster(fs,targetdir)){
 362:fs.c          **** 			return(0);
 363:fs.c          **** 		}else{
 364:fs.c          **** 			if(dir_findinDir(fs,ffname,targetdir,loc,DIRFIND_FREE)){
 365:fs.c          **** 				return(1);
 366:fs.c          **** 			}
 367:fs.c          **** 		}
 368:fs.c          **** 	}
 369:fs.c          **** 		
 370:fs.c          **** 	return(0);
 371:fs.c          **** }
 372:fs.c          **** /*****************************************************************************/
 373:fs.c          **** 
 374:fs.c          **** /* ****************************************************************************  
ARM GAS  /cygdrive/c/DOCUME~1/mkwapisz/LOCALS~1/Temp/ccPR5o87.s 			page 12


 375:fs.c          ****  * unsigned long fs_getLastCluster(FileSystem *fs,ClusterChain *Cache)
 376:fs.c          ****  * Description: This function searches the last cluster of a chain.
 377:fs.c          ****  * Return value: The LastCluster (also stored in cache);
 378:fs.c          **** */
 379:fs.c          **** unsigned long fs_getLastCluster(FileSystem *fs,ClusterChain *Cache)
 380:fs.c          **** {
 381:fs.c          **** 	if(Cache->DiscCluster==0){
 382:fs.c          **** 		Cache->DiscCluster=Cache->FirstCluster;
 383:fs.c          **** 		Cache->LogicCluster=0;
 384:fs.c          **** 	}
 385:fs.c          **** 	
 386:fs.c          **** 	if(Cache->LastCluster==0)
 387:fs.c          **** 	{
 388:fs.c          **** 		while(fat_getNextClusterChain(fs, Cache)==0)
 389:fs.c          **** 		{
 390:fs.c          **** 			Cache->LogicCluster+=Cache->Linear;
 391:fs.c          **** 			Cache->DiscCluster+=Cache->Linear;
 392:fs.c          **** 			Cache->Linear=0;
 393:fs.c          **** 		}
 394:fs.c          **** 	}
 395:fs.c          **** 	return(Cache->LastCluster);
 396:fs.c          **** }
 397:fs.c          **** /*****************************************************************************/
 398:fs.c          **** 
 399:fs.c          **** unsigned long fs_getFirstClusterRootDir(FileSystem *fs)
 400:fs.c          **** {
 401:fs.c          **** 	switch(fs->type){
 250              		.loc 1 401 0
 251 01c0 3C30D0E5 		ldrb	r3, [r0, #60]	@ zero_extendqisi2
 252 01c4 030053E3 		cmp	r3, #3
 253 01c8 0130A0E3 		mov	r3, #1
 402:fs.c          **** 		case FAT32:
 403:fs.c          **** 			return(fs->volumeId.RootCluster);
 254              		.loc 1 403 0
 255 01cc 1C309005 		ldreq	r3, [r0, #28]
 256              	.LBE7:
 257              	.LBE6:
 258              		.loc 1 190 0
 259              		@ lr needed for prologue
 260              		.loc 1 191 0
 261 01d0 303080E5 		str	r3, [r0, #48]
 262              		.loc 1 192 0
 263 01d4 1EFF2FE1 		bx	lr
 264              	.LFE9:
 265              		.size	fs_initCurrentDir, .-fs_initCurrentDir
 266              		.align	2
 267              		.global	fs_clusterToSector
 268              		.type	fs_clusterToSector, %function
 269              	fs_clusterToSector:
 270              	.LFB10:
 271              		.loc 1 202 0
 272              		@ Function supports interworking.
 273              		@ args = 0, pretend = 0, frame = 0
 274              		@ frame_needed = 0, uses_anonymous_args = 0
 275              		@ link register save eliminated.
 276              	.LVL8:
 277              		.loc 1 205 0
ARM GAS  /cygdrive/c/DOCUME~1/mkwapisz/LOCALS~1/Temp/ccPR5o87.s 			page 13


 278 01d8 3C30D0E5 		ldrb	r3, [r0, #60]	@ zero_extendqisi2
 279 01dc 0A20D0E5 		ldrb	r2, [r0, #10]	@ zero_extendqisi2
 280 01e0 030053E3 		cmp	r3, #3
 281 01e4 B8C0D0E1 		ldrh	ip, [r0, #8]
 282 01e8 243090E5 		ldr	r3, [r0, #36]
 283              		.loc 1 213 0
 284 01ec 93C22210 		mlane	r2, r3, r2, ip
 285              		.loc 1 207 0
 286 01f0 93C22C00 		mlaeq	ip, r3, r2, ip
 287              	.LVL9:
 288              		.loc 1 213 0
 289 01f4 BC30D011 		ldrneh	r3, [r0, #12]
 290 01f8 23C28210 		addne	ip, r2, r3, lsr #4
 291 01fc 0620D0E5 		ldrb	r2, [r0, #6]	@ zero_extendqisi2
 292 0200 023041E2 		sub	r3, r1, #2
 293              		.loc 1 219 0
 294 0204 92C320E0 		mla	r0, r2, r3, ip
 295              	.LVL10:
 296              		.loc 1 202 0
 297              		@ lr needed for prologue
 298              		.loc 1 219 0
 299 0208 1EFF2FE1 		bx	lr
 300              	.LFE10:
 301              		.size	fs_clusterToSector, .-fs_clusterToSector
 302              		.global	__umodsi3
 303              		.align	2
 304              		.global	fs_sectorToCluster
 305              		.type	fs_sectorToCluster, %function
 306              	fs_sectorToCluster:
 307              	.LFB11:
 308              		.loc 1 224 0
 309              		@ Function supports interworking.
 310              		@ args = 0, pretend = 0, frame = 0
 311              		@ frame_needed = 0, uses_anonymous_args = 0
 312              	.LVL11:
 313 020c 30402DE9 		stmfd	sp!, {r4, r5, lr}
 314              	.LCFI2:
 315              		.loc 1 227 0
 316 0210 3C30D0E5 		ldrb	r3, [r0, #60]	@ zero_extendqisi2
 317 0214 0A20D0E5 		ldrb	r2, [r0, #10]	@ zero_extendqisi2
 318 0218 030053E3 		cmp	r3, #3
 319 021c B8C0D0E1 		ldrh	ip, [r0, #8]
 320 0220 243090E5 		ldr	r3, [r0, #36]
 321              		.loc 1 235 0
 322 0224 93C22210 		mlane	r2, r3, r2, ip
 323              		.loc 1 224 0
 324 0228 0140A0E1 		mov	r4, r1
 325              		.loc 1 229 0
 326 022c 93C22100 		mlaeq	r1, r3, r2, ip
 327              	.LVL12:
 328              		.loc 1 235 0
 329 0230 BC30D011 		ldrneh	r3, [r0, #12]
 330              		.loc 1 240 0
 331 0234 0650D0E5 		ldrb	r5, [r0, #6]	@ zero_extendqisi2
 332              		.loc 1 235 0
 333 0238 23128210 		addne	r1, r2, r3, lsr #4
 334              		.loc 1 240 0
ARM GAS  /cygdrive/c/DOCUME~1/mkwapisz/LOCALS~1/Temp/ccPR5o87.s 			page 14


 335 023c 044061E0 		rsb	r4, r1, r4
 336              	.LVL13:
 337 0240 0400A0E1 		mov	r0, r4
 338              	.LVL14:
 339 0244 0510A0E1 		mov	r1, r5
 340              	.LVL15:
 341 0248 FEFFFFEB 		bl	__umodsi3
 342 024c 0510A0E1 		mov	r1, r5
 343 0250 040060E0 		rsb	r0, r0, r4
 344 0254 FEFFFFEB 		bl	__udivsi3
 345              		.loc 1 241 0
 346 0258 020080E2 		add	r0, r0, #2
 347 025c 3040BDE8 		ldmfd	sp!, {r4, r5, lr}
 348 0260 1EFF2FE1 		bx	lr
 349              	.LFE11:
 350              		.size	fs_sectorToCluster, .-fs_sectorToCluster
 351              		.align	2
 352              		.global	fs_giveFreeClusterHint
 353              		.type	fs_giveFreeClusterHint, %function
 354              	fs_giveFreeClusterHint:
 355              	.LFB13:
 356              		.loc 1 278 0
 357              		@ Function supports interworking.
 358              		@ args = 0, pretend = 0, frame = 0
 359              		@ frame_needed = 0, uses_anonymous_args = 0
 360              		@ link register save eliminated.
 361              	.LVL16:
 362              		.loc 1 280 0
 363 0264 0200A0E3 		mov	r0, #2
 364              	.LVL17:
 365              		.loc 1 278 0
 366              		@ lr needed for prologue
 367              		.loc 1 280 0
 368 0268 1EFF2FE1 		bx	lr
 369              	.LFE13:
 370              		.size	fs_giveFreeClusterHint, .-fs_giveFreeClusterHint
 371              		.align	2
 372              		.global	fs_getFirstClusterRootDir
 373              		.type	fs_getFirstClusterRootDir, %function
 374              	fs_getFirstClusterRootDir:
 375              	.LFB17:
 376              		.loc 1 400 0
 377              		@ Function supports interworking.
 378              		@ args = 0, pretend = 0, frame = 0
 379              		@ frame_needed = 0, uses_anonymous_args = 0
 380              		@ link register save eliminated.
 381              	.LVL18:
 382              		.loc 1 401 0
 383 026c 3C30D0E5 		ldrb	r3, [r0, #60]	@ zero_extendqisi2
 384 0270 030053E3 		cmp	r3, #3
 385 0274 0130A0E3 		mov	r3, #1
 386              		.loc 1 403 0
 387 0278 1C309005 		ldreq	r3, [r0, #28]
 404:fs.c          **** 			break;
 405:fs.c          **** 		default:
 406:fs.c          **** 				return(1);
 407:fs.c          **** 				break;
ARM GAS  /cygdrive/c/DOCUME~1/mkwapisz/LOCALS~1/Temp/ccPR5o87.s 			page 15


 408:fs.c          **** 	}
 409:fs.c          **** }
 388              		.loc 1 409 0
 389 027c 0300A0E1 		mov	r0, r3
 390              	.LVL19:
 391              		.loc 1 400 0
 392              		@ lr needed for prologue
 393              		.loc 1 409 0
 394 0280 1EFF2FE1 		bx	lr
 395              	.LFE17:
 396              		.size	fs_getFirstClusterRootDir, .-fs_getFirstClusterRootDir
 397              		.align	2
 398              		.global	fs_initClusterChain
 399              		.type	fs_initClusterChain, %function
 400              	fs_initClusterChain:
 401              	.LFB18:
 410:fs.c          **** /*****************************************************************************/
 411:fs.c          **** 
 412:fs.c          **** void fs_initClusterChain(FileSystem *fs,ClusterChain *cache,unsigned long cluster_addr)
 413:fs.c          **** {
 402              		.loc 1 413 0
 403              		@ Function supports interworking.
 404              		@ args = 0, pretend = 0, frame = 0
 405              		@ frame_needed = 0, uses_anonymous_args = 0
 406              		@ link register save eliminated.
 407              	.LVL20:
 414:fs.c          **** 	cache->FirstCluster=cluster_addr;
 415:fs.c          **** 	cache->DiscCluster=cluster_addr;
 416:fs.c          **** 	cache->LogicCluster=0;
 408              		.loc 1 416 0
 409 0284 0030A0E3 		mov	r3, #0
 410              		.loc 1 413 0
 411              		@ lr needed for prologue
 417:fs.c          **** 	cache->LastCluster=0; /* Warning flag here */
 418:fs.c          **** 	cache->Linear=0;
 419:fs.c          **** 	cache->ClusterCount=0; /* 0 means NOT known */
 412              		.loc 1 419 0
 413 0288 143081E5 		str	r3, [r1, #20]
 414              		.loc 1 415 0
 415 028c 082081E5 		str	r2, [r1, #8]
 416              		.loc 1 414 0
 417 0290 0C2081E5 		str	r2, [r1, #12]
 418              		.loc 1 416 0
 419 0294 043081E5 		str	r3, [r1, #4]
 420              		.loc 1 417 0
 421 0298 103081E5 		str	r3, [r1, #16]
 422              		.loc 1 418 0
 423 029c 0030C1E5 		strb	r3, [r1, #0]
 420:fs.c          **** }
 424              		.loc 1 420 0
 425 02a0 1EFF2FE1 		bx	lr
 426              	.LFE18:
 427              		.size	fs_initClusterChain, .-fs_initClusterChain
 428              		.align	2
 429              		.global	fs_setFirstClusterInDirEntry
 430              		.type	fs_setFirstClusterInDirEntry, %function
 431              	fs_setFirstClusterInDirEntry:
ARM GAS  /cygdrive/c/DOCUME~1/mkwapisz/LOCALS~1/Temp/ccPR5o87.s 			page 16


 432              	.LFB19:
 421:fs.c          **** /*****************************************************************************/
 422:fs.c          **** 
 423:fs.c          **** void fs_setFirstClusterInDirEntry(FileRecord *rec,unsigned long cluster_addr)
 424:fs.c          **** {
 433              		.loc 1 424 0
 434              		@ Function supports interworking.
 435              		@ args = 0, pretend = 0, frame = 0
 436              		@ frame_needed = 0, uses_anonymous_args = 0
 437              		@ link register save eliminated.
 438              	.LVL21:
 425:fs.c          **** 	rec->FirstClusterHigh=cluster_addr>>16;
 439              		.loc 1 425 0
 440 02a4 2138A0E1 		mov	r3, r1, lsr #16
 441              		.loc 1 424 0
 442              		@ lr needed for prologue
 426:fs.c          **** 	rec->FirstClusterLow=cluster_addr&0xFFFF;
 443              		.loc 1 426 0
 444 02a8 BA11C0E1 		strh	r1, [r0, #26]	@ movhi
 445              		.loc 1 425 0
 446 02ac B431C0E1 		strh	r3, [r0, #20]	@ movhi
 427:fs.c          **** }
 447              		.loc 1 427 0
 448 02b0 1EFF2FE1 		bx	lr
 449              	.LFE19:
 450              		.size	fs_setFirstClusterInDirEntry, .-fs_setFirstClusterInDirEntry
 451              		.align	2
 452              		.global	fs_setFsInfo
 453              		.type	fs_setFsInfo, %function
 454              	fs_setFsInfo:
 455              	.LFB24:
 428:fs.c          **** /*****************************************************************************/
 429:fs.c          **** 
 430:fs.c          **** signed char fs_flushFs(FileSystem *fs)
 431:fs.c          **** {
 432:fs.c          **** 	return(part_flushPart(fs->part,0,fs->SectorCount));
 433:fs.c          **** }
 434:fs.c          **** /*****************************************************************************/
 435:fs.c          **** 
 436:fs.c          **** signed char fs_umount(FileSystem *fs)
 437:fs.c          **** {
 438:fs.c          **** 	return(fs_flushFs(fs));
 439:fs.c          **** }
 440:fs.c          **** /*****************************************************************************/
 441:fs.c          **** 
 442:fs.c          **** signed char fs_clearCluster(FileSystem *fs,unsigned long cluster)
 443:fs.c          **** {
 444:fs.c          **** 	unsigned short c;
 445:fs.c          **** 	unsigned char* buf;
 446:fs.c          **** 	
 447:fs.c          **** 	for(c=0;c<(fs->volumeId.SectorsPerCluster);c++){
 448:fs.c          **** 		buf = part_getSect(fs->part,fs_clusterToSector(fs,cluster)+c,IOM_MODE_READWRITE);
 449:fs.c          **** 		memClr(buf,512);
 450:fs.c          **** 		part_relSect(fs->part,buf);
 451:fs.c          **** 	}
 452:fs.c          **** 	return(0);
 453:fs.c          **** }
ARM GAS  /cygdrive/c/DOCUME~1/mkwapisz/LOCALS~1/Temp/ccPR5o87.s 			page 17


 454:fs.c          **** 
 455:fs.c          **** signed char fs_getFsInfo(FileSystem *fs,unsigned char force_update)
 456:fs.c          **** {
 457:fs.c          **** 	unsigned char *buf;
 458:fs.c          **** 		
 459:fs.c          ****  	if(!fs->type==FAT32)return(0);
 460:fs.c          **** 	buf = part_getSect(fs->part,FS_INFO_SECTOR,IOM_MODE_READONLY);
 461:fs.c          **** 	if(ex_getb32(buf,0)!=FSINFO_MAGIC_BEGIN || ex_getb32(buf,508)!=FSINFO_MAGIC_END){
 462:fs.c          **** 		part_relSect(fs->part,buf);
 463:fs.c          **** 		return(-1);
 464:fs.c          **** 	}
 465:fs.c          **** 	fs->FreeClusterCount = ex_getb32(buf,488);
 466:fs.c          **** 	fs->NextFreeCluster  = ex_getb32(buf,492);
 467:fs.c          **** 	part_relSect(fs->part,buf);
 468:fs.c          **** 	if(force_update){
 469:fs.c          **** 		fs->FreeClusterCount=fat_countFreeClusters(fs);
 470:fs.c          **** 	}
 471:fs.c          **** 	return(0);
 472:fs.c          **** }
 473:fs.c          **** 
 474:fs.c          **** signed char fs_setFsInfo(FileSystem *fs)
 475:fs.c          **** {
 456              		.loc 1 475 0
 457              		@ Function supports interworking.
 458              		@ args = 0, pretend = 0, frame = 0
 459              		@ frame_needed = 0, uses_anonymous_args = 0
 460              	.LVL22:
 461 02b4 30402DE9 		stmfd	sp!, {r4, r5, lr}
 462              	.LCFI3:
 476:fs.c          **** 	unsigned char* buf;
 477:fs.c          **** 
 478:fs.c          **** 	if(!fs->type==FAT32)return(0);
 479:fs.c          **** 	buf = part_getSect(fs->part,FS_INFO_SECTOR,IOM_MODE_READWRITE);
 463              		.loc 1 479 0
 464 02b8 0220A0E3 		mov	r2, #2
 465 02bc 0110A0E3 		mov	r1, #1
 466              		.loc 1 475 0
 467 02c0 0050A0E1 		mov	r5, r0
 468              		.loc 1 479 0
 469 02c4 000090E5 		ldr	r0, [r0, #0]
 470              	.LVL23:
 471 02c8 FEFFFFEB 		bl	part_getSect
 480:fs.c          **** 	if(ex_getb32(buf,0)!=FSINFO_MAGIC_BEGIN || ex_getb32(buf,508)!=FSINFO_MAGIC_END){
 472              		.loc 1 480 0
 473 02cc 0010A0E3 		mov	r1, #0
 474              		.loc 1 479 0
 475 02d0 0040A0E1 		mov	r4, r0
 476              	.LVL24:
 477              		.loc 1 480 0
 478 02d4 FEFFFFEB 		bl	ex_getb32
 479 02d8 68309FE5 		ldr	r3, .L69
 480 02dc 030050E1 		cmp	r0, r3
 481 02e0 7F1FA0E3 		mov	r1, #508
 482 02e4 0400A0E1 		mov	r0, r4
 483 02e8 0500001A 		bne	.L64
 484              	.LVL25:
 485 02ec FEFFFFEB 		bl	ex_getb32
ARM GAS  /cygdrive/c/DOCUME~1/mkwapisz/LOCALS~1/Temp/ccPR5o87.s 			page 18


 486              	.LVL26:
 487 02f0 54309FE5 		ldr	r3, .L69+4
 488 02f4 030050E1 		cmp	r0, r3
 481:fs.c          **** 		part_relSect(fs->part,buf);
 482:fs.c          **** 		return(-1);
 483:fs.c          **** 	}
 484:fs.c          **** 	ex_setb32(buf,488,fs->FreeClusterCount);
 489              		.loc 1 484 0
 490 02f8 7A1FA0E3 		mov	r1, #488
 491 02fc 0400A0E1 		mov	r0, r4
 492              		.loc 1 480 0
 493 0300 0400000A 		beq	.L66
 494              	.LVL27:
 495              	.L64:
 496              		.loc 1 481 0
 497 0304 000095E5 		ldr	r0, [r5, #0]
 498              	.LVL28:
 499 0308 0410A0E1 		mov	r1, r4
 500 030c FEFFFFEB 		bl	part_relSect
 501 0310 0000E0E3 		mvn	r0, #0
 502 0314 090000EA 		b	.L67
 503              	.LVL29:
 504              	.L66:
 505              		.loc 1 484 0
 506 0318 342095E5 		ldr	r2, [r5, #52]
 507 031c FEFFFFEB 		bl	ex_setb32
 508              	.LVL30:
 485:fs.c          **** 	ex_setb32(buf,492,fs->NextFreeCluster);
 509              		.loc 1 485 0
 510 0320 0400A0E1 		mov	r0, r4
 511 0324 7B1FA0E3 		mov	r1, #492
 512 0328 382095E5 		ldr	r2, [r5, #56]
 513 032c FEFFFFEB 		bl	ex_setb32
 486:fs.c          **** 	part_relSect(fs->part,buf);
 514              		.loc 1 486 0
 515 0330 000095E5 		ldr	r0, [r5, #0]
 516 0334 0410A0E1 		mov	r1, r4
 517 0338 FEFFFFEB 		bl	part_relSect
 518 033c 0000A0E3 		mov	r0, #0
 519              	.L67:
 487:fs.c          **** 	return(0);
 488:fs.c          **** }
 520              		.loc 1 488 0
 521 0340 3040BDE8 		ldmfd	sp!, {r4, r5, lr}
 522 0344 1EFF2FE1 		bx	lr
 523              	.L70:
 524              		.align	2
 525              	.L69:
 526 0348 52526141 		.word	1096897106
 527 034c 000055AA 		.word	-1437270016
 528              	.LFE24:
 529              		.size	fs_setFsInfo, .-fs_setFsInfo
 530              		.align	2
 531              		.global	fs_getFsInfo
 532              		.type	fs_getFsInfo, %function
 533              	fs_getFsInfo:
 534              	.LFB23:
ARM GAS  /cygdrive/c/DOCUME~1/mkwapisz/LOCALS~1/Temp/ccPR5o87.s 			page 19


 535              		.loc 1 456 0
 536              		@ Function supports interworking.
 537              		@ args = 0, pretend = 0, frame = 0
 538              		@ frame_needed = 0, uses_anonymous_args = 0
 539              	.LVL31:
 540 0350 0130A0E1 		mov	r3, r1
 541              		.loc 1 460 0
 542 0354 0110A0E3 		mov	r1, #1
 543              	.LVL32:
 544              		.loc 1 456 0
 545 0358 70402DE9 		stmfd	sp!, {r4, r5, r6, lr}
 546              	.LCFI4:
 547              		.loc 1 460 0
 548 035c 0120A0E1 		mov	r2, r1
 549              		.loc 1 456 0
 550 0360 0040A0E1 		mov	r4, r0
 551              		.loc 1 460 0
 552 0364 000090E5 		ldr	r0, [r0, #0]
 553              	.LVL33:
 554              		.loc 1 456 0
 555 0368 FF6003E2 		and	r6, r3, #255
 556              		.loc 1 460 0
 557 036c FEFFFFEB 		bl	part_getSect
 558              	.LVL34:
 559              		.loc 1 461 0
 560 0370 0010A0E3 		mov	r1, #0
 561              		.loc 1 460 0
 562 0374 0050A0E1 		mov	r5, r0
 563              	.LVL35:
 564              		.loc 1 461 0
 565 0378 FEFFFFEB 		bl	ex_getb32
 566 037c 84309FE5 		ldr	r3, .L79
 567 0380 030050E1 		cmp	r0, r3
 568 0384 7F1FA0E3 		mov	r1, #508
 569 0388 0500A0E1 		mov	r0, r5
 570 038c 0500001A 		bne	.L72
 571              	.LVL36:
 572 0390 FEFFFFEB 		bl	ex_getb32
 573              	.LVL37:
 574 0394 70309FE5 		ldr	r3, .L79+4
 575 0398 030050E1 		cmp	r0, r3
 576              		.loc 1 465 0
 577 039c 7A1FA0E3 		mov	r1, #488
 578 03a0 0500A0E1 		mov	r0, r5
 579              		.loc 1 461 0
 580 03a4 0400000A 		beq	.L74
 581              	.LVL38:
 582              	.L72:
 583              		.loc 1 462 0
 584 03a8 000094E5 		ldr	r0, [r4, #0]
 585              	.LVL39:
 586 03ac 0510A0E1 		mov	r1, r5
 587 03b0 FEFFFFEB 		bl	part_relSect
 588 03b4 0030E0E3 		mvn	r3, #0
 589 03b8 0F0000EA 		b	.L75
 590              	.LVL40:
 591              	.L74:
ARM GAS  /cygdrive/c/DOCUME~1/mkwapisz/LOCALS~1/Temp/ccPR5o87.s 			page 20


 592              		.loc 1 465 0
 593 03bc FEFFFFEB 		bl	ex_getb32
 594              	.LVL41:
 595              		.loc 1 466 0
 596 03c0 7B1FA0E3 		mov	r1, #492
 597              		.loc 1 465 0
 598 03c4 340084E5 		str	r0, [r4, #52]
 599              		.loc 1 466 0
 600 03c8 0500A0E1 		mov	r0, r5
 601 03cc FEFFFFEB 		bl	ex_getb32
 602              		.loc 1 467 0
 603 03d0 0510A0E1 		mov	r1, r5
 604              		.loc 1 466 0
 605 03d4 380084E5 		str	r0, [r4, #56]
 606              		.loc 1 467 0
 607 03d8 000094E5 		ldr	r0, [r4, #0]
 608 03dc FEFFFFEB 		bl	part_relSect
 609              		.loc 1 468 0
 610 03e0 000056E3 		cmp	r6, #0
 611              		.loc 1 469 0
 612 03e4 0400A0E1 		mov	r0, r4
 613              		.loc 1 468 0
 614 03e8 0630A0E1 		mov	r3, r6
 615 03ec 0200000A 		beq	.L75
 616              	.LVL42:
 617              		.loc 1 469 0
 618 03f0 FEFFFFEB 		bl	fat_countFreeClusters
 619              	.LVL43:
 620 03f4 340084E5 		str	r0, [r4, #52]
 621 03f8 0030A0E3 		mov	r3, #0
 622              	.LVL44:
 623              	.L75:
 624              		.loc 1 472 0
 625 03fc 0300A0E1 		mov	r0, r3
 626 0400 7040BDE8 		ldmfd	sp!, {r4, r5, r6, lr}
 627 0404 1EFF2FE1 		bx	lr
 628              	.L80:
 629              		.align	2
 630              	.L79:
 631 0408 52526141 		.word	1096897106
 632 040c 000055AA 		.word	-1437270016
 633              	.LFE23:
 634              		.size	fs_getFsInfo, .-fs_getFsInfo
 635              		.align	2
 636              		.global	fs_clearCluster
 637              		.type	fs_clearCluster, %function
 638              	fs_clearCluster:
 639              	.LFB22:
 640              		.loc 1 443 0
 641              		@ Function supports interworking.
 642              		@ args = 0, pretend = 0, frame = 0
 643              		@ frame_needed = 0, uses_anonymous_args = 0
 644              	.LVL45:
 645 0410 F0402DE9 		stmfd	sp!, {r4, r5, r6, r7, lr}
 646              	.LCFI5:
 647              		.loc 1 443 0
 648 0414 0050A0E1 		mov	r5, r0
ARM GAS  /cygdrive/c/DOCUME~1/mkwapisz/LOCALS~1/Temp/ccPR5o87.s 			page 21


 649 0418 0170A0E1 		mov	r7, r1
 650 041c 0060A0E3 		mov	r6, #0
 651 0420 0A0000EA 		b	.L82
 652              	.LVL46:
 653              	.L83:
 654              		.loc 1 448 0
 655 0424 FEFFFFEB 		bl	fs_clusterToSector
 656              	.LVL47:
 657 0428 0220A0E3 		mov	r2, #2
 658 042c 041080E0 		add	r1, r0, r4
 659 0430 000095E5 		ldr	r0, [r5, #0]
 660 0434 FEFFFFEB 		bl	part_getSect
 661              		.loc 1 449 0
 662 0438 021CA0E3 		mov	r1, #512
 663              		.loc 1 448 0
 664 043c 0040A0E1 		mov	r4, r0
 665              	.LVL48:
 666              		.loc 1 449 0
 667 0440 FEFFFFEB 		bl	memClr
 668              		.loc 1 450 0
 669 0444 0410A0E1 		mov	r1, r4
 670 0448 000095E5 		ldr	r0, [r5, #0]
 671 044c FEFFFFEB 		bl	part_relSect
 672              	.LVL49:
 673              	.L82:
 674 0450 0638A0E1 		mov	r3, r6, asl #16
 675              		.loc 1 447 0
 676 0454 0620D5E5 		ldrb	r2, [r5, #6]	@ zero_extendqisi2
 677              		.loc 1 450 0
 678 0458 2348A0E1 		mov	r4, r3, lsr #16
 679              	.LVL50:
 680              		.loc 1 447 0
 681 045c 040052E1 		cmp	r2, r4
 682              		.loc 1 448 0
 683 0460 0710A0E1 		mov	r1, r7
 684 0464 0500A0E1 		mov	r0, r5
 685              		.loc 1 450 0
 686 0468 016086E2 		add	r6, r6, #1
 687              		.loc 1 447 0
 688 046c ECFFFF8A 		bhi	.L83
 689              	.LVL51:
 690              		.loc 1 453 0
 691 0470 0000A0E3 		mov	r0, #0
 692              	.LVL52:
 693 0474 F040BDE8 		ldmfd	sp!, {r4, r5, r6, r7, lr}
 694 0478 1EFF2FE1 		bx	lr
 695              	.LFE22:
 696              		.size	fs_clearCluster, .-fs_clearCluster
 697              		.align	2
 698              		.global	fs_flushFs
 699              		.type	fs_flushFs, %function
 700              	fs_flushFs:
 701              	.LFB20:
 702              		.loc 1 431 0
 703              		@ Function supports interworking.
 704              		@ args = 0, pretend = 0, frame = 0
 705              		@ frame_needed = 0, uses_anonymous_args = 0
ARM GAS  /cygdrive/c/DOCUME~1/mkwapisz/LOCALS~1/Temp/ccPR5o87.s 			page 22


 706              	.LVL53:
 707              		.loc 1 432 0
 708 047c 282090E5 		ldr	r2, [r0, #40]
 709              		.loc 1 431 0
 710 0480 04E02DE5 		str	lr, [sp, #-4]!
 711              	.LCFI6:
 712              		.loc 1 432 0
 713 0484 0010A0E3 		mov	r1, #0
 714 0488 000090E5 		ldr	r0, [r0, #0]
 715              	.LVL54:
 716 048c FEFFFFEB 		bl	part_flushPart
 717 0490 000CA0E1 		mov	r0, r0, asl #24
 718              		.loc 1 433 0
 719 0494 400CA0E1 		mov	r0, r0, asr #24
 720 0498 04E09DE4 		ldr	lr, [sp], #4
 721 049c 1EFF2FE1 		bx	lr
 722              	.LFE20:
 723              		.size	fs_flushFs, .-fs_flushFs
 724              		.align	2
 725              		.global	fs_umount
 726              		.type	fs_umount, %function
 727              	fs_umount:
 728              	.LFB21:
 729              		.loc 1 437 0
 730              		@ Function supports interworking.
 731              		@ args = 0, pretend = 0, frame = 0
 732              		@ frame_needed = 0, uses_anonymous_args = 0
 733              	.LVL55:
 734 04a0 04E02DE5 		str	lr, [sp, #-4]!
 735              	.LCFI7:
 736              		.loc 1 438 0
 737 04a4 FEFFFFEB 		bl	fs_flushFs
 738              	.LVL56:
 739 04a8 000CA0E1 		mov	r0, r0, asl #24
 740              		.loc 1 439 0
 741 04ac 400CA0E1 		mov	r0, r0, asr #24
 742 04b0 04E09DE4 		ldr	lr, [sp], #4
 743 04b4 1EFF2FE1 		bx	lr
 744              	.LFE21:
 745              		.size	fs_umount, .-fs_umount
 746              		.align	2
 747              		.global	fs_getLastCluster
 748              		.type	fs_getLastCluster, %function
 749              	fs_getLastCluster:
 750              	.LFB16:
 751              		.loc 1 380 0
 752              		@ Function supports interworking.
 753              		@ args = 0, pretend = 0, frame = 0
 754              		@ frame_needed = 0, uses_anonymous_args = 0
 755              	.LVL57:
 756              		.loc 1 381 0
 757 04b8 082091E5 		ldr	r2, [r1, #8]
 758 04bc 000052E3 		cmp	r2, #0
 759              		.loc 1 382 0
 760 04c0 0C309105 		ldreq	r3, [r1, #12]
 761 04c4 08308105 		streq	r3, [r1, #8]
 762              		.loc 1 386 0
ARM GAS  /cygdrive/c/DOCUME~1/mkwapisz/LOCALS~1/Temp/ccPR5o87.s 			page 23


 763 04c8 103091E5 		ldr	r3, [r1, #16]
 764              		.loc 1 383 0
 765 04cc 04208105 		streq	r2, [r1, #4]
 766              		.loc 1 386 0
 767 04d0 000053E3 		cmp	r3, #0
 768              		.loc 1 380 0
 769 04d4 30402DE9 		stmfd	sp!, {r4, r5, lr}
 770              	.LCFI8:
 771              		.loc 1 380 0
 772 04d8 0140A0E1 		mov	r4, r1
 773 04dc 0050A0E1 		mov	r5, r0
 774              		.loc 1 386 0
 775 04e0 0800000A 		beq	.L97
 776              	.LVL58:
 777 04e4 0D0000EA 		b	.L94
 778              	.LVL59:
 779              	.L95:
 780              		.loc 1 390 0
 781 04e8 0030D4E5 		ldrb	r3, [r4, #0]	@ zero_extendqisi2
 782 04ec 042094E5 		ldr	r2, [r4, #4]
 783              		.loc 1 391 0
 784 04f0 081094E5 		ldr	r1, [r4, #8]
 785              		.loc 1 390 0
 786 04f4 032082E0 		add	r2, r2, r3
 787              		.loc 1 391 0
 788 04f8 031081E0 		add	r1, r1, r3
 789              		.loc 1 390 0
 790 04fc 042084E5 		str	r2, [r4, #4]
 791              		.loc 1 391 0
 792 0500 081084E5 		str	r1, [r4, #8]
 793              		.loc 1 392 0
 794 0504 0000C4E5 		strb	r0, [r4, #0]
 795              	.LVL60:
 796              	.L97:
 797              		.loc 1 388 0
 798 0508 0500A0E1 		mov	r0, r5
 799 050c 0410A0E1 		mov	r1, r4
 800 0510 FEFFFFEB 		bl	fat_getNextClusterChain
 801 0514 0008A0E1 		mov	r0, r0, asl #16
 802 0518 2008B0E1 		movs	r0, r0, lsr #16
 803 051c F1FFFF0A 		beq	.L95
 804              	.LVL61:
 805              	.L94:
 806              		.loc 1 396 0
 807 0520 100094E5 		ldr	r0, [r4, #16]
 808 0524 3040BDE8 		ldmfd	sp!, {r4, r5, lr}
 809 0528 1EFF2FE1 		bx	lr
 810              	.LFE16:
 811              		.size	fs_getLastCluster, .-fs_getLastCluster
 812              		.align	2
 813              		.global	fs_findFile
 814              		.type	fs_findFile, %function
 815              	fs_findFile:
 816              	.LFB14:
 817              		.loc 1 300 0
 818              		@ Function supports interworking.
 819              		@ args = 0, pretend = 0, frame = 20
ARM GAS  /cygdrive/c/DOCUME~1/mkwapisz/LOCALS~1/Temp/ccPR5o87.s 			page 24


 820              		@ frame_needed = 0, uses_anonymous_args = 0
 821              	.LVL62:
 822 052c F04F2DE9 		stmfd	sp!, {r4, r5, r6, r7, r8, r9, sl, fp, lr}
 823              	.LCFI9:
 824 0530 01C0A0E1 		mov	ip, r1
 825              		.loc 1 304 0
 826 0534 0010D1E5 		ldrb	r1, [r1, #0]	@ zero_extendqisi2
 827              	.LVL63:
 828              		.loc 1 300 0
 829 0538 18D04DE2 		sub	sp, sp, #24
 830              	.LCFI10:
 831              		.loc 1 304 0
 832 053c 2F0051E3 		cmp	r1, #47
 833              		.loc 1 300 0
 834 0540 0090A0E1 		mov	r9, r0
 835 0544 04208DE5 		str	r2, [sp, #4]
 836 0548 0350A0E1 		mov	r5, r3
 837              		.loc 1 304 0
 838 054c 0A00001A 		bne	.L99
 839              	.LVL64:
 840              	.LBB8:
 841              	.LBB9:
 842              		.loc 1 401 0
 843 0550 3C30D0E5 		ldrb	r3, [r0, #60]	@ zero_extendqisi2
 844 0554 030053E3 		cmp	r3, #3
 845              		.loc 1 403 0
 846 0558 1C709005 		ldreq	r7, [r0, #28]
 847              	.LVL65:
 848              		.loc 1 401 0
 849 055c 0170A013 		movne	r7, #1
 850              	.LBE9:
 851              	.LBE8:
 852              		.loc 1 307 0
 853 0560 000055E3 		cmp	r5, #0
 854 0564 00708515 		strne	r7, [r5, #0]
 855              		.loc 1 306 0
 856 0568 01C08CE2 		add	ip, ip, #1
 857              		.loc 1 308 0
 858 056c 0030DCE5 		ldrb	r3, [ip, #0]	@ zero_extendqisi2
 859 0570 000053E3 		cmp	r3, #0
 860 0574 0300001A 		bne	.L107
 861              	.LVL66:
 862 0578 440000EA 		b	.L106
 863              	.LVL67:
 864              	.L99:
 865              		.loc 1 312 0
 866 057c 307090E5 		ldr	r7, [r0, #48]
 867              	.LVL68:
 868              		.loc 1 313 0
 869 0580 000053E3 		cmp	r3, #0
 870 0584 00708315 		strne	r7, [r3, #0]
 871              	.LVL69:
 872              	.L107:
 873 0588 00B0A0E3 		mov	fp, #0
 874              	.LVL70:
 875 058c 08B08DE5 		str	fp, [sp, #8]
 876 0590 2D0000EA 		b	.L109
ARM GAS  /cygdrive/c/DOCUME~1/mkwapisz/LOCALS~1/Temp/ccPR5o87.s 			page 25


 877              	.LVL71:
 878              	.L110:
 879              		.loc 1 318 0
 880 0594 00C0A0E3 		mov	ip, #0
 881 0598 0900A0E1 		mov	r0, r9
 882 059c 0A10A0E1 		mov	r1, sl
 883 05a0 0720A0E1 		mov	r2, r7
 884 05a4 04309DE5 		ldr	r3, [sp, #4]
 885              	.LVL72:
 886 05a8 00C08DE5 		str	ip, [sp, #0]
 887 05ac FEFFFFEB 		bl	dir_findinDir
 888 05b0 004050E2 		subs	r4, r0, #0
 889 05b4 0900001A 		bne	.L111
 890              		.loc 1 323 0
 891 05b8 0800A0E1 		mov	r0, r8
 892 05bc 0A10A0E1 		mov	r1, sl
 893 05c0 FEFFFFEB 		bl	file_normalToFatName
 894 05c4 000050E3 		cmp	r0, #0
 895 05c8 3200000A 		beq	.L113
 896              		.loc 1 324 0
 897 05cc 000055E3 		cmp	r5, #0
 898 05d0 0400A011 		movne	r0, r4
 899 05d4 00408515 		strne	r4, [r5, #0]
 900 05d8 2F00001A 		bne	.L116
 901 05dc 2D0000EA 		b	.L113
 902              	.L111:
 903              		.loc 1 329 0
 904 05e0 04209DE5 		ldr	r2, [sp, #4]
 905 05e4 0530D2E5 		ldrb	r3, [r2, #5]	@ zero_extendqisi2
 906 05e8 106013E2 		ands	r6, r3, #16
 907 05ec 0700000A 		beq	.L117
 908              		.loc 1 332 0
 909 05f0 000055E3 		cmp	r5, #0
 910 05f4 00408515 		strne	r4, [r5, #0]
 911              		.loc 1 333 0
 912 05f8 00005BE3 		cmp	fp, #0
 913 05fc 0030A013 		movne	r3, #0
 914 0600 0470A001 		moveq	r7, r4
 915 0604 0470A011 		movne	r7, r4
 916 0608 00308515 		strne	r3, [r5, #0]
 917 060c 0A0000EA 		b	.L123
 918              	.L117:
 919              		.loc 1 336 0
 920 0610 0A10A0E1 		mov	r1, sl
 921 0614 0800A0E1 		mov	r0, r8
 922 0618 FEFFFFEB 		bl	file_normalToFatName
 923 061c 000050E3 		cmp	r0, #0
 924 0620 0400000A 		beq	.L124
 925              		.loc 1 337 0
 926 0624 000055E3 		cmp	r5, #0
 927 0628 0600A011 		movne	r0, r6
 928 062c 00608515 		strne	r6, [r5, #0]
 929 0630 1900001A 		bne	.L116
 930 0634 170000EA 		b	.L113
 931              	.L124:
 932 0638 01B0A0E3 		mov	fp, #1
 933              	.L123:
ARM GAS  /cygdrive/c/DOCUME~1/mkwapisz/LOCALS~1/Temp/ccPR5o87.s 			page 26


 934 063c 08C09DE5 		ldr	ip, [sp, #8]
 935 0640 01C08CE2 		add	ip, ip, #1
 936 0644 08C08DE5 		str	ip, [sp, #8]
 937 0648 08C0A0E1 		mov	ip, r8
 938              	.LVL73:
 939              	.L109:
 940              		.loc 1 317 0
 941 064c 0DA08DE2 		add	sl, sp, #13
 942 0650 0C00A0E1 		mov	r0, ip
 943 0654 0A10A0E1 		mov	r1, sl
 944 0658 FEFFFFEB 		bl	file_normalToFatName
 945              	.LVL74:
 946              		.loc 1 337 0
 947 065c 08209DE5 		ldr	r2, [sp, #8]
 948              		.loc 1 317 0
 949 0660 008050E2 		subs	r8, r0, #0
 950              		.loc 1 337 0
 951 0664 FF3002E2 		and	r3, r2, #255
 952              	.LVL75:
 953              		.loc 1 317 0
 954 0668 C9FFFF1A 		bne	.L110
 955              		.loc 1 345 0
 956 066c 000053E3 		cmp	r3, #0
 957 0670 0800000A 		beq	.L113
 958              		.loc 1 346 0
 959 0674 04C09DE5 		ldr	ip, [sp, #4]
 960 0678 0530DCE5 		ldrb	r3, [ip, #5]	@ zero_extendqisi2
 961              	.LVL76:
 962 067c 01202BE2 		eor	r2, fp, #1
 963 0680 833DA0E1 		mov	r3, r3, asl #27
 964 0684 A33F92E1 		orrs	r3, r2, r3, lsr #31
 965 0688 01008002 		addeq	r0, r0, #1
 966 068c 0200000A 		beq	.L116
 967              	.LVL77:
 968              	.L106:
 969 0690 0200A0E3 		mov	r0, #2
 970 0694 000000EA 		b	.L116
 971              	.LVL78:
 972              	.L113:
 973 0698 0000A0E3 		mov	r0, #0
 974              	.LVL79:
 975              	.L116:
 976              		.loc 1 348 0
 977 069c 18D08DE2 		add	sp, sp, #24
 978 06a0 F04FBDE8 		ldmfd	sp!, {r4, r5, r6, r7, r8, r9, sl, fp, lr}
 979 06a4 1EFF2FE1 		bx	lr
 980              	.LFE14:
 981              		.size	fs_findFile, .-fs_findFile
 982              		.align	2
 983              		.global	fs_findFreeFile
 984              		.type	fs_findFreeFile, %function
 985              	fs_findFreeFile:
 986              	.LFB15:
 987              		.loc 1 352 0
 988              		@ Function supports interworking.
 989              		@ args = 0, pretend = 0, frame = 16
 990              		@ frame_needed = 0, uses_anonymous_args = 0
ARM GAS  /cygdrive/c/DOCUME~1/mkwapisz/LOCALS~1/Temp/ccPR5o87.s 			page 27


 991              	.LVL80:
 992 06a8 F0402DE9 		stmfd	sp!, {r4, r5, r6, r7, lr}
 993              	.LCFI11:
 994 06ac 14D04DE2 		sub	sp, sp, #20
 995              	.LCFI12:
 996              		.loc 1 353 0
 997 06b0 14308DE2 		add	r3, sp, #20
 998              	.LVL81:
 999 06b4 00C0A0E3 		mov	ip, #0
 1000 06b8 04C023E5 		str	ip, [r3, #-4]!
 1001              	.LVL82:
 1002              		.loc 1 352 0
 1003 06bc 0140A0E1 		mov	r4, r1
 1004 06c0 0270A0E1 		mov	r7, r2
 1005 06c4 0050A0E1 		mov	r5, r0
 1006              		.loc 1 356 0
 1007 06c8 FEFFFFEB 		bl	fs_findFile
 1008              	.LVL83:
 1009              		.loc 1 357 0
 1010 06cc 05608DE2 		add	r6, sp, #5
 1011              		.loc 1 356 0
 1012 06d0 FF0010E3 		tst	r0, #255
 1013              		.loc 1 357 0
 1014 06d4 0610A0E1 		mov	r1, r6
 1015 06d8 0400A0E1 		mov	r0, r4
 1016              		.loc 1 356 0
 1017 06dc 1A00001A 		bne	.L132
 1018              	.LVL84:
 1019              		.loc 1 357 0
 1020 06e0 FEFFFFEB 		bl	dir_getFatFileName
 1021              	.LVL85:
 1022 06e4 FF0010E3 		tst	r0, #255
 1023              		.loc 1 358 0
 1024 06e8 0140A0E3 		mov	r4, #1
 1025              	.LVL86:
 1026 06ec 0730A0E1 		mov	r3, r7
 1027 06f0 0610A0E1 		mov	r1, r6
 1028 06f4 0500A0E1 		mov	r0, r5
 1029              		.loc 1 357 0
 1030 06f8 1300000A 		beq	.L132
 1031              	.LVL87:
 1032              		.loc 1 358 0
 1033 06fc 10209DE5 		ldr	r2, [sp, #16]
 1034 0700 00408DE5 		str	r4, [sp, #0]
 1035 0704 FEFFFFEB 		bl	dir_findinDir
 1036              	.LVL88:
 1037 0708 000050E3 		cmp	r0, #0
 1038 070c 0430A0E1 		mov	r3, r4
 1039              		.loc 1 361 0
 1040 0710 0500A0E1 		mov	r0, r5
 1041              		.loc 1 358 0
 1042 0714 0D00001A 		bne	.L137
 1043              	.LVL89:
 1044              		.loc 1 361 0
 1045 0718 10109DE5 		ldr	r1, [sp, #16]
 1046 071c FEFFFFEB 		bl	dir_addCluster
 1047              	.LVL90:
ARM GAS  /cygdrive/c/DOCUME~1/mkwapisz/LOCALS~1/Temp/ccPR5o87.s 			page 28


 1048 0720 FF0010E3 		tst	r0, #255
 1049              		.loc 1 364 0
 1050 0724 0610A0E1 		mov	r1, r6
 1051 0728 0730A0E1 		mov	r3, r7
 1052 072c 0500A0E1 		mov	r0, r5
 1053              		.loc 1 361 0
 1054 0730 0500001A 		bne	.L132
 1055              	.LVL91:
 1056              		.loc 1 364 0
 1057 0734 10209DE5 		ldr	r2, [sp, #16]
 1058 0738 00408DE5 		str	r4, [sp, #0]
 1059 073c FEFFFFEB 		bl	dir_findinDir
 1060              	.LVL92:
 1061 0740 003050E2 		subs	r3, r0, #0
 1062 0744 0130A013 		movne	r3, #1
 1063 0748 000000EA 		b	.L137
 1064              	.LVL93:
 1065              	.L132:
 1066 074c 0030A0E3 		mov	r3, #0
 1067              	.L137:
 1068              		.loc 1 371 0
 1069 0750 0300A0E1 		mov	r0, r3
 1070              	.LVL94:
 1071 0754 14D08DE2 		add	sp, sp, #20
 1072 0758 F040BDE8 		ldmfd	sp!, {r4, r5, r6, r7, lr}
 1073 075c 1EFF2FE1 		bx	lr
 1074              	.LFE15:
 1075              		.size	fs_findFreeFile, .-fs_findFreeFile
 1076              		.align	2
 1077              		.global	fs_getNextFreeCluster
 1078              		.type	fs_getNextFreeCluster, %function
 1079              	fs_getNextFreeCluster:
 1080              	.LFB12:
 1081              		.loc 1 253 0
 1082              		@ Function supports interworking.
 1083              		@ args = 0, pretend = 0, frame = 0
 1084              		@ frame_needed = 0, uses_anonymous_args = 0
 1085              	.LVL95:
 1086 0760 30402DE9 		stmfd	sp!, {r4, r5, lr}
 1087              	.LCFI13:
 1088              		.loc 1 253 0
 1089 0764 0050A0E1 		mov	r5, r0
 1090 0768 0140A0E1 		mov	r4, r1
 1091 076c 030000EA 		b	.L141
 1092              	.L142:
 1093              		.loc 1 257 0
 1094 0770 FEFFFFEB 		bl	fat_getNextClusterAddress
 1095              	.LVL96:
 1096              		.loc 1 258 0
 1097 0774 000050E3 		cmp	r0, #0
 1098 0778 0700000A 		beq	.L143
 1099              		.loc 1 261 0
 1100 077c 014084E2 		add	r4, r4, #1
 1101              	.LVL97:
 1102              	.L141:
 1103              		.loc 1 256 0
 1104 0780 203095E5 		ldr	r3, [r5, #32]
ARM GAS  /cygdrive/c/DOCUME~1/mkwapisz/LOCALS~1/Temp/ccPR5o87.s 			page 29


 1105 0784 030054E1 		cmp	r4, r3
 1106              		.loc 1 257 0
 1107 0788 0410A0E1 		mov	r1, r4
 1108 078c 0500A0E1 		mov	r0, r5
 1109 0790 0020A0E3 		mov	r2, #0
 1110              		.loc 1 256 0
 1111 0794 F5FFFF3A 		bcc	.L142
 1112              	.LVL98:
 1113 0798 0240A0E1 		mov	r4, r2
 1114              	.LVL99:
 1115              	.L143:
 1116              		.loc 1 264 0
 1117 079c 0400A0E1 		mov	r0, r4
 1118 07a0 3040BDE8 		ldmfd	sp!, {r4, r5, lr}
 1119 07a4 1EFF2FE1 		bx	lr
 1120              	.LFE12:
 1121              		.size	fs_getNextFreeCluster, .-fs_getNextFreeCluster
 1122              		.align	2
 1123              		.global	fs_loadVolumeId
 1124              		.type	fs_loadVolumeId, %function
 1125              	fs_loadVolumeId:
 1126              	.LFB4:
 1127              		.loc 1 53 0
 1128              		@ Function supports interworking.
 1129              		@ args = 0, pretend = 0, frame = 0
 1130              		@ frame_needed = 0, uses_anonymous_args = 0
 1131              	.LVL100:
 1132 07a8 70402DE9 		stmfd	sp!, {r4, r5, r6, lr}
 1133              	.LCFI14:
 1134              		.loc 1 53 0
 1135 07ac 0160A0E1 		mov	r6, r1
 1136 07b0 0050A0E1 		mov	r5, r0
 1137              		.loc 1 56 0
 1138 07b4 0520A0E3 		mov	r2, #5
 1139 07b8 0010A0E3 		mov	r1, #0
 1140              	.LVL101:
 1141 07bc 0600A0E1 		mov	r0, r6
 1142              	.LVL102:
 1143 07c0 FEFFFFEB 		bl	part_getSect
 1144              		.loc 1 58 0
 1145 07c4 0B10A0E3 		mov	r1, #11
 1146              		.loc 1 56 0
 1147 07c8 0040A0E1 		mov	r4, r0
 1148              	.LVL103:
 1149              		.loc 1 58 0
 1150 07cc FEFFFFEB 		bl	ex_getb16
 1151 07d0 B400C5E1 		strh	r0, [r5, #4]	@ movhi
 1152              		.loc 1 59 0
 1153 07d4 0D30D4E5 		ldrb	r3, [r4, #13]	@ zero_extendqisi2
 1154              		.loc 1 60 0
 1155 07d8 0E10A0E3 		mov	r1, #14
 1156              		.loc 1 59 0
 1157 07dc 0630C5E5 		strb	r3, [r5, #6]
 1158              		.loc 1 60 0
 1159 07e0 0400A0E1 		mov	r0, r4
 1160 07e4 FEFFFFEB 		bl	ex_getb16
 1161 07e8 B800C5E1 		strh	r0, [r5, #8]	@ movhi
ARM GAS  /cygdrive/c/DOCUME~1/mkwapisz/LOCALS~1/Temp/ccPR5o87.s 			page 30


 1162              		.loc 1 61 0
 1163 07ec 1030D4E5 		ldrb	r3, [r4, #16]	@ zero_extendqisi2
 1164              		.loc 1 62 0
 1165 07f0 1110A0E3 		mov	r1, #17
 1166              		.loc 1 61 0
 1167 07f4 0A30C5E5 		strb	r3, [r5, #10]
 1168              		.loc 1 62 0
 1169 07f8 0400A0E1 		mov	r0, r4
 1170 07fc FEFFFFEB 		bl	ex_getb16
 1171              		.loc 1 63 0
 1172 0800 1310A0E3 		mov	r1, #19
 1173              		.loc 1 62 0
 1174 0804 BC00C5E1 		strh	r0, [r5, #12]	@ movhi
 1175              		.loc 1 63 0
 1176 0808 0400A0E1 		mov	r0, r4
 1177 080c FEFFFFEB 		bl	ex_getb16
 1178              		.loc 1 64 0
 1179 0810 1610A0E3 		mov	r1, #22
 1180              		.loc 1 63 0
 1181 0814 BE00C5E1 		strh	r0, [r5, #14]	@ movhi
 1182              		.loc 1 64 0
 1183 0818 0400A0E1 		mov	r0, r4
 1184 081c FEFFFFEB 		bl	ex_getb16
 1185              		.loc 1 65 0
 1186 0820 2010A0E3 		mov	r1, #32
 1187              		.loc 1 64 0
 1188 0824 B001C5E1 		strh	r0, [r5, #16]	@ movhi
 1189              		.loc 1 65 0
 1190 0828 0400A0E1 		mov	r0, r4
 1191 082c FEFFFFEB 		bl	ex_getb32
 1192              		.loc 1 66 0
 1193 0830 2410A0E3 		mov	r1, #36
 1194              		.loc 1 65 0
 1195 0834 140085E5 		str	r0, [r5, #20]
 1196              		.loc 1 66 0
 1197 0838 0400A0E1 		mov	r0, r4
 1198 083c FEFFFFEB 		bl	ex_getb32
 1199              		.loc 1 67 0
 1200 0840 2C10A0E3 		mov	r1, #44
 1201              		.loc 1 66 0
 1202 0844 180085E5 		str	r0, [r5, #24]
 1203              		.loc 1 67 0
 1204 0848 0400A0E1 		mov	r0, r4
 1205 084c FEFFFFEB 		bl	ex_getb32
 1206              		.loc 1 69 0
 1207 0850 0410A0E1 		mov	r1, r4
 1208              		.loc 1 67 0
 1209 0854 1C0085E5 		str	r0, [r5, #28]
 1210              		.loc 1 69 0
 1211 0858 0600A0E1 		mov	r0, r6
 1212 085c FEFFFFEB 		bl	part_relSect
 1213              		.loc 1 71 0
 1214 0860 7040BDE8 		ldmfd	sp!, {r4, r5, r6, lr}
 1215 0864 1EFF2FE1 		bx	lr
 1216              	.LFE4:
 1217              		.size	fs_loadVolumeId, .-fs_loadVolumeId
 1218              		.align	2
ARM GAS  /cygdrive/c/DOCUME~1/mkwapisz/LOCALS~1/Temp/ccPR5o87.s 			page 31


 1219              		.global	fs_isValidFat
 1220              		.type	fs_isValidFat, %function
 1221              	fs_isValidFat:
 1222              	.LFB3:
 1223              		.loc 1 36 0
 1224              		@ Function supports interworking.
 1225              		@ args = 0, pretend = 0, frame = 0
 1226              		@ frame_needed = 0, uses_anonymous_args = 0
 1227              	.LVL104:
 1228 0868 30402DE9 		stmfd	sp!, {r4, r5, lr}
 1229              	.LCFI15:
 1230              		.loc 1 39 0
 1231 086c 0520A0E3 		mov	r2, #5
 1232 0870 0010A0E3 		mov	r1, #0
 1233              		.loc 1 36 0
 1234 0874 0050A0E1 		mov	r5, r0
 1235              		.loc 1 39 0
 1236 0878 FEFFFFEB 		bl	part_getSect
 1237              	.LVL105:
 1238              		.loc 1 40 0
 1239 087c 30109FE5 		ldr	r1, .L154
 1240              		.loc 1 39 0
 1241 0880 0040A0E1 		mov	r4, r0
 1242              	.LVL106:
 1243              		.loc 1 40 0
 1244 0884 FEFFFFEB 		bl	ex_getb16
 1245 0888 28309FE5 		ldr	r3, .L154+4
 1246 088c 030050E1 		cmp	r0, r3
 1247              		.loc 1 43 0
 1248 0890 0410A0E1 		mov	r1, r4
 1249 0894 0500A0E1 		mov	r0, r5
 1250              		.loc 1 40 0
 1251 0898 0030A0E3 		mov	r3, #0
 1252 089c 0100001A 		bne	.L152
 1253              	.LVL107:
 1254              		.loc 1 43 0
 1255 08a0 FEFFFFEB 		bl	part_relSect
 1256              	.LVL108:
 1257 08a4 0130A0E3 		mov	r3, #1
 1258              	.LVL109:
 1259              	.L152:
 1260              		.loc 1 45 0
 1261 08a8 0300A0E1 		mov	r0, r3
 1262 08ac 3040BDE8 		ldmfd	sp!, {r4, r5, lr}
 1263 08b0 1EFF2FE1 		bx	lr
 1264              	.L155:
 1265              		.align	2
 1266              	.L154:
 1267 08b4 FE010000 		.word	510
 1268 08b8 55AA0000 		.word	43605
 1269              	.LFE3:
 1270              		.size	fs_isValidFat, .-fs_isValidFat
 1271              		.align	2
 1272              		.global	fs_initFs
 1273              		.type	fs_initFs, %function
 1274              	fs_initFs:
 1275              	.LFB2:
ARM GAS  /cygdrive/c/DOCUME~1/mkwapisz/LOCALS~1/Temp/ccPR5o87.s 			page 32


 1276              		.loc 1 14 0
 1277              		@ Function supports interworking.
 1278              		@ args = 0, pretend = 0, frame = 0
 1279              		@ frame_needed = 0, uses_anonymous_args = 0
 1280              	.LVL110:
 1281 08bc 30402DE9 		stmfd	sp!, {r4, r5, lr}
 1282              	.LCFI16:
 1283              		.loc 1 14 0
 1284 08c0 0040A0E1 		mov	r4, r0
 1285              		.loc 1 15 0
 1286 08c4 0100A0E1 		mov	r0, r1
 1287              	.LVL111:
 1288              		.loc 1 14 0
 1289 08c8 0150A0E1 		mov	r5, r1
 1290              		.loc 1 15 0
 1291 08cc FEFFFFEB 		bl	fs_isValidFat
 1292              	.LVL112:
 1293 08d0 0008B0E1 		movs	r0, r0, asl #16
 1294              		.loc 1 19 0
 1295 08d4 0510A0E1 		mov	r1, r5
 1296 08d8 0400A0E1 		mov	r0, r4
 1297              		.loc 1 15 0
 1298 08dc 0030E0E3 		mvn	r3, #0
 1299 08e0 1200000A 		beq	.L159
 1300              	.LVL113:
 1301              		.loc 1 18 0
 1302 08e4 005084E5 		str	r5, [r4, #0]
 1303              		.loc 1 19 0
 1304 08e8 FEFFFFEB 		bl	fs_loadVolumeId
 1305              	.LVL114:
 1306              		.loc 1 20 0
 1307 08ec 0400A0E1 		mov	r0, r4
 1308 08f0 FEFFFFEB 		bl	fs_verifySanity
 1309 08f4 000050E3 		cmp	r0, #0
 1310 08f8 0130E0E3 		mvn	r3, #1
 1311              		.loc 1 21 0
 1312 08fc 0400A0E1 		mov	r0, r4
 1313              		.loc 1 20 0
 1314 0900 0A00000A 		beq	.L159
 1315              	.LVL115:
 1316              		.loc 1 21 0
 1317 0904 FEFFFFEB 		bl	fs_countDataSectors
 1318              	.LVL116:
 1319              		.loc 1 22 0
 1320 0908 0400A0E1 		mov	r0, r4
 1321 090c FEFFFFEB 		bl	fs_determineFatType
 1322              		.loc 1 23 0
 1323 0910 0400A0E1 		mov	r0, r4
 1324 0914 FEFFFFEB 		bl	fs_findFirstSectorRootDir
 1325              	.LBB14:
 1326              	.LBB15:
 1327              	.LBB16:
 1328              	.LBB17:
 1329              		.loc 1 401 0
 1330 0918 3C30D4E5 		ldrb	r3, [r4, #60]	@ zero_extendqisi2
 1331 091c 030053E3 		cmp	r3, #3
 1332 0920 0130A0E3 		mov	r3, #1
ARM GAS  /cygdrive/c/DOCUME~1/mkwapisz/LOCALS~1/Temp/ccPR5o87.s 			page 33


 1333              		.loc 1 403 0
 1334 0924 1C309405 		ldreq	r3, [r4, #28]
 1335              	.LBE17:
 1336              	.LBE16:
 1337              		.loc 1 191 0
 1338 0928 303084E5 		str	r3, [r4, #48]
 1339 092c 0030A0E3 		mov	r3, #0
 1340              	.LVL117:
 1341              	.L159:
 1342              	.LBE15:
 1343              	.LBE14:
 1344              		.loc 1 26 0
 1345 0930 0300A0E1 		mov	r0, r3
 1346 0934 3040BDE8 		ldmfd	sp!, {r4, r5, lr}
 1347 0938 1EFF2FE1 		bx	lr
 1348              	.LFE2:
 1349              		.size	fs_initFs, .-fs_initFs
 1350              		.section	.debug_frame,"",%progbits
 1351              	.Lframe0:
 1352 0000 0C000000 		.4byte	.LECIE0-.LSCIE0
 1353              	.LSCIE0:
 1354 0004 FFFFFFFF 		.4byte	0xffffffff
 1355 0008 01       		.byte	0x1
 1356 0009 00       		.ascii	"\000"
 1357 000a 01       		.uleb128 0x1
 1358 000b 7C       		.sleb128 -4
 1359 000c 0E       		.byte	0xe
 1360 000d 0C       		.byte	0xc
 1361 000e 0D       		.uleb128 0xd
 1362 000f 00       		.uleb128 0x0
 1363              		.align	2
 1364              	.LECIE0:
 1365              	.LSFDE0:
 1366 0010 14000000 		.4byte	.LEFDE0-.LASFDE0
 1367              	.LASFDE0:
 1368 0014 00000000 		.4byte	.Lframe0
 1369 0018 00000000 		.4byte	.LFB5
 1370 001c B8000000 		.4byte	.LFE5-.LFB5
 1371 0020 44       		.byte	0x4
 1372              		.4byte	.LCFI0-.LFB5
 1373 0021 0E       		.byte	0xe
 1374 0022 04       		.uleb128 0x4
 1375 0023 8E       		.byte	0x8e
 1376 0024 01       		.uleb128 0x1
 1377 0025 000000   		.align	2
 1378              	.LEFDE0:
 1379              	.LSFDE2:
 1380 0028 18000000 		.4byte	.LEFDE2-.LASFDE2
 1381              	.LASFDE2:
 1382 002c 00000000 		.4byte	.Lframe0
 1383 0030 B8000000 		.4byte	.LFB6
 1384 0034 8C000000 		.4byte	.LFE6-.LFB6
 1385 0038 48       		.byte	0x4
 1386              		.4byte	.LCFI1-.LFB6
 1387 0039 0E       		.byte	0xe
 1388 003a 0C       		.uleb128 0xc
 1389 003b 8E       		.byte	0x8e
ARM GAS  /cygdrive/c/DOCUME~1/mkwapisz/LOCALS~1/Temp/ccPR5o87.s 			page 34


 1390 003c 01       		.uleb128 0x1
 1391 003d 85       		.byte	0x85
 1392 003e 02       		.uleb128 0x2
 1393 003f 84       		.byte	0x84
 1394 0040 03       		.uleb128 0x3
 1395 0041 000000   		.align	2
 1396              	.LEFDE2:
 1397              	.LSFDE4:
 1398 0044 0C000000 		.4byte	.LEFDE4-.LASFDE4
 1399              	.LASFDE4:
 1400 0048 00000000 		.4byte	.Lframe0
 1401 004c 44010000 		.4byte	.LFB7
 1402 0050 44000000 		.4byte	.LFE7-.LFB7
 1403              		.align	2
 1404              	.LEFDE4:
 1405              	.LSFDE6:
 1406 0054 0C000000 		.4byte	.LEFDE6-.LASFDE6
 1407              	.LASFDE6:
 1408 0058 00000000 		.4byte	.Lframe0
 1409 005c 88010000 		.4byte	.LFB8
 1410 0060 38000000 		.4byte	.LFE8-.LFB8
 1411              		.align	2
 1412              	.LEFDE6:
 1413              	.LSFDE8:
 1414 0064 0C000000 		.4byte	.LEFDE8-.LASFDE8
 1415              	.LASFDE8:
 1416 0068 00000000 		.4byte	.Lframe0
 1417 006c C0010000 		.4byte	.LFB9
 1418 0070 18000000 		.4byte	.LFE9-.LFB9
 1419              		.align	2
 1420              	.LEFDE8:
 1421              	.LSFDE10:
 1422 0074 0C000000 		.4byte	.LEFDE10-.LASFDE10
 1423              	.LASFDE10:
 1424 0078 00000000 		.4byte	.Lframe0
 1425 007c D8010000 		.4byte	.LFB10
 1426 0080 34000000 		.4byte	.LFE10-.LFB10
 1427              		.align	2
 1428              	.LEFDE10:
 1429              	.LSFDE12:
 1430 0084 18000000 		.4byte	.LEFDE12-.LASFDE12
 1431              	.LASFDE12:
 1432 0088 00000000 		.4byte	.Lframe0
 1433 008c 0C020000 		.4byte	.LFB11
 1434 0090 58000000 		.4byte	.LFE11-.LFB11
 1435 0094 44       		.byte	0x4
 1436              		.4byte	.LCFI2-.LFB11
 1437 0095 0E       		.byte	0xe
 1438 0096 0C       		.uleb128 0xc
 1439 0097 8E       		.byte	0x8e
 1440 0098 01       		.uleb128 0x1
 1441 0099 85       		.byte	0x85
 1442 009a 02       		.uleb128 0x2
 1443 009b 84       		.byte	0x84
 1444 009c 03       		.uleb128 0x3
 1445 009d 000000   		.align	2
 1446              	.LEFDE12:
ARM GAS  /cygdrive/c/DOCUME~1/mkwapisz/LOCALS~1/Temp/ccPR5o87.s 			page 35


 1447              	.LSFDE14:
 1448 00a0 0C000000 		.4byte	.LEFDE14-.LASFDE14
 1449              	.LASFDE14:
 1450 00a4 00000000 		.4byte	.Lframe0
 1451 00a8 64020000 		.4byte	.LFB13
 1452 00ac 08000000 		.4byte	.LFE13-.LFB13
 1453              		.align	2
 1454              	.LEFDE14:
 1455              	.LSFDE16:
 1456 00b0 0C000000 		.4byte	.LEFDE16-.LASFDE16
 1457              	.LASFDE16:
 1458 00b4 00000000 		.4byte	.Lframe0
 1459 00b8 6C020000 		.4byte	.LFB17
 1460 00bc 18000000 		.4byte	.LFE17-.LFB17
 1461              		.align	2
 1462              	.LEFDE16:
 1463              	.LSFDE18:
 1464 00c0 0C000000 		.4byte	.LEFDE18-.LASFDE18
 1465              	.LASFDE18:
 1466 00c4 00000000 		.4byte	.Lframe0
 1467 00c8 84020000 		.4byte	.LFB18
 1468 00cc 20000000 		.4byte	.LFE18-.LFB18
 1469              		.align	2
 1470              	.LEFDE18:
 1471              	.LSFDE20:
 1472 00d0 0C000000 		.4byte	.LEFDE20-.LASFDE20
 1473              	.LASFDE20:
 1474 00d4 00000000 		.4byte	.Lframe0
 1475 00d8 A4020000 		.4byte	.LFB19
 1476 00dc 10000000 		.4byte	.LFE19-.LFB19
 1477              		.align	2
 1478              	.LEFDE20:
 1479              	.LSFDE22:
 1480 00e0 18000000 		.4byte	.LEFDE22-.LASFDE22
 1481              	.LASFDE22:
 1482 00e4 00000000 		.4byte	.Lframe0
 1483 00e8 B4020000 		.4byte	.LFB24
 1484 00ec 9C000000 		.4byte	.LFE24-.LFB24
 1485 00f0 44       		.byte	0x4
 1486              		.4byte	.LCFI3-.LFB24
 1487 00f1 0E       		.byte	0xe
 1488 00f2 0C       		.uleb128 0xc
 1489 00f3 8E       		.byte	0x8e
 1490 00f4 01       		.uleb128 0x1
 1491 00f5 85       		.byte	0x85
 1492 00f6 02       		.uleb128 0x2
 1493 00f7 84       		.byte	0x84
 1494 00f8 03       		.uleb128 0x3
 1495 00f9 000000   		.align	2
 1496              	.LEFDE22:
 1497              	.LSFDE24:
 1498 00fc 18000000 		.4byte	.LEFDE24-.LASFDE24
 1499              	.LASFDE24:
 1500 0100 00000000 		.4byte	.Lframe0
 1501 0104 50030000 		.4byte	.LFB23
 1502 0108 C0000000 		.4byte	.LFE23-.LFB23
 1503 010c 4C       		.byte	0x4
ARM GAS  /cygdrive/c/DOCUME~1/mkwapisz/LOCALS~1/Temp/ccPR5o87.s 			page 36


 1504              		.4byte	.LCFI4-.LFB23
 1505 010d 0E       		.byte	0xe
 1506 010e 10       		.uleb128 0x10
 1507 010f 8E       		.byte	0x8e
 1508 0110 01       		.uleb128 0x1
 1509 0111 86       		.byte	0x86
 1510 0112 02       		.uleb128 0x2
 1511 0113 85       		.byte	0x85
 1512 0114 03       		.uleb128 0x3
 1513 0115 84       		.byte	0x84
 1514 0116 04       		.uleb128 0x4
 1515 0117 00       		.align	2
 1516              	.LEFDE24:
 1517              	.LSFDE26:
 1518 0118 1C000000 		.4byte	.LEFDE26-.LASFDE26
 1519              	.LASFDE26:
 1520 011c 00000000 		.4byte	.Lframe0
 1521 0120 10040000 		.4byte	.LFB22
 1522 0124 6C000000 		.4byte	.LFE22-.LFB22
 1523 0128 44       		.byte	0x4
 1524              		.4byte	.LCFI5-.LFB22
 1525 0129 0E       		.byte	0xe
 1526 012a 14       		.uleb128 0x14
 1527 012b 8E       		.byte	0x8e
 1528 012c 01       		.uleb128 0x1
 1529 012d 87       		.byte	0x87
 1530 012e 02       		.uleb128 0x2
 1531 012f 86       		.byte	0x86
 1532 0130 03       		.uleb128 0x3
 1533 0131 85       		.byte	0x85
 1534 0132 04       		.uleb128 0x4
 1535 0133 84       		.byte	0x84
 1536 0134 05       		.uleb128 0x5
 1537 0135 000000   		.align	2
 1538              	.LEFDE26:
 1539              	.LSFDE28:
 1540 0138 14000000 		.4byte	.LEFDE28-.LASFDE28
 1541              	.LASFDE28:
 1542 013c 00000000 		.4byte	.Lframe0
 1543 0140 7C040000 		.4byte	.LFB20
 1544 0144 24000000 		.4byte	.LFE20-.LFB20
 1545 0148 48       		.byte	0x4
 1546              		.4byte	.LCFI6-.LFB20
 1547 0149 0E       		.byte	0xe
 1548 014a 04       		.uleb128 0x4
 1549 014b 8E       		.byte	0x8e
 1550 014c 01       		.uleb128 0x1
 1551 014d 000000   		.align	2
 1552              	.LEFDE28:
 1553              	.LSFDE30:
 1554 0150 14000000 		.4byte	.LEFDE30-.LASFDE30
 1555              	.LASFDE30:
 1556 0154 00000000 		.4byte	.Lframe0
 1557 0158 A0040000 		.4byte	.LFB21
 1558 015c 18000000 		.4byte	.LFE21-.LFB21
 1559 0160 44       		.byte	0x4
 1560              		.4byte	.LCFI7-.LFB21
ARM GAS  /cygdrive/c/DOCUME~1/mkwapisz/LOCALS~1/Temp/ccPR5o87.s 			page 37


 1561 0161 0E       		.byte	0xe
 1562 0162 04       		.uleb128 0x4
 1563 0163 8E       		.byte	0x8e
 1564 0164 01       		.uleb128 0x1
 1565 0165 000000   		.align	2
 1566              	.LEFDE30:
 1567              	.LSFDE32:
 1568 0168 18000000 		.4byte	.LEFDE32-.LASFDE32
 1569              	.LASFDE32:
 1570 016c 00000000 		.4byte	.Lframe0
 1571 0170 B8040000 		.4byte	.LFB16
 1572 0174 74000000 		.4byte	.LFE16-.LFB16
 1573 0178 60       		.byte	0x4
 1574              		.4byte	.LCFI8-.LFB16
 1575 0179 0E       		.byte	0xe
 1576 017a 0C       		.uleb128 0xc
 1577 017b 8E       		.byte	0x8e
 1578 017c 01       		.uleb128 0x1
 1579 017d 85       		.byte	0x85
 1580 017e 02       		.uleb128 0x2
 1581 017f 84       		.byte	0x84
 1582 0180 03       		.uleb128 0x3
 1583 0181 000000   		.align	2
 1584              	.LEFDE32:
 1585              	.LSFDE34:
 1586 0184 24000000 		.4byte	.LEFDE34-.LASFDE34
 1587              	.LASFDE34:
 1588 0188 00000000 		.4byte	.Lframe0
 1589 018c 2C050000 		.4byte	.LFB14
 1590 0190 7C010000 		.4byte	.LFE14-.LFB14
 1591 0194 44       		.byte	0x4
 1592              		.4byte	.LCFI9-.LFB14
 1593 0195 0E       		.byte	0xe
 1594 0196 24       		.uleb128 0x24
 1595 0197 4C       		.byte	0x4
 1596              		.4byte	.LCFI10-.LCFI9
 1597 0198 0E       		.byte	0xe
 1598 0199 3C       		.uleb128 0x3c
 1599 019a 8E       		.byte	0x8e
 1600 019b 01       		.uleb128 0x1
 1601 019c 8B       		.byte	0x8b
 1602 019d 02       		.uleb128 0x2
 1603 019e 8A       		.byte	0x8a
 1604 019f 03       		.uleb128 0x3
 1605 01a0 89       		.byte	0x89
 1606 01a1 04       		.uleb128 0x4
 1607 01a2 88       		.byte	0x88
 1608 01a3 05       		.uleb128 0x5
 1609 01a4 87       		.byte	0x87
 1610 01a5 06       		.uleb128 0x6
 1611 01a6 86       		.byte	0x86
 1612 01a7 07       		.uleb128 0x7
 1613 01a8 85       		.byte	0x85
 1614 01a9 08       		.uleb128 0x8
 1615 01aa 84       		.byte	0x84
 1616 01ab 09       		.uleb128 0x9
 1617              		.align	2
ARM GAS  /cygdrive/c/DOCUME~1/mkwapisz/LOCALS~1/Temp/ccPR5o87.s 			page 38


 1618              	.LEFDE34:
 1619              	.LSFDE36:
 1620 01ac 1C000000 		.4byte	.LEFDE36-.LASFDE36
 1621              	.LASFDE36:
 1622 01b0 00000000 		.4byte	.Lframe0
 1623 01b4 A8060000 		.4byte	.LFB15
 1624 01b8 B8000000 		.4byte	.LFE15-.LFB15
 1625 01bc 44       		.byte	0x4
 1626              		.4byte	.LCFI11-.LFB15
 1627 01bd 0E       		.byte	0xe
 1628 01be 14       		.uleb128 0x14
 1629 01bf 44       		.byte	0x4
 1630              		.4byte	.LCFI12-.LCFI11
 1631 01c0 0E       		.byte	0xe
 1632 01c1 28       		.uleb128 0x28
 1633 01c2 8E       		.byte	0x8e
 1634 01c3 01       		.uleb128 0x1
 1635 01c4 87       		.byte	0x87
 1636 01c5 02       		.uleb128 0x2
 1637 01c6 86       		.byte	0x86
 1638 01c7 03       		.uleb128 0x3
 1639 01c8 85       		.byte	0x85
 1640 01c9 04       		.uleb128 0x4
 1641 01ca 84       		.byte	0x84
 1642 01cb 05       		.uleb128 0x5
 1643              		.align	2
 1644              	.LEFDE36:
 1645              	.LSFDE38:
 1646 01cc 18000000 		.4byte	.LEFDE38-.LASFDE38
 1647              	.LASFDE38:
 1648 01d0 00000000 		.4byte	.Lframe0
 1649 01d4 60070000 		.4byte	.LFB12
 1650 01d8 48000000 		.4byte	.LFE12-.LFB12
 1651 01dc 44       		.byte	0x4
 1652              		.4byte	.LCFI13-.LFB12
 1653 01dd 0E       		.byte	0xe
 1654 01de 0C       		.uleb128 0xc
 1655 01df 8E       		.byte	0x8e
 1656 01e0 01       		.uleb128 0x1
 1657 01e1 85       		.byte	0x85
 1658 01e2 02       		.uleb128 0x2
 1659 01e3 84       		.byte	0x84
 1660 01e4 03       		.uleb128 0x3
 1661 01e5 000000   		.align	2
 1662              	.LEFDE38:
 1663              	.LSFDE40:
 1664 01e8 18000000 		.4byte	.LEFDE40-.LASFDE40
 1665              	.LASFDE40:
 1666 01ec 00000000 		.4byte	.Lframe0
 1667 01f0 A8070000 		.4byte	.LFB4
 1668 01f4 C0000000 		.4byte	.LFE4-.LFB4
 1669 01f8 44       		.byte	0x4
 1670              		.4byte	.LCFI14-.LFB4
 1671 01f9 0E       		.byte	0xe
 1672 01fa 10       		.uleb128 0x10
 1673 01fb 8E       		.byte	0x8e
 1674 01fc 01       		.uleb128 0x1
ARM GAS  /cygdrive/c/DOCUME~1/mkwapisz/LOCALS~1/Temp/ccPR5o87.s 			page 39


 1675 01fd 86       		.byte	0x86
 1676 01fe 02       		.uleb128 0x2
 1677 01ff 85       		.byte	0x85
 1678 0200 03       		.uleb128 0x3
 1679 0201 84       		.byte	0x84
 1680 0202 04       		.uleb128 0x4
 1681 0203 00       		.align	2
 1682              	.LEFDE40:
 1683              	.LSFDE42:
 1684 0204 18000000 		.4byte	.LEFDE42-.LASFDE42
 1685              	.LASFDE42:
 1686 0208 00000000 		.4byte	.Lframe0
 1687 020c 68080000 		.4byte	.LFB3
 1688 0210 54000000 		.4byte	.LFE3-.LFB3
 1689 0214 44       		.byte	0x4
 1690              		.4byte	.LCFI15-.LFB3
 1691 0215 0E       		.byte	0xe
 1692 0216 0C       		.uleb128 0xc
 1693 0217 8E       		.byte	0x8e
 1694 0218 01       		.uleb128 0x1
 1695 0219 85       		.byte	0x85
 1696 021a 02       		.uleb128 0x2
 1697 021b 84       		.byte	0x84
 1698 021c 03       		.uleb128 0x3
 1699 021d 000000   		.align	2
 1700              	.LEFDE42:
 1701              	.LSFDE44:
 1702 0220 18000000 		.4byte	.LEFDE44-.LASFDE44
 1703              	.LASFDE44:
 1704 0224 00000000 		.4byte	.Lframe0
 1705 0228 BC080000 		.4byte	.LFB2
 1706 022c 80000000 		.4byte	.LFE2-.LFB2
 1707 0230 44       		.byte	0x4
 1708              		.4byte	.LCFI16-.LFB2
 1709 0231 0E       		.byte	0xe
 1710 0232 0C       		.uleb128 0xc
 1711 0233 8E       		.byte	0x8e
 1712 0234 01       		.uleb128 0x1
 1713 0235 85       		.byte	0x85
 1714 0236 02       		.uleb128 0x2
 1715 0237 84       		.byte	0x84
 1716 0238 03       		.uleb128 0x3
 1717 0239 000000   		.align	2
 1718              	.LEFDE44:
 1719              		.file 2 "fs.h"
 1720              		.file 3 "partition.h"
 1721              		.file 4 "disc.h"
 1722              		.file 5 "ioman.h"
 1723              		.file 6 "../mmc/hwinterface.h"
 1724              		.file 7 "../mmc/types.h"
 1725              		.text
 1726              	.Letext0: