ARM GAS  /cygdrive/c/DOCUME~1/mkwapisz/LOCALS~1/Temp/cc37mo0O.s 			page 1


   1              		.file	"ls.c"
   8 0000 D9000000 		.text
   8      02007200 
   8      00000201 
   8      FB0E0D00 
   8      01010101 
   9              	.Ltext0:
  10              		.align	2
  11              		.global	ls_isValidFileEntry
  12              		.type	ls_isValidFileEntry, %function
  13              	ls_isValidFileEntry:
  14              	.LFB7:
  15              		.file 1 "ls.c"
   1:ls.c          **** /*****************************************************************************/
   2:ls.c          **** #include "ls.h"
   3:ls.c          **** /*****************************************************************************/
   4:ls.c          **** 
   5:ls.c          **** signed char ls_openDir(DirList *dlist,FileSystem *fs,char* dirname)
   6:ls.c          **** {
   7:ls.c          **** 	FileLocation loc;
   8:ls.c          **** 	unsigned long fc;
   9:ls.c          **** 	
  10:ls.c          **** 	dlist->fs=fs;
  11:ls.c          **** 	
  12:ls.c          **** 	if(fs_findFile(dlist->fs,dirname,&loc,&fc)!=2)
  13:ls.c          **** 	{
  14:ls.c          **** 		return(-1);
  15:ls.c          **** 	}
  16:ls.c          **** 	
  17:ls.c          **** 	fs_initClusterChain(dlist->fs,&(dlist->Cache),fc);
  18:ls.c          **** 	memClr(&(dlist->currentEntry),sizeof(dlist->currentEntry));
  19:ls.c          **** 	dlist->rEntry=0;
  20:ls.c          **** 	dlist->cEntry=0xFFFF;
  21:ls.c          **** 	
  22:ls.c          **** 	return(0);
  23:ls.c          **** }
  24:ls.c          **** /*****************************************************************************/
  25:ls.c          **** 
  26:ls.c          **** signed char ls_getDirEntry(DirList *dlist)
  27:ls.c          **** {
  28:ls.c          **** 	if(dlist->Cache.FirstCluster == 1){
  29:ls.c          **** 		return(ls_getRootAreaEntry(dlist));
  30:ls.c          **** 	}else if(dlist->Cache.FirstCluster){
  31:ls.c          **** 		return(ls_getRealDirEntry(dlist));
  32:ls.c          **** 	}
  33:ls.c          **** 	return(-1);
  34:ls.c          **** }
  35:ls.c          **** /*****************************************************************************/
  36:ls.c          **** 
  37:ls.c          **** signed char ls_getNext(DirList *dlist)
  38:ls.c          **** {
ARM GAS  /cygdrive/c/DOCUME~1/mkwapisz/LOCALS~1/Temp/cc37mo0O.s 			page 2


  39:ls.c          **** 	do{
  40:ls.c          **** 		if(ls_getDirEntry(dlist))return(-1);
  41:ls.c          **** 		dlist->rEntry++;
  42:ls.c          **** 	}while(!ls_isValidFileEntry(&(dlist->currentEntry)));
  43:ls.c          **** 	dlist->cEntry++;
  44:ls.c          **** 	return(0);
  45:ls.c          **** }
  46:ls.c          **** /*****************************************************************************/
  47:ls.c          **** 
  48:ls.c          **** signed char ls_getRealDirEntry(DirList *dlist)
  49:ls.c          **** {
  50:ls.c          **** 	unsigned char* buf;
  51:ls.c          **** 	
  52:ls.c          **** 	if(dlist->Cache.FirstCluster<=1)return(-1);
  53:ls.c          **** 	
  54:ls.c          **** 	if(fat_LogicToDiscCluster(dlist->fs,
  55:ls.c          **** 						   &(dlist->Cache),
  56:ls.c          **** 						   (dlist->rEntry)/(16 * dlist->fs->volumeId.SectorsPerCluster))){
  57:ls.c          **** 		return(-1);
  58:ls.c          **** 	}
  59:ls.c          **** 	
  60:ls.c          **** 	buf = part_getSect(dlist->fs->part,
  61:ls.c          **** 					   fs_clusterToSector(dlist->fs,dlist->Cache.DiscCluster) + (dlist->rEntry/16)%dlist->fs->volu
  62:ls.c          **** 				       IOM_MODE_READONLY);
  63:ls.c          **** 	
  64:ls.c          **** 	/*memCpy(buf+(dlist->rEntry%16)*32,&(dlist->currentEntry),32);*/
  65:ls.c          **** 	ls_fileEntryToDirListEntry(dlist,buf,32*(dlist->rEntry%16));
  66:ls.c          **** 	
  67:ls.c          **** 	part_relSect(dlist->fs->part,buf);
  68:ls.c          **** 	
  69:ls.c          **** 	return(0);
  70:ls.c          **** }
  71:ls.c          **** /*****************************************************************************/
  72:ls.c          **** 
  73:ls.c          **** signed char ls_getRootAreaEntry(DirList *dlist)
  74:ls.c          **** {
  75:ls.c          **** 	unsigned char *buf=0;
  76:ls.c          **** 	
  77:ls.c          **** 	if((dlist->fs->type != FAT12) && (dlist->fs->type != FAT16))return(-1);
  78:ls.c          **** 	if(dlist->rEntry>=dlist->fs->volumeId.RootEntryCount)return(-1);
  79:ls.c          **** 	
  80:ls.c          **** 	buf = part_getSect(dlist->fs->part,
  81:ls.c          **** 					   dlist->fs->FirstSectorRootDir+dlist->rEntry/16,
  82:ls.c          **** 					   IOM_MODE_READONLY);
  83:ls.c          **** 	/*memCpy(buf+32*(dlist->rEntry%16),&(dlist->currentEntry),32);*/
  84:ls.c          **** 	ls_fileEntryToDirListEntry(dlist,buf,32*(dlist->rEntry%16));
  85:ls.c          **** 	part_relSect(dlist->fs->part,buf);
  86:ls.c          **** 	return(0);
  87:ls.c          **** }
  88:ls.c          **** /*****************************************************************************/
  89:ls.c          **** 
  90:ls.c          **** signed char ls_isValidFileEntry(ListDirEntry *entry)
  91:ls.c          **** {
  16              		.loc 1 91 0
  17              		@ Function supports interworking.
  18              		@ args = 0, pretend = 0, frame = 0
  19              		@ frame_needed = 0, uses_anonymous_args = 0
ARM GAS  /cygdrive/c/DOCUME~1/mkwapisz/LOCALS~1/Temp/cc37mo0O.s 			page 3


  20              		@ link register save eliminated.
  21              	.LVL0:
  92:ls.c          **** 	if(entry->FileName[0] == 0 || entry->FileName[0] == 0xE5 || entry->FileName[0] == '.')return(0);
  22              		.loc 1 92 0
  23 0000 0030D0E5 		ldrb	r3, [r0, #0]	@ zero_extendqisi2
  24 0004 E50053E3 		cmp	r3, #229
  25 0008 00005313 		cmpne	r3, #0
  26              		.loc 1 91 0
  27              		@ lr needed for prologue
  28              		.loc 1 92 0
  29 000c 0600000A 		beq	.L2
  30 0010 2E0053E3 		cmp	r3, #46
  31 0014 0400000A 		beq	.L2
  32 0018 1030D0E5 		ldrb	r3, [r0, #16]	@ zero_extendqisi2
  33 001c 0F3003E2 		and	r3, r3, #15
  34 0020 0F0053E2 		subs	r0, r3, #15
  35 0024 0100A013 		movne	r0, #1
  36              	.LVL1:
  37 0028 1EFF2FE1 		bx	lr
  38              	.LVL2:
  39              	.L2:
  40 002c 0000A0E3 		mov	r0, #0
  41              	.LVL3:
  93:ls.c          **** 	if((entry->Attribute&0x0F)==0x0F)return(0);
  94:ls.c          ****  	return(1);
  95:ls.c          **** }
  42              		.loc 1 95 0
  43 0030 1EFF2FE1 		bx	lr
  44              	.LFE7:
  45              		.size	ls_isValidFileEntry, .-ls_isValidFileEntry
  46              		.align	2
  47              		.global	ls_fileEntryToDirListEntry
  48              		.type	ls_fileEntryToDirListEntry, %function
  49              	ls_fileEntryToDirListEntry:
  50              	.LFB8:
  96:ls.c          **** /*****************************************************************************/
  97:ls.c          **** 
  98:ls.c          **** void ls_fileEntryToDirListEntry(DirList *dlist, unsigned char* buf, unsigned short offset)
  99:ls.c          **** {
  51              		.loc 1 99 0
  52              		@ Function supports interworking.
  53              		@ args = 0, pretend = 0, frame = 0
  54              		@ frame_needed = 0, uses_anonymous_args = 0
  55              	.LVL4:
  56 0034 0228A0E1 		mov	r2, r2, asl #16
  57              	.LVL5:
  58 0038 2238A0E1 		mov	r3, r2, lsr #16
  59              	.LVL6:
 100:ls.c          **** 	if(offset>480 || offset%32)return;
  60              		.loc 1 100 0
  61 003c 1E0E53E3 		cmp	r3, #480
  62              		.loc 1 99 0
  63 0040 30402DE9 		stmfd	sp!, {r4, r5, lr}
  64              	.LCFI0:
  65              		.loc 1 99 0
  66 0044 0050A0E1 		mov	r5, r0
  67              		.loc 1 100 0
ARM GAS  /cygdrive/c/DOCUME~1/mkwapisz/LOCALS~1/Temp/cc37mo0O.s 			page 4


  68 0048 0C00008A 		bhi	.L11
  69              	.LVL7:
 101:ls.c          **** 	
 102:ls.c          **** 	buf+=offset;
  70              		.loc 1 102 0
  71 004c 034081E0 		add	r4, r1, r3
  72              	.LVL8:
  73              		.loc 1 100 0
  74 0050 1F0013E3 		tst	r3, #31
 103:ls.c          **** 	memCpy(buf+OFFSET_DE_FILENAME,dlist->currentEntry.FileName,LIST_MAXLENFILENAME);
  75              		.loc 1 103 0
  76 0054 0400A0E1 		mov	r0, r4
  77 0058 081085E2 		add	r1, r5, #8
  78              	.LVL9:
  79 005c 0C20A0E3 		mov	r2, #12
  80              		.loc 1 100 0
  81 0060 0600001A 		bne	.L11
  82              	.LVL10:
  83              		.loc 1 103 0
  84 0064 FEFFFFEB 		bl	memCpy
  85              	.LVL11:
 104:ls.c          **** 	dlist->currentEntry.Attribute = *(buf+OFFSET_DE_ATTRIBUTE);
  86              		.loc 1 104 0
  87 0068 0B30D4E5 		ldrb	r3, [r4, #11]	@ zero_extendqisi2
 105:ls.c          **** 	dlist->currentEntry.FileSize = ex_getb32(buf,OFFSET_DE_FILESIZE);
  88              		.loc 1 105 0
  89 006c 0400A0E1 		mov	r0, r4
  90              		.loc 1 104 0
  91 0070 1830C5E5 		strb	r3, [r5, #24]
  92              		.loc 1 105 0
  93 0074 1C10A0E3 		mov	r1, #28
  94 0078 FEFFFFEB 		bl	ex_getb32
  95 007c 140085E5 		str	r0, [r5, #20]
  96              	.LVL12:
  97              	.L11:
 106:ls.c          **** }
  98              		.loc 1 106 0
  99 0080 3040BDE8 		ldmfd	sp!, {r4, r5, lr}
 100 0084 1EFF2FE1 		bx	lr
 101              	.LFE8:
 102              		.size	ls_fileEntryToDirListEntry, .-ls_fileEntryToDirListEntry
 103              		.align	2
 104              		.global	ls_getRootAreaEntry
 105              		.type	ls_getRootAreaEntry, %function
 106              	ls_getRootAreaEntry:
 107              	.LFB6:
 108              		.loc 1 74 0
 109              		@ Function supports interworking.
 110              		@ args = 0, pretend = 0, frame = 0
 111              		@ frame_needed = 0, uses_anonymous_args = 0
 112              	.LVL13:
 113 0088 30402DE9 		stmfd	sp!, {r4, r5, lr}
 114              	.LCFI1:
 115              		.loc 1 74 0
 116 008c 0050A0E1 		mov	r5, r0
 117              		.loc 1 77 0
 118 0090 000090E5 		ldr	r0, [r0, #0]
ARM GAS  /cygdrive/c/DOCUME~1/mkwapisz/LOCALS~1/Temp/cc37mo0O.s 			page 5


 119              	.LVL14:
 120 0094 3C30D0E5 		ldrb	r3, [r0, #60]	@ zero_extendqisi2
 121 0098 013043E2 		sub	r3, r3, #1
 122 009c 010053E3 		cmp	r3, #1
 123 00a0 1500008A 		bhi	.L13
 124              		.loc 1 78 0
 125 00a4 B6C0D5E1 		ldrh	ip, [r5, #6]
 126 00a8 BC30D0E1 		ldrh	r3, [r0, #12]
 127 00ac 0C0053E1 		cmp	r3, ip
 128              		.loc 1 80 0
 129 00b0 0120A0E3 		mov	r2, #1
 130              		.loc 1 78 0
 131 00b4 1000009A 		bls	.L13
 132              		.loc 1 80 0
 133 00b8 2C1090E5 		ldr	r1, [r0, #44]
 134 00bc 000090E5 		ldr	r0, [r0, #0]
 135 00c0 2C1281E0 		add	r1, r1, ip, lsr #4
 136 00c4 FEFFFFEB 		bl	part_getSect
 137              		.loc 1 84 0
 138 00c8 B620D5E1 		ldrh	r2, [r5, #6]
 139              		.loc 1 80 0
 140 00cc 0040A0E1 		mov	r4, r0
 141              	.LVL15:
 142              		.loc 1 84 0
 143 00d0 0F2002E2 		and	r2, r2, #15
 144 00d4 8222A0E1 		mov	r2, r2, asl #5
 145 00d8 0500A0E1 		mov	r0, r5
 146 00dc 0410A0E1 		mov	r1, r4
 147 00e0 FEFFFFEB 		bl	ls_fileEntryToDirListEntry
 148              		.loc 1 85 0
 149 00e4 003095E5 		ldr	r3, [r5, #0]
 150 00e8 0410A0E1 		mov	r1, r4
 151 00ec 000093E5 		ldr	r0, [r3, #0]
 152 00f0 FEFFFFEB 		bl	part_relSect
 153 00f4 0000A0E3 		mov	r0, #0
 154 00f8 000000EA 		b	.L16
 155              	.LVL16:
 156              	.L13:
 157              		.loc 1 86 0
 158 00fc 0000E0E3 		mvn	r0, #0
 159              	.LVL17:
 160              	.L16:
 161              		.loc 1 87 0
 162 0100 3040BDE8 		ldmfd	sp!, {r4, r5, lr}
 163 0104 1EFF2FE1 		bx	lr
 164              	.LFE6:
 165              		.size	ls_getRootAreaEntry, .-ls_getRootAreaEntry
 166              		.global	__divsi3
 167              		.global	__modsi3
 168              		.align	2
 169              		.global	ls_getRealDirEntry
 170              		.type	ls_getRealDirEntry, %function
 171              	ls_getRealDirEntry:
 172              	.LFB5:
 173              		.loc 1 49 0
 174              		@ Function supports interworking.
 175              		@ args = 0, pretend = 0, frame = 0
ARM GAS  /cygdrive/c/DOCUME~1/mkwapisz/LOCALS~1/Temp/cc37mo0O.s 			page 6


 176              		@ frame_needed = 0, uses_anonymous_args = 0
 177              	.LVL18:
 178              		.loc 1 52 0
 179 0108 283090E5 		ldr	r3, [r0, #40]
 180 010c 010053E3 		cmp	r3, #1
 181              		.loc 1 49 0
 182 0110 F0402DE9 		stmfd	sp!, {r4, r5, r6, r7, lr}
 183              	.LCFI2:
 184              		.loc 1 49 0
 185 0114 0060A0E1 		mov	r6, r0
 186              		.loc 1 54 0
 187 0118 1C5080E2 		add	r5, r0, #28
 188              		.loc 1 52 0
 189 011c 2800009A 		bls	.L19
 190              		.loc 1 54 0
 191 0120 004090E5 		ldr	r4, [r0, #0]
 192 0124 0610D4E5 		ldrb	r1, [r4, #6]	@ zero_extendqisi2
 193 0128 B600D0E1 		ldrh	r0, [r0, #6]
 194              	.LVL19:
 195 012c 0112A0E1 		mov	r1, r1, asl #4
 196 0130 FEFFFFEB 		bl	__divsi3
 197 0134 0510A0E1 		mov	r1, r5
 198 0138 0020A0E1 		mov	r2, r0
 199 013c 0400A0E1 		mov	r0, r4
 200 0140 FEFFFFEB 		bl	fat_LogicToDiscCluster
 201 0144 0008A0E1 		mov	r0, r0, asl #16
 202 0148 2078B0E1 		movs	r7, r0, lsr #16
 203 014c 1C00001A 		bne	.L19
 204              		.loc 1 60 0
 205 0150 003096E5 		ldr	r3, [r6, #0]
 206 0154 241096E5 		ldr	r1, [r6, #36]
 207 0158 0300A0E1 		mov	r0, r3
 208 015c 005093E5 		ldr	r5, [r3, #0]
 209 0160 FEFFFFEB 		bl	fs_clusterToSector
 210 0164 003096E5 		ldr	r3, [r6, #0]
 211 0168 0040A0E1 		mov	r4, r0
 212 016c B600D6E1 		ldrh	r0, [r6, #6]
 213 0170 0610D3E5 		ldrb	r1, [r3, #6]	@ zero_extendqisi2
 214 0174 2002A0E1 		mov	r0, r0, lsr #4
 215 0178 FEFFFFEB 		bl	__modsi3
 216 017c 004084E0 		add	r4, r4, r0
 217 0180 0410A0E1 		mov	r1, r4
 218 0184 0120A0E3 		mov	r2, #1
 219 0188 0500A0E1 		mov	r0, r5
 220 018c FEFFFFEB 		bl	part_getSect
 221              		.loc 1 65 0
 222 0190 B620D6E1 		ldrh	r2, [r6, #6]
 223              		.loc 1 60 0
 224 0194 0040A0E1 		mov	r4, r0
 225              	.LVL20:
 226              		.loc 1 65 0
 227 0198 0F2002E2 		and	r2, r2, #15
 228 019c 8222A0E1 		mov	r2, r2, asl #5
 229 01a0 0600A0E1 		mov	r0, r6
 230 01a4 0410A0E1 		mov	r1, r4
 231 01a8 FEFFFFEB 		bl	ls_fileEntryToDirListEntry
 232              		.loc 1 67 0
ARM GAS  /cygdrive/c/DOCUME~1/mkwapisz/LOCALS~1/Temp/cc37mo0O.s 			page 7


 233 01ac 003096E5 		ldr	r3, [r6, #0]
 234 01b0 0410A0E1 		mov	r1, r4
 235 01b4 000093E5 		ldr	r0, [r3, #0]
 236 01b8 FEFFFFEB 		bl	part_relSect
 237 01bc 0700A0E1 		mov	r0, r7
 238 01c0 000000EA 		b	.L22
 239              	.LVL21:
 240              	.L19:
 241              		.loc 1 69 0
 242 01c4 0000E0E3 		mvn	r0, #0
 243              	.LVL22:
 244              	.L22:
 245              		.loc 1 70 0
 246 01c8 F040BDE8 		ldmfd	sp!, {r4, r5, r6, r7, lr}
 247 01cc 1EFF2FE1 		bx	lr
 248              	.LFE5:
 249              		.size	ls_getRealDirEntry, .-ls_getRealDirEntry
 250              		.align	2
 251              		.global	ls_getDirEntry
 252              		.type	ls_getDirEntry, %function
 253              	ls_getDirEntry:
 254              	.LFB3:
 255              		.loc 1 27 0
 256              		@ Function supports interworking.
 257              		@ args = 0, pretend = 0, frame = 0
 258              		@ frame_needed = 0, uses_anonymous_args = 0
 259              	.LVL23:
 260              		.loc 1 28 0
 261 01d0 283090E5 		ldr	r3, [r0, #40]
 262 01d4 010053E3 		cmp	r3, #1
 263              		.loc 1 27 0
 264 01d8 04E02DE5 		str	lr, [sp, #-4]!
 265              	.LCFI3:
 266              		.loc 1 28 0
 267 01dc 0100001A 		bne	.L25
 268              		.loc 1 29 0
 269 01e0 FEFFFFEB 		bl	ls_getRootAreaEntry
 270              	.LVL24:
 271 01e4 030000EA 		b	.L31
 272              	.LVL25:
 273              	.L25:
 274              		.loc 1 30 0
 275 01e8 000053E3 		cmp	r3, #0
 276 01ec 0030E0E3 		mvn	r3, #0
 277 01f0 0200000A 		beq	.L27
 278              		.loc 1 31 0
 279 01f4 FEFFFFEB 		bl	ls_getRealDirEntry
 280              	.LVL26:
 281              	.L31:
 282 01f8 000CA0E1 		mov	r0, r0, asl #24
 283 01fc 403CA0E1 		mov	r3, r0, asr #24
 284              	.LVL27:
 285              	.L27:
 286              		.loc 1 34 0
 287 0200 0300A0E1 		mov	r0, r3
 288              	.LVL28:
 289 0204 04E09DE4 		ldr	lr, [sp], #4
ARM GAS  /cygdrive/c/DOCUME~1/mkwapisz/LOCALS~1/Temp/cc37mo0O.s 			page 8


 290 0208 1EFF2FE1 		bx	lr
 291              	.LFE3:
 292              		.size	ls_getDirEntry, .-ls_getDirEntry
 293              		.align	2
 294              		.global	ls_getNext
 295              		.type	ls_getNext, %function
 296              	ls_getNext:
 297              	.LFB4:
 298              		.loc 1 38 0
 299              		@ Function supports interworking.
 300              		@ args = 0, pretend = 0, frame = 0
 301              		@ frame_needed = 0, uses_anonymous_args = 0
 302              	.LVL29:
 303 020c 30402DE9 		stmfd	sp!, {r4, r5, lr}
 304              	.LCFI4:
 305 0210 0040A0E1 		mov	r4, r0
 306              	.LVL30:
 307              	.L34:
 308              		.loc 1 40 0
 309 0214 0400A0E1 		mov	r0, r4
 310 0218 FEFFFFEB 		bl	ls_getDirEntry
 311 021c 0030A0E1 		mov	r3, r0
 312 0220 FF5013E2 		ands	r5, r3, #255
 313              		.loc 1 42 0
 314 0224 080084E2 		add	r0, r4, #8
 315              		.loc 1 40 0
 316 0228 0000E013 		mvnne	r0, #0
 317 022c 0900001A 		bne	.L37
 318              	.L35:
 319              		.loc 1 41 0
 320 0230 B630D4E1 		ldrh	r3, [r4, #6]
 321 0234 013083E2 		add	r3, r3, #1
 322 0238 B630C4E1 		strh	r3, [r4, #6]	@ movhi
 323              		.loc 1 42 0
 324 023c FEFFFFEB 		bl	ls_isValidFileEntry
 325 0240 000050E3 		cmp	r0, #0
 326 0244 F2FFFF0A 		beq	.L34
 327              		.loc 1 43 0
 328 0248 B430D4E1 		ldrh	r3, [r4, #4]
 329 024c 013083E2 		add	r3, r3, #1
 330 0250 B430C4E1 		strh	r3, [r4, #4]	@ movhi
 331 0254 0500A0E1 		mov	r0, r5
 332              	.L37:
 333              		.loc 1 45 0
 334 0258 3040BDE8 		ldmfd	sp!, {r4, r5, lr}
 335 025c 1EFF2FE1 		bx	lr
 336              	.LFE4:
 337              		.size	ls_getNext, .-ls_getNext
 338              		.align	2
 339              		.global	ls_openDir
 340              		.type	ls_openDir, %function
 341              	ls_openDir:
 342              	.LFB2:
 343              		.loc 1 6 0
 344              		@ Function supports interworking.
 345              		@ args = 0, pretend = 0, frame = 12
 346              		@ frame_needed = 0, uses_anonymous_args = 0
ARM GAS  /cygdrive/c/DOCUME~1/mkwapisz/LOCALS~1/Temp/cc37mo0O.s 			page 9


 347              	.LVL31:
 348 0260 10402DE9 		stmfd	sp!, {r4, lr}
 349              	.LCFI5:
 350 0264 0040A0E1 		mov	r4, r0
 351 0268 0CD04DE2 		sub	sp, sp, #12
 352              	.LCFI6:
 353              		.loc 1 6 0
 354 026c 0100A0E1 		mov	r0, r1
 355              	.LVL32:
 356              		.loc 1 10 0
 357 0270 001084E5 		str	r1, [r4, #0]
 358              		.loc 1 12 0
 359 0274 08308DE2 		add	r3, sp, #8
 360 0278 0210A0E1 		mov	r1, r2
 361              	.LVL33:
 362 027c 0D20A0E1 		mov	r2, sp
 363              	.LVL34:
 364 0280 FEFFFFEB 		bl	fs_findFile
 365              	.LVL35:
 366 0284 000CA0E1 		mov	r0, r0, asl #24
 367 0288 020450E3 		cmp	r0, #33554432
 368              		.loc 1 17 0
 369 028c 1C1084E2 		add	r1, r4, #28
 370              		.loc 1 12 0
 371 0290 0000E0E3 		mvn	r0, #0
 372 0294 0A00001A 		bne	.L45
 373              		.loc 1 17 0
 374 0298 000094E5 		ldr	r0, [r4, #0]
 375              	.LVL36:
 376 029c 08209DE5 		ldr	r2, [sp, #8]
 377 02a0 FEFFFFEB 		bl	fs_initClusterChain
 378              		.loc 1 18 0
 379 02a4 080084E2 		add	r0, r4, #8
 380 02a8 1410A0E3 		mov	r1, #20
 381 02ac FEFFFFEB 		bl	memClr
 382              		.loc 1 20 0
 383 02b0 0030E0E3 		mvn	r3, #0	@ movhi
 384 02b4 B430C4E1 		strh	r3, [r4, #4]	@ movhi
 385              		.loc 1 19 0
 386 02b8 0030A0E3 		mov	r3, #0	@ movhi
 387 02bc B630C4E1 		strh	r3, [r4, #6]	@ movhi
 388              		.loc 1 20 0
 389 02c0 0000A0E3 		mov	r0, #0
 390              	.L45:
 391              		.loc 1 23 0
 392 02c4 0CD08DE2 		add	sp, sp, #12
 393 02c8 1040BDE8 		ldmfd	sp!, {r4, lr}
 394 02cc 1EFF2FE1 		bx	lr
 395              	.LFE2:
 396              		.size	ls_openDir, .-ls_openDir
 397              		.section	.debug_frame,"",%progbits
 398              	.Lframe0:
 399 0000 0C000000 		.4byte	.LECIE0-.LSCIE0
 400              	.LSCIE0:
 401 0004 FFFFFFFF 		.4byte	0xffffffff
 402 0008 01       		.byte	0x1
 403 0009 00       		.ascii	"\000"
ARM GAS  /cygdrive/c/DOCUME~1/mkwapisz/LOCALS~1/Temp/cc37mo0O.s 			page 10


 404 000a 01       		.uleb128 0x1
 405 000b 7C       		.sleb128 -4
 406 000c 0E       		.byte	0xe
 407 000d 0C       		.byte	0xc
 408 000e 0D       		.uleb128 0xd
 409 000f 00       		.uleb128 0x0
 410              		.align	2
 411              	.LECIE0:
 412              	.LSFDE0:
 413 0010 0C000000 		.4byte	.LEFDE0-.LASFDE0
 414              	.LASFDE0:
 415 0014 00000000 		.4byte	.Lframe0
 416 0018 00000000 		.4byte	.LFB7
 417 001c 34000000 		.4byte	.LFE7-.LFB7
 418              		.align	2
 419              	.LEFDE0:
 420              	.LSFDE2:
 421 0020 18000000 		.4byte	.LEFDE2-.LASFDE2
 422              	.LASFDE2:
 423 0024 00000000 		.4byte	.Lframe0
 424 0028 34000000 		.4byte	.LFB8
 425 002c 54000000 		.4byte	.LFE8-.LFB8
 426 0030 50       		.byte	0x4
 427              		.4byte	.LCFI0-.LFB8
 428 0031 0E       		.byte	0xe
 429 0032 0C       		.uleb128 0xc
 430 0033 8E       		.byte	0x8e
 431 0034 01       		.uleb128 0x1
 432 0035 85       		.byte	0x85
 433 0036 02       		.uleb128 0x2
 434 0037 84       		.byte	0x84
 435 0038 03       		.uleb128 0x3
 436 0039 000000   		.align	2
 437              	.LEFDE2:
 438              	.LSFDE4:
 439 003c 18000000 		.4byte	.LEFDE4-.LASFDE4
 440              	.LASFDE4:
 441 0040 00000000 		.4byte	.Lframe0
 442 0044 88000000 		.4byte	.LFB6
 443 0048 80000000 		.4byte	.LFE6-.LFB6
 444 004c 44       		.byte	0x4
 445              		.4byte	.LCFI1-.LFB6
 446 004d 0E       		.byte	0xe
 447 004e 0C       		.uleb128 0xc
 448 004f 8E       		.byte	0x8e
 449 0050 01       		.uleb128 0x1
 450 0051 85       		.byte	0x85
 451 0052 02       		.uleb128 0x2
 452 0053 84       		.byte	0x84
 453 0054 03       		.uleb128 0x3
 454 0055 000000   		.align	2
 455              	.LEFDE4:
 456              	.LSFDE6:
 457 0058 1C000000 		.4byte	.LEFDE6-.LASFDE6
 458              	.LASFDE6:
 459 005c 00000000 		.4byte	.Lframe0
 460 0060 08010000 		.4byte	.LFB5
ARM GAS  /cygdrive/c/DOCUME~1/mkwapisz/LOCALS~1/Temp/cc37mo0O.s 			page 11


 461 0064 C8000000 		.4byte	.LFE5-.LFB5
 462 0068 4C       		.byte	0x4
 463              		.4byte	.LCFI2-.LFB5
 464 0069 0E       		.byte	0xe
 465 006a 14       		.uleb128 0x14
 466 006b 8E       		.byte	0x8e
 467 006c 01       		.uleb128 0x1
 468 006d 87       		.byte	0x87
 469 006e 02       		.uleb128 0x2
 470 006f 86       		.byte	0x86
 471 0070 03       		.uleb128 0x3
 472 0071 85       		.byte	0x85
 473 0072 04       		.uleb128 0x4
 474 0073 84       		.byte	0x84
 475 0074 05       		.uleb128 0x5
 476 0075 000000   		.align	2
 477              	.LEFDE6:
 478              	.LSFDE8:
 479 0078 14000000 		.4byte	.LEFDE8-.LASFDE8
 480              	.LASFDE8:
 481 007c 00000000 		.4byte	.Lframe0
 482 0080 D0010000 		.4byte	.LFB3
 483 0084 3C000000 		.4byte	.LFE3-.LFB3
 484 0088 4C       		.byte	0x4
 485              		.4byte	.LCFI3-.LFB3
 486 0089 0E       		.byte	0xe
 487 008a 04       		.uleb128 0x4
 488 008b 8E       		.byte	0x8e
 489 008c 01       		.uleb128 0x1
 490 008d 000000   		.align	2
 491              	.LEFDE8:
 492              	.LSFDE10:
 493 0090 18000000 		.4byte	.LEFDE10-.LASFDE10
 494              	.LASFDE10:
 495 0094 00000000 		.4byte	.Lframe0
 496 0098 0C020000 		.4byte	.LFB4
 497 009c 54000000 		.4byte	.LFE4-.LFB4
 498 00a0 44       		.byte	0x4
 499              		.4byte	.LCFI4-.LFB4
 500 00a1 0E       		.byte	0xe
 501 00a2 0C       		.uleb128 0xc
 502 00a3 8E       		.byte	0x8e
 503 00a4 01       		.uleb128 0x1
 504 00a5 85       		.byte	0x85
 505 00a6 02       		.uleb128 0x2
 506 00a7 84       		.byte	0x84
 507 00a8 03       		.uleb128 0x3
 508 00a9 000000   		.align	2
 509              	.LEFDE10:
 510              	.LSFDE12:
 511 00ac 18000000 		.4byte	.LEFDE12-.LASFDE12
 512              	.LASFDE12:
 513 00b0 00000000 		.4byte	.Lframe0
 514 00b4 60020000 		.4byte	.LFB2
 515 00b8 70000000 		.4byte	.LFE2-.LFB2
 516 00bc 44       		.byte	0x4
 517              		.4byte	.LCFI5-.LFB2
ARM GAS  /cygdrive/c/DOCUME~1/mkwapisz/LOCALS~1/Temp/cc37mo0O.s 			page 12


 518 00bd 0E       		.byte	0xe
 519 00be 08       		.uleb128 0x8
 520 00bf 8E       		.byte	0x8e
 521 00c0 01       		.uleb128 0x1
 522 00c1 84       		.byte	0x84
 523 00c2 02       		.uleb128 0x2
 524 00c3 48       		.byte	0x4
 525              		.4byte	.LCFI6-.LCFI5
 526 00c4 0E       		.byte	0xe
 527 00c5 14       		.uleb128 0x14
 528 00c6 0000     		.align	2
 529              	.LEFDE12:
 530              		.file 2 "ls.h"
 531              		.file 3 "fs.h"
 532              		.file 4 "partition.h"
 533              		.file 5 "disc.h"
 534              		.file 6 "ioman.h"
 535              		.file 7 "../mmc/hwinterface.h"
 536              		.file 8 "../mmc/types.h"
 537              		.text
 538              	.Letext0: