ARM GAS  /cygdrive/c/DOCUME~1/mkwapisz/LOCALS~1/Temp/cc1OEM1Z.s 			page 1


   1              		.file	"synth_stereo.c"
   2              		.section	.debug_abbrev,"",%progbits
   3              	.Ldebug_abbrev0:
   4              		.section	.debug_info,"",%progbits
   5              	.Ldebug_info0:
   6              		.section	.debug_line,"",%progbits
   7              	.Ldebug_line0:
   8 0000 0B0A0000 		.text
   8      02005100 
   8      00000201 
   8      FB0E0D00 
   8      01010101 
   9              	.Ltext0:
  10              		.align	2
  11              		.type	scale, %function
  12              	scale:
  13              	.LFB2:
  14              		.file 1 "synth_stereo.c"
   1:synth_stereo.c **** /*
   2:synth_stereo.c ****  * libmad - MPEG audio decoder library
   3:synth_stereo.c ****  * Copyright (C) 2000-2004 Underbit Technologies, Inc.
   4:synth_stereo.c ****  *
   5:synth_stereo.c ****  * This program is free software; you can redistribute it and/or modify
   6:synth_stereo.c ****  * it under the terms of the GNU General Public License as published by
   7:synth_stereo.c ****  * the Free Software Foundation; either version 2 of the License, or
   8:synth_stereo.c ****  * (at your option) any later version.
   9:synth_stereo.c ****  *
  10:synth_stereo.c ****  * This program is distributed in the hope that it will be useful,
  11:synth_stereo.c ****  * but WITHOUT ANY WARRANTY; without even the implied warranty of
  12:synth_stereo.c ****  * MERCHANTABILITY or FITNESS FOR A PARTICULAR PURPOSE.  See the
  13:synth_stereo.c ****  * GNU General Public License for more details.
  14:synth_stereo.c ****  *
  15:synth_stereo.c ****  * You should have received a copy of the GNU General Public License
  16:synth_stereo.c ****  * along with this program; if not, write to the Free Software
  17:synth_stereo.c ****  * Foundation, Inc., 59 Temple Place, Suite 330, Boston, MA  02111-1307  USA
  18:synth_stereo.c ****  *
  19:synth_stereo.c ****  * $Id: synth.c,v 1.25 2004/01/23 09:41:33 rob Exp $
  20:synth_stereo.c ****  */
  21:synth_stereo.c **** 
  22:synth_stereo.c **** # ifdef HAVE_CONFIG_H
  23:synth_stereo.c **** #  include "config.h"
  24:synth_stereo.c **** # endif
  25:synth_stereo.c **** 
  26:synth_stereo.c **** # include "global.h"
  27:synth_stereo.c **** 
  28:synth_stereo.c **** # include "fixed.h"
  29:synth_stereo.c **** # include "frame.h"
  30:synth_stereo.c **** # include "synth.h"
  31:synth_stereo.c **** # include "string.h"
  32:synth_stereo.c **** # include "../filesys/ioman.h"
  33:synth_stereo.c **** 
  34:synth_stereo.c **** 
  35:synth_stereo.c **** // #define SAVED_SAMPLE_BUFF_LEN   240000
  36:synth_stereo.c **** // unsigned int saved_idx = 0;
  37:synth_stereo.c **** // short int saved_samples[SAVED_SAMPLE_BUFF_LEN];
  38:synth_stereo.c **** 
  39:synth_stereo.c **** /*
ARM GAS  /cygdrive/c/DOCUME~1/mkwapisz/LOCALS~1/Temp/cc1OEM1Z.s 			page 2


  40:synth_stereo.c ****  * The following utility routine performs simple rounding, clipping, and
  41:synth_stereo.c ****  * scaling of MAD's high-resolution samples down to 16 bits. It does not
  42:synth_stereo.c ****  * perform any dithering or noise shaping, which would be recommended to
  43:synth_stereo.c ****  * obtain any exceptional audio quality. It is therefore not recommended to
  44:synth_stereo.c ****  * use this routine if high-quality output is desired.
  45:synth_stereo.c ****  */
  46:synth_stereo.c **** 
  47:synth_stereo.c **** static inline
  48:synth_stereo.c **** signed int scale(mad_fixed_t sample)
  49:synth_stereo.c **** {
  15              		.loc 1 49 0
  16              		@ Function supports interworking.
  17              		@ args = 0, pretend = 0, frame = 0
  18              		@ frame_needed = 0, uses_anonymous_args = 0
  19              		@ link register save eliminated.
  20              	.LVL0:
  50:synth_stereo.c ****   /* round */
  51:synth_stereo.c ****   sample += (1L << (MAD_F_FRACBITS - 16));
  21              		.loc 1 51 0
  22 0000 010A80E2 		add	r0, r0, #4096
  23              	.LVL1:
  24 0004 0F0250E3 		cmp	r0, #-268435456
  25 0008 0F02A0B3 		movlt	r0, #-268435456
  26              	.LVL2:
  27 000c 0F32E0E3 		mvn	r3, #-268435456
  28 0010 030050E1 		cmp	r0, r3
  29 0014 0300A0A1 		movge	r0, r3
  30              	.LVL3:
  52:synth_stereo.c **** 
  53:synth_stereo.c ****   /* clip */
  54:synth_stereo.c ****   if (sample >= MAD_F_ONE)
  55:synth_stereo.c ****     sample = MAD_F_ONE - 1;
  56:synth_stereo.c ****   else if (sample < -MAD_F_ONE)
  57:synth_stereo.c ****     sample = -MAD_F_ONE;
  58:synth_stereo.c **** 
  59:synth_stereo.c ****   /* quantize */
  60:synth_stereo.c ****   return sample >> (MAD_F_FRACBITS + 1 - 16);
  61:synth_stereo.c **** }
  31              		.loc 1 61 0
  32 0018 C006A0E1 		mov	r0, r0, asr #13
  33              		.loc 1 49 0
  34              		@ lr needed for prologue
  35              		.loc 1 61 0
  36 001c 1EFF2FE1 		bx	lr
  37              	.LFE2:
  38              		.size	scale, .-scale
  39              		.align	2
  40              		.global	mad_synth_mute
  41              		.type	mad_synth_mute, %function
  42              	mad_synth_mute:
  43              	.LFB4:
  62:synth_stereo.c **** /*
  63:synth_stereo.c ****  * NAME:	synth->init()
  64:synth_stereo.c ****  * DESCRIPTION:	initialize synth struct
  65:synth_stereo.c ****  */
  66:synth_stereo.c **** void mad_synth_init(struct mad_synth *synth)
  67:synth_stereo.c **** {
ARM GAS  /cygdrive/c/DOCUME~1/mkwapisz/LOCALS~1/Temp/cc1OEM1Z.s 			page 3


  68:synth_stereo.c ****   mad_synth_mute(synth);
  69:synth_stereo.c **** 
  70:synth_stereo.c ****   synth->phase = 0;
  71:synth_stereo.c **** 
  72:synth_stereo.c ****   synth->pcm.samplerate = 0;
  73:synth_stereo.c ****   synth->pcm.channels   = 0;
  74:synth_stereo.c ****   synth->pcm.length     = 0;  
  75:synth_stereo.c **** }
  76:synth_stereo.c **** 
  77:synth_stereo.c **** /*
  78:synth_stereo.c ****  * NAME:	synth->mute()
  79:synth_stereo.c ****  * DESCRIPTION:	zero all polyphase filterbank values, resetting synthesis
  80:synth_stereo.c ****  */
  81:synth_stereo.c **** void mad_synth_mute(struct mad_synth *synth)
  82:synth_stereo.c **** {
  44              		.loc 1 82 0
  45              		@ Function supports interworking.
  46              		@ args = 0, pretend = 0, frame = 0
  47              		@ frame_needed = 0, uses_anonymous_args = 0
  48              	.LVL4:
  49 0020 04E02DE5 		str	lr, [sp, #-4]!
  50              	.LCFI0:
  51              		.loc 1 82 0
  52 0024 00E0A0E3 		mov	lr, #0
  53              	.LVL5:
  54 0028 150000EA 		b	.L4
  55              	.LVL6:
  56              	.L5:
  83:synth_stereo.c ****   unsigned int ch, s, v;
  84:synth_stereo.c **** 
  85:synth_stereo.c ****   for (ch = 0; ch < 2; ++ch) {
  86:synth_stereo.c ****     for (s = 0; s < 16; ++s) {
  87:synth_stereo.c ****       for (v = 0; v < 8; ++v) {
  57              		.loc 1 87 0
  58 002c 011081E2 		add	r1, r1, #1
  88:synth_stereo.c ****             synth->filter[ch][0][0][s][v] = synth->filter[ch][0][1][s][v] =
  59              		.loc 1 88 0
  60 0030 0030A0E3 		mov	r3, #0
  61              		.loc 1 87 0
  62 0034 080051E3 		cmp	r1, #8
  63              		.loc 1 88 0
  64 0038 003602E5 		str	r3, [r2, #-1536]
  65 003c 003082E5 		str	r3, [r2, #0]
  66 0040 003202E5 		str	r3, [r2, #-512]
  67 0044 003402E5 		str	r3, [r2, #-1024]
  68              		.loc 1 87 0
  69 0048 042082E2 		add	r2, r2, #4
  70 004c F6FFFF1A 		bne	.L5
  71              		.loc 1 86 0
  72 0050 01C08CE2 		add	ip, ip, #1
  73 0054 10005CE3 		cmp	ip, #16
  74 0058 0300001A 		bne	.L7
  75              		.loc 1 85 0
  76 005c 01E08EE2 		add	lr, lr, #1
  77 0060 02005EE3 		cmp	lr, #2
  78 0064 0800000A 		beq	.L16
  79 0068 050000EA 		b	.L4
ARM GAS  /cygdrive/c/DOCUME~1/mkwapisz/LOCALS~1/Temp/cc1OEM1Z.s 			page 4


  80              	.L7:
  89:synth_stereo.c **** 	    synth->filter[ch][1][0][s][v] = synth->filter[ch][1][1][s][v] = 0;
  90:synth_stereo.c ****       }
  91:synth_stereo.c ****     }
  92:synth_stereo.c ****   }
  93:synth_stereo.c **** }
  81              		.loc 1 93 0
  82 006c 0E338CE0 		add	r3, ip, lr, asl #6
  83 0070 8332A0E1 		mov	r3, r3, asl #5
  84 0074 063C83E2 		add	r3, r3, #1536
  85 0078 032080E0 		add	r2, r0, r3
  86 007c 0010A0E3 		mov	r1, #0
  87 0080 E9FFFFEA 		b	.L5
  88              	.L4:
  89 0084 00C0A0E3 		mov	ip, #0
  90 0088 F7FFFFEA 		b	.L7
  91              	.L16:
  92 008c 04E09DE4 		ldr	lr, [sp], #4
  93 0090 1EFF2FE1 		bx	lr
  94              	.LFE4:
  95              		.size	mad_synth_mute, .-mad_synth_mute
  96              		.align	2
  97              		.global	mad_synth_init
  98              		.type	mad_synth_init, %function
  99              	mad_synth_init:
 100              	.LFB3:
 101              		.loc 1 67 0
 102              		@ Function supports interworking.
 103              		@ args = 0, pretend = 0, frame = 0
 104              		@ frame_needed = 0, uses_anonymous_args = 0
 105              	.LVL7:
 106 0094 10402DE9 		stmfd	sp!, {r4, lr}
 107              	.LCFI1:
 108              		.loc 1 67 0
 109 0098 0040A0E1 		mov	r4, r0
 110              		.loc 1 68 0
 111 009c FEFFFFEB 		bl	mad_synth_mute
 112              	.LVL8:
 113              		.loc 1 74 0
 114 00a0 24309FE5 		ldr	r3, .L19
 115              		.loc 1 70 0
 116 00a4 0020A0E3 		mov	r2, #0
 117              		.loc 1 74 0
 118 00a8 B32084E1 		strh	r2, [r4, r3]	@ movhi
 119              		.loc 1 70 0
 120 00ac 013AA0E3 		mov	r3, #4096
 121 00b0 032084E7 		str	r2, [r4, r3]
 122              		.loc 1 72 0
 123 00b4 043083E2 		add	r3, r3, #4
 124 00b8 032084E7 		str	r2, [r4, r3]
 125              		.loc 1 73 0
 126 00bc 043083E2 		add	r3, r3, #4
 127 00c0 B32084E1 		strh	r2, [r4, r3]	@ movhi
 128              		.loc 1 75 0
 129 00c4 1040BDE8 		ldmfd	sp!, {r4, lr}
 130 00c8 1EFF2FE1 		bx	lr
 131              	.L20:
ARM GAS  /cygdrive/c/DOCUME~1/mkwapisz/LOCALS~1/Temp/cc1OEM1Z.s 			page 5


 132              		.align	2
 133              	.L19:
 134 00cc 0A100000 		.word	4106
 135              	.LFE3:
 136              		.size	mad_synth_init, .-mad_synth_init
 137              		.align	2
 138              		.global	mad_synth_frame
 139              		.type	mad_synth_frame, %function
 140              	mad_synth_frame:
 141              	.LFB8:
  94:synth_stereo.c **** 
  95:synth_stereo.c **** /*
  96:synth_stereo.c ****  * An optional optimization called here the Subband Synthesis Optimization
  97:synth_stereo.c ****  * (SSO) improves the performance of subband synthesis at the expense of
  98:synth_stereo.c ****  * accuracy.
  99:synth_stereo.c ****  *
 100:synth_stereo.c ****  * The idea is to simplify 32x32->64-bit multiplication to 32x32->32 such
 101:synth_stereo.c ****  * that extra scaling and rounding are not necessary. This often allows the
 102:synth_stereo.c ****  * compiler to use faster 32-bit multiply-accumulate instructions instead of
 103:synth_stereo.c ****  * explicit 64-bit multiply, shift, and add instructions.
 104:synth_stereo.c ****  *
 105:synth_stereo.c ****  * SSO works like this: a full 32x32->64-bit multiply of two mad_fixed_t
 106:synth_stereo.c ****  * values requires the result to be right-shifted 28 bits to be properly
 107:synth_stereo.c ****  * scaled to the same fixed-point format. Right shifts can be applied at any
 108:synth_stereo.c ****  * time to either operand or to the result, so the optimization involves
 109:synth_stereo.c ****  * careful placement of these shifts to minimize the loss of accuracy.
 110:synth_stereo.c ****  *
 111:synth_stereo.c ****  * First, a 14-bit shift is applied with rounding at compile-time to the D[]
 112:synth_stereo.c ****  * table of coefficients for the subband synthesis window. This only loses 2
 113:synth_stereo.c ****  * bits of accuracy because the lower 12 bits are always zero. A second
 114:synth_stereo.c ****  * 12-bit shift occurs after the DCT calculation. This loses 12 bits of
 115:synth_stereo.c ****  * accuracy. Finally, a third 2-bit shift occurs just before the sample is
 116:synth_stereo.c ****  * saved in the PCM buffer. 14 + 12 + 2 == 28 bits.
 117:synth_stereo.c ****  */
 118:synth_stereo.c **** 
 119:synth_stereo.c **** /* FPM_DEFAULT without OPT_SSO will actually lose accuracy and performance */
 120:synth_stereo.c **** 
 121:synth_stereo.c **** # if defined(FPM_DEFAULT) && !defined(OPT_SSO)
 122:synth_stereo.c **** #  define OPT_SSO
 123:synth_stereo.c **** # endif
 124:synth_stereo.c **** 
 125:synth_stereo.c **** /* second SSO shift, with rounding */
 126:synth_stereo.c **** 
 127:synth_stereo.c **** # if defined(OPT_SSO)
 128:synth_stereo.c **** #  define SHIFT(x)  (((x) + (1L << 11)) >> 12)
 129:synth_stereo.c **** # else
 130:synth_stereo.c **** #  define SHIFT(x)  (x)
 131:synth_stereo.c **** # endif
 132:synth_stereo.c **** 
 133:synth_stereo.c **** /* possible DCT speed optimization */
 134:synth_stereo.c **** 
 135:synth_stereo.c **** # if defined(OPT_SPEED) && defined(MAD_F_MLX)
 136:synth_stereo.c **** #  define OPT_DCTO
 137:synth_stereo.c **** #  define MUL(x, y)  \
 138:synth_stereo.c ****     ({ mad_fixed64hi_t hi;  \
 139:synth_stereo.c ****        mad_fixed64lo_t lo;  \
 140:synth_stereo.c ****        MAD_F_MLX(hi, lo, (x), (y));  \
ARM GAS  /cygdrive/c/DOCUME~1/mkwapisz/LOCALS~1/Temp/cc1OEM1Z.s 			page 6


 141:synth_stereo.c ****        hi << (32 - MAD_F_SCALEBITS - 3);  \
 142:synth_stereo.c ****     })
 143:synth_stereo.c **** # else
 144:synth_stereo.c **** #  undef OPT_DCTO
 145:synth_stereo.c **** #  define MUL(x, y)  mad_f_mul((x), (y))
 146:synth_stereo.c **** # endif
 147:synth_stereo.c **** 
 148:synth_stereo.c **** /*
 149:synth_stereo.c ****  * NAME:	dct32()
 150:synth_stereo.c ****  * DESCRIPTION:	perform fast in[32]->out[32] DCT
 151:synth_stereo.c ****  */
 152:synth_stereo.c **** static
 153:synth_stereo.c **** void dct32(mad_fixed_t const in[32], unsigned int slot,
 154:synth_stereo.c **** 	   mad_fixed_t lo[16][8], mad_fixed_t hi[16][8])
 155:synth_stereo.c **** {
 156:synth_stereo.c **** 	/*
 157:synth_stereo.c ****   mad_fixed_t t0,   t1,   t2,   t3,   t4,   t5,   t6,   t7;
 158:synth_stereo.c ****   mad_fixed_t t8,   t9,   t10,  t11,  t12,  t13,  t14,  t15;
 159:synth_stereo.c ****   mad_fixed_t t16,  t17,  t18,  t19,  t20,  t21,  t22,  t23;
 160:synth_stereo.c ****   mad_fixed_t t24,  t25,  t26,  t27,  t28,  t29,  t30,  t31;
 161:synth_stereo.c ****   mad_fixed_t t32,  t33,  t34,  t35,  t36,  t37,  t38,  t39;
 162:synth_stereo.c ****   mad_fixed_t t40,  t41,  t42,  t43,  t44,  t45,  t46,  t47;
 163:synth_stereo.c ****   mad_fixed_t t48,  t49,  t50,  t51,  t52,  t53,  t54,  t55;
 164:synth_stereo.c ****   mad_fixed_t t56,  t57,  t58,  t59,  t60,  t61,  t62,  t63;
 165:synth_stereo.c ****   mad_fixed_t t64,  t65,  t66,  t67,  t68,  t69,  t70,  t71;
 166:synth_stereo.c ****   mad_fixed_t t72,  t73,  t74,  t75,  t76,  t77,  t78,  t79;
 167:synth_stereo.c ****   mad_fixed_t t80,  t81,  t82,  t83,  t84,  t85,  t86,  t87;
 168:synth_stereo.c ****   mad_fixed_t t88,  t89,  t90,  t91,  t92,  t93,  t94,  t95;
 169:synth_stereo.c ****   mad_fixed_t t96,  t97,  t98,  t99,  t100, t101, t102, t103;
 170:synth_stereo.c ****   mad_fixed_t t104, t105, t106, t107, t108, t109, t110, t111;
 171:synth_stereo.c ****   mad_fixed_t t112, t113, t114, t115, t116, t117, t118, t119;
 172:synth_stereo.c ****   mad_fixed_t t120, t121, t122, t123, t124, t125, t126, t127;
 173:synth_stereo.c ****   mad_fixed_t t128, t129, t130, t131, t132, t133, t134, t135;
 174:synth_stereo.c ****   mad_fixed_t t136, t137, t138, t139, t140, t141, t142, t143;
 175:synth_stereo.c ****   mad_fixed_t t144, t145, t146, t147, t148, t149, t150, t151;
 176:synth_stereo.c ****   mad_fixed_t t152, t153, t154, t155, t156, t157, t158, t159;
 177:synth_stereo.c ****   mad_fixed_t t160, t161, t162, t163, t164, t165, t166, t167;
 178:synth_stereo.c ****   mad_fixed_t t168, t169, t170, t171, t172, t173, t174, t175;
 179:synth_stereo.c ****   mad_fixed_t t176;
 180:synth_stereo.c ****   */
 181:synth_stereo.c **** 
 182:synth_stereo.c ****   /* costab[i] = cos(PI / (2 * 32) * i) */
 183:synth_stereo.c **** 
 184:synth_stereo.c **** # if defined(OPT_DCTO)
 185:synth_stereo.c **** #  define costab1	MAD_F(0x7fd8878e)
 186:synth_stereo.c **** #  define costab2	MAD_F(0x7f62368f)
 187:synth_stereo.c **** #  define costab3	MAD_F(0x7e9d55fc)
 188:synth_stereo.c **** #  define costab4	MAD_F(0x7d8a5f40)
 189:synth_stereo.c **** #  define costab5	MAD_F(0x7c29fbee)
 190:synth_stereo.c **** #  define costab6	MAD_F(0x7a7d055b)
 191:synth_stereo.c **** #  define costab7	MAD_F(0x78848414)
 192:synth_stereo.c **** #  define costab8	MAD_F(0x7641af3d)
 193:synth_stereo.c **** #  define costab9	MAD_F(0x73b5ebd1)
 194:synth_stereo.c **** #  define costab10	MAD_F(0x70e2cbc6)
 195:synth_stereo.c **** #  define costab11	MAD_F(0x6dca0d14)
 196:synth_stereo.c **** #  define costab12	MAD_F(0x6a6d98a4)
 197:synth_stereo.c **** #  define costab13	MAD_F(0x66cf8120)
ARM GAS  /cygdrive/c/DOCUME~1/mkwapisz/LOCALS~1/Temp/cc1OEM1Z.s 			page 7


 198:synth_stereo.c **** #  define costab14	MAD_F(0x62f201ac)
 199:synth_stereo.c **** #  define costab15	MAD_F(0x5ed77c8a)
 200:synth_stereo.c **** #  define costab16	MAD_F(0x5a82799a)
 201:synth_stereo.c **** #  define costab17	MAD_F(0x55f5a4d2)
 202:synth_stereo.c **** #  define costab18	MAD_F(0x5133cc94)
 203:synth_stereo.c **** #  define costab19	MAD_F(0x4c3fdff4)
 204:synth_stereo.c **** #  define costab20	MAD_F(0x471cece7)
 205:synth_stereo.c **** #  define costab21	MAD_F(0x41ce1e65)
 206:synth_stereo.c **** #  define costab22	MAD_F(0x3c56ba70)
 207:synth_stereo.c **** #  define costab23	MAD_F(0x36ba2014)
 208:synth_stereo.c **** #  define costab24	MAD_F(0x30fbc54d)
 209:synth_stereo.c **** #  define costab25	MAD_F(0x2b1f34eb)
 210:synth_stereo.c **** #  define costab26	MAD_F(0x25280c5e)
 211:synth_stereo.c **** #  define costab27	MAD_F(0x1f19f97b)
 212:synth_stereo.c **** #  define costab28	MAD_F(0x18f8b83c)
 213:synth_stereo.c **** #  define costab29	MAD_F(0x12c8106f)
 214:synth_stereo.c **** #  define costab30	MAD_F(0x0c8bd35e)
 215:synth_stereo.c **** #  define costab31	MAD_F(0x0647d97c)
 216:synth_stereo.c **** # else
 217:synth_stereo.c **** #  define costab1	MAD_F(0x0ffb10f2)  /* 0.998795456 */
 218:synth_stereo.c **** #  define costab2	MAD_F(0x0fec46d2)  /* 0.995184727 */
 219:synth_stereo.c **** #  define costab3	MAD_F(0x0fd3aac0)  /* 0.989176510 */
 220:synth_stereo.c **** #  define costab4	MAD_F(0x0fb14be8)  /* 0.980785280 */
 221:synth_stereo.c **** #  define costab5	MAD_F(0x0f853f7e)  /* 0.970031253 */
 222:synth_stereo.c **** #  define costab6	MAD_F(0x0f4fa0ab)  /* 0.956940336 */
 223:synth_stereo.c **** #  define costab7	MAD_F(0x0f109082)  /* 0.941544065 */
 224:synth_stereo.c **** #  define costab8	MAD_F(0x0ec835e8)  /* 0.923879533 */
 225:synth_stereo.c **** #  define costab9	MAD_F(0x0e76bd7a)  /* 0.903989293 */
 226:synth_stereo.c **** #  define costab10	MAD_F(0x0e1c5979)  /* 0.881921264 */
 227:synth_stereo.c **** #  define costab11	MAD_F(0x0db941a3)  /* 0.857728610 */
 228:synth_stereo.c **** #  define costab12	MAD_F(0x0d4db315)  /* 0.831469612 */
 229:synth_stereo.c **** #  define costab13	MAD_F(0x0cd9f024)  /* 0.803207531 */
 230:synth_stereo.c **** #  define costab14	MAD_F(0x0c5e4036)  /* 0.773010453 */
 231:synth_stereo.c **** #  define costab15	MAD_F(0x0bdaef91)  /* 0.740951125 */
 232:synth_stereo.c **** #  define costab16	MAD_F(0x0b504f33)  /* 0.707106781 */
 233:synth_stereo.c **** #  define costab17	MAD_F(0x0abeb49a)  /* 0.671558955 */
 234:synth_stereo.c **** #  define costab18	MAD_F(0x0a267993)  /* 0.634393284 */
 235:synth_stereo.c **** #  define costab19	MAD_F(0x0987fbfe)  /* 0.595699304 */
 236:synth_stereo.c **** #  define costab20	MAD_F(0x08e39d9d)  /* 0.555570233 */
 237:synth_stereo.c **** #  define costab21	MAD_F(0x0839c3cd)  /* 0.514102744 */
 238:synth_stereo.c **** #  define costab22	MAD_F(0x078ad74e)  /* 0.471396737 */
 239:synth_stereo.c **** #  define costab23	MAD_F(0x06d74402)  /* 0.427555093 */
 240:synth_stereo.c **** #  define costab24	MAD_F(0x061f78aa)  /* 0.382683432 */
 241:synth_stereo.c **** #  define costab25	MAD_F(0x0563e69d)  /* 0.336889853 */
 242:synth_stereo.c **** #  define costab26	MAD_F(0x04a5018c)  /* 0.290284677 */
 243:synth_stereo.c **** #  define costab27	MAD_F(0x03e33f2f)  /* 0.242980180 */
 244:synth_stereo.c **** #  define costab28	MAD_F(0x031f1708)  /* 0.195090322 */
 245:synth_stereo.c **** #  define costab29	MAD_F(0x0259020e)  /* 0.146730474 */
 246:synth_stereo.c **** #  define costab30	MAD_F(0x01917a6c)  /* 0.098017140 */
 247:synth_stereo.c **** #  define costab31	MAD_F(0x00c8fb30)  /* 0.049067674 */
 248:synth_stereo.c **** # endif
 249:synth_stereo.c **** 
 250:synth_stereo.c ****   const mad_fixed_t t0   = in[0]  + in[31];  const mad_fixed_t t16  = MUL(in[0]  - in[31], costab1)
 251:synth_stereo.c ****   const mad_fixed_t t1   = in[15] + in[16];  const mad_fixed_t t17  = MUL(in[15] - in[16], costab31
 252:synth_stereo.c **** 
 253:synth_stereo.c ****   const mad_fixed_t t41  = t16 + t17;
 254:synth_stereo.c ****   const mad_fixed_t t59  = MUL(t16 - t17, costab2);
ARM GAS  /cygdrive/c/DOCUME~1/mkwapisz/LOCALS~1/Temp/cc1OEM1Z.s 			page 8


 255:synth_stereo.c ****   const mad_fixed_t t33  = t0  + t1;
 256:synth_stereo.c ****   const mad_fixed_t t50  = MUL(t0  - t1,  costab2);
 257:synth_stereo.c **** 
 258:synth_stereo.c ****   const mad_fixed_t t2   = in[7]  + in[24];  const mad_fixed_t t18  = MUL(in[7]  - in[24], costab15
 259:synth_stereo.c ****   const mad_fixed_t t3   = in[8]  + in[23];  const mad_fixed_t t19  = MUL(in[8]  - in[23], costab17
 260:synth_stereo.c **** 
 261:synth_stereo.c ****   const mad_fixed_t t42  = t18 + t19;
 262:synth_stereo.c ****   const mad_fixed_t t60  = MUL(t18 - t19, costab30);
 263:synth_stereo.c ****   const mad_fixed_t t34  = t2  + t3;
 264:synth_stereo.c ****   const mad_fixed_t t51  = MUL(t2  - t3,  costab30);
 265:synth_stereo.c **** 
 266:synth_stereo.c ****   const mad_fixed_t t4   = in[3]  + in[28];  const mad_fixed_t t20  = MUL(in[3]  - in[28], costab7)
 267:synth_stereo.c ****   const mad_fixed_t t5   = in[12] + in[19];  const mad_fixed_t t21  = MUL(in[12] - in[19], costab25
 268:synth_stereo.c **** 
 269:synth_stereo.c ****   const mad_fixed_t t43  = t20 + t21;
 270:synth_stereo.c ****   const mad_fixed_t t61  = MUL(t20 - t21, costab14);
 271:synth_stereo.c ****   const mad_fixed_t t35  = t4  + t5;
 272:synth_stereo.c ****   const mad_fixed_t t52  = MUL(t4  - t5,  costab14);
 273:synth_stereo.c **** 
 274:synth_stereo.c ****   const mad_fixed_t t6   = in[4]  + in[27];  const mad_fixed_t t22  = MUL(in[4]  - in[27], costab9)
 275:synth_stereo.c ****   const mad_fixed_t t7   = in[11] + in[20];  const mad_fixed_t t23  = MUL(in[11] - in[20], costab23
 276:synth_stereo.c **** 
 277:synth_stereo.c ****   const mad_fixed_t t44  = t22 + t23;
 278:synth_stereo.c ****   const mad_fixed_t t62  = MUL(t22 - t23, costab18);
 279:synth_stereo.c ****   const mad_fixed_t t36  = t6  + t7;
 280:synth_stereo.c ****   const mad_fixed_t t53  = MUL(t6  - t7,  costab18);
 281:synth_stereo.c **** 
 282:synth_stereo.c ****   const mad_fixed_t t8   = in[1]  + in[30];  const mad_fixed_t t24  = MUL(in[1]  - in[30], costab3)
 283:synth_stereo.c ****   const mad_fixed_t t9   = in[14] + in[17];  const mad_fixed_t t25  = MUL(in[14] - in[17], costab29
 284:synth_stereo.c **** 
 285:synth_stereo.c ****   const mad_fixed_t t45  = t24 + t25;
 286:synth_stereo.c ****   const mad_fixed_t t63  = MUL(t24 - t25, costab6);
 287:synth_stereo.c ****   const mad_fixed_t t37  = t8  + t9;
 288:synth_stereo.c ****   const mad_fixed_t t54  = MUL(t8  - t9,  costab6);
 289:synth_stereo.c **** 
 290:synth_stereo.c ****   const mad_fixed_t t10  = in[6]  + in[25];  const mad_fixed_t t26  = MUL(in[6]  - in[25], costab13
 291:synth_stereo.c ****   const mad_fixed_t t11  = in[9]  + in[22];  const mad_fixed_t t27  = MUL(in[9]  - in[22], costab19
 292:synth_stereo.c **** 
 293:synth_stereo.c ****   const mad_fixed_t t46  = t26 + t27;
 294:synth_stereo.c ****   const mad_fixed_t t64  = MUL(t26 - t27, costab26);
 295:synth_stereo.c ****   const mad_fixed_t t38  = t10 + t11;
 296:synth_stereo.c ****   const mad_fixed_t t55  = MUL(t10 - t11, costab26);
 297:synth_stereo.c **** 
 298:synth_stereo.c ****   const mad_fixed_t t12  = in[2]  + in[29];  const mad_fixed_t t28  = MUL(in[2]  - in[29], costab5)
 299:synth_stereo.c ****   const mad_fixed_t t13  = in[13] + in[18];  const mad_fixed_t t29  = MUL(in[13] - in[18], costab27
 300:synth_stereo.c **** 
 301:synth_stereo.c ****   const mad_fixed_t t47  = t28 + t29;
 302:synth_stereo.c ****   const mad_fixed_t t65  = MUL(t28 - t29, costab10);
 303:synth_stereo.c ****   const mad_fixed_t t39  = t12 + t13;
 304:synth_stereo.c ****   const mad_fixed_t t56  = MUL(t12 - t13, costab10);
 305:synth_stereo.c **** 
 306:synth_stereo.c ****   const mad_fixed_t t14  = in[5]  + in[26];  const mad_fixed_t t30  = MUL(in[5]  - in[26], costab11
 307:synth_stereo.c ****   const mad_fixed_t t15  = in[10] + in[21];  const mad_fixed_t t31  = MUL(in[10] - in[21], costab21
 308:synth_stereo.c **** 
 309:synth_stereo.c ****   const mad_fixed_t t48  = t30 + t31;
 310:synth_stereo.c ****   const mad_fixed_t t66  = MUL(t30 - t31, costab22);
 311:synth_stereo.c ****   const mad_fixed_t t40  = t14 + t15;
ARM GAS  /cygdrive/c/DOCUME~1/mkwapisz/LOCALS~1/Temp/cc1OEM1Z.s 			page 9


 312:synth_stereo.c ****   const mad_fixed_t t57  = MUL(t14 - t15, costab22);
 313:synth_stereo.c **** 
 314:synth_stereo.c ****   const mad_fixed_t t69  = t33 + t34; const mad_fixed_t  t89  = MUL(t33 - t34, costab4);
 315:synth_stereo.c ****   const mad_fixed_t t70  = t35 + t36; const mad_fixed_t  t90  = MUL(t35 - t36, costab28);
 316:synth_stereo.c ****   const mad_fixed_t t71  = t37 + t38; const mad_fixed_t  t91  = MUL(t37 - t38, costab12);
 317:synth_stereo.c ****   const mad_fixed_t t72  = t39 + t40; const mad_fixed_t  t92  = MUL(t39 - t40, costab20);
 318:synth_stereo.c ****   const mad_fixed_t t73  = t41 + t42; const mad_fixed_t  t94  = MUL(t41 - t42, costab4);
 319:synth_stereo.c ****   const mad_fixed_t t74  = t43 + t44; const mad_fixed_t  t95  = MUL(t43 - t44, costab28);
 320:synth_stereo.c ****   const mad_fixed_t  t75  = t45 + t46; const mad_fixed_t  t96  = MUL(t45 - t46, costab12);
 321:synth_stereo.c ****   const mad_fixed_t  t76  = t47 + t48; const mad_fixed_t  t97  = MUL(t47 - t48, costab20);
 322:synth_stereo.c **** 
 323:synth_stereo.c ****   const mad_fixed_t t78  = t50 + t51;  const mad_fixed_t t100 = MUL(t50 - t51, costab4);
 324:synth_stereo.c ****   const mad_fixed_t t79  = t52 + t53;  const mad_fixed_t t101 = MUL(t52 - t53, costab28);
 325:synth_stereo.c ****   const mad_fixed_t t80  = t54 + t55;  const mad_fixed_t t102 = MUL(t54 - t55, costab12);
 326:synth_stereo.c ****   const mad_fixed_t t81  = t56 + t57;  const mad_fixed_t t103 = MUL(t56 - t57, costab20);
 327:synth_stereo.c **** 
 328:synth_stereo.c ****   const mad_fixed_t t83  = t59 + t60;  const mad_fixed_t t106 = MUL(t59 - t60, costab4);
 329:synth_stereo.c ****   const mad_fixed_t t84  = t61 + t62;  const mad_fixed_t t107 = MUL(t61 - t62, costab28);
 330:synth_stereo.c ****   const mad_fixed_t t85  = t63 + t64;  const mad_fixed_t t108 = MUL(t63 - t64, costab12);
 331:synth_stereo.c ****   const mad_fixed_t t86  = t65 + t66;  const mad_fixed_t t109 = MUL(t65 - t66, costab20);
 332:synth_stereo.c **** 
 333:synth_stereo.c ****   const mad_fixed_t t113 = t69  + t70;
 334:synth_stereo.c ****   const mad_fixed_t t114 = t71  + t72;
 335:synth_stereo.c **** 
 336:synth_stereo.c ****   /*  0 */ hi[15][slot] = SHIFT(t113 + t114);
 337:synth_stereo.c ****   /* 16 */ lo[ 0][slot] = SHIFT(MUL(t113 - t114, costab16));
 338:synth_stereo.c **** 
 339:synth_stereo.c ****   const mad_fixed_t t115 = t73  + t74;
 340:synth_stereo.c ****   const mad_fixed_t t116 = t75  + t76;
 341:synth_stereo.c **** 
 342:synth_stereo.c ****   const mad_fixed_t t32  = t115 + t116;
 343:synth_stereo.c **** 
 344:synth_stereo.c ****   /*  1 */ hi[14][slot] = SHIFT(t32);
 345:synth_stereo.c **** 
 346:synth_stereo.c ****   const mad_fixed_t t118 = t78  + t79;
 347:synth_stereo.c ****   const mad_fixed_t t119 = t80  + t81;
 348:synth_stereo.c **** 
 349:synth_stereo.c ****   const mad_fixed_t t58  = t118 + t119;
 350:synth_stereo.c **** 
 351:synth_stereo.c ****   /*  2 */ hi[13][slot] = SHIFT(t58);
 352:synth_stereo.c **** 
 353:synth_stereo.c ****   const mad_fixed_t t121 = t83  + t84;
 354:synth_stereo.c ****   const mad_fixed_t t122 = t85  + t86;
 355:synth_stereo.c **** 
 356:synth_stereo.c ****   const mad_fixed_t  t67  = t121 + t122;
 357:synth_stereo.c **** 
 358:synth_stereo.c ****   const mad_fixed_t t49  = (t67 * 2) - t32;
 359:synth_stereo.c **** 
 360:synth_stereo.c ****   /*  3 */ hi[12][slot] = SHIFT(t49);
 361:synth_stereo.c **** 
 362:synth_stereo.c ****   const mad_fixed_t t125 = t89  + t90;
 363:synth_stereo.c ****   const mad_fixed_t t126 = t91  + t92;
 364:synth_stereo.c **** 
 365:synth_stereo.c ****   const mad_fixed_t t93  = t125 + t126;
 366:synth_stereo.c **** 
 367:synth_stereo.c ****   /*  4 */ hi[11][slot] = SHIFT(t93);
 368:synth_stereo.c **** 
ARM GAS  /cygdrive/c/DOCUME~1/mkwapisz/LOCALS~1/Temp/cc1OEM1Z.s 			page 10


 369:synth_stereo.c ****   const mad_fixed_t t128 = t94  + t95;
 370:synth_stereo.c ****   const mad_fixed_t t129 = t96  + t97;
 371:synth_stereo.c **** 
 372:synth_stereo.c ****   const mad_fixed_t t98  = t128 + t129;
 373:synth_stereo.c **** 
 374:synth_stereo.c ****   const mad_fixed_t t68  = (t98 * 2) - t49;
 375:synth_stereo.c **** 
 376:synth_stereo.c ****   /*  5 */ hi[10][slot] = SHIFT(t68);
 377:synth_stereo.c **** 
 378:synth_stereo.c ****   const mad_fixed_t t132 = t100 + t101;
 379:synth_stereo.c ****   const mad_fixed_t t133 = t102 + t103;
 380:synth_stereo.c **** 
 381:synth_stereo.c ****   const mad_fixed_t t104 = t132 + t133;
 382:synth_stereo.c **** 
 383:synth_stereo.c ****   const mad_fixed_t t82  = (t104 * 2) - t58;
 384:synth_stereo.c **** 
 385:synth_stereo.c ****   /*  6 */ hi[ 9][slot] = SHIFT(t82);
 386:synth_stereo.c **** 
 387:synth_stereo.c ****   const mad_fixed_t t136 = t106 + t107;
 388:synth_stereo.c ****   const mad_fixed_t t137 = t108 + t109;
 389:synth_stereo.c **** 
 390:synth_stereo.c ****   const mad_fixed_t t110 = t136 + t137;
 391:synth_stereo.c **** 
 392:synth_stereo.c ****   const mad_fixed_t t87  = (t110 * 2) - t67;
 393:synth_stereo.c **** 
 394:synth_stereo.c ****   const mad_fixed_t t77  = (t87 * 2) - t68;
 395:synth_stereo.c **** 
 396:synth_stereo.c ****   /*  7 */ hi[ 8][slot] = SHIFT(t77);
 397:synth_stereo.c **** 
 398:synth_stereo.c ****   const mad_fixed_t t141 = MUL(t69 - t70, costab8);
 399:synth_stereo.c ****   const mad_fixed_t t142 = MUL(t71 - t72, costab24);
 400:synth_stereo.c ****   const mad_fixed_t t143 = t141 + t142;
 401:synth_stereo.c **** 
 402:synth_stereo.c ****   /*  8 */ hi[ 7][slot] = SHIFT(t143);
 403:synth_stereo.c ****   /* 24 */ lo[ 8][slot] =
 404:synth_stereo.c **** 	     SHIFT((MUL(t141 - t142, costab16) * 2) - t143);
 405:synth_stereo.c **** 
 406:synth_stereo.c ****   const mad_fixed_t t144 = MUL(t73 - t74, costab8);
 407:synth_stereo.c ****   const mad_fixed_t t145 = MUL(t75 - t76, costab24);
 408:synth_stereo.c ****   const mad_fixed_t t146 = t144 + t145;
 409:synth_stereo.c **** 
 410:synth_stereo.c ****   const mad_fixed_t t88  = (t146 * 2) - t77;
 411:synth_stereo.c **** 
 412:synth_stereo.c ****   /*  9 */ hi[ 6][slot] = SHIFT(t88);
 413:synth_stereo.c **** 
 414:synth_stereo.c ****   const mad_fixed_t t148 = MUL(t78 - t79, costab8);
 415:synth_stereo.c ****   const mad_fixed_t t149 = MUL(t80 - t81, costab24);
 416:synth_stereo.c ****   const mad_fixed_t t150 = t148 + t149;
 417:synth_stereo.c **** 
 418:synth_stereo.c ****   const mad_fixed_t t105 = (t150 * 2) - t82;
 419:synth_stereo.c **** 
 420:synth_stereo.c ****   /* 10 */ hi[ 5][slot] = SHIFT(t105);
 421:synth_stereo.c **** 
 422:synth_stereo.c ****   const mad_fixed_t t152 = MUL(t83 - t84, costab8);
 423:synth_stereo.c ****   const mad_fixed_t t153 = MUL(t85 - t86, costab24);
 424:synth_stereo.c ****   const mad_fixed_t t154 = t152 + t153;
 425:synth_stereo.c **** 
ARM GAS  /cygdrive/c/DOCUME~1/mkwapisz/LOCALS~1/Temp/cc1OEM1Z.s 			page 11


 426:synth_stereo.c ****   const mad_fixed_t t111 = (t154 * 2) - t87;
 427:synth_stereo.c **** 
 428:synth_stereo.c ****   const mad_fixed_t t99  = (t111 * 2) - t88;
 429:synth_stereo.c **** 
 430:synth_stereo.c ****   /* 11 */ hi[ 4][slot] = SHIFT(t99);
 431:synth_stereo.c **** 
 432:synth_stereo.c ****   const mad_fixed_t t157 = MUL(t89 - t90, costab8);
 433:synth_stereo.c ****   const mad_fixed_t t158 = MUL(t91 - t92, costab24);
 434:synth_stereo.c ****   const mad_fixed_t t159 = t157 + t158;
 435:synth_stereo.c **** 
 436:synth_stereo.c ****   const mad_fixed_t  t127 = (t159 * 2) - t93;
 437:synth_stereo.c **** 
 438:synth_stereo.c ****   /* 12 */ hi[ 3][slot] = SHIFT(t127);
 439:synth_stereo.c **** 
 440:synth_stereo.c ****   const mad_fixed_t t160 = (MUL(t125 - t126, costab16) * 2) - t127;
 441:synth_stereo.c **** 
 442:synth_stereo.c ****   /* 20 */ lo[ 4][slot] = SHIFT(t160);
 443:synth_stereo.c ****   /* 28 */ lo[12][slot] =
 444:synth_stereo.c **** 	     SHIFT((((MUL(t157 - t158, costab16) * 2) - t159) * 2) - t160);
 445:synth_stereo.c **** 
 446:synth_stereo.c ****   const mad_fixed_t t161 = MUL(t94 - t95, costab8);
 447:synth_stereo.c ****   const mad_fixed_t t162 = MUL(t96 - t97, costab24);
 448:synth_stereo.c ****   const mad_fixed_t t163 = t161 + t162;
 449:synth_stereo.c **** 
 450:synth_stereo.c ****   const mad_fixed_t t130 = (t163 * 2) - t98;
 451:synth_stereo.c **** 
 452:synth_stereo.c ****   const mad_fixed_t t112 = (t130 * 2) - t99;
 453:synth_stereo.c **** 
 454:synth_stereo.c ****   /* 13 */ hi[ 2][slot] = SHIFT(t112);
 455:synth_stereo.c **** 
 456:synth_stereo.c ****   const mad_fixed_t t164 = (MUL(t128 - t129, costab16) * 2) - t130;
 457:synth_stereo.c **** 
 458:synth_stereo.c ****   const mad_fixed_t t166 = MUL(t100 - t101, costab8);
 459:synth_stereo.c ****   const mad_fixed_t t167 = MUL(t102 - t103, costab24);
 460:synth_stereo.c ****   const mad_fixed_t t168 = t166 + t167;
 461:synth_stereo.c **** 
 462:synth_stereo.c ****   const mad_fixed_t t134 = (t168 * 2) - t104;
 463:synth_stereo.c **** 
 464:synth_stereo.c ****   const mad_fixed_t t120 = (t134 * 2) - t105;
 465:synth_stereo.c **** 
 466:synth_stereo.c ****   /* 14 */ hi[ 1][slot] = SHIFT(t120);
 467:synth_stereo.c **** 
 468:synth_stereo.c ****   const mad_fixed_t t135 = (MUL(t118 - t119, costab16) * 2) - t120;
 469:synth_stereo.c **** 
 470:synth_stereo.c ****   /* 18 */ lo[ 2][slot] = SHIFT(t135);
 471:synth_stereo.c **** 
 472:synth_stereo.c ****   const mad_fixed_t t169 = (MUL(t132 - t133, costab16) * 2) - t134;
 473:synth_stereo.c **** 
 474:synth_stereo.c ****   const mad_fixed_t  t151 = (t169 * 2) - t135;
 475:synth_stereo.c **** 
 476:synth_stereo.c ****   /* 22 */ lo[ 6][slot] = SHIFT(t151);
 477:synth_stereo.c **** 
 478:synth_stereo.c ****   const mad_fixed_t t170 = (((MUL(t148 - t149, costab16) * 2) - t150) * 2) - t151;
 479:synth_stereo.c **** 
 480:synth_stereo.c ****   /* 26 */ lo[10][slot] = SHIFT(t170);
 481:synth_stereo.c ****   /* 30 */ lo[14][slot] =
 482:synth_stereo.c **** 	     SHIFT((((((MUL(t166 - t167, costab16) * 2) -
ARM GAS  /cygdrive/c/DOCUME~1/mkwapisz/LOCALS~1/Temp/cc1OEM1Z.s 			page 12


 483:synth_stereo.c **** 		       t168) * 2) - t169) * 2) - t170);
 484:synth_stereo.c **** 
 485:synth_stereo.c ****   const mad_fixed_t t171 = MUL(t106 - t107, costab8);
 486:synth_stereo.c ****   const mad_fixed_t t172 = MUL(t108 - t109, costab24);
 487:synth_stereo.c ****   const mad_fixed_t t173 = t171 + t172;
 488:synth_stereo.c **** 
 489:synth_stereo.c ****   const mad_fixed_t t138 = (t173 * 2) - t110;
 490:synth_stereo.c **** 
 491:synth_stereo.c ****   const mad_fixed_t t123 = (t138 * 2) - t111;
 492:synth_stereo.c **** 
 493:synth_stereo.c ****   const mad_fixed_t t139 = (MUL(t121 - t122, costab16) * 2) - t123;
 494:synth_stereo.c **** 
 495:synth_stereo.c ****   const mad_fixed_t t117 = (t123 * 2) - t112;
 496:synth_stereo.c **** 
 497:synth_stereo.c ****   /* 15 */ hi[ 0][slot] = SHIFT(t117);
 498:synth_stereo.c **** 
 499:synth_stereo.c ****   const mad_fixed_t t124 = (MUL(t115 - t116, costab16) * 2) - t117;
 500:synth_stereo.c **** 
 501:synth_stereo.c ****   /* 17 */ lo[ 1][slot] = SHIFT(t124);
 502:synth_stereo.c **** 
 503:synth_stereo.c ****   const mad_fixed_t t131 = (t139 * 2) - t124;
 504:synth_stereo.c **** 
 505:synth_stereo.c ****   /* 19 */ lo[ 3][slot] = SHIFT(t131);
 506:synth_stereo.c **** 
 507:synth_stereo.c ****   const mad_fixed_t t140 = (t164 * 2) - t131;
 508:synth_stereo.c **** 
 509:synth_stereo.c ****   /* 21 */ lo[ 5][slot] = SHIFT(t140);
 510:synth_stereo.c **** 
 511:synth_stereo.c ****   const mad_fixed_t t174 = (MUL(t136 - t137, costab16) * 2) - t138;
 512:synth_stereo.c **** 
 513:synth_stereo.c ****   const mad_fixed_t t155 = (t174 * 2) - t139;
 514:synth_stereo.c **** 
 515:synth_stereo.c ****   const mad_fixed_t t147 = (t155 * 2) - t140;
 516:synth_stereo.c **** 
 517:synth_stereo.c ****   /* 23 */ lo[ 7][slot] = SHIFT(t147);
 518:synth_stereo.c **** 
 519:synth_stereo.c ****   const mad_fixed_t t156 = (((MUL(t144 - t145, costab16) * 2) - t146) * 2) - t147;
 520:synth_stereo.c **** 
 521:synth_stereo.c ****   /* 25 */ lo[ 9][slot] = SHIFT(t156);
 522:synth_stereo.c **** 
 523:synth_stereo.c ****   const mad_fixed_t t175 = (((MUL(t152 - t153, costab16) * 2) - t154) * 2) - t155;
 524:synth_stereo.c **** 
 525:synth_stereo.c ****   const mad_fixed_t t165 = (t175 * 2) - t156;
 526:synth_stereo.c **** 
 527:synth_stereo.c ****   /* 27 */ lo[11][slot] = SHIFT(t165);
 528:synth_stereo.c **** 
 529:synth_stereo.c ****   const mad_fixed_t t176 = (((((MUL(t161 - t162, costab16) * 2) -
 530:synth_stereo.c **** 	     t163) * 2) - t164) * 2) - t165;
 531:synth_stereo.c **** 
 532:synth_stereo.c ****   /* 29 */ lo[13][slot] = SHIFT(t176);
 533:synth_stereo.c ****   /* 31 */ lo[15][slot] =
 534:synth_stereo.c **** 	     SHIFT((((((((MUL(t171 - t172, costab16) * 2) -
 535:synth_stereo.c **** 			 t173) * 2) - t174) * 2) - t175) * 2) - t176);
 536:synth_stereo.c **** 
 537:synth_stereo.c ****   /*
 538:synth_stereo.c ****    * Totals:
 539:synth_stereo.c ****    *  80 multiplies
ARM GAS  /cygdrive/c/DOCUME~1/mkwapisz/LOCALS~1/Temp/cc1OEM1Z.s 			page 13


 540:synth_stereo.c ****    *  80 additions
 541:synth_stereo.c ****    * 119 subtractions
 542:synth_stereo.c ****    *  49 shifts (not counting SSO)
 543:synth_stereo.c ****    */
 544:synth_stereo.c **** }
 545:synth_stereo.c **** 
 546:synth_stereo.c **** # undef MUL
 547:synth_stereo.c **** # undef SHIFT
 548:synth_stereo.c **** 
 549:synth_stereo.c **** /* third SSO shift and/or D[] optimization preshift */
 550:synth_stereo.c **** 
 551:synth_stereo.c **** # if defined(OPT_SSO)
 552:synth_stereo.c **** #  if MAD_F_FRACBITS != 28
 553:synth_stereo.c **** #   error "MAD_F_FRACBITS must be 28 to use OPT_SSO"
 554:synth_stereo.c **** #  endif
 555:synth_stereo.c **** #  define ML0(hi, lo, x, y)	((lo)  = (x) * (y))
 556:synth_stereo.c **** #  define MLA(hi, lo, x, y)	((lo) += (x) * (y))
 557:synth_stereo.c **** #  define MLN(hi, lo)		((lo)  = -(lo))
 558:synth_stereo.c **** #  define MLZ(hi, lo)		((void) (hi), (mad_fixed_t) (lo))
 559:synth_stereo.c **** #  define SHIFT(x)		((x) >> 2)
 560:synth_stereo.c **** #  define PRESHIFT(x)		((MAD_F(x) + (1L << 13)) >> 14)
 561:synth_stereo.c **** # else
 562:synth_stereo.c **** #  define ML0(hi, lo, x, y)	MAD_F_ML0((hi), (lo), (x), (y))
 563:synth_stereo.c **** #  define MLA(hi, lo, x, y)	MAD_F_MLA((hi), (lo), (x), (y))
 564:synth_stereo.c **** #  define MLN(hi, lo)		MAD_F_MLN((hi), (lo))
 565:synth_stereo.c **** #  define MLZ(hi, lo)		MAD_F_MLZ((hi), (lo))
 566:synth_stereo.c **** #  define SHIFT(x)		(x)
 567:synth_stereo.c **** #  if defined(MAD_F_SCALEBITS)
 568:synth_stereo.c **** #   undef  MAD_F_SCALEBITS
 569:synth_stereo.c **** #   define MAD_F_SCALEBITS	(MAD_F_FRACBITS - 12)
 570:synth_stereo.c **** #   define PRESHIFT(x)		(MAD_F(x) >> 12)
 571:synth_stereo.c **** #  else
 572:synth_stereo.c **** #   define PRESHIFT(x)		MAD_F(x)
 573:synth_stereo.c **** #  endif
 574:synth_stereo.c **** # endif
 575:synth_stereo.c **** 
 576:synth_stereo.c **** static
 577:synth_stereo.c **** mad_fixed_t const D[17][32] = {
 578:synth_stereo.c **** # include "D.dat"
 579:synth_stereo.c **** };
 580:synth_stereo.c **** 
 581:synth_stereo.c **** # if defined(ASO_SYNTH)
 582:synth_stereo.c **** void synth_full(struct mad_synth *, struct mad_frame const *,
 583:synth_stereo.c **** 		unsigned int, unsigned int);
 584:synth_stereo.c **** # else
 585:synth_stereo.c **** /*
 586:synth_stereo.c ****  * NAME:	synth->full()
 587:synth_stereo.c ****  * DESCRIPTION:	perform full frequency PCM synthesis
 588:synth_stereo.c ****  */
 589:synth_stereo.c **** static
 590:synth_stereo.c **** void synth_full(struct mad_synth *synth, struct mad_frame const *frame,
 591:synth_stereo.c **** 		unsigned int nch, unsigned int ns)
 592:synth_stereo.c **** {
 593:synth_stereo.c ****   unsigned int phase, ch, s, sb, pe, po;
 594:synth_stereo.c ****   short int *pcm1, *pcm2;
 595:synth_stereo.c ****   mad_fixed_t (*filter)[2][2][16][8];
 596:synth_stereo.c ****   mad_fixed_t (*sbsample)[36][32];
ARM GAS  /cygdrive/c/DOCUME~1/mkwapisz/LOCALS~1/Temp/cc1OEM1Z.s 			page 14


 597:synth_stereo.c ****   register mad_fixed_t (*fe)[8], (*fx)[8], (*fo)[8];
 598:synth_stereo.c ****   register mad_fixed_t const (*Dptr)[32], *ptr ;
 599:synth_stereo.c ****   register mad_fixed64hi_t hi;
 600:synth_stereo.c ****   register mad_fixed64lo_t lo;
 601:synth_stereo.c ****   mad_fixed_t raw_sample;
 602:synth_stereo.c ****   short int short_sample_buff[2][32];
 603:synth_stereo.c **** 
 604:synth_stereo.c ****   phase = synth->phase;
 605:synth_stereo.c **** 
 606:synth_stereo.c ****   if (nch > 2)
 607:synth_stereo.c ****    return;
 608:synth_stereo.c **** 
 609:synth_stereo.c ****   for (s = 0; s < ns; ++s)
 610:synth_stereo.c ****   {
 611:synth_stereo.c ****     memset (short_sample_buff[0], 0x00, sizeof(short_sample_buff[0]));
 612:synth_stereo.c ****     memset (short_sample_buff[1], 0x00, sizeof(short_sample_buff[0]));
 613:synth_stereo.c **** 
 614:synth_stereo.c ****     for (ch = 0; ch < nch; ++ch)
 615:synth_stereo.c ****     {
 616:synth_stereo.c ****       sbsample = &frame->sbsample[ch];
 617:synth_stereo.c ****       filter   = &synth->filter[ch];
 618:synth_stereo.c ****       pcm1     = short_sample_buff[ch];
 619:synth_stereo.c **** 
 620:synth_stereo.c ****       dct32((*sbsample)[s], phase >> 1,
 621:synth_stereo.c **** 	    (*filter)[0][phase & 1], (*filter)[1][phase & 1]);
 622:synth_stereo.c **** 
 623:synth_stereo.c ****       pe = phase & ~1;
 624:synth_stereo.c ****       po = ((phase - 1) & 0xf) | 1;
 625:synth_stereo.c **** 
 626:synth_stereo.c ****       /* calculate 16 samples */
 627:synth_stereo.c **** 
 628:synth_stereo.c ****       fe = &(*filter)[0][ phase & 1][0];
 629:synth_stereo.c ****       fx = &(*filter)[0][~phase & 1][0];
 630:synth_stereo.c ****       fo = &(*filter)[1][~phase & 1][0];
 631:synth_stereo.c **** 
 632:synth_stereo.c ****       Dptr = &D[0];
 633:synth_stereo.c **** 
 634:synth_stereo.c ****       ptr = *Dptr + po;
 635:synth_stereo.c ****       ML0(hi, lo, (*fx)[0], ptr[ 0]);
 636:synth_stereo.c ****       MLA(hi, lo, (*fx)[1], ptr[14]);
 637:synth_stereo.c ****       MLA(hi, lo, (*fx)[2], ptr[12]);
 638:synth_stereo.c ****       MLA(hi, lo, (*fx)[3], ptr[10]);
 639:synth_stereo.c ****       MLA(hi, lo, (*fx)[4], ptr[ 8]);
 640:synth_stereo.c ****       MLA(hi, lo, (*fx)[5], ptr[ 6]);
 641:synth_stereo.c ****       MLA(hi, lo, (*fx)[6], ptr[ 4]);
 642:synth_stereo.c ****       MLA(hi, lo, (*fx)[7], ptr[ 2]);
 643:synth_stereo.c ****       MLN(hi, lo);
 644:synth_stereo.c **** 
 645:synth_stereo.c ****       ptr = *Dptr + pe;
 646:synth_stereo.c ****       MLA(hi, lo, (*fe)[0], ptr[ 0]);
 647:synth_stereo.c ****       MLA(hi, lo, (*fe)[1], ptr[14]);
 648:synth_stereo.c ****       MLA(hi, lo, (*fe)[2], ptr[12]);
 649:synth_stereo.c ****       MLA(hi, lo, (*fe)[3], ptr[10]);
 650:synth_stereo.c ****       MLA(hi, lo, (*fe)[4], ptr[ 8]);
 651:synth_stereo.c ****       MLA(hi, lo, (*fe)[5], ptr[ 6]);
 652:synth_stereo.c ****       MLA(hi, lo, (*fe)[6], ptr[ 4]);
 653:synth_stereo.c ****       MLA(hi, lo, (*fe)[7], ptr[ 2]);
ARM GAS  /cygdrive/c/DOCUME~1/mkwapisz/LOCALS~1/Temp/cc1OEM1Z.s 			page 15


 654:synth_stereo.c **** 
 655:synth_stereo.c ****       raw_sample = SHIFT(MLZ(hi, lo));
 656:synth_stereo.c ****       raw_sample = scale(raw_sample);
 657:synth_stereo.c ****       (*pcm1++) += (short int)raw_sample;
 658:synth_stereo.c ****       pcm2 = pcm1 + 30;
 659:synth_stereo.c **** 
 660:synth_stereo.c ****       for (sb = 1; sb < 16; ++sb)
 661:synth_stereo.c ****       {
 662:synth_stereo.c ****         ++fe;
 663:synth_stereo.c **** 	++Dptr;
 664:synth_stereo.c **** 
 665:synth_stereo.c **** 	/* D[32 - sb][i] == -D[sb][31 - i] */
 666:synth_stereo.c **** 
 667:synth_stereo.c **** 	ptr = *Dptr + po;
 668:synth_stereo.c **** 	ML0(hi, lo, (*fo)[0], ptr[ 0]);
 669:synth_stereo.c **** 	MLA(hi, lo, (*fo)[1], ptr[14]);
 670:synth_stereo.c **** 	MLA(hi, lo, (*fo)[2], ptr[12]);
 671:synth_stereo.c **** 	MLA(hi, lo, (*fo)[3], ptr[10]);
 672:synth_stereo.c **** 	MLA(hi, lo, (*fo)[4], ptr[ 8]);
 673:synth_stereo.c ****         MLA(hi, lo, (*fo)[5], ptr[ 6]);
 674:synth_stereo.c ****         MLA(hi, lo, (*fo)[6], ptr[ 4]);
 675:synth_stereo.c ****         MLA(hi, lo, (*fo)[7], ptr[ 2]);
 676:synth_stereo.c ****         MLN(hi, lo);
 677:synth_stereo.c **** 
 678:synth_stereo.c ****         ptr = *Dptr + pe;
 679:synth_stereo.c **** 
 680:synth_stereo.c ****         MLA(hi, lo, (*fe)[7], ptr[ 2]);
 681:synth_stereo.c ****         MLA(hi, lo, (*fe)[6], ptr[ 4]);
 682:synth_stereo.c ****         MLA(hi, lo, (*fe)[5], ptr[ 6]);
 683:synth_stereo.c ****         MLA(hi, lo, (*fe)[4], ptr[ 8]);
 684:synth_stereo.c ****         MLA(hi, lo, (*fe)[3], ptr[10]);
 685:synth_stereo.c ****         MLA(hi, lo, (*fe)[2], ptr[12]);
 686:synth_stereo.c ****         MLA(hi, lo, (*fe)[1], ptr[14]);
 687:synth_stereo.c ****         MLA(hi, lo, (*fe)[0], ptr[ 0]);
 688:synth_stereo.c **** 
 689:synth_stereo.c ****         raw_sample = SHIFT(MLZ(hi, lo));
 690:synth_stereo.c ****         raw_sample = scale(raw_sample);
 691:synth_stereo.c ****         (*pcm1++) += (short int)raw_sample;
 692:synth_stereo.c **** 
 693:synth_stereo.c ****         ptr = *Dptr - pe;
 694:synth_stereo.c ****         ML0(hi, lo, (*fe)[0], ptr[31 - 16]);
 695:synth_stereo.c ****         MLA(hi, lo, (*fe)[1], ptr[31 - 14]);
 696:synth_stereo.c ****         MLA(hi, lo, (*fe)[2], ptr[31 - 12]);
 697:synth_stereo.c ****         MLA(hi, lo, (*fe)[3], ptr[31 - 10]);
 698:synth_stereo.c ****         MLA(hi, lo, (*fe)[4], ptr[31 -  8]);
 699:synth_stereo.c ****         MLA(hi, lo, (*fe)[5], ptr[31 -  6]);
 700:synth_stereo.c ****         MLA(hi, lo, (*fe)[6], ptr[31 -  4]);
 701:synth_stereo.c ****         MLA(hi, lo, (*fe)[7], ptr[31 -  2]);
 702:synth_stereo.c **** 
 703:synth_stereo.c ****         ptr = *Dptr - po;
 704:synth_stereo.c ****         MLA(hi, lo, (*fo)[7], ptr[31 -  2]);
 705:synth_stereo.c ****         MLA(hi, lo, (*fo)[6], ptr[31 -  4]);
 706:synth_stereo.c ****         MLA(hi, lo, (*fo)[5], ptr[31 -  6]);
 707:synth_stereo.c ****         MLA(hi, lo, (*fo)[4], ptr[31 -  8]);
 708:synth_stereo.c ****         MLA(hi, lo, (*fo)[3], ptr[31 - 10]);
 709:synth_stereo.c ****         MLA(hi, lo, (*fo)[2], ptr[31 - 12]);
 710:synth_stereo.c ****         MLA(hi, lo, (*fo)[1], ptr[31 - 14]);
ARM GAS  /cygdrive/c/DOCUME~1/mkwapisz/LOCALS~1/Temp/cc1OEM1Z.s 			page 16


 711:synth_stereo.c ****         MLA(hi, lo, (*fo)[0], ptr[31 - 16]);
 712:synth_stereo.c **** 
 713:synth_stereo.c ****         raw_sample = SHIFT(MLZ(hi, lo));
 714:synth_stereo.c ****         raw_sample = scale(raw_sample);
 715:synth_stereo.c ****         (*pcm2--) += (short int)raw_sample;
 716:synth_stereo.c **** 
 717:synth_stereo.c ****         ++fo;
 718:synth_stereo.c ****       }
 719:synth_stereo.c **** 
 720:synth_stereo.c ****       Dptr++;
 721:synth_stereo.c **** 
 722:synth_stereo.c ****       ptr = *Dptr + po;
 723:synth_stereo.c ****       ML0(hi, lo, (*fo)[0], ptr[ 0]);
 724:synth_stereo.c ****       MLA(hi, lo, (*fo)[1], ptr[14]);
 725:synth_stereo.c ****       MLA(hi, lo, (*fo)[2], ptr[12]);
 726:synth_stereo.c ****       MLA(hi, lo, (*fo)[3], ptr[10]);
 727:synth_stereo.c ****       MLA(hi, lo, (*fo)[4], ptr[ 8]);
 728:synth_stereo.c ****       MLA(hi, lo, (*fo)[5], ptr[ 6]);
 729:synth_stereo.c ****       MLA(hi, lo, (*fo)[6], ptr[ 4]);
 730:synth_stereo.c ****       MLA(hi, lo, (*fo)[7], ptr[ 2]);
 731:synth_stereo.c **** 
 732:synth_stereo.c ****       raw_sample = SHIFT(-MLZ(hi, lo));
 733:synth_stereo.c ****       raw_sample = scale(raw_sample);
 734:synth_stereo.c ****       (*pcm1) += (short int)raw_sample;
 735:synth_stereo.c **** 
 736:synth_stereo.c ****     }  /* for di canale */
 737:synth_stereo.c **** 
 738:synth_stereo.c ****     /* Render di un blocco */    
 739:synth_stereo.c ****     render_sample_block(short_sample_buff[0], short_sample_buff[1], 32, nch);
 740:synth_stereo.c ****     
 741:synth_stereo.c ****     phase = (phase + 1) % 16;
 742:synth_stereo.c **** 
 743:synth_stereo.c ****   }	/* for di blocco */
 744:synth_stereo.c **** }
 745:synth_stereo.c **** #endif
 746:synth_stereo.c **** 
 747:synth_stereo.c **** /*
 748:synth_stereo.c ****  * NAME:	synth->half()
 749:synth_stereo.c ****  * DESCRIPTION:	perform half frequency PCM synthesis
 750:synth_stereo.c ****  */
 751:synth_stereo.c **** static
 752:synth_stereo.c **** void synth_half(struct mad_synth *synth, struct mad_frame const *frame,
 753:synth_stereo.c **** 		unsigned int nch, unsigned int ns)
 754:synth_stereo.c **** {
 755:synth_stereo.c ****   unsigned int phase, ch, s, sb, pe, po;
 756:synth_stereo.c ****   short int *pcm1, *pcm1v, *pcm2v;
 757:synth_stereo.c ****   mad_fixed_t (*filter)[2][2][16][8];
 758:synth_stereo.c ****   mad_fixed_t (*sbsample)[36][32];
 759:synth_stereo.c ****   register mad_fixed_t (*fe)[8], (*fx)[8], (*fo)[8];
 760:synth_stereo.c ****   register mad_fixed_t const (*Dptr)[32], *ptr ;
 761:synth_stereo.c ****   register mad_fixed64hi_t hi;
 762:synth_stereo.c ****   register mad_fixed64lo_t lo;
 763:synth_stereo.c ****   mad_fixed_t raw_sample;
 764:synth_stereo.c ****   short int short_sample_buff[2][16];
 765:synth_stereo.c **** 
 766:synth_stereo.c ****   phase = synth->phase;
 767:synth_stereo.c **** 
ARM GAS  /cygdrive/c/DOCUME~1/mkwapisz/LOCALS~1/Temp/cc1OEM1Z.s 			page 17


 768:synth_stereo.c ****   if (nch > 2)
 769:synth_stereo.c ****    return;
 770:synth_stereo.c **** 
 771:synth_stereo.c ****   for (s = 0; s < ns; ++s)
 772:synth_stereo.c ****   {
 773:synth_stereo.c ****     memset (short_sample_buff[0], 0x00, sizeof(short_sample_buff[0]));
 774:synth_stereo.c ****     memset (short_sample_buff[1], 0x00, sizeof(short_sample_buff[0]));
 775:synth_stereo.c **** 
 776:synth_stereo.c ****     for (ch = 0; ch < nch; ++ch)
 777:synth_stereo.c ****     {
 778:synth_stereo.c ****       sbsample = &frame->sbsample[ch];
 779:synth_stereo.c ****       filter   = &synth->filter[ch];
 780:synth_stereo.c ****       pcm1 = pcm1v = short_sample_buff[ch];
 781:synth_stereo.c **** 
 782:synth_stereo.c ****       dct32((*sbsample)[s], phase >> 1,
 783:synth_stereo.c **** 	    (*filter)[0][phase & 1], (*filter)[1][phase & 1]);
 784:synth_stereo.c **** 
 785:synth_stereo.c ****       pe = phase & ~1;
 786:synth_stereo.c ****       po = ((phase - 1) & 0xf) | 1;
 787:synth_stereo.c **** 
 788:synth_stereo.c ****       /* calculate 16 samples */
 789:synth_stereo.c **** 
 790:synth_stereo.c ****       fe = &(*filter)[0][ phase & 1][0];
 791:synth_stereo.c ****       fx = &(*filter)[0][~phase & 1][0];
 792:synth_stereo.c ****       fo = &(*filter)[1][~phase & 1][0];
 793:synth_stereo.c **** 
 794:synth_stereo.c ****       Dptr = &D[0];
 795:synth_stereo.c **** 
 796:synth_stereo.c ****       ptr = *Dptr + po;
 797:synth_stereo.c ****       ML0(hi, lo, (*fx)[0], ptr[ 0]);
 798:synth_stereo.c ****       MLA(hi, lo, (*fx)[1], ptr[14]);
 799:synth_stereo.c ****       MLA(hi, lo, (*fx)[2], ptr[12]);
 800:synth_stereo.c ****       MLA(hi, lo, (*fx)[3], ptr[10]);
 801:synth_stereo.c ****       MLA(hi, lo, (*fx)[4], ptr[ 8]);
 802:synth_stereo.c ****       MLA(hi, lo, (*fx)[5], ptr[ 6]);
 803:synth_stereo.c ****       MLA(hi, lo, (*fx)[6], ptr[ 4]);
 804:synth_stereo.c ****       MLA(hi, lo, (*fx)[7], ptr[ 2]);
 805:synth_stereo.c ****       MLN(hi, lo);
 806:synth_stereo.c **** 
 807:synth_stereo.c ****       ptr = *Dptr + pe;
 808:synth_stereo.c ****       MLA(hi, lo, (*fe)[0], ptr[ 0]);
 809:synth_stereo.c ****       MLA(hi, lo, (*fe)[1], ptr[14]);
 810:synth_stereo.c ****       MLA(hi, lo, (*fe)[2], ptr[12]);
 811:synth_stereo.c ****       MLA(hi, lo, (*fe)[3], ptr[10]);
 812:synth_stereo.c ****       MLA(hi, lo, (*fe)[4], ptr[ 8]);
 813:synth_stereo.c ****       MLA(hi, lo, (*fe)[5], ptr[ 6]);
 814:synth_stereo.c ****       MLA(hi, lo, (*fe)[6], ptr[ 4]);
 815:synth_stereo.c ****       MLA(hi, lo, (*fe)[7], ptr[ 2]);
 816:synth_stereo.c **** 
 817:synth_stereo.c ****       raw_sample = SHIFT(MLZ(hi, lo));
 818:synth_stereo.c ****       raw_sample = scale(raw_sample);
 819:synth_stereo.c ****       (*pcm1v++) += (short int)raw_sample;
 820:synth_stereo.c ****       pcm2v = pcm1v + 14;
 821:synth_stereo.c **** 
 822:synth_stereo.c ****       for (sb = 1; sb < 16; ++sb)
 823:synth_stereo.c ****       {
 824:synth_stereo.c ****         ++fe;
ARM GAS  /cygdrive/c/DOCUME~1/mkwapisz/LOCALS~1/Temp/cc1OEM1Z.s 			page 18


 825:synth_stereo.c **** 	++Dptr;
 826:synth_stereo.c **** 
 827:synth_stereo.c **** 	/* D[32 - sb][i] == -D[sb][31 - i] */
 828:synth_stereo.c **** 
 829:synth_stereo.c **** 	ptr = *Dptr + po;
 830:synth_stereo.c ****         ML0(hi, lo, (*fo)[0], ptr[ 0]);
 831:synth_stereo.c **** 	MLA(hi, lo, (*fo)[1], ptr[14]);
 832:synth_stereo.c **** 	MLA(hi, lo, (*fo)[2], ptr[12]);
 833:synth_stereo.c **** 	MLA(hi, lo, (*fo)[3], ptr[10]);
 834:synth_stereo.c **** 	MLA(hi, lo, (*fo)[4], ptr[ 8]);
 835:synth_stereo.c **** 	MLA(hi, lo, (*fo)[5], ptr[ 6]);
 836:synth_stereo.c **** 	MLA(hi, lo, (*fo)[6], ptr[ 4]);
 837:synth_stereo.c **** 	MLA(hi, lo, (*fo)[7], ptr[ 2]);
 838:synth_stereo.c **** 	MLN(hi, lo);
 839:synth_stereo.c **** 
 840:synth_stereo.c **** 	ptr = *Dptr + pe;
 841:synth_stereo.c **** 
 842:synth_stereo.c ****         MLA(hi, lo, (*fe)[7], ptr[ 2]);
 843:synth_stereo.c **** 	MLA(hi, lo, (*fe)[6], ptr[ 4]);
 844:synth_stereo.c **** 	MLA(hi, lo, (*fe)[5], ptr[ 6]);
 845:synth_stereo.c **** 	MLA(hi, lo, (*fe)[4], ptr[ 8]);
 846:synth_stereo.c **** 	MLA(hi, lo, (*fe)[3], ptr[10]);
 847:synth_stereo.c **** 	MLA(hi, lo, (*fe)[2], ptr[12]);
 848:synth_stereo.c **** 	MLA(hi, lo, (*fe)[1], ptr[14]);
 849:synth_stereo.c **** 	MLA(hi, lo, (*fe)[0], ptr[ 0]);
 850:synth_stereo.c **** 
 851:synth_stereo.c **** 	raw_sample = SHIFT(MLZ(hi, lo));
 852:synth_stereo.c **** 	raw_sample = scale(raw_sample);
 853:synth_stereo.c **** 	(*pcm1v++) += (short int)raw_sample;
 854:synth_stereo.c **** 
 855:synth_stereo.c **** 	ptr = *Dptr - pe;
 856:synth_stereo.c **** 	ML0(hi, lo, (*fe)[0], ptr[31 - 16]);
 857:synth_stereo.c **** 	MLA(hi, lo, (*fe)[1], ptr[31 - 14]);
 858:synth_stereo.c **** 	MLA(hi, lo, (*fe)[2], ptr[31 - 12]);
 859:synth_stereo.c **** 	MLA(hi, lo, (*fe)[3], ptr[31 - 10]);
 860:synth_stereo.c **** 	MLA(hi, lo, (*fe)[4], ptr[31 -  8]);
 861:synth_stereo.c **** 	MLA(hi, lo, (*fe)[5], ptr[31 -  6]);
 862:synth_stereo.c **** 	MLA(hi, lo, (*fe)[6], ptr[31 -  4]);
 863:synth_stereo.c **** 	MLA(hi, lo, (*fe)[7], ptr[31 -  2]);
 864:synth_stereo.c **** 
 865:synth_stereo.c **** 	ptr = *Dptr - po;
 866:synth_stereo.c **** 	MLA(hi, lo, (*fo)[7], ptr[31 -  2]);
 867:synth_stereo.c **** 	MLA(hi, lo, (*fo)[6], ptr[31 -  4]);
 868:synth_stereo.c **** 	MLA(hi, lo, (*fo)[5], ptr[31 -  6]);
 869:synth_stereo.c **** 	MLA(hi, lo, (*fo)[4], ptr[31 -  8]);
 870:synth_stereo.c **** 	MLA(hi, lo, (*fo)[3], ptr[31 - 10]);
 871:synth_stereo.c **** 	MLA(hi, lo, (*fo)[2], ptr[31 - 12]);
 872:synth_stereo.c **** 	MLA(hi, lo, (*fo)[1], ptr[31 - 14]);
 873:synth_stereo.c **** 	MLA(hi, lo, (*fo)[0], ptr[31 - 16]);
 874:synth_stereo.c **** 
 875:synth_stereo.c **** 	raw_sample = SHIFT(MLZ(hi, lo));
 876:synth_stereo.c **** 	raw_sample = scale(raw_sample);
 877:synth_stereo.c **** 	(*pcm2v--) += (short int)raw_sample;
 878:synth_stereo.c **** 
 879:synth_stereo.c ****         ++fo;
 880:synth_stereo.c ****       }
 881:synth_stereo.c **** 
ARM GAS  /cygdrive/c/DOCUME~1/mkwapisz/LOCALS~1/Temp/cc1OEM1Z.s 			page 19


 882:synth_stereo.c ****       Dptr++;
 883:synth_stereo.c **** 
 884:synth_stereo.c ****       ptr = *Dptr + po;
 885:synth_stereo.c ****       ML0(hi, lo, (*fo)[0], ptr[ 0]);
 886:synth_stereo.c ****       MLA(hi, lo, (*fo)[1], ptr[14]);
 887:synth_stereo.c ****       MLA(hi, lo, (*fo)[2], ptr[12]);
 888:synth_stereo.c ****       MLA(hi, lo, (*fo)[3], ptr[10]);
 889:synth_stereo.c ****       MLA(hi, lo, (*fo)[4], ptr[ 8]);
 890:synth_stereo.c ****       MLA(hi, lo, (*fo)[5], ptr[ 6]);
 891:synth_stereo.c ****       MLA(hi, lo, (*fo)[6], ptr[ 4]);
 892:synth_stereo.c ****       MLA(hi, lo, (*fo)[7], ptr[ 2]);
 893:synth_stereo.c **** 
 894:synth_stereo.c ****       raw_sample = SHIFT(-MLZ(hi, lo));
 895:synth_stereo.c ****       raw_sample = scale(raw_sample);
 896:synth_stereo.c ****       (*pcm1v) += (short int)raw_sample;
 897:synth_stereo.c **** 
 898:synth_stereo.c ****     }  /* for di canale */
 899:synth_stereo.c **** 
 900:synth_stereo.c ****     /* Render di un blocco */    
 901:synth_stereo.c ****     render_sample_block(short_sample_buff[0], short_sample_buff[1], 32, nch);
 902:synth_stereo.c **** 
 903:synth_stereo.c ****     pcm1 = pcm1v + 8;
 904:synth_stereo.c ****     phase = (phase + 1) % 16;
 905:synth_stereo.c **** 
 906:synth_stereo.c ****   }	/* for di blocco */
 907:synth_stereo.c **** }
 908:synth_stereo.c **** 
 909:synth_stereo.c **** /*
 910:synth_stereo.c ****  * NAME:	synth->frame()
 911:synth_stereo.c ****  * DESCRIPTION:	perform PCM synthesis of frame subband samples
 912:synth_stereo.c ****  */
 913:synth_stereo.c **** void mad_synth_frame(struct mad_synth *synth, struct mad_frame const *frame)
 914:synth_stereo.c **** {
 142              		.loc 1 914 0
 143              		@ Function supports interworking.
 144              		@ args = 0, pretend = 0, frame = 0
 145              		@ frame_needed = 0, uses_anonymous_args = 0
 146              	.LVL9:
 915:synth_stereo.c ****   unsigned int nch, ns;
 916:synth_stereo.c ****   void (*synth_frame)(struct mad_synth *, struct mad_frame const *,
 917:synth_stereo.c **** 		      unsigned int, unsigned int);
 918:synth_stereo.c **** 
 919:synth_stereo.c ****   nch = MAD_NCHANNELS(&frame->header);
 147              		.loc 1 919 0
 148 00d0 0C0091E8 		ldmia	r1, {r2, r3}	@ phole ldm
 149 00d4 000053E3 		cmp	r3, #0
 150              		.loc 1 914 0
 151 00d8 F0412DE9 		stmfd	sp!, {r4, r5, r6, r7, r8, lr}
 152              	.LCFI2:
 153              		.loc 1 919 0
 154 00dc 0180A003 		moveq	r8, #1
 155              	.LVL10:
 156 00e0 0280A013 		movne	r8, #2
 920:synth_stereo.c ****   ns  = MAD_NSBSAMPLES(&frame->header);
 157              		.loc 1 920 0
 158 00e4 010052E3 		cmp	r2, #1
 159              		.loc 1 914 0
ARM GAS  /cygdrive/c/DOCUME~1/mkwapisz/LOCALS~1/Temp/cc1OEM1Z.s 			page 20


 160 00e8 0150A0E1 		mov	r5, r1
 161              		.loc 1 920 0
 162 00ec 0C70A0E3 		mov	r7, #12
 163              	.LVL11:
 164              		.loc 1 914 0
 165 00f0 0040A0E1 		mov	r4, r0
 166              		.loc 1 920 0
 167 00f4 0500000A 		beq	.L27
 168              	.LVL12:
 169 00f8 030052E3 		cmp	r2, #3
 170 00fc 2470A0E3 		mov	r7, #36
 171 0100 0200001A 		bne	.L27
 172 0104 1C3091E5 		ldr	r3, [r1, #28]
 173 0108 010A13E3 		tst	r3, #4096
 174 010c 1270A013 		movne	r7, #18
 175              	.L27:
 921:synth_stereo.c **** 
 922:synth_stereo.c ****   synth->pcm.samplerate = frame->header.samplerate;
 176              		.loc 1 922 0
 177 0110 143095E5 		ldr	r3, [r5, #20]
 178 0114 80609FE5 		ldr	r6, .L35
 923:synth_stereo.c ****   set_dac_sample_rate(synth->pcm.samplerate);
 179              		.loc 1 923 0
 180 0118 0300A0E1 		mov	r0, r3
 181              		.loc 1 922 0
 182 011c 063084E7 		str	r3, [r4, r6]
 183              		.loc 1 923 0
 184 0120 FEFFFFEB 		bl	set_dac_sample_rate
 924:synth_stereo.c ****   synth->pcm.channels   = nch;
 925:synth_stereo.c ****   synth->pcm.length     = 32 * ns;
 926:synth_stereo.c **** 
 927:synth_stereo.c ****   synth_frame = synth_full;
 928:synth_stereo.c **** 
 929:synth_stereo.c ****   if (frame->options & MAD_OPTION_HALFSAMPLERATE) {
 185              		.loc 1 929 0
 186 0124 2C3095E5 		ldr	r3, [r5, #44]
 187              		.loc 1 925 0
 188 0128 70209FE5 		ldr	r2, .L35+4
 189              		.loc 1 929 0
 190 012c 020013E3 		tst	r3, #2
 191              		.loc 1 925 0
 192 0130 8732A0E1 		mov	r3, r7, asl #5
 193 0134 B23084E1 		strh	r3, [r4, r2]	@ movhi
 194              		.loc 1 924 0
 195 0138 64309FE5 		ldr	r3, .L35+8
 196              		.loc 1 929 0
 197 013c 64C09FE5 		ldr	ip, .L35+12
 198              	.LVL13:
 199              		.loc 1 924 0
 200 0140 B38084E1 		strh	r8, [r4, r3]	@ movhi
 201              		.loc 1 929 0
 202 0144 0700000A 		beq	.L33
 930:synth_stereo.c ****     synth->pcm.samplerate /= 2;
 203              		.loc 1 930 0
 204 0148 060094E7 		ldr	r0, [r4, r6]
 931:synth_stereo.c ****     synth->pcm.length     /= 2;
 205              		.loc 1 931 0
ARM GAS  /cygdrive/c/DOCUME~1/mkwapisz/LOCALS~1/Temp/cc1OEM1Z.s 			page 21


 206 014c B23094E1 		ldrh	r3, [r4, r2]
 207              		.loc 1 930 0
 208 0150 A000A0E1 		mov	r0, r0, lsr #1
 209              		.loc 1 931 0
 210 0154 A330A0E1 		mov	r3, r3, lsr #1
 211 0158 B23084E1 		strh	r3, [r4, r2]	@ movhi
 212              		.loc 1 930 0
 213 015c 060084E7 		str	r0, [r4, r6]
 932:synth_stereo.c ****     set_dac_sample_rate(synth->pcm.samplerate);
 214              		.loc 1 932 0
 215 0160 FEFFFFEB 		bl	set_dac_sample_rate
 216              	.LVL14:
 217 0164 40C09FE5 		ldr	ip, .L35+16
 218              	.LVL15:
 219              	.L33:
 933:synth_stereo.c ****     synth_frame = synth_half;
 934:synth_stereo.c ****   }
 935:synth_stereo.c **** 
 936:synth_stereo.c ****   synth_frame(synth, frame, nch, ns);
 220              		.loc 1 936 0
 221 0168 0820A0E1 		mov	r2, r8
 222 016c 0730A0E1 		mov	r3, r7
 223 0170 0510A0E1 		mov	r1, r5
 224 0174 0400A0E1 		mov	r0, r4
 225 0178 0FE0A0E1 		mov	lr, pc
 226 017c 1CFF2FE1 		bx	ip
 227              	.LVL16:
 937:synth_stereo.c ****   synth->phase = (synth->phase + ns) % 16;
 228              		.loc 1 937 0
 229 0180 012AA0E3 		mov	r2, #4096
 230 0184 023094E7 		ldr	r3, [r4, r2]
 231 0188 033087E0 		add	r3, r7, r3
 232 018c 0F3003E2 		and	r3, r3, #15
 233 0190 023084E7 		str	r3, [r4, r2]
 938:synth_stereo.c **** }
 234              		.loc 1 938 0
 235 0194 F041BDE8 		ldmfd	sp!, {r4, r5, r6, r7, r8, lr}
 236 0198 1EFF2FE1 		bx	lr
 237              	.L36:
 238              		.align	2
 239              	.L35:
 240 019c 04100000 		.word	4100
 241 01a0 0A100000 		.word	4106
 242 01a4 08100000 		.word	4104
 243 01a8 A81D0000 		.word	synth_full
 244 01ac C0120000 		.word	synth_half
 245              	.LFE8:
 246              		.size	mad_synth_frame, .-mad_synth_frame
 247              		.align	2
 248              		.type	dct32, %function
 249              	dct32:
 250              	.LFB5:
 251              		.loc 1 155 0
 252              		@ Function supports interworking.
 253              		@ args = 0, pretend = 0, frame = 428
 254              		@ frame_needed = 0, uses_anonymous_args = 0
 255              	.LVL17:
ARM GAS  /cygdrive/c/DOCUME~1/mkwapisz/LOCALS~1/Temp/cc1OEM1Z.s 			page 22


 256 01b0 F04F2DE9 		stmfd	sp!, {r4, r5, r6, r7, r8, r9, sl, fp, lr}
 257              	.LCFI3:
 258              		.loc 1 250 0
 259 01b4 7CC090E5 		ldr	ip, [r0, #124]
 260 01b8 00E090E5 		ldr	lr, [r0, #0]
 261              		.loc 1 155 0
 262 01bc 6BDF4DE2 		sub	sp, sp, #428
 263              	.LCFI4:
 264              		.loc 1 155 0
 265 01c0 0040A0E1 		mov	r4, r0
 266 01c4 14108DE5 		str	r1, [sp, #20]
 267 01c8 10208DE5 		str	r2, [sp, #16]
 268 01cc 0C308DE5 		str	r3, [sp, #12]
 269              	.LBB2:
 270              		.loc 1 250 0
 271 01d0 0E206CE0 		rsb	r2, ip, lr
 272              	.LVL18:
 273 01d4 0010A0E1 		mov	r1, r0
 274              	.LVL19:
 275              	.LBE2:
 276 01d8 0CE08EE0 		add	lr, lr, ip
 277              	.LBB3:
 278 01dc F43F9FE5 		ldr	r3, .L39
 279              	.LVL20:
 280              	.LBE3:
 281 01e0 18E08DE5 		str	lr, [sp, #24]
 282              	.LVL21:
 283              	.LBB4:
 284 01e4 FEFFFFEB 		bl	MAD_F_MLX
 285              	.LVL22:
 286              	.LBE4:
 287              		.loc 1 251 0
 288 01e8 3C5084E2 		add	r5, r4, #60
 289 01ec 201095E8 		ldmia	r5, {r5, ip}	@ phole ldm
 290              	.LBB5:
 291 01f0 05206CE0 		rsb	r2, ip, r5
 292              	.LBE5:
 293 01f4 0C5085E0 		add	r5, r5, ip
 294              	.LVL23:
 295              	.LBB6:
 296              		.loc 1 250 0
 297 01f8 24EEA0E1 		mov	lr, r4, lsr #28
 298              	.LBE6:
 299              		.loc 1 251 0
 300 01fc 1C508DE5 		str	r5, [sp, #28]
 301              	.LVL24:
 302              	.LBB7:
 303              		.loc 1 254 0
 304 0200 D45F9FE5 		ldr	r5, .L39+4
 305              	.LVL25:
 306              	.LBE7:
 307              	.LBB8:
 308              		.loc 1 250 0
 309 0204 04628EE1 		orr	r6, lr, r4, asl #4
 310              	.LVL26:
 311              	.LVL27:
 312              	.LBE8:
ARM GAS  /cygdrive/c/DOCUME~1/mkwapisz/LOCALS~1/Temp/cc1OEM1Z.s 			page 23


 313              	.LBB9:
 314              		.loc 1 251 0
 315 0208 0410A0E1 		mov	r1, r4
 316 020c CC3F9FE5 		ldr	r3, .L39+8
 317              	.LVL28:
 318 0210 0400A0E1 		mov	r0, r4
 319 0214 FEFFFFEB 		bl	MAD_F_MLX
 320              	.LVL29:
 321              	.LVL30:
 322              	.LBE9:
 323              	.LBB10:
 324              		.loc 1 254 0
 325 0218 062066E0 		rsb	r2, r6, r6
 326              	.LVL31:
 327 021c 0410A0E1 		mov	r1, r4
 328 0220 0530A0E1 		mov	r3, r5
 329              	.LVL32:
 330 0224 0400A0E1 		mov	r0, r4
 331              	.LVL33:
 332              	.LBE10:
 333              		.loc 1 253 0
 334 0228 066086E0 		add	r6, r6, r6
 335              	.LVL34:
 336 022c 20608DE5 		str	r6, [sp, #32]
 337              	.LVL35:
 338              	.LBB11:
 339              		.loc 1 254 0
 340 0230 FEFFFFEB 		bl	MAD_F_MLX
 341              	.LVL36:
 342              	.LBE11:
 343              	.LBB12:
 344              		.loc 1 256 0
 345 0234 18008DE2 		add	r0, sp, #24
 346 0238 030090E8 		ldmia	r0, {r0, r1}	@ phole ldm
 347              	.LVL37:
 348              	.LBE12:
 349              	.LBB13:
 350              		.loc 1 254 0
 351 023c 24CEA0E1 		mov	ip, r4, lsr #28
 352              	.LBE13:
 353              	.LBB14:
 354              		.loc 1 256 0
 355 0240 002061E0 		rsb	r2, r1, r0
 356 0244 0530A0E1 		mov	r3, r5
 357              	.LVL38:
 358 0248 0410A0E1 		mov	r1, r4
 359              	.LVL39:
 360 024c 0400A0E1 		mov	r0, r4
 361              	.LVL40:
 362              	.LBE14:
 363              	.LBB15:
 364              		.loc 1 254 0
 365 0250 04428CE1 		orr	r4, ip, r4, asl #4
 366              	.LVL41:
 367 0254 24408DE5 		str	r4, [sp, #36]
 368              	.LVL42:
 369              	.LBE15:
ARM GAS  /cygdrive/c/DOCUME~1/mkwapisz/LOCALS~1/Temp/cc1OEM1Z.s 			page 24


 370              	.LBB16:
 371              		.loc 1 256 0
 372 0258 FEFFFFEB 		bl	MAD_F_MLX
 373              	.LVL43:
 374              	.LVL44:
 375              	.LBE16:
 376              		.loc 1 258 0
 377 025c 60C094E5 		ldr	ip, [r4, #96]
 378 0260 1C5094E5 		ldr	r5, [r4, #28]
 379              	.LVL45:
 380              	.LBB17:
 381              		.loc 1 256 0
 382 0264 24EEA0E1 		mov	lr, r4, lsr #28
 383              	.LBE17:
 384              	.LBB18:
 385              		.loc 1 258 0
 386 0268 05206CE0 		rsb	r2, ip, r5
 387              	.LVL46:
 388 026c 0410A0E1 		mov	r1, r4
 389              	.LBE18:
 390 0270 0C5085E0 		add	r5, r5, ip
 391              	.LBB19:
 392 0274 683F9FE5 		ldr	r3, .L39+12
 393              	.LVL47:
 394 0278 0400A0E1 		mov	r0, r4
 395              	.LVL48:
 396              	.LBE19:
 397              	.LBB20:
 398              		.loc 1 256 0
 399 027c 04428EE1 		orr	r4, lr, r4, asl #4
 400              	.LVL49:
 401 0280 2C408DE5 		str	r4, [sp, #44]
 402              	.LVL50:
 403              	.LBE20:
 404              		.loc 1 258 0
 405 0284 30508DE5 		str	r5, [sp, #48]
 406              	.LVL51:
 407              	.LBB21:
 408 0288 FEFFFFEB 		bl	MAD_F_MLX
 409              	.LVL52:
 410              	.LVL53:
 411              	.LBE21:
 412              		.loc 1 259 0
 413 028c 5CC094E5 		ldr	ip, [r4, #92]
 414 0290 205094E5 		ldr	r5, [r4, #32]
 415              	.LVL54:
 416              	.LBB22:
 417              		.loc 1 258 0
 418 0294 24EEA0E1 		mov	lr, r4, lsr #28
 419              	.LBE22:
 420              		.loc 1 259 0
 421 0298 0CB085E0 		add	fp, r5, ip
 422              	.LVL55:
 423              	.LBB23:
 424 029c 05206CE0 		rsb	r2, ip, r5
 425              	.LBE23:
 426              	.LBB24:
ARM GAS  /cygdrive/c/DOCUME~1/mkwapisz/LOCALS~1/Temp/cc1OEM1Z.s 			page 25


 427              		.loc 1 262 0
 428 02a0 405F9FE5 		ldr	r5, .L39+16
 429              	.LVL56:
 430              	.LBE24:
 431              	.LBB25:
 432              		.loc 1 258 0
 433 02a4 04628EE1 		orr	r6, lr, r4, asl #4
 434              	.LVL57:
 435              	.LVL58:
 436              	.LBE25:
 437              	.LBB26:
 438              		.loc 1 259 0
 439 02a8 0410A0E1 		mov	r1, r4
 440 02ac 383F9FE5 		ldr	r3, .L39+20
 441              	.LVL59:
 442 02b0 0400A0E1 		mov	r0, r4
 443 02b4 FEFFFFEB 		bl	MAD_F_MLX
 444              	.LVL60:
 445              	.LVL61:
 446              	.LBE26:
 447              	.LBB27:
 448              		.loc 1 262 0
 449 02b8 062066E0 		rsb	r2, r6, r6
 450              	.LVL62:
 451 02bc 0410A0E1 		mov	r1, r4
 452 02c0 0530A0E1 		mov	r3, r5
 453              	.LVL63:
 454 02c4 0400A0E1 		mov	r0, r4
 455              	.LVL64:
 456              	.LBE27:
 457              		.loc 1 261 0
 458 02c8 066086E0 		add	r6, r6, r6
 459              	.LVL65:
 460 02cc 34608DE5 		str	r6, [sp, #52]
 461              	.LVL66:
 462              	.LBB28:
 463              		.loc 1 262 0
 464 02d0 FEFFFFEB 		bl	MAD_F_MLX
 465              	.LVL67:
 466              	.LBE28:
 467              	.LBB29:
 468              		.loc 1 264 0
 469 02d4 30309DE5 		ldr	r3, [sp, #48]
 470              	.LVL68:
 471              	.LBE29:
 472              	.LBB30:
 473              		.loc 1 262 0
 474 02d8 24CEA0E1 		mov	ip, r4, lsr #28
 475              	.LBE30:
 476              	.LBB31:
 477              		.loc 1 264 0
 478 02dc 03206BE0 		rsb	r2, fp, r3
 479              	.LVL69:
 480 02e0 0410A0E1 		mov	r1, r4
 481 02e4 0530A0E1 		mov	r3, r5
 482              	.LVL70:
 483 02e8 0400A0E1 		mov	r0, r4
ARM GAS  /cygdrive/c/DOCUME~1/mkwapisz/LOCALS~1/Temp/cc1OEM1Z.s 			page 26


 484              	.LVL71:
 485              	.LBE31:
 486              	.LBB32:
 487              		.loc 1 262 0
 488 02ec 04428CE1 		orr	r4, ip, r4, asl #4
 489              	.LVL72:
 490 02f0 38408DE5 		str	r4, [sp, #56]
 491              	.LVL73:
 492              	.LBE32:
 493              	.LBB33:
 494              		.loc 1 264 0
 495 02f4 FEFFFFEB 		bl	MAD_F_MLX
 496              	.LVL74:
 497              	.LVL75:
 498              	.LBE33:
 499              		.loc 1 266 0
 500 02f8 70C094E5 		ldr	ip, [r4, #112]
 501 02fc 0C5094E5 		ldr	r5, [r4, #12]
 502              	.LVL76:
 503              	.LBB34:
 504              		.loc 1 264 0
 505 0300 24EEA0E1 		mov	lr, r4, lsr #28
 506              	.LBE34:
 507              	.LBB35:
 508              		.loc 1 266 0
 509 0304 05206CE0 		rsb	r2, ip, r5
 510              	.LVL77:
 511 0308 0410A0E1 		mov	r1, r4
 512              	.LBE35:
 513 030c 0C5085E0 		add	r5, r5, ip
 514              	.LBB36:
 515 0310 D83E9FE5 		ldr	r3, .L39+24
 516              	.LVL78:
 517 0314 0400A0E1 		mov	r0, r4
 518              	.LVL79:
 519              	.LBE36:
 520              	.LBB37:
 521              		.loc 1 264 0
 522 0318 04428EE1 		orr	r4, lr, r4, asl #4
 523              	.LVL80:
 524 031c 40408DE5 		str	r4, [sp, #64]
 525              	.LVL81:
 526              	.LBE37:
 527              		.loc 1 266 0
 528 0320 44508DE5 		str	r5, [sp, #68]
 529              	.LVL82:
 530              	.LBB38:
 531 0324 FEFFFFEB 		bl	MAD_F_MLX
 532              	.LVL83:
 533              	.LVL84:
 534              	.LBE38:
 535              		.loc 1 267 0
 536 0328 4CC094E5 		ldr	ip, [r4, #76]
 537 032c 305094E5 		ldr	r5, [r4, #48]
 538              	.LBB39:
 539 0330 05206CE0 		rsb	r2, ip, r5
 540              	.LBE39:
ARM GAS  /cygdrive/c/DOCUME~1/mkwapisz/LOCALS~1/Temp/cc1OEM1Z.s 			page 27


 541 0334 0C5085E0 		add	r5, r5, ip
 542              	.LVL85:
 543              	.LBB40:
 544              		.loc 1 266 0
 545 0338 24EEA0E1 		mov	lr, r4, lsr #28
 546              	.LBE40:
 547              		.loc 1 267 0
 548 033c 48508DE5 		str	r5, [sp, #72]
 549              	.LVL86:
 550              	.LBB41:
 551              		.loc 1 270 0
 552 0340 AC5E9FE5 		ldr	r5, .L39+28
 553              	.LVL87:
 554              	.LBE41:
 555              	.LBB42:
 556              		.loc 1 266 0
 557 0344 04628EE1 		orr	r6, lr, r4, asl #4
 558              	.LVL88:
 559              	.LVL89:
 560              	.LBE42:
 561              	.LBB43:
 562              		.loc 1 267 0
 563 0348 0410A0E1 		mov	r1, r4
 564 034c A43E9FE5 		ldr	r3, .L39+32
 565              	.LVL90:
 566 0350 0400A0E1 		mov	r0, r4
 567 0354 FEFFFFEB 		bl	MAD_F_MLX
 568              	.LVL91:
 569              	.LVL92:
 570              	.LBE43:
 571              	.LBB44:
 572              		.loc 1 270 0
 573 0358 062066E0 		rsb	r2, r6, r6
 574              	.LVL93:
 575 035c 0410A0E1 		mov	r1, r4
 576 0360 0530A0E1 		mov	r3, r5
 577              	.LVL94:
 578 0364 0400A0E1 		mov	r0, r4
 579              	.LVL95:
 580              	.LBE44:
 581              		.loc 1 269 0
 582 0368 066086E0 		add	r6, r6, r6
 583              	.LVL96:
 584 036c 4C608DE5 		str	r6, [sp, #76]
 585              	.LVL97:
 586              	.LBB45:
 587              		.loc 1 270 0
 588 0370 FEFFFFEB 		bl	MAD_F_MLX
 589              	.LVL98:
 590              	.LBE45:
 591              	.LBB46:
 592              		.loc 1 272 0
 593 0374 44708DE2 		add	r7, sp, #68
 594 0378 800297E8 		ldmia	r7, {r7, r9}	@ phole ldm
 595              	.LVL99:
 596              	.LBE46:
 597              	.LBB47:
ARM GAS  /cygdrive/c/DOCUME~1/mkwapisz/LOCALS~1/Temp/cc1OEM1Z.s 			page 28


 598              		.loc 1 270 0
 599 037c 24CEA0E1 		mov	ip, r4, lsr #28
 600              	.LBE47:
 601              	.LBB48:
 602              		.loc 1 272 0
 603 0380 072069E0 		rsb	r2, r9, r7
 604 0384 0530A0E1 		mov	r3, r5
 605              	.LVL100:
 606 0388 0410A0E1 		mov	r1, r4
 607              	.LVL101:
 608 038c 0400A0E1 		mov	r0, r4
 609              	.LVL102:
 610              	.LBE48:
 611              	.LBB49:
 612              		.loc 1 270 0
 613 0390 04428CE1 		orr	r4, ip, r4, asl #4
 614              	.LVL103:
 615 0394 50408DE5 		str	r4, [sp, #80]
 616              	.LVL104:
 617              	.LBE49:
 618              	.LBB50:
 619              		.loc 1 272 0
 620 0398 FEFFFFEB 		bl	MAD_F_MLX
 621              	.LVL105:
 622              	.LVL106:
 623              	.LBE50:
 624              		.loc 1 274 0
 625 039c 6CC094E5 		ldr	ip, [r4, #108]
 626 03a0 105094E5 		ldr	r5, [r4, #16]
 627              	.LVL107:
 628              	.LBB51:
 629              		.loc 1 272 0
 630 03a4 24EEA0E1 		mov	lr, r4, lsr #28
 631              	.LBE51:
 632              	.LBB52:
 633              		.loc 1 274 0
 634 03a8 05206CE0 		rsb	r2, ip, r5
 635              	.LVL108:
 636 03ac 0410A0E1 		mov	r1, r4
 637              	.LBE52:
 638 03b0 0C5085E0 		add	r5, r5, ip
 639              	.LBB53:
 640 03b4 403E9FE5 		ldr	r3, .L39+36
 641              	.LVL109:
 642 03b8 0400A0E1 		mov	r0, r4
 643              	.LVL110:
 644              	.LBE53:
 645              	.LBB54:
 646              		.loc 1 272 0
 647 03bc 04428EE1 		orr	r4, lr, r4, asl #4
 648              	.LVL111:
 649 03c0 58408DE5 		str	r4, [sp, #88]
 650              	.LVL112:
 651              	.LBE54:
 652              		.loc 1 274 0
 653 03c4 5C508DE5 		str	r5, [sp, #92]
 654              	.LVL113:
ARM GAS  /cygdrive/c/DOCUME~1/mkwapisz/LOCALS~1/Temp/cc1OEM1Z.s 			page 29


 655              	.LBB55:
 656 03c8 FEFFFFEB 		bl	MAD_F_MLX
 657              	.LVL114:
 658              	.LVL115:
 659              	.LBE55:
 660              		.loc 1 275 0
 661 03cc 50C094E5 		ldr	ip, [r4, #80]
 662 03d0 2C5094E5 		ldr	r5, [r4, #44]
 663              	.LBB56:
 664 03d4 05206CE0 		rsb	r2, ip, r5
 665              	.LBE56:
 666 03d8 0C5085E0 		add	r5, r5, ip
 667              	.LVL116:
 668              	.LBB57:
 669              		.loc 1 274 0
 670 03dc 24EEA0E1 		mov	lr, r4, lsr #28
 671              	.LBE57:
 672              		.loc 1 275 0
 673 03e0 60508DE5 		str	r5, [sp, #96]
 674              	.LVL117:
 675              	.LBB58:
 676              		.loc 1 278 0
 677 03e4 145E9FE5 		ldr	r5, .L39+40
 678              	.LVL118:
 679              	.LBE58:
 680              	.LBB59:
 681              		.loc 1 274 0
 682 03e8 04628EE1 		orr	r6, lr, r4, asl #4
 683              	.LVL119:
 684              	.LVL120:
 685              	.LBE59:
 686              	.LBB60:
 687              		.loc 1 275 0
 688 03ec 0410A0E1 		mov	r1, r4
 689 03f0 0C3E9FE5 		ldr	r3, .L39+44
 690              	.LVL121:
 691 03f4 0400A0E1 		mov	r0, r4
 692 03f8 FEFFFFEB 		bl	MAD_F_MLX
 693              	.LVL122:
 694              	.LVL123:
 695              	.LBE60:
 696              	.LBB61:
 697              		.loc 1 278 0
 698 03fc 062066E0 		rsb	r2, r6, r6
 699              	.LVL124:
 700 0400 0410A0E1 		mov	r1, r4
 701 0404 0530A0E1 		mov	r3, r5
 702              	.LVL125:
 703 0408 0400A0E1 		mov	r0, r4
 704              	.LVL126:
 705              	.LBE61:
 706              		.loc 1 277 0
 707 040c 066086E0 		add	r6, r6, r6
 708              	.LVL127:
 709 0410 64608DE5 		str	r6, [sp, #100]
 710              	.LVL128:
 711              	.LBB62:
ARM GAS  /cygdrive/c/DOCUME~1/mkwapisz/LOCALS~1/Temp/cc1OEM1Z.s 			page 30


 712              		.loc 1 278 0
 713 0414 FEFFFFEB 		bl	MAD_F_MLX
 714              	.LVL129:
 715              	.LBE62:
 716              	.LBB63:
 717              		.loc 1 280 0
 718 0418 5CC08DE2 		add	ip, sp, #92
 719 041c 00509CE8 		ldmia	ip, {ip, lr}	@ phole ldm
 720 0420 0C206EE0 		rsb	r2, lr, ip
 721              	.LVL130:
 722              	.LBE63:
 723              	.LBB64:
 724              		.loc 1 278 0
 725 0424 24CEA0E1 		mov	ip, r4, lsr #28
 726              	.LBE64:
 727              	.LBB65:
 728              		.loc 1 280 0
 729 0428 0530A0E1 		mov	r3, r5
 730              	.LVL131:
 731 042c 0410A0E1 		mov	r1, r4
 732              	.LVL132:
 733 0430 0400A0E1 		mov	r0, r4
 734              	.LVL133:
 735              	.LBE65:
 736              	.LBB66:
 737              		.loc 1 278 0
 738 0434 04428CE1 		orr	r4, ip, r4, asl #4
 739              	.LVL134:
 740 0438 68408DE5 		str	r4, [sp, #104]
 741              	.LVL135:
 742              	.LBE66:
 743              	.LBB67:
 744              		.loc 1 280 0
 745 043c FEFFFFEB 		bl	MAD_F_MLX
 746              	.LVL136:
 747              	.LVL137:
 748              	.LBE67:
 749              		.loc 1 282 0
 750 0440 78C094E5 		ldr	ip, [r4, #120]
 751 0444 045094E5 		ldr	r5, [r4, #4]
 752              	.LVL138:
 753              	.LBB68:
 754              		.loc 1 280 0
 755 0448 24EEA0E1 		mov	lr, r4, lsr #28
 756              	.LBE68:
 757              	.LBB69:
 758              		.loc 1 282 0
 759 044c 05206CE0 		rsb	r2, ip, r5
 760              	.LVL139:
 761 0450 0410A0E1 		mov	r1, r4
 762              	.LBE69:
 763 0454 0C5085E0 		add	r5, r5, ip
 764              	.LBB70:
 765 0458 A83D9FE5 		ldr	r3, .L39+48
 766              	.LVL140:
 767 045c 0400A0E1 		mov	r0, r4
 768              	.LVL141:
ARM GAS  /cygdrive/c/DOCUME~1/mkwapisz/LOCALS~1/Temp/cc1OEM1Z.s 			page 31


 769              	.LBE70:
 770              	.LBB71:
 771              		.loc 1 280 0
 772 0460 04428EE1 		orr	r4, lr, r4, asl #4
 773              	.LVL142:
 774 0464 70408DE5 		str	r4, [sp, #112]
 775              	.LVL143:
 776              	.LBE71:
 777              		.loc 1 282 0
 778 0468 74508DE5 		str	r5, [sp, #116]
 779              	.LVL144:
 780              	.LBB72:
 781 046c FEFFFFEB 		bl	MAD_F_MLX
 782              	.LVL145:
 783              	.LVL146:
 784              	.LBE72:
 785              		.loc 1 283 0
 786 0470 44C094E5 		ldr	ip, [r4, #68]
 787 0474 385094E5 		ldr	r5, [r4, #56]
 788              	.LBB73:
 789 0478 05206CE0 		rsb	r2, ip, r5
 790              	.LBE73:
 791 047c 0C5085E0 		add	r5, r5, ip
 792              	.LVL147:
 793              	.LBB74:
 794              		.loc 1 282 0
 795 0480 24EEA0E1 		mov	lr, r4, lsr #28
 796              	.LBE74:
 797              		.loc 1 283 0
 798 0484 78508DE5 		str	r5, [sp, #120]
 799              	.LVL148:
 800              	.LBB75:
 801              		.loc 1 286 0
 802 0488 7C5D9FE5 		ldr	r5, .L39+52
 803              	.LVL149:
 804              	.LBE75:
 805              	.LBB76:
 806              		.loc 1 282 0
 807 048c 04628EE1 		orr	r6, lr, r4, asl #4
 808              	.LVL150:
 809              	.LVL151:
 810              	.LBE76:
 811              	.LBB77:
 812              		.loc 1 283 0
 813 0490 0410A0E1 		mov	r1, r4
 814 0494 743D9FE5 		ldr	r3, .L39+56
 815              	.LVL152:
 816 0498 0400A0E1 		mov	r0, r4
 817 049c FEFFFFEB 		bl	MAD_F_MLX
 818              	.LVL153:
 819              	.LVL154:
 820              	.LBE77:
 821              	.LBB78:
 822              		.loc 1 286 0
 823 04a0 062066E0 		rsb	r2, r6, r6
 824              	.LVL155:
 825 04a4 0410A0E1 		mov	r1, r4
ARM GAS  /cygdrive/c/DOCUME~1/mkwapisz/LOCALS~1/Temp/cc1OEM1Z.s 			page 32


 826 04a8 0530A0E1 		mov	r3, r5
 827              	.LVL156:
 828 04ac 0400A0E1 		mov	r0, r4
 829              	.LVL157:
 830              	.LBE78:
 831              		.loc 1 285 0
 832 04b0 066086E0 		add	r6, r6, r6
 833              	.LVL158:
 834 04b4 7C608DE5 		str	r6, [sp, #124]
 835              	.LVL159:
 836              	.LBB79:
 837              		.loc 1 286 0
 838 04b8 FEFFFFEB 		bl	MAD_F_MLX
 839              	.LVL160:
 840              	.LBE79:
 841              	.LBB80:
 842              		.loc 1 288 0
 843 04bc 74008DE2 		add	r0, sp, #116
 844 04c0 030090E8 		ldmia	r0, {r0, r1}	@ phole ldm
 845              	.LVL161:
 846              	.LBE80:
 847              	.LBB81:
 848              		.loc 1 286 0
 849 04c4 24CEA0E1 		mov	ip, r4, lsr #28
 850              	.LBE81:
 851              	.LBB82:
 852              		.loc 1 288 0
 853 04c8 002061E0 		rsb	r2, r1, r0
 854 04cc 0530A0E1 		mov	r3, r5
 855              	.LVL162:
 856 04d0 0410A0E1 		mov	r1, r4
 857              	.LVL163:
 858 04d4 0400A0E1 		mov	r0, r4
 859              	.LVL164:
 860              	.LBE82:
 861              	.LBB83:
 862              		.loc 1 286 0
 863 04d8 04428CE1 		orr	r4, ip, r4, asl #4
 864              	.LVL165:
 865 04dc 80408DE5 		str	r4, [sp, #128]
 866              	.LVL166:
 867              	.LBE83:
 868              	.LBB84:
 869              		.loc 1 288 0
 870 04e0 FEFFFFEB 		bl	MAD_F_MLX
 871              	.LVL167:
 872              	.LVL168:
 873              	.LBE84:
 874              		.loc 1 290 0
 875 04e4 64C094E5 		ldr	ip, [r4, #100]
 876 04e8 18A094E5 		ldr	sl, [r4, #24]
 877              	.LVL169:
 878              	.LBB85:
 879              		.loc 1 288 0
 880 04ec 24EEA0E1 		mov	lr, r4, lsr #28
 881              	.LBE85:
 882              	.LBB86:
ARM GAS  /cygdrive/c/DOCUME~1/mkwapisz/LOCALS~1/Temp/cc1OEM1Z.s 			page 33


 883              		.loc 1 290 0
 884 04f0 0A206CE0 		rsb	r2, ip, sl
 885              	.LVL170:
 886 04f4 0910A0E1 		mov	r1, r9
 887 04f8 143D9FE5 		ldr	r3, .L39+60
 888              	.LVL171:
 889 04fc 0400A0E1 		mov	r0, r4
 890              	.LVL172:
 891              	.LBE86:
 892              	.LBB87:
 893              		.loc 1 288 0
 894 0500 04428EE1 		orr	r4, lr, r4, asl #4
 895              	.LVL173:
 896              	.LBE87:
 897              		.loc 1 290 0
 898 0504 0CA08AE0 		add	sl, sl, ip
 899              	.LVL174:
 900              	.LBB88:
 901              		.loc 1 288 0
 902 0508 88408DE5 		str	r4, [sp, #136]
 903              	.LVL175:
 904              	.LBE88:
 905              	.LBB89:
 906              		.loc 1 290 0
 907 050c FEFFFFEB 		bl	MAD_F_MLX
 908              	.LVL176:
 909              	.LVL177:
 910              	.LBE89:
 911              		.loc 1 291 0
 912 0510 58C094E5 		ldr	ip, [r4, #88]
 913 0514 24E094E5 		ldr	lr, [r4, #36]
 914              	.LBB90:
 915              		.loc 1 290 0
 916 0518 299EA0E1 		mov	r9, r9, lsr #28
 917              	.LVL178:
 918              	.LBE90:
 919              	.LBB91:
 920              		.loc 1 291 0
 921 051c 0E206CE0 		rsb	r2, ip, lr
 922              	.LVL179:
 923 0520 0410A0E1 		mov	r1, r4
 924              	.LBE91:
 925 0524 0CE08EE0 		add	lr, lr, ip
 926              	.LBB92:
 927 0528 E83C9FE5 		ldr	r3, .L39+64
 928              	.LVL180:
 929 052c 0400A0E1 		mov	r0, r4
 930              	.LVL181:
 931              	.LBE92:
 932              	.LBB93:
 933              		.loc 1 290 0
 934 0530 044289E1 		orr	r4, r9, r4, asl #4
 935              	.LVL182:
 936              	.LBE93:
 937              		.loc 1 291 0
 938 0534 90E08DE5 		str	lr, [sp, #144]
 939              	.LVL183:
ARM GAS  /cygdrive/c/DOCUME~1/mkwapisz/LOCALS~1/Temp/cc1OEM1Z.s 			page 34


 940              	.LBB94:
 941              		.loc 1 290 0
 942 0538 8C408DE5 		str	r4, [sp, #140]
 943              	.LVL184:
 944              	.LBE94:
 945              	.LBB95:
 946              		.loc 1 291 0
 947 053c FEFFFFEB 		bl	MAD_F_MLX
 948              	.LVL185:
 949 0540 24CEA0E1 		mov	ip, r4, lsr #28
 950              	.LBE95:
 951              	.LBB96:
 952              		.loc 1 294 0
 953 0544 D05C9FE5 		ldr	r5, .L39+68
 954              	.LVL186:
 955              	.LBE96:
 956              	.LBB97:
 957              		.loc 1 291 0
 958 0548 04C28CE1 		orr	ip, ip, r4, asl #4
 959              	.LVL187:
 960              	.LBE97:
 961              	.LBB98:
 962              		.loc 1 294 0
 963 054c 8C409DE5 		ldr	r4, [sp, #140]
 964              	.LVL188:
 965 0550 0530A0E1 		mov	r3, r5
 966 0554 04206CE0 		rsb	r2, ip, r4
 967              	.LVL189:
 968 0558 0410A0E1 		mov	r1, r4
 969              	.LVL190:
 970              	.LBE98:
 971              		.loc 1 293 0
 972 055c 0CC084E0 		add	ip, r4, ip
 973              	.LVL191:
 974              	.LVL192:
 975              	.LBB99:
 976              		.loc 1 294 0
 977 0560 0400A0E1 		mov	r0, r4
 978              	.LBE99:
 979              		.loc 1 293 0
 980 0564 94C08DE5 		str	ip, [sp, #148]
 981              	.LVL193:
 982              	.LBB100:
 983              		.loc 1 294 0
 984 0568 FEFFFFEB 		bl	MAD_F_MLX
 985              	.LVL194:
 986              	.LBE100:
 987              	.LBB101:
 988              		.loc 1 296 0
 989 056c 90309DE5 		ldr	r3, [sp, #144]
 990              	.LVL195:
 991              	.LBE101:
 992              	.LBB102:
 993              		.loc 1 294 0
 994 0570 24CEA0E1 		mov	ip, r4, lsr #28
 995              	.LBE102:
 996              	.LBB103:
ARM GAS  /cygdrive/c/DOCUME~1/mkwapisz/LOCALS~1/Temp/cc1OEM1Z.s 			page 35


 997              		.loc 1 296 0
 998 0574 0A2063E0 		rsb	r2, r3, sl
 999              	.LVL196:
 1000 0578 0410A0E1 		mov	r1, r4
 1001 057c 0530A0E1 		mov	r3, r5
 1002              	.LVL197:
 1003 0580 0400A0E1 		mov	r0, r4
 1004              	.LVL198:
 1005              	.LBE103:
 1006              	.LBB104:
 1007              		.loc 1 294 0
 1008 0584 04428CE1 		orr	r4, ip, r4, asl #4
 1009              	.LVL199:
 1010 0588 98408DE5 		str	r4, [sp, #152]
 1011              	.LVL200:
 1012              	.LBE104:
 1013              	.LBB105:
 1014              		.loc 1 296 0
 1015 058c FEFFFFEB 		bl	MAD_F_MLX
 1016              	.LVL201:
 1017              	.LVL202:
 1018              	.LBE105:
 1019              		.loc 1 298 0
 1020 0590 74C094E5 		ldr	ip, [r4, #116]
 1021 0594 085094E5 		ldr	r5, [r4, #8]
 1022              	.LVL203:
 1023              	.LBB106:
 1024              		.loc 1 296 0
 1025 0598 24EEA0E1 		mov	lr, r4, lsr #28
 1026              	.LBE106:
 1027              	.LBB107:
 1028              		.loc 1 298 0
 1029 059c 05206CE0 		rsb	r2, ip, r5
 1030              	.LVL204:
 1031 05a0 0410A0E1 		mov	r1, r4
 1032              	.LBE107:
 1033 05a4 0C5085E0 		add	r5, r5, ip
 1034              	.LBB108:
 1035 05a8 703C9FE5 		ldr	r3, .L39+72
 1036              	.LVL205:
 1037 05ac 0400A0E1 		mov	r0, r4
 1038              	.LVL206:
 1039              	.LBE108:
 1040              	.LBB109:
 1041              		.loc 1 296 0
 1042 05b0 04428EE1 		orr	r4, lr, r4, asl #4
 1043              	.LVL207:
 1044 05b4 9C408DE5 		str	r4, [sp, #156]
 1045              	.LVL208:
 1046              	.LBE109:
 1047              		.loc 1 298 0
 1048 05b8 A0508DE5 		str	r5, [sp, #160]
 1049              	.LVL209:
 1050              	.LBB110:
 1051 05bc FEFFFFEB 		bl	MAD_F_MLX
 1052              	.LVL210:
 1053              	.LVL211:
ARM GAS  /cygdrive/c/DOCUME~1/mkwapisz/LOCALS~1/Temp/cc1OEM1Z.s 			page 36


 1054              	.LBE110:
 1055              		.loc 1 299 0
 1056 05c0 48C094E5 		ldr	ip, [r4, #72]
 1057 05c4 348094E5 		ldr	r8, [r4, #52]
 1058              	.LVL212:
 1059              	.LBB111:
 1060              		.loc 1 298 0
 1061 05c8 24EEA0E1 		mov	lr, r4, lsr #28
 1062              	.LBE111:
 1063              	.LBB112:
 1064              		.loc 1 302 0
 1065 05cc 505C9FE5 		ldr	r5, .L39+76
 1066              	.LVL213:
 1067              	.LBE112:
 1068              	.LBB113:
 1069              		.loc 1 298 0
 1070 05d0 04628EE1 		orr	r6, lr, r4, asl #4
 1071              	.LVL214:
 1072              	.LBE113:
 1073              	.LBB114:
 1074              		.loc 1 299 0
 1075 05d4 08206CE0 		rsb	r2, ip, r8
 1076              	.LVL215:
 1077 05d8 0410A0E1 		mov	r1, r4
 1078 05dc 443C9FE5 		ldr	r3, .L39+80
 1079              	.LVL216:
 1080 05e0 0400A0E1 		mov	r0, r4
 1081              	.LBE114:
 1082 05e4 0C8088E0 		add	r8, r8, ip
 1083              	.LVL217:
 1084              	.LBB115:
 1085 05e8 FEFFFFEB 		bl	MAD_F_MLX
 1086              	.LVL218:
 1087              	.LVL219:
 1088              	.LBE115:
 1089              	.LBB116:
 1090              		.loc 1 302 0
 1091 05ec 062066E0 		rsb	r2, r6, r6
 1092              	.LVL220:
 1093 05f0 0410A0E1 		mov	r1, r4
 1094 05f4 0530A0E1 		mov	r3, r5
 1095              	.LVL221:
 1096 05f8 0400A0E1 		mov	r0, r4
 1097              	.LVL222:
 1098              	.LBE116:
 1099              		.loc 1 301 0
 1100 05fc 066086E0 		add	r6, r6, r6
 1101              	.LVL223:
 1102 0600 A4608DE5 		str	r6, [sp, #164]
 1103              	.LVL224:
 1104              	.LBB117:
 1105              		.loc 1 302 0
 1106 0604 FEFFFFEB 		bl	MAD_F_MLX
 1107              	.LVL225:
 1108              	.LBE117:
 1109              	.LBB118:
 1110              		.loc 1 304 0
ARM GAS  /cygdrive/c/DOCUME~1/mkwapisz/LOCALS~1/Temp/cc1OEM1Z.s 			page 37


 1111 0608 A0709DE5 		ldr	r7, [sp, #160]
 1112              	.LVL226:
 1113              	.LBE118:
 1114              	.LBB119:
 1115              		.loc 1 302 0
 1116 060c 24CEA0E1 		mov	ip, r4, lsr #28
 1117              	.LBE119:
 1118              	.LBB120:
 1119              		.loc 1 304 0
 1120 0610 072068E0 		rsb	r2, r8, r7
 1121 0614 0530A0E1 		mov	r3, r5
 1122              	.LVL227:
 1123 0618 0410A0E1 		mov	r1, r4
 1124              	.LVL228:
 1125 061c 0400A0E1 		mov	r0, r4
 1126              	.LVL229:
 1127              	.LBE120:
 1128              	.LBB121:
 1129              		.loc 1 302 0
 1130 0620 04428CE1 		orr	r4, ip, r4, asl #4
 1131              	.LVL230:
 1132 0624 A8408DE5 		str	r4, [sp, #168]
 1133              	.LVL231:
 1134              	.LBE121:
 1135              	.LBB122:
 1136              		.loc 1 304 0
 1137 0628 FEFFFFEB 		bl	MAD_F_MLX
 1138              	.LVL232:
 1139              	.LVL233:
 1140              	.LBE122:
 1141              		.loc 1 306 0
 1142 062c 68C094E5 		ldr	ip, [r4, #104]
 1143 0630 146094E5 		ldr	r6, [r4, #20]
 1144              	.LVL234:
 1145              	.LBB123:
 1146              		.loc 1 304 0
 1147 0634 24EEA0E1 		mov	lr, r4, lsr #28
 1148              	.LBE123:
 1149              	.LBB124:
 1150              		.loc 1 306 0
 1151 0638 06206CE0 		rsb	r2, ip, r6
 1152              	.LVL235:
 1153 063c 0710A0E1 		mov	r1, r7
 1154 0640 E43B9FE5 		ldr	r3, .L39+84
 1155              	.LVL236:
 1156 0644 0400A0E1 		mov	r0, r4
 1157              	.LVL237:
 1158              	.LBE124:
 1159              	.LBB125:
 1160              		.loc 1 304 0
 1161 0648 04428EE1 		orr	r4, lr, r4, asl #4
 1162              	.LVL238:
 1163              	.LBE125:
 1164              		.loc 1 306 0
 1165 064c 0C6086E0 		add	r6, r6, ip
 1166              	.LVL239:
 1167              	.LBB126:
ARM GAS  /cygdrive/c/DOCUME~1/mkwapisz/LOCALS~1/Temp/cc1OEM1Z.s 			page 38


 1168              		.loc 1 304 0
 1169 0650 AC408DE5 		str	r4, [sp, #172]
 1170              	.LVL240:
 1171              	.LBE126:
 1172              	.LBB127:
 1173              		.loc 1 306 0
 1174 0654 FEFFFFEB 		bl	MAD_F_MLX
 1175              	.LVL241:
 1176              	.LVL242:
 1177              	.LBE127:
 1178              		.loc 1 307 0
 1179 0658 54C094E5 		ldr	ip, [r4, #84]
 1180 065c 285094E5 		ldr	r5, [r4, #40]
 1181              	.LVL243:
 1182              	.LBB128:
 1183 0660 0410A0E1 		mov	r1, r4
 1184 0664 05206CE0 		rsb	r2, ip, r5
 1185 0668 C03B9FE5 		ldr	r3, .L39+88
 1186              	.LVL244:
 1187 066c 0400A0E1 		mov	r0, r4
 1188              	.LBE128:
 1189              	.LBB129:
 1190              		.loc 1 306 0
 1191 0670 277EA0E1 		mov	r7, r7, lsr #28
 1192              	.LVL245:
 1193              	.LBE129:
 1194              		.loc 1 307 0
 1195 0674 0C5085E0 		add	r5, r5, ip
 1196              	.LVL246:
 1197              	.LVL247:
 1198              	.LBB130:
 1199              		.loc 1 306 0
 1200 0678 047287E1 		orr	r7, r7, r4, asl #4
 1201              	.LVL248:
 1202              	.LBE130:
 1203              	.LBB131:
 1204              		.loc 1 307 0
 1205 067c FEFFFFEB 		bl	MAD_F_MLX
 1206              	.LVL249:
 1207 0680 24CEA0E1 		mov	ip, r4, lsr #28
 1208              	.LBE131:
 1209              	.LBB132:
 1210              		.loc 1 310 0
 1211 0684 A84B9FE5 		ldr	r4, .L39+92
 1212              	.LVL250:
 1213              	.LVL251:
 1214              	.LBE132:
 1215              	.LBB133:
 1216              		.loc 1 307 0
 1217 0688 04C28CE1 		orr	ip, ip, r4, asl #4
 1218              	.LVL252:
 1219              	.LBE133:
 1220              	.LBB134:
 1221              		.loc 1 310 0
 1222 068c 07206CE0 		rsb	r2, ip, r7
 1223              	.LVL253:
 1224 0690 0410A0E1 		mov	r1, r4
ARM GAS  /cygdrive/c/DOCUME~1/mkwapisz/LOCALS~1/Temp/cc1OEM1Z.s 			page 39


 1225              	.LVL254:
 1226 0694 0430A0E1 		mov	r3, r4
 1227              	.LVL255:
 1228 0698 0400A0E1 		mov	r0, r4
 1229              	.LBE134:
 1230              		.loc 1 309 0
 1231 069c 0C7087E0 		add	r7, r7, ip
 1232              	.LVL256:
 1233              	.LBB135:
 1234              		.loc 1 310 0
 1235 06a0 FEFFFFEB 		bl	MAD_F_MLX
 1236              	.LVL257:
 1237              	.LBE135:
 1238              		.loc 1 255 0
 1239 06a4 1CE09DE5 		ldr	lr, [sp, #28]
 1240              		.loc 1 263 0
 1241 06a8 30009DE5 		ldr	r0, [sp, #48]
 1242              		.loc 1 255 0
 1243 06ac 18909DE5 		ldr	r9, [sp, #24]
 1244              	.LVL258:
 1245              	.LBB136:
 1246              		.loc 1 310 0
 1247 06b0 24CEA0E1 		mov	ip, r4, lsr #28
 1248              	.LBE136:
 1249              		.loc 1 255 0
 1250 06b4 0E9089E0 		add	r9, r9, lr
 1251              	.LBB137:
 1252              		.loc 1 312 0
 1253 06b8 062065E0 		rsb	r2, r5, r6
 1254              	.LVL259:
 1255 06bc 0430A0E1 		mov	r3, r4
 1256              	.LBE137:
 1257              		.loc 1 263 0
 1258 06c0 0BB080E0 		add	fp, r0, fp
 1259              	.LVL260:
 1260              	.LVL261:
 1261              	.LBB138:
 1262              		.loc 1 312 0
 1263 06c4 0410A0E1 		mov	r1, r4
 1264              	.LVL262:
 1265 06c8 0400A0E1 		mov	r0, r4
 1266              	.LVL263:
 1267              	.LBE138:
 1268              	.LBB139:
 1269              		.loc 1 310 0
 1270 06cc 04428CE1 		orr	r4, ip, r4, asl #4
 1271              	.LVL264:
 1272              	.LBE139:
 1273              		.loc 1 255 0
 1274 06d0 28908DE5 		str	r9, [sp, #40]
 1275              	.LVL265:
 1276              		.loc 1 263 0
 1277 06d4 3CB08DE5 		str	fp, [sp, #60]
 1278              	.LVL266:
 1279              	.LBB140:
 1280              		.loc 1 310 0
 1281 06d8 B0408DE5 		str	r4, [sp, #176]
ARM GAS  /cygdrive/c/DOCUME~1/mkwapisz/LOCALS~1/Temp/cc1OEM1Z.s 			page 40


 1282              	.LVL267:
 1283              	.LBE140:
 1284              	.LBB141:
 1285              		.loc 1 312 0
 1286 06dc FEFFFFEB 		bl	MAD_F_MLX
 1287              	.LVL268:
 1288              	.LBE141:
 1289              	.LBB142:
 1290              		.loc 1 314 0
 1291 06e0 3CB09DE5 		ldr	fp, [sp, #60]
 1292              	.LBE142:
 1293              		.loc 1 271 0
 1294 06e4 44108DE2 		add	r1, sp, #68
 1295 06e8 0A0091E8 		ldmia	r1, {r1, r3}	@ phole ldm
 1296              	.LBB143:
 1297              		.loc 1 314 0
 1298 06ec 09206BE0 		rsb	r2, fp, r9
 1299              	.LBE143:
 1300              		.loc 1 279 0
 1301 06f0 5C908DE2 		add	r9, sp, #92
 1302 06f4 004299E8 		ldmia	r9, {r9, lr}	@ phole ldm
 1303              	.LVL269:
 1304              	.LBB144:
 1305              		.loc 1 312 0
 1306 06f8 24CEA0E1 		mov	ip, r4, lsr #28
 1307              	.LBE144:
 1308              		.loc 1 271 0
 1309 06fc 031081E0 		add	r1, r1, r3
 1310              		.loc 1 279 0
 1311 0700 0E9089E0 		add	r9, r9, lr
 1312              		.loc 1 271 0
 1313 0704 54108DE5 		str	r1, [sp, #84]
 1314              	.LVL270:
 1315              	.LBB145:
 1316              		.loc 1 314 0
 1317 0708 283B9FE5 		ldr	r3, .L39+96
 1318              	.LVL271:
 1319 070c 0410A0E1 		mov	r1, r4
 1320              	.LVL272:
 1321 0710 0400A0E1 		mov	r0, r4
 1322              	.LVL273:
 1323              	.LBE145:
 1324              	.LBB146:
 1325              		.loc 1 312 0
 1326 0714 04428CE1 		orr	r4, ip, r4, asl #4
 1327              	.LVL274:
 1328              	.LBE146:
 1329              		.loc 1 279 0
 1330 0718 6C908DE5 		str	r9, [sp, #108]
 1331              	.LVL275:
 1332              	.LBB147:
 1333              		.loc 1 312 0
 1334 071c B4408DE5 		str	r4, [sp, #180]
 1335              	.LVL276:
 1336              	.LBE147:
 1337              	.LBB148:
 1338              		.loc 1 314 0
ARM GAS  /cygdrive/c/DOCUME~1/mkwapisz/LOCALS~1/Temp/cc1OEM1Z.s 			page 41


 1339 0720 FEFFFFEB 		bl	MAD_F_MLX
 1340              	.LVL277:
 1341              	.LBE148:
 1342              		.loc 1 287 0
 1343 0724 74108DE2 		add	r1, sp, #116
 1344 0728 0A0091E8 		ldmia	r1, {r1, r3}	@ phole ldm
 1345              	.LVL278:
 1346              	.LBB149:
 1347              		.loc 1 314 0
 1348 072c 24CEA0E1 		mov	ip, r4, lsr #28
 1349              	.LBE149:
 1350              	.LBB150:
 1351              		.loc 1 315 0
 1352 0730 54009DE5 		ldr	r0, [sp, #84]
 1353              	.LBE150:
 1354              	.LBB151:
 1355              		.loc 1 317 0
 1356 0734 004B9FE5 		ldr	r4, .L39+100
 1357              	.LVL279:
 1358              	.LBE151:
 1359              		.loc 1 287 0
 1360 0738 031081E0 		add	r1, r1, r3
 1361              	.LBB152:
 1362              		.loc 1 315 0
 1363 073c 002069E0 		rsb	r2, r9, r0
 1364              	.LBE152:
 1365              		.loc 1 287 0
 1366 0740 84108DE5 		str	r1, [sp, #132]
 1367              	.LVL280:
 1368              		.loc 1 295 0
 1369 0744 90909DE5 		ldr	r9, [sp, #144]
 1370              	.LVL281:
 1371              	.LBB153:
 1372              		.loc 1 315 0
 1373 0748 0410A0E1 		mov	r1, r4
 1374 074c EC3A9FE5 		ldr	r3, .L39+104
 1375              	.LVL282:
 1376 0750 0400A0E1 		mov	r0, r4
 1377              	.LVL283:
 1378              	.LBE153:
 1379              	.LBB154:
 1380              		.loc 1 314 0
 1381 0754 04428CE1 		orr	r4, ip, r4, asl #4
 1382              	.LVL284:
 1383 0758 B8408DE5 		str	r4, [sp, #184]
 1384              	.LVL285:
 1385              	.LBE154:
 1386              	.LBB155:
 1387              		.loc 1 315 0
 1388 075c FEFFFFEB 		bl	MAD_F_MLX
 1389              	.LVL286:
 1390              	.LBE155:
 1391              	.LBB156:
 1392              		.loc 1 316 0
 1393 0760 84C09DE5 		ldr	ip, [sp, #132]
 1394 0764 D8BA9FE5 		ldr	fp, .L39+108
 1395              	.LBE156:
ARM GAS  /cygdrive/c/DOCUME~1/mkwapisz/LOCALS~1/Temp/cc1OEM1Z.s 			page 42


 1396              		.loc 1 295 0
 1397 0768 09A08AE0 		add	sl, sl, r9
 1398              	.LVL287:
 1399              		.loc 1 303 0
 1400 076c A0E09DE5 		ldr	lr, [sp, #160]
 1401              	.LBB157:
 1402              		.loc 1 316 0
 1403 0770 0C206AE0 		rsb	r2, sl, ip
 1404              	.LVL288:
 1405              	.LBE157:
 1406              	.LBB158:
 1407              		.loc 1 315 0
 1408 0774 24CEA0E1 		mov	ip, r4, lsr #28
 1409              	.LVL289:
 1410              	.LBE158:
 1411              	.LBB159:
 1412              		.loc 1 316 0
 1413 0778 0410A0E1 		mov	r1, r4
 1414 077c 0B30A0E1 		mov	r3, fp
 1415              	.LVL290:
 1416 0780 0400A0E1 		mov	r0, r4
 1417              	.LVL291:
 1418              	.LBE159:
 1419              	.LBB160:
 1420              		.loc 1 315 0
 1421 0784 04428CE1 		orr	r4, ip, r4, asl #4
 1422              	.LVL292:
 1423              	.LBE160:
 1424              		.loc 1 303 0
 1425 0788 08808EE0 		add	r8, lr, r8
 1426              	.LVL293:
 1427              		.loc 1 311 0
 1428 078c 056086E0 		add	r6, r6, r5
 1429              	.LVL294:
 1430              	.LBB161:
 1431              		.loc 1 315 0
 1432 0790 BC408DE5 		str	r4, [sp, #188]
 1433              	.LVL295:
 1434              	.LBE161:
 1435              	.LBB162:
 1436              		.loc 1 316 0
 1437 0794 FEFFFFEB 		bl	MAD_F_MLX
 1438              	.LVL296:
 1439 0798 24CEA0E1 		mov	ip, r4, lsr #28
 1440              	.LBE162:
 1441              	.LBB163:
 1442              		.loc 1 317 0
 1443 079c 082066E0 		rsb	r2, r6, r8
 1444              	.LVL297:
 1445 07a0 0410A0E1 		mov	r1, r4
 1446              	.LVL298:
 1447 07a4 0430A0E1 		mov	r3, r4
 1448              	.LVL299:
 1449 07a8 0400A0E1 		mov	r0, r4
 1450              	.LVL300:
 1451              	.LBE163:
 1452              	.LBB164:
ARM GAS  /cygdrive/c/DOCUME~1/mkwapisz/LOCALS~1/Temp/cc1OEM1Z.s 			page 43


 1453              		.loc 1 316 0
 1454 07ac 04428CE1 		orr	r4, ip, r4, asl #4
 1455              	.LVL301:
 1456 07b0 C0408DE5 		str	r4, [sp, #192]
 1457              	.LVL302:
 1458              	.LBE164:
 1459              	.LBB165:
 1460              		.loc 1 317 0
 1461 07b4 FEFFFFEB 		bl	MAD_F_MLX
 1462              	.LVL303:
 1463              	.LBE165:
 1464              	.LBB166:
 1465              		.loc 1 318 0
 1466 07b8 20009DE5 		ldr	r0, [sp, #32]
 1467 07bc 34109DE5 		ldr	r1, [sp, #52]
 1468              	.LVL304:
 1469              	.LBE166:
 1470              	.LBB167:
 1471              		.loc 1 317 0
 1472 07c0 24CEA0E1 		mov	ip, r4, lsr #28
 1473              	.LBE167:
 1474              	.LBB168:
 1475              		.loc 1 318 0
 1476 07c4 002061E0 		rsb	r2, r1, r0
 1477 07c8 683A9FE5 		ldr	r3, .L39+96
 1478              	.LVL305:
 1479 07cc 0410A0E1 		mov	r1, r4
 1480              	.LVL306:
 1481 07d0 0400A0E1 		mov	r0, r4
 1482              	.LVL307:
 1483              	.LBE168:
 1484              	.LBB169:
 1485              		.loc 1 317 0
 1486 07d4 04428CE1 		orr	r4, ip, r4, asl #4
 1487              	.LVL308:
 1488 07d8 C4408DE5 		str	r4, [sp, #196]
 1489              	.LVL309:
 1490              	.LBE169:
 1491              	.LBB170:
 1492              		.loc 1 318 0
 1493 07dc FEFFFFEB 		bl	MAD_F_MLX
 1494              	.LVL310:
 1495              	.LBE170:
 1496              	.LBB171:
 1497              		.loc 1 319 0
 1498 07e0 4C309DE5 		ldr	r3, [sp, #76]
 1499 07e4 64509DE5 		ldr	r5, [sp, #100]
 1500              	.LVL311:
 1501              	.LVL312:
 1502              	.LBE171:
 1503              	.LBB172:
 1504              		.loc 1 318 0
 1505 07e8 24CEA0E1 		mov	ip, r4, lsr #28
 1506              	.LBE172:
 1507              	.LBB173:
 1508              		.loc 1 319 0
 1509 07ec 032065E0 		rsb	r2, r5, r3
ARM GAS  /cygdrive/c/DOCUME~1/mkwapisz/LOCALS~1/Temp/cc1OEM1Z.s 			page 44


 1510              	.LVL313:
 1511 07f0 0410A0E1 		mov	r1, r4
 1512 07f4 443A9FE5 		ldr	r3, .L39+104
 1513              	.LVL314:
 1514 07f8 0400A0E1 		mov	r0, r4
 1515              	.LVL315:
 1516              	.LBE173:
 1517              	.LBB174:
 1518              		.loc 1 318 0
 1519 07fc 04428CE1 		orr	r4, ip, r4, asl #4
 1520              	.LVL316:
 1521 0800 CC408DE5 		str	r4, [sp, #204]
 1522              	.LVL317:
 1523              	.LBE174:
 1524              	.LBB175:
 1525              		.loc 1 319 0
 1526 0804 FEFFFFEB 		bl	MAD_F_MLX
 1527              	.LVL318:
 1528              	.LBE175:
 1529              	.LBB176:
 1530              		.loc 1 320 0
 1531 0808 7C909DE5 		ldr	r9, [sp, #124]
 1532 080c 94C09DE5 		ldr	ip, [sp, #148]
 1533 0810 09206CE0 		rsb	r2, ip, r9
 1534              	.LVL319:
 1535              	.LBE176:
 1536              	.LBB177:
 1537              		.loc 1 319 0
 1538 0814 24CEA0E1 		mov	ip, r4, lsr #28
 1539              	.LVL320:
 1540              	.LBE177:
 1541              	.LBB178:
 1542              		.loc 1 320 0
 1543 0818 0410A0E1 		mov	r1, r4
 1544 081c 0B30A0E1 		mov	r3, fp
 1545              	.LVL321:
 1546 0820 0400A0E1 		mov	r0, r4
 1547              	.LVL322:
 1548              	.LBE178:
 1549              	.LBB179:
 1550              		.loc 1 319 0
 1551 0824 04428CE1 		orr	r4, ip, r4, asl #4
 1552              	.LVL323:
 1553 0828 D4408DE5 		str	r4, [sp, #212]
 1554              	.LVL324:
 1555              	.LBE179:
 1556              	.LBB180:
 1557              		.loc 1 320 0
 1558 082c FEFFFFEB 		bl	MAD_F_MLX
 1559              	.LVL325:
 1560              	.LBE180:
 1561              	.LBB181:
 1562              		.loc 1 321 0
 1563 0830 A4E09DE5 		ldr	lr, [sp, #164]
 1564              	.LVL326:
 1565              	.LBE181:
 1566              	.LBB182:
ARM GAS  /cygdrive/c/DOCUME~1/mkwapisz/LOCALS~1/Temp/cc1OEM1Z.s 			page 45


 1567              		.loc 1 320 0
 1568 0834 24CEA0E1 		mov	ip, r4, lsr #28
 1569              	.LBE182:
 1570              	.LBB183:
 1571              		.loc 1 321 0
 1572 0838 0E2067E0 		rsb	r2, r7, lr
 1573              	.LVL327:
 1574 083c 0410A0E1 		mov	r1, r4
 1575              	.LVL328:
 1576 0840 0430A0E1 		mov	r3, r4
 1577              	.LVL329:
 1578 0844 0400A0E1 		mov	r0, r4
 1579              	.LVL330:
 1580              	.LBE183:
 1581              	.LBB184:
 1582              		.loc 1 320 0
 1583 0848 04428CE1 		orr	r4, ip, r4, asl #4
 1584              	.LVL331:
 1585 084c DC408DE5 		str	r4, [sp, #220]
 1586              	.LVL332:
 1587              	.LBE184:
 1588              	.LBB185:
 1589              		.loc 1 321 0
 1590 0850 FEFFFFEB 		bl	MAD_F_MLX
 1591              	.LVL333:
 1592              	.LBE185:
 1593              	.LBB186:
 1594              		.loc 1 323 0
 1595 0854 2C009DE5 		ldr	r0, [sp, #44]
 1596 0858 40109DE5 		ldr	r1, [sp, #64]
 1597              	.LVL334:
 1598              	.LBE186:
 1599              	.LBB187:
 1600              		.loc 1 321 0
 1601 085c 24CEA0E1 		mov	ip, r4, lsr #28
 1602              	.LBE187:
 1603              	.LBB188:
 1604              		.loc 1 323 0
 1605 0860 002061E0 		rsb	r2, r1, r0
 1606 0864 CC399FE5 		ldr	r3, .L39+96
 1607              	.LVL335:
 1608 0868 0410A0E1 		mov	r1, r4
 1609              	.LVL336:
 1610 086c 0400A0E1 		mov	r0, r4
 1611              	.LVL337:
 1612              	.LBE188:
 1613              	.LBB189:
 1614              		.loc 1 321 0
 1615 0870 04428CE1 		orr	r4, ip, r4, asl #4
 1616              	.LVL338:
 1617 0874 E4408DE5 		str	r4, [sp, #228]
 1618              	.LVL339:
 1619              	.LBE189:
 1620              	.LBB190:
 1621              		.loc 1 323 0
 1622 0878 FEFFFFEB 		bl	MAD_F_MLX
 1623              	.LVL340:
ARM GAS  /cygdrive/c/DOCUME~1/mkwapisz/LOCALS~1/Temp/cc1OEM1Z.s 			page 46


 1624              	.LBE190:
 1625              	.LBB191:
 1626              		.loc 1 324 0
 1627 087c 58309DE5 		ldr	r3, [sp, #88]
 1628 0880 70509DE5 		ldr	r5, [sp, #112]
 1629              	.LVL341:
 1630              	.LBE191:
 1631              	.LBB192:
 1632              		.loc 1 323 0
 1633 0884 24CEA0E1 		mov	ip, r4, lsr #28
 1634              	.LBE192:
 1635              	.LBB193:
 1636              		.loc 1 324 0
 1637 0888 032065E0 		rsb	r2, r5, r3
 1638              	.LVL342:
 1639 088c 0410A0E1 		mov	r1, r4
 1640 0890 A8399FE5 		ldr	r3, .L39+104
 1641              	.LVL343:
 1642 0894 0400A0E1 		mov	r0, r4
 1643              	.LVL344:
 1644              	.LBE193:
 1645              	.LBB194:
 1646              		.loc 1 323 0
 1647 0898 04428CE1 		orr	r4, ip, r4, asl #4
 1648              	.LVL345:
 1649 089c EC408DE5 		str	r4, [sp, #236]
 1650              	.LVL346:
 1651              	.LBE194:
 1652              	.LBB195:
 1653              		.loc 1 324 0
 1654 08a0 FEFFFFEB 		bl	MAD_F_MLX
 1655              	.LVL347:
 1656              	.LBE195:
 1657              	.LBB196:
 1658              		.loc 1 325 0
 1659 08a4 88909DE5 		ldr	r9, [sp, #136]
 1660 08a8 9CC09DE5 		ldr	ip, [sp, #156]
 1661 08ac 09206CE0 		rsb	r2, ip, r9
 1662              	.LVL348:
 1663              	.LBE196:
 1664              	.LBB197:
 1665              		.loc 1 324 0
 1666 08b0 24CEA0E1 		mov	ip, r4, lsr #28
 1667              	.LVL349:
 1668              	.LBE197:
 1669              	.LBB198:
 1670              		.loc 1 325 0
 1671 08b4 0410A0E1 		mov	r1, r4
 1672 08b8 0B30A0E1 		mov	r3, fp
 1673              	.LVL350:
 1674 08bc 0400A0E1 		mov	r0, r4
 1675              	.LVL351:
 1676              	.LBE198:
 1677              	.LBB199:
 1678              		.loc 1 324 0
 1679 08c0 04428CE1 		orr	r4, ip, r4, asl #4
 1680              	.LVL352:
ARM GAS  /cygdrive/c/DOCUME~1/mkwapisz/LOCALS~1/Temp/cc1OEM1Z.s 			page 47


 1681 08c4 F4408DE5 		str	r4, [sp, #244]
 1682              	.LVL353:
 1683              	.LBE199:
 1684              	.LBB200:
 1685              		.loc 1 325 0
 1686 08c8 FEFFFFEB 		bl	MAD_F_MLX
 1687              	.LVL354:
 1688              	.LBE200:
 1689              	.LBB201:
 1690              		.loc 1 326 0
 1691 08cc ACE09DE5 		ldr	lr, [sp, #172]
 1692 08d0 B4009DE5 		ldr	r0, [sp, #180]
 1693              	.LVL355:
 1694              	.LBE201:
 1695              	.LBB202:
 1696              		.loc 1 325 0
 1697 08d4 24CEA0E1 		mov	ip, r4, lsr #28
 1698              	.LBE202:
 1699              	.LBB203:
 1700              		.loc 1 326 0
 1701 08d8 0E2060E0 		rsb	r2, r0, lr
 1702              	.LVL356:
 1703 08dc 0410A0E1 		mov	r1, r4
 1704              	.LVL357:
 1705 08e0 0430A0E1 		mov	r3, r4
 1706              	.LVL358:
 1707 08e4 0400A0E1 		mov	r0, r4
 1708              	.LVL359:
 1709              	.LBE203:
 1710              	.LBB204:
 1711              		.loc 1 325 0
 1712 08e8 04428CE1 		orr	r4, ip, r4, asl #4
 1713              	.LVL360:
 1714 08ec FC408DE5 		str	r4, [sp, #252]
 1715              	.LVL361:
 1716              	.LBE204:
 1717              	.LBB205:
 1718              		.loc 1 326 0
 1719 08f0 FEFFFFEB 		bl	MAD_F_MLX
 1720              	.LVL362:
 1721              	.LBE205:
 1722              	.LBB206:
 1723              		.loc 1 328 0
 1724 08f4 24109DE5 		ldr	r1, [sp, #36]
 1725 08f8 38309DE5 		ldr	r3, [sp, #56]
 1726              	.LVL363:
 1727              	.LBE206:
 1728              	.LBB207:
 1729              		.loc 1 326 0
 1730 08fc 24CEA0E1 		mov	ip, r4, lsr #28
 1731              	.LBE207:
 1732              	.LBB208:
 1733              		.loc 1 328 0
 1734 0900 012063E0 		rsb	r2, r3, r1
 1735              	.LVL364:
 1736 0904 0400A0E1 		mov	r0, r4
 1737              	.LVL365:
ARM GAS  /cygdrive/c/DOCUME~1/mkwapisz/LOCALS~1/Temp/cc1OEM1Z.s 			page 48


 1738 0908 0410A0E1 		mov	r1, r4
 1739 090c 24399FE5 		ldr	r3, .L39+96
 1740              	.LVL366:
 1741              	.LBE208:
 1742              	.LBB209:
 1743              		.loc 1 326 0
 1744 0910 04428CE1 		orr	r4, ip, r4, asl #4
 1745              	.LVL367:
 1746 0914 04418DE5 		str	r4, [sp, #260]
 1747              	.LVL368:
 1748              	.LBE209:
 1749              	.LBB210:
 1750              		.loc 1 328 0
 1751 0918 FEFFFFEB 		bl	MAD_F_MLX
 1752              	.LVL369:
 1753              	.LBE210:
 1754              	.LBB211:
 1755              		.loc 1 329 0
 1756 091c 50509DE5 		ldr	r5, [sp, #80]
 1757 0920 68909DE5 		ldr	r9, [sp, #104]
 1758              	.LVL370:
 1759              	.LBE211:
 1760              	.LBB212:
 1761              		.loc 1 328 0
 1762 0924 24CEA0E1 		mov	ip, r4, lsr #28
 1763              	.LBE212:
 1764              	.LBB213:
 1765              		.loc 1 329 0
 1766 0928 052069E0 		rsb	r2, r9, r5
 1767              	.LVL371:
 1768 092c 0410A0E1 		mov	r1, r4
 1769 0930 08399FE5 		ldr	r3, .L39+104
 1770              	.LVL372:
 1771 0934 0400A0E1 		mov	r0, r4
 1772              	.LVL373:
 1773              	.LBE213:
 1774              	.LBB214:
 1775              		.loc 1 328 0
 1776 0938 04428CE1 		orr	r4, ip, r4, asl #4
 1777              	.LVL374:
 1778 093c 0C418DE5 		str	r4, [sp, #268]
 1779              	.LVL375:
 1780              	.LBE214:
 1781              	.LBB215:
 1782              		.loc 1 329 0
 1783 0940 FEFFFFEB 		bl	MAD_F_MLX
 1784              	.LVL376:
 1785              	.LBE215:
 1786              	.LBB216:
 1787              		.loc 1 330 0
 1788 0944 80C09DE5 		ldr	ip, [sp, #128]
 1789 0948 98E09DE5 		ldr	lr, [sp, #152]
 1790 094c 0C206EE0 		rsb	r2, lr, ip
 1791              	.LVL377:
 1792              	.LBE216:
 1793              	.LBB217:
 1794              		.loc 1 329 0
ARM GAS  /cygdrive/c/DOCUME~1/mkwapisz/LOCALS~1/Temp/cc1OEM1Z.s 			page 49


 1795 0950 24CEA0E1 		mov	ip, r4, lsr #28
 1796              	.LBE217:
 1797              	.LBB218:
 1798              		.loc 1 330 0
 1799 0954 0B30A0E1 		mov	r3, fp
 1800              	.LVL378:
 1801 0958 0410A0E1 		mov	r1, r4
 1802              	.LVL379:
 1803 095c 0400A0E1 		mov	r0, r4
 1804              	.LVL380:
 1805              	.LBE218:
 1806              	.LBB219:
 1807              		.loc 1 329 0
 1808 0960 04428CE1 		orr	r4, ip, r4, asl #4
 1809              	.LVL381:
 1810 0964 14418DE5 		str	r4, [sp, #276]
 1811              	.LVL382:
 1812              	.LBE219:
 1813              	.LBB220:
 1814              		.loc 1 330 0
 1815 0968 FEFFFFEB 		bl	MAD_F_MLX
 1816              	.LVL383:
 1817              	.LBE220:
 1818              	.LBB221:
 1819              		.loc 1 331 0
 1820 096c A8009DE5 		ldr	r0, [sp, #168]
 1821 0970 B0109DE5 		ldr	r1, [sp, #176]
 1822              	.LBE221:
 1823              		.loc 1 314 0
 1824 0974 28509DE5 		ldr	r5, [sp, #40]
 1825 0978 3C909DE5 		ldr	r9, [sp, #60]
 1826              	.LBB222:
 1827              		.loc 1 331 0
 1828 097c 002061E0 		rsb	r2, r1, r0
 1829              	.LBE222:
 1830              		.loc 1 315 0
 1831 0980 54E09DE5 		ldr	lr, [sp, #84]
 1832 0984 6C009DE5 		ldr	r0, [sp, #108]
 1833              		.loc 1 316 0
 1834 0988 84109DE5 		ldr	r1, [sp, #132]
 1835              	.LVL384:
 1836              	.LBB223:
 1837              		.loc 1 330 0
 1838 098c 24CEA0E1 		mov	ip, r4, lsr #28
 1839              	.LVL385:
 1840              	.LBE223:
 1841              	.LBB224:
 1842              		.loc 1 331 0
 1843 0990 0430A0E1 		mov	r3, r4
 1844              	.LBE224:
 1845              		.loc 1 314 0
 1846 0994 094085E0 		add	r4, r5, r9
 1847              	.LVL386:
 1848              		.loc 1 316 0
 1849 0998 0AB081E0 		add	fp, r1, sl
 1850              	.LVL387:
 1851              		.loc 1 315 0
ARM GAS  /cygdrive/c/DOCUME~1/mkwapisz/LOCALS~1/Temp/cc1OEM1Z.s 			page 50


 1852 099c 00508EE0 		add	r5, lr, r0
 1853              	.LVL388:
 1854              	.LVL389:
 1855              	.LBB225:
 1856              		.loc 1 331 0
 1857 09a0 0410A0E1 		mov	r1, r4
 1858              	.LVL390:
 1859 09a4 0400A0E1 		mov	r0, r4
 1860              	.LVL391:
 1861              	.LBE225:
 1862              	.LBB226:
 1863              		.loc 1 330 0
 1864 09a8 04428CE1 		orr	r4, ip, r4, asl #4
 1865              	.LVL392:
 1866 09ac 1C418DE5 		str	r4, [sp, #284]
 1867              	.LVL393:
 1868              	.LBE226:
 1869              	.LBB227:
 1870              		.loc 1 331 0
 1871 09b0 FEFFFFEB 		bl	MAD_F_MLX
 1872              	.LVL394:
 1873              	.LBE227:
 1874              		.loc 1 336 0
 1875 09b4 14309DE5 		ldr	r3, [sp, #20]
 1876 09b8 0C909DE5 		ldr	r9, [sp, #12]
 1877 09bc 0331A0E1 		mov	r3, r3, asl #2
 1878              		.loc 1 318 0
 1879 09c0 34E09DE5 		ldr	lr, [sp, #52]
 1880 09c4 20C09DE5 		ldr	ip, [sp, #32]
 1881              		.loc 1 317 0
 1882 09c8 066088E0 		add	r6, r8, r6
 1883              	.LVL395:
 1884              		.loc 1 336 0
 1885 09cc 04308DE5 		str	r3, [sp, #4]
 1886 09d0 098083E0 		add	r8, r3, r9
 1887              	.LVL396:
 1888              		.loc 1 319 0
 1889 09d4 64909DE5 		ldr	r9, [sp, #100]
 1890 09d8 4C309DE5 		ldr	r3, [sp, #76]
 1891              		.loc 1 318 0
 1892 09dc 0EC08CE0 		add	ip, ip, lr
 1893 09e0 C8C08DE5 		str	ip, [sp, #200]
 1894              	.LVL397:
 1895              		.loc 1 319 0
 1896 09e4 093083E0 		add	r3, r3, r9
 1897              		.loc 1 320 0
 1898 09e8 94E09DE5 		ldr	lr, [sp, #148]
 1899 09ec 7CC09DE5 		ldr	ip, [sp, #124]
 1900              		.loc 1 319 0
 1901 09f0 D0308DE5 		str	r3, [sp, #208]
 1902              	.LVL398:
 1903              		.loc 1 321 0
 1904 09f4 A4309DE5 		ldr	r3, [sp, #164]
 1905              		.loc 1 320 0
 1906 09f8 0EC08CE0 		add	ip, ip, lr
 1907 09fc D8C08DE5 		str	ip, [sp, #216]
 1908              	.LVL399:
ARM GAS  /cygdrive/c/DOCUME~1/mkwapisz/LOCALS~1/Temp/cc1OEM1Z.s 			page 51


 1909              		.loc 1 321 0
 1910 0a00 077083E0 		add	r7, r3, r7
 1911              	.LVL400:
 1912              		.loc 1 329 0
 1913 0a04 68E09DE5 		ldr	lr, [sp, #104]
 1914 0a08 50C09DE5 		ldr	ip, [sp, #80]
 1915              		.loc 1 321 0
 1916 0a0c E0708DE5 		str	r7, [sp, #224]
 1917              	.LVL401:
 1918              		.loc 1 328 0
 1919 0a10 38909DE5 		ldr	r9, [sp, #56]
 1920 0a14 24709DE5 		ldr	r7, [sp, #36]
 1921              		.loc 1 329 0
 1922 0a18 0EC08CE0 		add	ip, ip, lr
 1923              		.loc 1 328 0
 1924 0a1c 097087E0 		add	r7, r7, r9
 1925              		.loc 1 329 0
 1926 0a20 10C18DE5 		str	ip, [sp, #272]
 1927              	.LVL402:
 1928              		.loc 1 331 0
 1929 0a24 A8909DE5 		ldr	r9, [sp, #168]
 1930 0a28 B0C09DE5 		ldr	ip, [sp, #176]
 1931              		.loc 1 328 0
 1932 0a2c 08718DE5 		str	r7, [sp, #264]
 1933              	.LVL403:
 1934              		.loc 1 330 0
 1935 0a30 80309DE5 		ldr	r3, [sp, #128]
 1936 0a34 98709DE5 		ldr	r7, [sp, #152]
 1937              		.loc 1 331 0
 1938 0a38 0C9089E0 		add	r9, r9, ip
 1939              	.LVL404:
 1940              	.LBB228:
 1941 0a3c 240EA0E1 		mov	r0, r4, lsr #28
 1942              	.LVL405:
 1943              	.LBE228:
 1944              		.loc 1 333 0
 1945 0a40 051084E0 		add	r1, r4, r5
 1946              	.LVL406:
 1947              		.loc 1 330 0
 1948 0a44 073083E0 		add	r3, r3, r7
 1949              	.LVL407:
 1950              	.LBB229:
 1951              		.loc 1 331 0
 1952 0a48 044280E1 		orr	r4, r0, r4, asl #4
 1953              	.LVL408:
 1954              	.LBE229:
 1955 0a4c 20918DE5 		str	r9, [sp, #288]
 1956              	.LVL409:
 1957              		.loc 1 339 0
 1958 0a50 D0009DE5 		ldr	r0, [sp, #208]
 1959              		.loc 1 340 0
 1960 0a54 E0909DE5 		ldr	r9, [sp, #224]
 1961              		.loc 1 339 0
 1962 0a58 C8E09DE5 		ldr	lr, [sp, #200]
 1963              		.loc 1 340 0
 1964 0a5c D8709DE5 		ldr	r7, [sp, #216]
 1965              		.loc 1 334 0
ARM GAS  /cygdrive/c/DOCUME~1/mkwapisz/LOCALS~1/Temp/cc1OEM1Z.s 			page 52


 1966 0a60 06208BE0 		add	r2, fp, r6
 1967              	.LVL410:
 1968              		.loc 1 339 0
 1969 0a64 00E08EE0 		add	lr, lr, r0
 1970              		.loc 1 340 0
 1971 0a68 097087E0 		add	r7, r7, r9
 1972              		.loc 1 330 0
 1973 0a6c 18318DE5 		str	r3, [sp, #280]
 1974              	.LVL411:
 1975              		.loc 1 336 0
 1976 0a70 023081E0 		add	r3, r1, r2
 1977 0a74 E03188E5 		str	r3, [r8, #480]
 1978              	.LBB230:
 1979              		.loc 1 331 0
 1980 0a78 24418DE5 		str	r4, [sp, #292]
 1981              	.LVL412:
 1982              	.LBE230:
 1983              		.loc 1 339 0
 1984 0a7c 28E18DE5 		str	lr, [sp, #296]
 1985              	.LVL413:
 1986              		.loc 1 340 0
 1987 0a80 2C718DE5 		str	r7, [sp, #300]
 1988              	.LVL414:
 1989              		.loc 1 354 0
 1990 0a84 20719DE5 		ldr	r7, [sp, #288]
 1991 0a88 18019DE5 		ldr	r0, [sp, #280]
 1992              		.loc 1 353 0
 1993 0a8c 10E19DE5 		ldr	lr, [sp, #272]
 1994 0a90 08C19DE5 		ldr	ip, [sp, #264]
 1995              		.loc 1 354 0
 1996 0a94 070080E0 		add	r0, r0, r7
 1997              		.loc 1 353 0
 1998 0a98 0EC08CE0 		add	ip, ip, lr
 1999              	.LBB231:
 2000              		.loc 1 337 0
 2001 0a9c 012062E0 		rsb	r2, r2, r1
 2002              	.LVL415:
 2003 0aa0 A8379FE5 		ldr	r3, .L39+120
 2004              	.LVL416:
 2005 0aa4 0410A0E1 		mov	r1, r4
 2006              	.LVL417:
 2007              	.LBE231:
 2008              		.loc 1 354 0
 2009 0aa8 3C018DE5 		str	r0, [sp, #316]
 2010              	.LVL418:
 2011              	.LVL419:
 2012              	.LBB232:
 2013              		.loc 1 337 0
 2014 0aac 0400A0E1 		mov	r0, r4
 2015              	.LBE232:
 2016              		.loc 1 353 0
 2017 0ab0 38C18DE5 		str	ip, [sp, #312]
 2018              	.LVL420:
 2019              	.LBB233:
 2020              		.loc 1 337 0
 2021 0ab4 FEFFFFEB 		bl	MAD_F_MLX
 2022              	.LVL421:
ARM GAS  /cygdrive/c/DOCUME~1/mkwapisz/LOCALS~1/Temp/cc1OEM1Z.s 			page 53


 2023              	.LBE233:
 2024              		.loc 1 323 0
 2025 0ab8 40C09DE5 		ldr	ip, [sp, #64]
 2026              		.loc 1 325 0
 2027 0abc 9C209DE5 		ldr	r2, [sp, #156]
 2028              		.loc 1 326 0
 2029 0ac0 B4709DE5 		ldr	r7, [sp, #180]
 2030              		.loc 1 323 0
 2031 0ac4 2C909DE5 		ldr	r9, [sp, #44]
 2032              		.loc 1 325 0
 2033 0ac8 88109DE5 		ldr	r1, [sp, #136]
 2034              		.loc 1 326 0
 2035 0acc AC309DE5 		ldr	r3, [sp, #172]
 2036              		.loc 1 324 0
 2037 0ad0 70009DE5 		ldr	r0, [sp, #112]
 2038 0ad4 58E09DE5 		ldr	lr, [sp, #88]
 2039              		.loc 1 323 0
 2040 0ad8 0C9089E0 		add	r9, r9, ip
 2041              		.loc 1 325 0
 2042 0adc 021081E0 		add	r1, r1, r2
 2043              		.loc 1 326 0
 2044 0ae0 073083E0 		add	r3, r3, r7
 2045              		.loc 1 369 0
 2046 0ae4 CC209DE5 		ldr	r2, [sp, #204]
 2047 0ae8 D4709DE5 		ldr	r7, [sp, #212]
 2048              		.loc 1 323 0
 2049 0aec E8908DE5 		str	r9, [sp, #232]
 2050              	.LVL422:
 2051              		.loc 1 324 0
 2052 0af0 00E08EE0 		add	lr, lr, r0
 2053              		.loc 1 325 0
 2054 0af4 F8108DE5 		str	r1, [sp, #248]
 2055              	.LVL423:
 2056              		.loc 1 342 0
 2057 0af8 4A9F8DE2 		add	r9, sp, #296
 2058 0afc 001299E8 		ldmia	r9, {r9, ip}	@ phole ldm
 2059              		.loc 1 356 0
 2060 0b00 4E0F8DE2 		add	r0, sp, #312
 2061 0b04 030090E8 		ldmia	r0, {r0, r1}	@ phole ldm
 2062              		.loc 1 369 0
 2063 0b08 072082E0 		add	r2, r2, r7
 2064              		.loc 1 324 0
 2065 0b0c F0E08DE5 		str	lr, [sp, #240]
 2066              	.LVL424:
 2067              		.loc 1 326 0
 2068 0b10 00318DE5 		str	r3, [sp, #256]
 2069              	.LVL425:
 2070              		.loc 1 342 0
 2071 0b14 0CE089E0 		add	lr, r9, ip
 2072              	.LVL426:
 2073              		.loc 1 356 0
 2074 0b18 013080E0 		add	r3, r0, r1
 2075              	.LVL427:
 2076              		.loc 1 370 0
 2077 0b1c E4C09DE5 		ldr	ip, [sp, #228]
 2078              		.loc 1 387 0
 2079 0b20 14119DE5 		ldr	r1, [sp, #276]
ARM GAS  /cygdrive/c/DOCUME~1/mkwapisz/LOCALS~1/Temp/cc1OEM1Z.s 			page 54


 2080              		.loc 1 388 0
 2081 0b24 24719DE5 		ldr	r7, [sp, #292]
 2082              		.loc 1 369 0
 2083 0b28 4C218DE5 		str	r2, [sp, #332]
 2084              	.LVL428:
 2085              		.loc 1 370 0
 2086 0b2c DC909DE5 		ldr	r9, [sp, #220]
 2087              		.loc 1 387 0
 2088 0b30 0C019DE5 		ldr	r0, [sp, #268]
 2089              		.loc 1 388 0
 2090 0b34 1C219DE5 		ldr	r2, [sp, #284]
 2091              		.loc 1 370 0
 2092 0b38 0C9089E0 		add	r9, r9, ip
 2093              		.loc 1 387 0
 2094 0b3c 010080E0 		add	r0, r0, r1
 2095              		.loc 1 388 0
 2096 0b40 072082E0 		add	r2, r2, r7
 2097              		.loc 1 370 0
 2098 0b44 50918DE5 		str	r9, [sp, #336]
 2099              	.LVL429:
 2100              		.loc 1 387 0
 2101 0b48 64018DE5 		str	r0, [sp, #356]
 2102              	.LVL430:
 2103              		.loc 1 388 0
 2104 0b4c 68218DE5 		str	r2, [sp, #360]
 2105              	.LVL431:
 2106              		.loc 1 346 0
 2107 0b50 F0009DE5 		ldr	r0, [sp, #240]
 2108              		.loc 1 347 0
 2109 0b54 00219DE5 		ldr	r2, [sp, #256]
 2110              		.loc 1 346 0
 2111 0b58 E8909DE5 		ldr	r9, [sp, #232]
 2112              		.loc 1 347 0
 2113 0b5c F8109DE5 		ldr	r1, [sp, #248]
 2114              		.loc 1 346 0
 2115 0b60 009089E0 		add	r9, r9, r0
 2116              		.loc 1 347 0
 2117 0b64 021081E0 		add	r1, r1, r2
 2118              		.loc 1 346 0
 2119 0b68 30918DE5 		str	r9, [sp, #304]
 2120              	.LVL432:
 2121              		.loc 1 347 0
 2122 0b6c 34118DE5 		str	r1, [sp, #308]
 2123              	.LVL433:
 2124              		.loc 1 372 0
 2125 0b70 537F8DE2 		add	r7, sp, #332
 2126 0b74 800297E8 		ldmia	r7, {r7, r9}	@ phole ldm
 2127              		.loc 1 378 0
 2128 0b78 F4109DE5 		ldr	r1, [sp, #244]
 2129              		.loc 1 372 0
 2130 0b7c 097087E0 		add	r7, r7, r9
 2131              		.loc 1 378 0
 2132 0b80 EC009DE5 		ldr	r0, [sp, #236]
 2133              		.loc 1 372 0
 2134 0b84 54718DE5 		str	r7, [sp, #340]
 2135              	.LVL434:
 2136              		.loc 1 379 0
ARM GAS  /cygdrive/c/DOCUME~1/mkwapisz/LOCALS~1/Temp/cc1OEM1Z.s 			page 55


 2137 0b88 FC209DE5 		ldr	r2, [sp, #252]
 2138 0b8c 04719DE5 		ldr	r7, [sp, #260]
 2139              		.loc 1 378 0
 2140 0b90 010080E0 		add	r0, r0, r1
 2141 0b94 58018DE5 		str	r0, [sp, #344]
 2142              	.LVL435:
 2143              		.loc 1 379 0
 2144 0b98 072082E0 		add	r2, r2, r7
 2145              		.loc 1 390 0
 2146 0b9c 68019DE5 		ldr	r0, [sp, #360]
 2147 0ba0 64919DE5 		ldr	r9, [sp, #356]
 2148              		.loc 1 379 0
 2149 0ba4 5C218DE5 		str	r2, [sp, #348]
 2150              	.LVL436:
 2151              		.loc 1 374 0
 2152 0ba8 54119DE5 		ldr	r1, [sp, #340]
 2153              		.loc 1 349 0
 2154 0bac 132E8DE2 		add	r2, sp, #304
 2155 0bb0 840092E8 		ldmia	r2, {r2, r7}	@ phole ldm
 2156              		.loc 1 358 0
 2157 0bb4 83C06EE0 		rsb	ip, lr, r3, asl #1
 2158              	.LVL437:
 2159              		.loc 1 390 0
 2160 0bb8 009089E0 		add	r9, r9, r0
 2161              		.loc 1 392 0
 2162 0bbc 893063E0 		rsb	r3, r3, r9, asl #1
 2163              	.LVL438:
 2164              		.loc 1 374 0
 2165 0bc0 81006CE0 		rsb	r0, ip, r1, asl #1
 2166              	.LVL439:
 2167              		.loc 1 390 0
 2168 0bc4 6C918DE5 		str	r9, [sp, #364]
 2169              	.LVL440:
 2170              		.loc 1 349 0
 2171 0bc8 071082E0 		add	r1, r2, r7
 2172              	.LVL441:
 2173              		.loc 1 362 0
 2174 0bcc B8909DE5 		ldr	r9, [sp, #184]
 2175 0bd0 BC209DE5 		ldr	r2, [sp, #188]
 2176 0bd4 029089E0 		add	r9, r9, r2
 2177 0bd8 40918DE5 		str	r9, [sp, #320]
 2178              	.LVL442:
 2179              		.loc 1 363 0
 2180 0bdc C0708DE2 		add	r7, sp, #192
 2181 0be0 800297E8 		ldmia	r7, {r7, r9}	@ phole ldm
 2182 0be4 097087E0 		add	r7, r7, r9
 2183              		.loc 1 392 0
 2184 0be8 70318DE5 		str	r3, [sp, #368]
 2185              	.LVL443:
 2186              		.loc 1 363 0
 2187 0bec 44718DE5 		str	r7, [sp, #324]
 2188              	.LVL444:
 2189              		.loc 1 381 0
 2190 0bf0 562F8DE2 		add	r2, sp, #344
 2191 0bf4 840092E8 		ldmia	r2, {r2, r7}	@ phole ldm
 2192              		.loc 1 394 0
 2193 0bf8 70919DE5 		ldr	r9, [sp, #368]
ARM GAS  /cygdrive/c/DOCUME~1/mkwapisz/LOCALS~1/Temp/cc1OEM1Z.s 			page 56


 2194              		.loc 1 381 0
 2195 0bfc 072082E0 		add	r2, r2, r7
 2196              		.loc 1 383 0
 2197 0c00 827061E0 		rsb	r7, r1, r2, asl #1
 2198              	.LVL445:
 2199              		.loc 1 394 0
 2200 0c04 89A060E0 		rsb	sl, r0, r9, asl #1
 2201              	.LVL446:
 2202              		.loc 1 381 0
 2203 0c08 60218DE5 		str	r2, [sp, #352]
 2204              	.LVL447:
 2205              		.loc 1 365 0
 2206 0c0c 052D8DE2 		add	r2, sp, #320
 2207 0c10 040292E8 		ldmia	r2, {r2, r9}	@ phole ldm
 2208 0c14 092082E0 		add	r2, r2, r9
 2209              	.LVL448:
 2210              		.loc 1 337 0
 2211 0c18 243EA0E1 		mov	r3, r4, lsr #28
 2212 0c1c 10909DE5 		ldr	r9, [sp, #16]
 2213              		.loc 1 365 0
 2214 0c20 48218DE5 		str	r2, [sp, #328]
 2215              	.LVL449:
 2216              		.loc 1 337 0
 2217 0c24 14209DE5 		ldr	r2, [sp, #20]
 2218              	.LVL450:
 2219 0c28 043283E1 		orr	r3, r3, r4, asl #4
 2220 0c2c 023189E7 		str	r3, [r9, r2, asl #2]
 2221              		.loc 1 344 0
 2222 0c30 C0E188E5 		str	lr, [r8, #448]
 2223              		.loc 1 351 0
 2224 0c34 A01188E5 		str	r1, [r8, #416]
 2225              		.loc 1 360 0
 2226 0c38 80C188E5 		str	ip, [r8, #384]
 2227              		.loc 1 367 0
 2228 0c3c 48C19DE5 		ldr	ip, [sp, #328]
 2229              	.LVL451:
 2230              	.LVL452:
 2231              	.LBB234:
 2232              		.loc 1 398 0
 2233 0c40 042065E0 		rsb	r2, r5, r4
 2234              	.LBE234:
 2235              		.loc 1 367 0
 2236 0c44 60C188E5 		str	ip, [r8, #352]
 2237              		.loc 1 376 0
 2238 0c48 400188E5 		str	r0, [r8, #320]
 2239              		.loc 1 385 0
 2240 0c4c 207188E5 		str	r7, [r8, #288]
 2241              		.loc 1 396 0
 2242 0c50 00A188E5 		str	sl, [r8, #256]
 2243              	.LVL453:
 2244              	.LBB235:
 2245              		.loc 1 398 0
 2246 0c54 0410A0E1 		mov	r1, r4
 2247              	.LVL454:
 2248 0c58 E8359FE5 		ldr	r3, .L39+112
 2249              	.LVL455:
 2250 0c5c 0400A0E1 		mov	r0, r4
ARM GAS  /cygdrive/c/DOCUME~1/mkwapisz/LOCALS~1/Temp/cc1OEM1Z.s 			page 57


 2251              	.LVL456:
 2252 0c60 244EA0E1 		mov	r4, r4, lsr #28
 2253 0c64 FEFFFFEB 		bl	MAD_F_MLX
 2254              	.LVL457:
 2255              	.LBE235:
 2256              	.LBB236:
 2257              		.loc 1 399 0
 2258 0c68 0B2066E0 		rsb	r2, r6, fp
 2259              	.LVL458:
 2260 0c6c 0410A0E1 		mov	r1, r4
 2261 0c70 D4359FE5 		ldr	r3, .L39+116
 2262              	.LVL459:
 2263 0c74 0400A0E1 		mov	r0, r4
 2264              	.LVL460:
 2265              	.LBE236:
 2266              	.LBB237:
 2267              		.loc 1 398 0
 2268 0c78 044284E1 		orr	r4, r4, r4, asl #4
 2269              	.LVL461:
 2270              	.LBE237:
 2271              	.LBB238:
 2272              		.loc 1 399 0
 2273 0c7c FEFFFFEB 		bl	MAD_F_MLX
 2274              	.LVL462:
 2275 0c80 242EA0E1 		mov	r2, r4, lsr #28
 2276              	.LVL463:
 2277 0c84 042282E1 		orr	r2, r2, r4, asl #4
 2278              	.LVL464:
 2279              	.LVL465:
 2280              	.LBE238:
 2281              		.loc 1 400 0
 2282 0c88 025084E0 		add	r5, r4, r2
 2283              	.LVL466:
 2284              		.loc 1 402 0
 2285 0c8c E05088E5 		str	r5, [r8, #224]
 2286              	.LBB239:
 2287              		.loc 1 404 0
 2288 0c90 042062E0 		rsb	r2, r2, r4
 2289              	.LVL467:
 2290 0c94 0410A0E1 		mov	r1, r4
 2291 0c98 B0359FE5 		ldr	r3, .L39+120
 2292              	.LVL468:
 2293 0c9c 0400A0E1 		mov	r0, r4
 2294 0ca0 FEFFFFEB 		bl	MAD_F_MLX
 2295              	.LVL469:
 2296              	.LBE239:
 2297 0ca4 243EA0E1 		mov	r3, r4, lsr #28
 2298              		.loc 1 403 0
 2299 0ca8 04E09DE5 		ldr	lr, [sp, #4]
 2300              	.LVL470:
 2301              		.loc 1 404 0
 2302 0cac 043283E1 		orr	r3, r3, r4, asl #4
 2303              		.loc 1 403 0
 2304 0cb0 10009DE5 		ldr	r0, [sp, #16]
 2305              		.loc 1 404 0
 2306 0cb4 835065E0 		rsb	r5, r5, r3, asl #1
 2307              	.LVL471:
ARM GAS  /cygdrive/c/DOCUME~1/mkwapisz/LOCALS~1/Temp/cc1OEM1Z.s 			page 58


 2308              	.LBB240:
 2309              		.loc 1 406 0
 2310 0cb8 C8109DE5 		ldr	r1, [sp, #200]
 2311 0cbc D0309DE5 		ldr	r3, [sp, #208]
 2312              	.LBE240:
 2313              		.loc 1 403 0
 2314 0cc0 00908EE0 		add	r9, lr, r0
 2315              	.LBB241:
 2316              		.loc 1 406 0
 2317 0cc4 012063E0 		rsb	r2, r3, r1
 2318              	.LBE241:
 2319              		.loc 1 404 0
 2320 0cc8 005189E5 		str	r5, [r9, #256]
 2321              	.LVL472:
 2322              	.LBB242:
 2323              		.loc 1 406 0
 2324 0ccc 0410A0E1 		mov	r1, r4
 2325 0cd0 70359FE5 		ldr	r3, .L39+112
 2326              	.LVL473:
 2327 0cd4 0400A0E1 		mov	r0, r4
 2328 0cd8 FEFFFFEB 		bl	MAD_F_MLX
 2329              	.LVL474:
 2330              	.LBE242:
 2331              	.LBB243:
 2332              		.loc 1 407 0
 2333 0cdc D8509DE5 		ldr	r5, [sp, #216]
 2334 0ce0 E0C09DE5 		ldr	ip, [sp, #224]
 2335 0ce4 05206CE0 		rsb	r2, ip, r5
 2336              	.LVL475:
 2337              	.LBE243:
 2338              	.LBB244:
 2339              		.loc 1 406 0
 2340 0ce8 24CEA0E1 		mov	ip, r4, lsr #28
 2341              	.LVL476:
 2342              	.LBE244:
 2343              	.LBB245:
 2344              		.loc 1 407 0
 2345 0cec 0410A0E1 		mov	r1, r4
 2346 0cf0 54359FE5 		ldr	r3, .L39+116
 2347              	.LVL477:
 2348 0cf4 0400A0E1 		mov	r0, r4
 2349              	.LVL478:
 2350              	.LBE245:
 2351              	.LBB246:
 2352              		.loc 1 406 0
 2353 0cf8 04428CE1 		orr	r4, ip, r4, asl #4
 2354              	.LVL479:
 2355 0cfc 74418DE5 		str	r4, [sp, #372]
 2356              	.LVL480:
 2357              	.LBE246:
 2358              	.LBB247:
 2359              		.loc 1 407 0
 2360 0d00 FEFFFFEB 		bl	MAD_F_MLX
 2361              	.LVL481:
 2362 0d04 240EA0E1 		mov	r0, r4, lsr #28
 2363              	.LBE247:
 2364              		.loc 1 408 0
ARM GAS  /cygdrive/c/DOCUME~1/mkwapisz/LOCALS~1/Temp/cc1OEM1Z.s 			page 59


 2365 0d08 74E19DE5 		ldr	lr, [sp, #372]
 2366              	.LVL482:
 2367              	.LBB248:
 2368              		.loc 1 407 0
 2369 0d0c 044280E1 		orr	r4, r0, r4, asl #4
 2370              	.LVL483:
 2371              	.LBE248:
 2372              		.loc 1 408 0
 2373 0d10 04E08EE0 		add	lr, lr, r4
 2374              	.LBB249:
 2375              		.loc 1 414 0
 2376 0d14 E8009DE5 		ldr	r0, [sp, #232]
 2377 0d18 F0109DE5 		ldr	r1, [sp, #240]
 2378              	.LBE249:
 2379              		.loc 1 410 0
 2380 0d1c 8EA06AE0 		rsb	sl, sl, lr, asl #1
 2381              	.LVL484:
 2382              	.LBB250:
 2383              		.loc 1 414 0
 2384 0d20 002061E0 		rsb	r2, r1, r0
 2385              	.LBE250:
 2386              		.loc 1 412 0
 2387 0d24 C0A088E5 		str	sl, [r8, #192]
 2388              	.LVL485:
 2389              	.LBB251:
 2390              		.loc 1 414 0
 2391 0d28 0410A0E1 		mov	r1, r4
 2392 0d2c 14359FE5 		ldr	r3, .L39+112
 2393              	.LVL486:
 2394 0d30 0400A0E1 		mov	r0, r4
 2395              	.LBE251:
 2396              		.loc 1 408 0
 2397 0d34 7CE18DE5 		str	lr, [sp, #380]
 2398              	.LVL487:
 2399              	.LVL488:
 2400              	.LBB252:
 2401              		.loc 1 407 0
 2402 0d38 78418DE5 		str	r4, [sp, #376]
 2403              	.LVL489:
 2404              	.LBE252:
 2405              	.LBB253:
 2406              		.loc 1 414 0
 2407 0d3c FEFFFFEB 		bl	MAD_F_MLX
 2408              	.LVL490:
 2409              	.LBE253:
 2410              	.LBB254:
 2411              		.loc 1 415 0
 2412 0d40 F8309DE5 		ldr	r3, [sp, #248]
 2413 0d44 00519DE5 		ldr	r5, [sp, #256]
 2414              	.LVL491:
 2415              	.LBE254:
 2416              	.LBB255:
 2417              		.loc 1 414 0
 2418 0d48 24CEA0E1 		mov	ip, r4, lsr #28
 2419              	.LBE255:
 2420              	.LBB256:
 2421              		.loc 1 415 0
ARM GAS  /cygdrive/c/DOCUME~1/mkwapisz/LOCALS~1/Temp/cc1OEM1Z.s 			page 60


 2422 0d4c 032065E0 		rsb	r2, r5, r3
 2423              	.LVL492:
 2424 0d50 0410A0E1 		mov	r1, r4
 2425 0d54 F0349FE5 		ldr	r3, .L39+116
 2426              	.LVL493:
 2427 0d58 0400A0E1 		mov	r0, r4
 2428              	.LVL494:
 2429              	.LBE256:
 2430              	.LBB257:
 2431              		.loc 1 414 0
 2432 0d5c 04428CE1 		orr	r4, ip, r4, asl #4
 2433              	.LVL495:
 2434 0d60 80418DE5 		str	r4, [sp, #384]
 2435              	.LVL496:
 2436              	.LBE257:
 2437              	.LBB258:
 2438              		.loc 1 415 0
 2439 0d64 FEFFFFEB 		bl	MAD_F_MLX
 2440              	.LVL497:
 2441 0d68 240EA0E1 		mov	r0, r4, lsr #28
 2442              	.LBE258:
 2443              		.loc 1 416 0
 2444 0d6c 80C19DE5 		ldr	ip, [sp, #384]
 2445              	.LVL498:
 2446              	.LBB259:
 2447              		.loc 1 415 0
 2448 0d70 044280E1 		orr	r4, r0, r4, asl #4
 2449              	.LVL499:
 2450              	.LBE259:
 2451              		.loc 1 416 0
 2452 0d74 04C08CE0 		add	ip, ip, r4
 2453              	.LBB260:
 2454              		.loc 1 422 0
 2455 0d78 08E19DE5 		ldr	lr, [sp, #264]
 2456 0d7c 10019DE5 		ldr	r0, [sp, #272]
 2457              	.LBE260:
 2458              		.loc 1 418 0
 2459 0d80 8C7067E0 		rsb	r7, r7, ip, asl #1
 2460              	.LVL500:
 2461              	.LBB261:
 2462              		.loc 1 422 0
 2463 0d84 0E2060E0 		rsb	r2, r0, lr
 2464              	.LBE261:
 2465              		.loc 1 420 0
 2466 0d88 A07088E5 		str	r7, [r8, #160]
 2467              	.LVL501:
 2468              	.LBB262:
 2469              		.loc 1 422 0
 2470 0d8c 0410A0E1 		mov	r1, r4
 2471 0d90 B0349FE5 		ldr	r3, .L39+112
 2472              	.LVL502:
 2473 0d94 0400A0E1 		mov	r0, r4
 2474              	.LVL503:
 2475              	.LBE262:
 2476              	.LBB263:
 2477              		.loc 1 415 0
 2478 0d98 84418DE5 		str	r4, [sp, #388]
ARM GAS  /cygdrive/c/DOCUME~1/mkwapisz/LOCALS~1/Temp/cc1OEM1Z.s 			page 61


 2479              	.LVL504:
 2480              	.LBE263:
 2481              		.loc 1 416 0
 2482 0d9c 88C18DE5 		str	ip, [sp, #392]
 2483              	.LVL505:
 2484              	.LBB264:
 2485              		.loc 1 422 0
 2486 0da0 FEFFFFEB 		bl	MAD_F_MLX
 2487              	.LVL506:
 2488              	.LBE264:
 2489              	.LBB265:
 2490              		.loc 1 423 0
 2491 0da4 18119DE5 		ldr	r1, [sp, #280]
 2492 0da8 20319DE5 		ldr	r3, [sp, #288]
 2493              	.LVL507:
 2494              	.LBE265:
 2495              	.LBB266:
 2496              		.loc 1 422 0
 2497 0dac 24CEA0E1 		mov	ip, r4, lsr #28
 2498              	.LBE266:
 2499              	.LBB267:
 2500              		.loc 1 423 0
 2501 0db0 012063E0 		rsb	r2, r3, r1
 2502              	.LVL508:
 2503 0db4 0400A0E1 		mov	r0, r4
 2504              	.LVL509:
 2505 0db8 0410A0E1 		mov	r1, r4
 2506 0dbc 88349FE5 		ldr	r3, .L39+116
 2507              	.LVL510:
 2508              	.LBE267:
 2509              	.LBB268:
 2510              		.loc 1 422 0
 2511 0dc0 04428CE1 		orr	r4, ip, r4, asl #4
 2512              	.LVL511:
 2513 0dc4 8C418DE5 		str	r4, [sp, #396]
 2514              	.LVL512:
 2515              	.LBE268:
 2516              	.LBB269:
 2517              		.loc 1 423 0
 2518 0dc8 FEFFFFEB 		bl	MAD_F_MLX
 2519              	.LVL513:
 2520 0dcc 240EA0E1 		mov	r0, r4, lsr #28
 2521              	.LBE269:
 2522              		.loc 1 424 0
 2523 0dd0 8C519DE5 		ldr	r5, [sp, #396]
 2524              	.LVL514:
 2525              	.LBB270:
 2526              		.loc 1 423 0
 2527 0dd4 044280E1 		orr	r4, r0, r4, asl #4
 2528              	.LVL515:
 2529              	.LBE270:
 2530              		.loc 1 426 0
 2531 0dd8 70C19DE5 		ldr	ip, [sp, #368]
 2532              		.loc 1 424 0
 2533 0ddc 045085E0 		add	r5, r5, r4
 2534              		.loc 1 426 0
 2535 0de0 85C06CE0 		rsb	ip, ip, r5, asl #1
ARM GAS  /cygdrive/c/DOCUME~1/mkwapisz/LOCALS~1/Temp/cc1OEM1Z.s 			page 62


 2536              	.LBB271:
 2537              		.loc 1 432 0
 2538 0de4 B8E09DE5 		ldr	lr, [sp, #184]
 2539 0de8 BC009DE5 		ldr	r0, [sp, #188]
 2540              	.LBE271:
 2541              		.loc 1 428 0
 2542 0dec 8CA06AE0 		rsb	sl, sl, ip, asl #1
 2543              	.LVL516:
 2544              	.LBB272:
 2545              		.loc 1 432 0
 2546 0df0 0E2060E0 		rsb	r2, r0, lr
 2547              	.LBE272:
 2548              		.loc 1 430 0
 2549 0df4 80A088E5 		str	sl, [r8, #128]
 2550              	.LVL517:
 2551              	.LBB273:
 2552              		.loc 1 432 0
 2553 0df8 0510A0E1 		mov	r1, r5
 2554 0dfc 44349FE5 		ldr	r3, .L39+112
 2555              	.LVL518:
 2556 0e00 0400A0E1 		mov	r0, r4
 2557              	.LBE273:
 2558              		.loc 1 426 0
 2559 0e04 98C18DE5 		str	ip, [sp, #408]
 2560              	.LVL519:
 2561              	.LVL520:
 2562              	.LBB274:
 2563              		.loc 1 423 0
 2564 0e08 90418DE5 		str	r4, [sp, #400]
 2565              	.LVL521:
 2566              	.LVL522:
 2567              	.LBE274:
 2568              		.loc 1 424 0
 2569 0e0c 94518DE5 		str	r5, [sp, #404]
 2570              	.LVL523:
 2571              	.LBB275:
 2572              		.loc 1 432 0
 2573 0e10 FEFFFFEB 		bl	MAD_F_MLX
 2574              	.LVL524:
 2575              	.LBE275:
 2576              	.LBB276:
 2577              		.loc 1 433 0
 2578 0e14 C0108DE2 		add	r1, sp, #192
 2579 0e18 0A0091E8 		ldmia	r1, {r1, r3}	@ phole ldm
 2580              	.LVL525:
 2581              	.LBE276:
 2582              	.LBB277:
 2583              		.loc 1 432 0
 2584 0e1c 255EA0E1 		mov	r5, r5, lsr #28
 2585              	.LVL526:
 2586              	.LBE277:
 2587              	.LBB278:
 2588              		.loc 1 433 0
 2589 0e20 012063E0 		rsb	r2, r3, r1
 2590              	.LVL527:
 2591              	.LBE278:
 2592              	.LBB279:
ARM GAS  /cygdrive/c/DOCUME~1/mkwapisz/LOCALS~1/Temp/cc1OEM1Z.s 			page 63


 2593              		.loc 1 432 0
 2594 0e24 045285E1 		orr	r5, r5, r4, asl #4
 2595              	.LVL528:
 2596              	.LVL529:
 2597              	.LBE279:
 2598              	.LBB280:
 2599              		.loc 1 433 0
 2600 0e28 0410A0E1 		mov	r1, r4
 2601 0e2c 18349FE5 		ldr	r3, .L39+116
 2602              	.LVL530:
 2603 0e30 0400A0E1 		mov	r0, r4
 2604              	.LVL531:
 2605 0e34 244EA0E1 		mov	r4, r4, lsr #28
 2606 0e38 044284E1 		orr	r4, r4, r4, asl #4
 2607              	.LVL532:
 2608 0e3c FEFFFFEB 		bl	MAD_F_MLX
 2609              	.LVL533:
 2610              	.LBE280:
 2611              		.loc 1 436 0
 2612 0e40 48C19DE5 		ldr	ip, [sp, #328]
 2613              	.LBB281:
 2614              		.loc 1 440 0
 2615 0e44 40E19DE5 		ldr	lr, [sp, #320]
 2616              	.LBE281:
 2617              		.loc 1 434 0
 2618 0e48 046085E0 		add	r6, r5, r4
 2619              	.LVL534:
 2620              	.LBB282:
 2621              		.loc 1 440 0
 2622 0e4c 44019DE5 		ldr	r0, [sp, #324]
 2623              	.LBE282:
 2624              		.loc 1 436 0
 2625 0e50 86B06CE0 		rsb	fp, ip, r6, asl #1
 2626              	.LVL535:
 2627              	.LBB283:
 2628              		.loc 1 440 0
 2629 0e54 0E2060E0 		rsb	r2, r0, lr
 2630              	.LBE283:
 2631              		.loc 1 438 0
 2632 0e58 60B088E5 		str	fp, [r8, #96]
 2633              	.LVL536:
 2634              	.LBB284:
 2635              		.loc 1 440 0
 2636 0e5c 0410A0E1 		mov	r1, r4
 2637 0e60 E8339FE5 		ldr	r3, .L39+120
 2638              	.LVL537:
 2639 0e64 0400A0E1 		mov	r0, r4
 2640 0e68 FEFFFFEB 		bl	MAD_F_MLX
 2641              	.LVL538:
 2642              	.LBE284:
 2643 0e6c 243EA0E1 		mov	r3, r4, lsr #28
 2644              	.LVL539:
 2645 0e70 043283E1 		orr	r3, r3, r4, asl #4
 2646 0e74 83B06BE0 		rsb	fp, fp, r3, asl #1
 2647              	.LVL540:
 2648              	.LVL541:
 2649              	.LBB285:
ARM GAS  /cygdrive/c/DOCUME~1/mkwapisz/LOCALS~1/Temp/cc1OEM1Z.s 			page 64


 2650              		.loc 1 444 0
 2651 0e78 052064E0 		rsb	r2, r4, r5
 2652              	.LVL542:
 2653 0e7c 0410A0E1 		mov	r1, r4
 2654              	.LBE285:
 2655              		.loc 1 442 0
 2656 0e80 80B089E5 		str	fp, [r9, #128]
 2657              	.LBB286:
 2658              		.loc 1 444 0
 2659 0e84 C4339FE5 		ldr	r3, .L39+120
 2660              	.LVL543:
 2661 0e88 0400A0E1 		mov	r0, r4
 2662 0e8c FEFFFFEB 		bl	MAD_F_MLX
 2663              	.LVL544:
 2664              	.LBE286:
 2665 0e90 243EA0E1 		mov	r3, r4, lsr #28
 2666              	.LVL545:
 2667 0e94 043283E1 		orr	r3, r3, r4, asl #4
 2668 0e98 836066E0 		rsb	r6, r6, r3, asl #1
 2669              	.LVL546:
 2670              	.LBB287:
 2671              		.loc 1 446 0
 2672 0e9c CC109DE5 		ldr	r1, [sp, #204]
 2673 0ea0 D4309DE5 		ldr	r3, [sp, #212]
 2674              	.LBE287:
 2675              		.loc 1 444 0
 2676 0ea4 86006BE0 		rsb	r0, fp, r6, asl #1
 2677              	.LBB288:
 2678              		.loc 1 446 0
 2679 0ea8 012063E0 		rsb	r2, r3, r1
 2680              	.LBE288:
 2681              		.loc 1 444 0
 2682 0eac 800189E5 		str	r0, [r9, #384]
 2683              	.LVL547:
 2684              	.LBB289:
 2685              		.loc 1 446 0
 2686 0eb0 0410A0E1 		mov	r1, r4
 2687 0eb4 8C339FE5 		ldr	r3, .L39+112
 2688              	.LVL548:
 2689 0eb8 0400A0E1 		mov	r0, r4
 2690 0ebc FEFFFFEB 		bl	MAD_F_MLX
 2691              	.LVL549:
 2692              	.LBE289:
 2693              	.LBB290:
 2694              		.loc 1 447 0
 2695 0ec0 DC509DE5 		ldr	r5, [sp, #220]
 2696              	.LVL550:
 2697 0ec4 E4C09DE5 		ldr	ip, [sp, #228]
 2698 0ec8 05206CE0 		rsb	r2, ip, r5
 2699              	.LVL551:
 2700              	.LBE290:
 2701              	.LBB291:
 2702              		.loc 1 446 0
 2703 0ecc 24CEA0E1 		mov	ip, r4, lsr #28
 2704              	.LVL552:
 2705              	.LBE291:
 2706              	.LBB292:
ARM GAS  /cygdrive/c/DOCUME~1/mkwapisz/LOCALS~1/Temp/cc1OEM1Z.s 			page 65


 2707              		.loc 1 447 0
 2708 0ed0 0410A0E1 		mov	r1, r4
 2709 0ed4 70339FE5 		ldr	r3, .L39+116
 2710              	.LVL553:
 2711 0ed8 0400A0E1 		mov	r0, r4
 2712              	.LVL554:
 2713              	.LBE292:
 2714              	.LBB293:
 2715              		.loc 1 446 0
 2716 0edc 04428CE1 		orr	r4, ip, r4, asl #4
 2717              	.LVL555:
 2718 0ee0 9C418DE5 		str	r4, [sp, #412]
 2719              	.LVL556:
 2720              	.LBE293:
 2721              	.LBB294:
 2722              		.loc 1 447 0
 2723 0ee4 FEFFFFEB 		bl	MAD_F_MLX
 2724              	.LVL557:
 2725 0ee8 240EA0E1 		mov	r0, r4, lsr #28
 2726              	.LBE294:
 2727              		.loc 1 448 0
 2728 0eec 9CE19DE5 		ldr	lr, [sp, #412]
 2729              	.LVL558:
 2730              	.LBB295:
 2731              		.loc 1 447 0
 2732 0ef0 044280E1 		orr	r4, r0, r4, asl #4
 2733              	.LVL559:
 2734              	.LBE295:
 2735              		.loc 1 450 0
 2736 0ef4 54019DE5 		ldr	r0, [sp, #340]
 2737              		.loc 1 448 0
 2738 0ef8 04E08EE0 		add	lr, lr, r4
 2739              	.LBB296:
 2740              		.loc 1 456 0
 2741 0efc 531F8DE2 		add	r1, sp, #332
 2742 0f00 0A0091E8 		ldmia	r1, {r1, r3}	@ phole ldm
 2743              	.LBE296:
 2744              	.LBB297:
 2745              		.loc 1 447 0
 2746 0f04 A0418DE5 		str	r4, [sp, #416]
 2747              	.LVL560:
 2748              	.LBE297:
 2749              		.loc 1 450 0
 2750 0f08 8E4060E0 		rsb	r4, r0, lr, asl #1
 2751              	.LVL561:
 2752              		.loc 1 452 0
 2753 0f0c 84A06AE0 		rsb	sl, sl, r4, asl #1
 2754              	.LVL562:
 2755              	.LBB298:
 2756              		.loc 1 456 0
 2757 0f10 012063E0 		rsb	r2, r3, r1
 2758              	.LBE298:
 2759              		.loc 1 454 0
 2760 0f14 40A088E5 		str	sl, [r8, #64]
 2761              	.LVL563:
 2762              	.LBB299:
 2763              		.loc 1 456 0
ARM GAS  /cygdrive/c/DOCUME~1/mkwapisz/LOCALS~1/Temp/cc1OEM1Z.s 			page 66


 2764 0f18 0410A0E1 		mov	r1, r4
 2765 0f1c 2C339FE5 		ldr	r3, .L39+120
 2766              	.LVL564:
 2767 0f20 0400A0E1 		mov	r0, r4
 2768              	.LBE299:
 2769              		.loc 1 448 0
 2770 0f24 A4E18DE5 		str	lr, [sp, #420]
 2771              	.LVL565:
 2772              	.LBB300:
 2773              		.loc 1 456 0
 2774 0f28 FEFFFFEB 		bl	MAD_F_MLX
 2775              	.LVL566:
 2776              	.LBE300:
 2777              	.LBB301:
 2778              		.loc 1 458 0
 2779 0f2c F4E09DE5 		ldr	lr, [sp, #244]
 2780 0f30 EC509DE5 		ldr	r5, [sp, #236]
 2781              	.LVL567:
 2782              	.LBE301:
 2783              		.loc 1 456 0
 2784 0f34 24CEA0E1 		mov	ip, r4, lsr #28
 2785              	.LVL568:
 2786 0f38 04C28CE1 		orr	ip, ip, r4, asl #4
 2787              	.LBB302:
 2788              		.loc 1 458 0
 2789 0f3c 05206EE0 		rsb	r2, lr, r5
 2790              	.LVL569:
 2791              	.LBE302:
 2792              		.loc 1 456 0
 2793 0f40 8CC064E0 		rsb	ip, r4, ip, asl #1
 2794              	.LVL570:
 2795              	.LBB303:
 2796              		.loc 1 458 0
 2797 0f44 0510A0E1 		mov	r1, r5
 2798 0f48 F8329FE5 		ldr	r3, .L39+112
 2799              	.LVL571:
 2800 0f4c 0400A0E1 		mov	r0, r4
 2801              	.LBE303:
 2802              		.loc 1 456 0
 2803 0f50 A8C18DE5 		str	ip, [sp, #424]
 2804              	.LVL572:
 2805              	.LBB304:
 2806              		.loc 1 458 0
 2807 0f54 FEFFFFEB 		bl	MAD_F_MLX
 2808              	.LBE304:
 2809              	.LBB305:
 2810              		.loc 1 459 0
 2811 0f58 FC009DE5 		ldr	r0, [sp, #252]
 2812 0f5c 04119DE5 		ldr	r1, [sp, #260]
 2813              	.LBE305:
 2814              	.LBB306:
 2815              		.loc 1 458 0
 2816 0f60 255EA0E1 		mov	r5, r5, lsr #28
 2817              	.LVL573:
 2818 0f64 045285E1 		orr	r5, r5, r4, asl #4
 2819              	.LVL574:
 2820              	.LBE306:
ARM GAS  /cygdrive/c/DOCUME~1/mkwapisz/LOCALS~1/Temp/cc1OEM1Z.s 			page 67


 2821              	.LBB307:
 2822              		.loc 1 459 0
 2823 0f68 002061E0 		rsb	r2, r1, r0
 2824 0f6c D8329FE5 		ldr	r3, .L39+116
 2825              	.LVL575:
 2826 0f70 0410A0E1 		mov	r1, r4
 2827              	.LVL576:
 2828 0f74 0400A0E1 		mov	r0, r4
 2829              	.LVL577:
 2830 0f78 244EA0E1 		mov	r4, r4, lsr #28
 2831 0f7c 044284E1 		orr	r4, r4, r4, asl #4
 2832              	.LVL578:
 2833 0f80 FEFFFFEB 		bl	MAD_F_MLX
 2834              	.LVL579:
 2835              	.LBE307:
 2836              		.loc 1 462 0
 2837 0f84 60219DE5 		ldr	r2, [sp, #352]
 2838              		.loc 1 460 0
 2839 0f88 046085E0 		add	r6, r5, r4
 2840              	.LVL580:
 2841              		.loc 1 462 0
 2842 0f8c 86B062E0 		rsb	fp, r2, r6, asl #1
 2843              	.LVL581:
 2844              	.LBB308:
 2845              		.loc 1 468 0
 2846 0f90 133E8DE2 		add	r3, sp, #304
 2847 0f94 081093E8 		ldmia	r3, {r3, ip}	@ phole ldm
 2848              	.LBE308:
 2849              		.loc 1 464 0
 2850 0f98 8B7067E0 		rsb	r7, r7, fp, asl #1
 2851              	.LVL582:
 2852              	.LBB309:
 2853              		.loc 1 468 0
 2854 0f9c 03206CE0 		rsb	r2, ip, r3
 2855              	.LBE309:
 2856              		.loc 1 466 0
 2857 0fa0 207088E5 		str	r7, [r8, #32]
 2858              	.LVL583:
 2859              	.LBB310:
 2860              		.loc 1 468 0
 2861 0fa4 0410A0E1 		mov	r1, r4
 2862 0fa8 A0329FE5 		ldr	r3, .L39+120
 2863              	.LVL584:
 2864 0fac 0400A0E1 		mov	r0, r4
 2865 0fb0 FEFFFFEB 		bl	MAD_F_MLX
 2866              	.LVL585:
 2867              	.LBE310:
 2868 0fb4 243EA0E1 		mov	r3, r4, lsr #28
 2869              	.LBB311:
 2870              		.loc 1 472 0
 2871 0fb8 58E19DE5 		ldr	lr, [sp, #344]
 2872              	.LVL586:
 2873              	.LBE311:
 2874              		.loc 1 468 0
 2875 0fbc 043283E1 		orr	r3, r3, r4, asl #4
 2876              	.LBB312:
 2877              		.loc 1 472 0
ARM GAS  /cygdrive/c/DOCUME~1/mkwapisz/LOCALS~1/Temp/cc1OEM1Z.s 			page 68


 2878 0fc0 5C019DE5 		ldr	r0, [sp, #348]
 2879              	.LBE312:
 2880              		.loc 1 468 0
 2881 0fc4 837067E0 		rsb	r7, r7, r3, asl #1
 2882              	.LVL587:
 2883              	.LBB313:
 2884              		.loc 1 472 0
 2885 0fc8 0E2060E0 		rsb	r2, r0, lr
 2886              	.LVL588:
 2887 0fcc 0410A0E1 		mov	r1, r4
 2888              	.LBE313:
 2889              		.loc 1 470 0
 2890 0fd0 407089E5 		str	r7, [r9, #64]
 2891              	.LBB314:
 2892              		.loc 1 472 0
 2893 0fd4 74329FE5 		ldr	r3, .L39+120
 2894              	.LVL589:
 2895 0fd8 0400A0E1 		mov	r0, r4
 2896 0fdc FEFFFFEB 		bl	MAD_F_MLX
 2897              	.LVL590:
 2898              	.LBE314:
 2899 0fe0 243EA0E1 		mov	r3, r4, lsr #28
 2900              	.LVL591:
 2901 0fe4 043283E1 		orr	r3, r3, r4, asl #4
 2902 0fe8 83806BE0 		rsb	r8, fp, r3, asl #1
 2903              	.LVL592:
 2904              	.LBB315:
 2905              		.loc 1 478 0
 2906 0fec 061D8DE2 		add	r1, sp, #384
 2907 0ff0 0A0091E8 		ldmia	r1, {r1, r3}	@ phole ldm
 2908              	.LBE315:
 2909              		.loc 1 474 0
 2910 0ff4 887067E0 		rsb	r7, r7, r8, asl #1
 2911              	.LVL593:
 2912              	.LBB316:
 2913              		.loc 1 478 0
 2914 0ff8 012063E0 		rsb	r2, r3, r1
 2915              	.LBE316:
 2916              		.loc 1 476 0
 2917 0ffc C07089E5 		str	r7, [r9, #192]
 2918              	.LVL594:
 2919              	.LBB317:
 2920              		.loc 1 478 0
 2921 1000 0410A0E1 		mov	r1, r4
 2922 1004 44329FE5 		ldr	r3, .L39+120
 2923              	.LVL595:
 2924 1008 0400A0E1 		mov	r0, r4
 2925 100c FEFFFFEB 		bl	MAD_F_MLX
 2926              	.LVL596:
 2927              	.LBE317:
 2928 1010 88C19DE5 		ldr	ip, [sp, #392]
 2929              	.LVL597:
 2930 1014 243EA0E1 		mov	r3, r4, lsr #28
 2931              	.LVL598:
 2932 1018 043283E1 		orr	r3, r3, r4, asl #4
 2933 101c 83006CE0 		rsb	r0, ip, r3, asl #1
 2934 1020 807067E0 		rsb	r7, r7, r0, asl #1
ARM GAS  /cygdrive/c/DOCUME~1/mkwapisz/LOCALS~1/Temp/cc1OEM1Z.s 			page 69


 2935              	.LVL599:
 2936              	.LVL600:
 2937              	.LBB318:
 2938              		.loc 1 482 0
 2939 1024 052064E0 		rsb	r2, r4, r5
 2940              	.LVL601:
 2941 1028 0410A0E1 		mov	r1, r4
 2942              	.LBE318:
 2943              		.loc 1 480 0
 2944 102c 407189E5 		str	r7, [r9, #320]
 2945              	.LBB319:
 2946              		.loc 1 482 0
 2947 1030 18329FE5 		ldr	r3, .L39+120
 2948              	.LVL602:
 2949 1034 0400A0E1 		mov	r0, r4
 2950 1038 FEFFFFEB 		bl	MAD_F_MLX
 2951              	.LVL603:
 2952              	.LBE319:
 2953 103c 243EA0E1 		mov	r3, r4, lsr #28
 2954              	.LVL604:
 2955 1040 043283E1 		orr	r3, r3, r4, asl #4
 2956 1044 836066E0 		rsb	r6, r6, r3, asl #1
 2957              	.LVL605:
 2958 1048 860068E0 		rsb	r0, r8, r6, asl #1
 2959              	.LBB320:
 2960              		.loc 1 485 0
 2961 104c 0CE19DE5 		ldr	lr, [sp, #268]
 2962              	.LBE320:
 2963              		.loc 1 482 0
 2964 1050 807067E0 		rsb	r7, r7, r0, asl #1
 2965              	.LVL606:
 2966              	.LBB321:
 2967              		.loc 1 485 0
 2968 1054 14019DE5 		ldr	r0, [sp, #276]
 2969              	.LVL607:
 2970 1058 0610A0E1 		mov	r1, r6
 2971 105c 0E2060E0 		rsb	r2, r0, lr
 2972              	.LBE321:
 2973              		.loc 1 482 0
 2974 1060 C07189E5 		str	r7, [r9, #448]
 2975              	.LBB322:
 2976              		.loc 1 485 0
 2977 1064 DC319FE5 		ldr	r3, .L39+112
 2978              	.LVL608:
 2979 1068 0400A0E1 		mov	r0, r4
 2980 106c FEFFFFEB 		bl	MAD_F_MLX
 2981              	.LBE322:
 2982              	.LBB323:
 2983              		.loc 1 486 0
 2984 1070 1C119DE5 		ldr	r1, [sp, #284]
 2985 1074 24319DE5 		ldr	r3, [sp, #292]
 2986              	.LVL609:
 2987 1078 0400A0E1 		mov	r0, r4
 2988 107c 012063E0 		rsb	r2, r3, r1
 2989              	.LBE323:
 2990              	.LBB324:
 2991              		.loc 1 485 0
ARM GAS  /cygdrive/c/DOCUME~1/mkwapisz/LOCALS~1/Temp/cc1OEM1Z.s 			page 70


 2992 1080 266EA0E1 		mov	r6, r6, lsr #28
 2993              	.LVL610:
 2994              	.LVL611:
 2995              	.LBE324:
 2996              	.LBB325:
 2997              		.loc 1 486 0
 2998 1084 0510A0E1 		mov	r1, r5
 2999 1088 BC319FE5 		ldr	r3, .L39+116
 3000 108c 255EA0E1 		mov	r5, r5, lsr #28
 3001              	.LVL612:
 3002 1090 FEFFFFEB 		bl	MAD_F_MLX
 3003              	.LVL613:
 3004              	.LVL614:
 3005              	.LBE325:
 3006              	.LBB326:
 3007              		.loc 1 485 0
 3008 1094 046286E1 		orr	r6, r6, r4, asl #4
 3009              	.LVL615:
 3010              	.LVL616:
 3011              	.LBE326:
 3012              	.LBB327:
 3013              		.loc 1 486 0
 3014 1098 045285E1 		orr	r5, r5, r4, asl #4
 3015              	.LVL617:
 3016              	.LBE327:
 3017              		.loc 1 489 0
 3018 109c 6CC19DE5 		ldr	ip, [sp, #364]
 3019              		.loc 1 491 0
 3020 10a0 98119DE5 		ldr	r1, [sp, #408]
 3021              		.loc 1 487 0
 3022 10a4 057086E0 		add	r7, r6, r5
 3023              	.LVL618:
 3024              		.loc 1 489 0
 3025 10a8 87B06CE0 		rsb	fp, ip, r7, asl #1
 3026              	.LVL619:
 3027              	.LBB328:
 3028              		.loc 1 493 0
 3029 10ac 38E19DE5 		ldr	lr, [sp, #312]
 3030 10b0 3C019DE5 		ldr	r0, [sp, #316]
 3031              	.LBE328:
 3032              		.loc 1 491 0
 3033 10b4 8B4061E0 		rsb	r4, r1, fp, asl #1
 3034              	.LVL620:
 3035              	.LBB329:
 3036              		.loc 1 493 0
 3037 10b8 0E2060E0 		rsb	r2, r0, lr
 3038              	.LVL621:
 3039 10bc 0410A0E1 		mov	r1, r4
 3040 10c0 88319FE5 		ldr	r3, .L39+120
 3041              	.LVL622:
 3042 10c4 0400A0E1 		mov	r0, r4
 3043 10c8 FEFFFFEB 		bl	MAD_F_MLX
 3044              	.LVL623:
 3045              	.LBE329:
 3046              		.loc 1 497 0
 3047 10cc 14209DE5 		ldr	r2, [sp, #20]
 3048 10d0 0C309DE5 		ldr	r3, [sp, #12]
ARM GAS  /cygdrive/c/DOCUME~1/mkwapisz/LOCALS~1/Temp/cc1OEM1Z.s 			page 71


 3049              	.LBB330:
 3050              		.loc 1 499 0
 3051 10d4 28E19DE5 		ldr	lr, [sp, #296]
 3052 10d8 2C019DE5 		ldr	r0, [sp, #300]
 3053              	.LVL624:
 3054              	.LBE330:
 3055              		.loc 1 495 0
 3056 10dc 84A06AE0 		rsb	sl, sl, r4, asl #1
 3057              	.LVL625:
 3058              	.LVL626:
 3059              		.loc 1 493 0
 3060 10e0 24CEA0E1 		mov	ip, r4, lsr #28
 3061              		.loc 1 497 0
 3062 10e4 02A183E7 		str	sl, [r3, r2, asl #2]
 3063              	.LVL627:
 3064              		.loc 1 493 0
 3065 10e8 04C28CE1 		orr	ip, ip, r4, asl #4
 3066              	.LBB331:
 3067              		.loc 1 499 0
 3068 10ec 0E2060E0 		rsb	r2, r0, lr
 3069              	.LVL628:
 3070 10f0 0410A0E1 		mov	r1, r4
 3071 10f4 54319FE5 		ldr	r3, .L39+120
 3072              	.LVL629:
 3073 10f8 0400A0E1 		mov	r0, r4
 3074              	.LVL630:
 3075              	.LBE331:
 3076              		.loc 1 493 0
 3077 10fc 8C8064E0 		rsb	r8, r4, ip, asl #1
 3078              	.LVL631:
 3079              	.LBB332:
 3080              		.loc 1 499 0
 3081 1100 FEFFFFEB 		bl	MAD_F_MLX
 3082              	.LVL632:
 3083              	.LBE332:
 3084 1104 243EA0E1 		mov	r3, r4, lsr #28
 3085              	.LVL633:
 3086 1108 043283E1 		orr	r3, r3, r4, asl #4
 3087 110c 83A06AE0 		rsb	sl, sl, r3, asl #1
 3088              	.LVL634:
 3089              		.loc 1 507 0
 3090 1110 A8119DE5 		ldr	r1, [sp, #424]
 3091              		.loc 1 503 0
 3092 1114 88306AE0 		rsb	r3, sl, r8, asl #1
 3093              	.LVL635:
 3094              	.LBB333:
 3095              		.loc 1 511 0
 3096 1118 59CF8DE2 		add	ip, sp, #356
 3097 111c 00509CE8 		ldmia	ip, {ip, lr}	@ phole ldm
 3098              	.LBE333:
 3099              		.loc 1 507 0
 3100 1120 814063E0 		rsb	r4, r3, r1, asl #1
 3101              	.LVL636:
 3102              	.LBB334:
 3103              		.loc 1 511 0
 3104 1124 0C206EE0 		rsb	r2, lr, ip
 3105              	.LVL637:
ARM GAS  /cygdrive/c/DOCUME~1/mkwapisz/LOCALS~1/Temp/cc1OEM1Z.s 			page 72


 3106 1128 0410A0E1 		mov	r1, r4
 3107              	.LBE334:
 3108              		.loc 1 501 0
 3109 112c 20A089E5 		str	sl, [r9, #32]
 3110              		.loc 1 505 0
 3111 1130 603089E5 		str	r3, [r9, #96]
 3112              	.LVL638:
 3113              		.loc 1 509 0
 3114 1134 A04089E5 		str	r4, [r9, #160]
 3115              	.LBB335:
 3116              		.loc 1 511 0
 3117 1138 10319FE5 		ldr	r3, .L39+120
 3118              	.LVL639:
 3119 113c 0400A0E1 		mov	r0, r4
 3120 1140 FEFFFFEB 		bl	MAD_F_MLX
 3121              	.LVL640:
 3122              	.LBE335:
 3123 1144 243EA0E1 		mov	r3, r4, lsr #28
 3124              	.LVL641:
 3125 1148 043283E1 		orr	r3, r3, r4, asl #4
 3126 114c 83A06BE0 		rsb	sl, fp, r3, asl #1
 3127              	.LVL642:
 3128              	.LBB336:
 3129              		.loc 1 519 0
 3130 1150 5D0F8DE2 		add	r0, sp, #372
 3131 1154 030090E8 		ldmia	r0, {r0, r1}	@ phole ldm
 3132              	.LBE336:
 3133              		.loc 1 513 0
 3134 1158 8A8068E0 		rsb	r8, r8, sl, asl #1
 3135              	.LVL643:
 3136              	.LVL644:
 3137              		.loc 1 515 0
 3138 115c 884064E0 		rsb	r4, r4, r8, asl #1
 3139              	.LVL645:
 3140              	.LBB337:
 3141              		.loc 1 519 0
 3142 1160 002061E0 		rsb	r2, r1, r0
 3143              	.LBE337:
 3144              		.loc 1 517 0
 3145 1164 E04089E5 		str	r4, [r9, #224]
 3146              	.LVL646:
 3147              	.LBB338:
 3148              		.loc 1 519 0
 3149 1168 0410A0E1 		mov	r1, r4
 3150 116c DC309FE5 		ldr	r3, .L39+120
 3151              	.LVL647:
 3152 1170 0400A0E1 		mov	r0, r4
 3153 1174 FEFFFFEB 		bl	MAD_F_MLX
 3154              	.LVL648:
 3155              	.LBE338:
 3156 1178 7C219DE5 		ldr	r2, [sp, #380]
 3157              	.LVL649:
 3158 117c 243EA0E1 		mov	r3, r4, lsr #28
 3159              	.LVL650:
 3160 1180 043283E1 		orr	r3, r3, r4, asl #4
 3161 1184 830062E0 		rsb	r0, r2, r3, asl #1
 3162              	.LBB339:
ARM GAS  /cygdrive/c/DOCUME~1/mkwapisz/LOCALS~1/Temp/cc1OEM1Z.s 			page 73


 3163              		.loc 1 523 0
 3164 1188 633F8DE2 		add	r3, sp, #396
 3165 118c 081093E8 		ldmia	r3, {r3, ip}	@ phole ldm
 3166              	.LVL651:
 3167              	.LBE339:
 3168              		.loc 1 519 0
 3169 1190 804064E0 		rsb	r4, r4, r0, asl #1
 3170              	.LVL652:
 3171              	.LBB340:
 3172              		.loc 1 523 0
 3173 1194 03206CE0 		rsb	r2, ip, r3
 3174              	.LVL653:
 3175 1198 0410A0E1 		mov	r1, r4
 3176              	.LVL654:
 3177              	.LBE340:
 3178              		.loc 1 521 0
 3179 119c 204189E5 		str	r4, [r9, #288]
 3180              	.LBB341:
 3181              		.loc 1 523 0
 3182 11a0 A8309FE5 		ldr	r3, .L39+120
 3183              	.LVL655:
 3184 11a4 0400A0E1 		mov	r0, r4
 3185 11a8 FEFFFFEB 		bl	MAD_F_MLX
 3186              	.LVL656:
 3187              	.LBE341:
 3188 11ac 94E19DE5 		ldr	lr, [sp, #404]
 3189              	.LVL657:
 3190 11b0 243EA0E1 		mov	r3, r4, lsr #28
 3191              	.LVL658:
 3192 11b4 043283E1 		orr	r3, r3, r4, asl #4
 3193 11b8 83006EE0 		rsb	r0, lr, r3, asl #1
 3194 11bc 808068E0 		rsb	r8, r8, r0, asl #1
 3195              	.LVL659:
 3196              	.LBB342:
 3197              		.loc 1 529 0
 3198 11c0 670F8DE2 		add	r0, sp, #412
 3199 11c4 030090E8 		ldmia	r0, {r0, r1}	@ phole ldm
 3200              	.LVL660:
 3201              	.LBE342:
 3202              		.loc 1 525 0
 3203 11c8 884064E0 		rsb	r4, r4, r8, asl #1
 3204              	.LVL661:
 3205              	.LBB343:
 3206              		.loc 1 529 0
 3207 11cc 002061E0 		rsb	r2, r1, r0
 3208              	.LBE343:
 3209              		.loc 1 527 0
 3210 11d0 604189E5 		str	r4, [r9, #352]
 3211 11d4 1E0000EA 		b	.L40
 3212              	.L41:
 3213              		.align	2
 3214              	.L39:
 3215 11d8 F210FB0F 		.word	268112114
 3216 11dc D246EC0F 		.word	267142866
 3217 11e0 30FBC800 		.word	13171504
 3218 11e4 91EFDA0B 		.word	198897553
 3219 11e8 6C7A9101 		.word	26311276
ARM GAS  /cygdrive/c/DOCUME~1/mkwapisz/LOCALS~1/Temp/cc1OEM1Z.s 			page 74


 3220 11ec 9AB4BE0A 		.word	180270234
 3221 11f0 8290100F 		.word	252743810
 3222 11f4 36405E0C 		.word	207503414
 3223 11f8 9DE66305 		.word	90433181
 3224 11fc 7ABD760E 		.word	242662778
 3225 1200 9379260A 		.word	170293651
 3226 1204 0244D706 		.word	114770946
 3227 1208 C0AAD30F 		.word	265530048
 3228 120c ABA04F0F 		.word	256876715
 3229 1210 0E025902 		.word	39387662
 3230 1214 24F0D90C 		.word	215609380
 3231 1218 FEFB8709 		.word	159906814
 3232 121c 8C01A504 		.word	77922700
 3233 1220 7E3F850F 		.word	260390782
 3234 1224 79591C0E 		.word	236738937
 3235 1228 2F3FE303 		.word	65224495
 3236 122c A341B90D 		.word	230244771
 3237 1230 CDC33908 		.word	138003405
 3238 1234 4ED78A07 		.word	126539598
 3239 1238 E84BB10F 		.word	263277544
 3240 123c 9D9DE308 		.word	149134749
 3241 1240 08171F03 		.word	52369160
 3242 1244 15B34D0D 		.word	223195925
 3243 1248 E835C80E 		.word	248002024
 3244 124c AA781F06 		.word	102725802
 3245 1250 334F500B 		.word	189812531
 3246              	.L40:
 3247              	.LVL662:
 3248              	.LBB344:
 3249              		.loc 1 529 0
 3250 1254 0410A0E1 		mov	r1, r4
 3251 1258 10301FE5 		ldr	r3, .L39+120
 3252              	.LVL663:
 3253 125c 0400A0E1 		mov	r0, r4
 3254 1260 FEFFFFEB 		bl	MAD_F_MLX
 3255              	.LVL664:
 3256              	.LBE344:
 3257 1264 A4219DE5 		ldr	r2, [sp, #420]
 3258              	.LVL665:
 3259 1268 243EA0E1 		mov	r3, r4, lsr #28
 3260              	.LVL666:
 3261 126c 043283E1 		orr	r3, r3, r4, asl #4
 3262 1270 830062E0 		rsb	r0, r2, r3, asl #1
 3263 1274 A8319DE5 		ldr	r3, [sp, #424]
 3264 1278 800063E0 		rsb	r0, r3, r0, asl #1
 3265              	.LVL667:
 3266 127c 804064E0 		rsb	r4, r4, r0, asl #1
 3267              	.LVL668:
 3268              		.loc 1 532 0
 3269 1280 A04189E5 		str	r4, [r9, #416]
 3270              	.LBB345:
 3271              		.loc 1 534 0
 3272 1284 3C301FE5 		ldr	r3, .L39+120
 3273              	.LVL669:
 3274 1288 0400A0E1 		mov	r0, r4
 3275              	.LVL670:
 3276 128c 0410A0E1 		mov	r1, r4
ARM GAS  /cygdrive/c/DOCUME~1/mkwapisz/LOCALS~1/Temp/cc1OEM1Z.s 			page 75


 3277 1290 062065E0 		rsb	r2, r5, r6
 3278 1294 FEFFFFEB 		bl	MAD_F_MLX
 3279              	.LVL671:
 3280              	.LBE345:
 3281 1298 243EA0E1 		mov	r3, r4, lsr #28
 3282              	.LVL672:
 3283 129c 043283E1 		orr	r3, r3, r4, asl #4
 3284 12a0 837067E0 		rsb	r7, r7, r3, asl #1
 3285              	.LVL673:
 3286 12a4 87006AE0 		rsb	r0, sl, r7, asl #1
 3287 12a8 800068E0 		rsb	r0, r8, r0, asl #1
 3288              	.LVL674:
 3289 12ac 804064E0 		rsb	r4, r4, r0, asl #1
 3290              	.LVL675:
 3291 12b0 E04189E5 		str	r4, [r9, #480]
 3292              		.loc 1 544 0
 3293 12b4 6BDF8DE2 		add	sp, sp, #428
 3294 12b8 F04FBDE8 		ldmfd	sp!, {r4, r5, r6, r7, r8, r9, sl, fp, lr}
 3295 12bc 1EFF2FE1 		bx	lr
 3296              	.LFE5:
 3297              		.size	dct32, .-dct32
 3298              		.align	2
 3299              		.type	synth_half, %function
 3300              	synth_half:
 3301              	.LFB7:
 3302              		.loc 1 754 0
 3303              		@ Function supports interworking.
 3304              		@ args = 0, pretend = 0, frame = 412
 3305              		@ frame_needed = 0, uses_anonymous_args = 0
 3306              	.LVL676:
 3307 12c0 F04F2DE9 		stmfd	sp!, {r4, r5, r6, r7, r8, r9, sl, fp, lr}
 3308              	.LCFI5:
 3309 12c4 67DF4DE2 		sub	sp, sp, #412
 3310              	.LCFI6:
 3311              		.loc 1 754 0
 3312 12c8 94308DE5 		str	r3, [sp, #148]
 3313              		.loc 1 766 0
 3314 12cc 013AA0E3 		mov	r3, #4096
 3315              	.LVL677:
 3316 12d0 033090E7 		ldr	r3, [r0, r3]
 3317              		.loc 1 768 0
 3318 12d4 020052E3 		cmp	r2, #2
 3319              		.loc 1 754 0
 3320 12d8 98208DE5 		str	r2, [sp, #152]
 3321 12dc A0008DE5 		str	r0, [sp, #160]
 3322 12e0 9C108DE5 		str	r1, [sp, #156]
 3323              		.loc 1 766 0
 3324 12e4 D4308DE5 		str	r3, [sp, #212]
 3325              	.LVL678:
 3326              		.loc 1 768 0
 3327 12e8 A902008A 		bhi	.L52
 3328              	.LVL679:
 3329              	.LVL680:
 3330              		.loc 1 797 0
 3331 12ec 2408A0E1 		mov	r0, r4, lsr #16
 3332              	.LVL681:
 3333              		.loc 1 799 0
ARM GAS  /cygdrive/c/DOCUME~1/mkwapisz/LOCALS~1/Temp/cc1OEM1Z.s 			page 76


 3334 12f0 2058A0E1 		mov	r5, r0, lsr #16
 3335              	.LVL682:
 3336              		.loc 1 797 0
 3337 12f4 000880E1 		orr	r0, r0, r0, asl #16
 3338 12f8 E4008DE5 		str	r0, [sp, #228]
 3339              	.LVL683:
 3340              		.loc 1 798 0
 3341 12fc E4C09DE5 		ldr	ip, [sp, #228]
 3342              		.loc 1 833 0
 3343 1300 0510A0E1 		mov	r1, r5
 3344 1304 74508DE5 		str	r5, [sp, #116]
 3345              	.LVL684:
 3346              		.loc 1 799 0
 3347 1308 005885E1 		orr	r5, r5, r0, asl #16
 3348 130c 88508DE5 		str	r5, [sp, #136]
 3349              		.loc 1 798 0
 3350 1310 0C30A0E1 		mov	r3, ip
 3351 1314 0CC08CE0 		add	ip, ip, ip
 3352 1318 FCC08DE5 		str	ip, [sp, #252]
 3353              	.LVL685:
 3354              	.LVL686:
 3355              		.loc 1 831 0
 3356 131c 2998A0E1 		mov	r9, r9, lsr #16
 3357              	.LVL687:
 3358              		.loc 1 799 0
 3359 1320 03C0A0E1 		mov	ip, r3
 3360 1324 88309DE5 		ldr	r3, [sp, #136]
 3361              		.loc 1 833 0
 3362 1328 0140A0E1 		mov	r4, r1
 3363              	.LVL688:
 3364 132c 01B881E1 		orr	fp, r1, r1, asl #16
 3365              	.LVL689:
 3366              		.loc 1 831 0
 3367 1330 009889E1 		orr	r9, r9, r0, asl #16
 3368              	.LVL690:
 3369              		.loc 1 832 0
 3370 1334 2AA8A0E1 		mov	sl, sl, lsr #16
 3371              	.LVL691:
 3372              	.LVL692:
 3373              		.loc 1 857 0
 3374 1338 2888A0E1 		mov	r8, r8, lsr #16
 3375              	.LVL693:
 3376              	.LVL694:
 3377              		.loc 1 832 0
 3378 133c 01A88AE1 		orr	sl, sl, r1, asl #16
 3379              	.LVL695:
 3380              		.loc 1 857 0
 3381 1340 018888E1 		orr	r8, r8, r1, asl #16
 3382              		.loc 1 799 0
 3383 1344 03C08CE0 		add	ip, ip, r3
 3384              		.loc 1 831 0
 3385 1348 099083E0 		add	r9, r3, r9
 3386              	.LVL696:
 3387              		.loc 1 798 0
 3388 134c 90008DE5 		str	r0, [sp, #144]
 3389              		.loc 1 801 0
 3390 1350 FC309DE5 		ldr	r3, [sp, #252]
ARM GAS  /cygdrive/c/DOCUME~1/mkwapisz/LOCALS~1/Temp/cc1OEM1Z.s 			page 77


 3391              		.loc 1 800 0
 3392 1354 8C008DE5 		str	r0, [sp, #140]
 3393              		.loc 1 858 0
 3394 1358 0B10A0E1 		mov	r1, fp
 3395              	.LVL697:
 3396              	.LVL698:
 3397              		.loc 1 801 0
 3398 135c 2408A0E1 		mov	r0, r4, lsr #16
 3399              	.LVL699:
 3400 1360 000880E1 		orr	r0, r0, r0, asl #16
 3401              		.loc 1 831 0
 3402 1364 24918DE5 		str	r9, [sp, #292]
 3403              	.LVL700:
 3404              		.loc 1 830 0
 3405 1368 20518DE5 		str	r5, [sp, #288]
 3406              	.LVL701:
 3407              		.loc 1 858 0
 3408 136c 011081E0 		add	r1, r1, r1
 3409              	.LVL702:
 3410              		.loc 1 835 0
 3411 1370 2558A0E1 		mov	r5, r5, lsr #16
 3412              	.LVL703:
 3413              	.LVL704:
 3414              		.loc 1 861 0
 3415 1374 2778A0E1 		mov	r7, r7, lsr #16
 3416              	.LVL705:
 3417              		.loc 1 858 0
 3418 1378 00108DE5 		str	r1, [sp, #0]
 3419              	.LVL706:
 3420              	.LVL707:
 3421              		.loc 1 835 0
 3422 137c 005885E1 		orr	r5, r5, r0, asl #16
 3423              	.LVL708:
 3424              		.loc 1 861 0
 3425 1380 007887E1 		orr	r7, r7, r0, asl #16
 3426              	.LVL709:
 3427              		.loc 1 803 0
 3428 1384 2018A0E1 		mov	r1, r0, lsr #16
 3429              	.LVL710:
 3430              		.loc 1 802 0
 3431 1388 00E0A0E1 		mov	lr, r0
 3432              		.loc 1 834 0
 3433 138c 0040A0E1 		mov	r4, r0
 3434              	.LVL711:
 3435              		.loc 1 801 0
 3436 1390 000083E0 		add	r0, r3, r0
 3437              		.loc 1 834 0
 3438 1394 24319DE5 		ldr	r3, [sp, #292]
 3439              		.loc 1 856 0
 3440 1398 0B20A0E1 		mov	r2, fp
 3441              	.LVL712:
 3442              		.loc 1 832 0
 3443 139c 0AB08BE0 		add	fp, fp, sl
 3444 13a0 28B18DE5 		str	fp, [sp, #296]
 3445              	.LVL713:
 3446              		.loc 1 834 0
 3447 13a4 044083E0 		add	r4, r3, r4
ARM GAS  /cygdrive/c/DOCUME~1/mkwapisz/LOCALS~1/Temp/cc1OEM1Z.s 			page 78


 3448 13a8 2C418DE5 		str	r4, [sp, #300]
 3449              	.LVL714:
 3450              		.loc 1 835 0
 3451 13ac 28419DE5 		ldr	r4, [sp, #296]
 3452              		.loc 1 799 0
 3453 13b0 00C18DE5 		str	ip, [sp, #256]
 3454              	.LVL715:
 3455              		.loc 1 860 0
 3456 13b4 0560A0E1 		mov	r6, r5
 3457              		.loc 1 801 0
 3458 13b8 04018DE5 		str	r0, [sp, #260]
 3459              	.LVL716:
 3460              		.loc 1 835 0
 3461 13bc 055084E0 		add	r5, r4, r5
 3462              		.loc 1 802 0
 3463 13c0 00019DE5 		ldr	r0, [sp, #256]
 3464              		.loc 1 835 0
 3465 13c4 30518DE5 		str	r5, [sp, #304]
 3466              	.LVL717:
 3467              		.loc 1 803 0
 3468 13c8 04C19DE5 		ldr	ip, [sp, #260]
 3469              		.loc 1 861 0
 3470 13cc 00509DE5 		ldr	r5, [sp, #0]
 3471              		.loc 1 802 0
 3472 13d0 0EE080E0 		add	lr, r0, lr
 3473              		.loc 1 857 0
 3474 13d4 082082E0 		add	r2, r2, r8
 3475              	.LVL718:
 3476              		.loc 1 804 0
 3477 13d8 0180A0E1 		mov	r8, r1
 3478              	.LVL719:
 3479              		.loc 1 803 0
 3480 13dc 041881E1 		orr	r1, r1, r4, asl #16
 3481              		.loc 1 862 0
 3482 13e0 01B0A0E1 		mov	fp, r1
 3483              		.loc 1 802 0
 3484 13e4 08E18DE5 		str	lr, [sp, #264]
 3485              	.LVL720:
 3486              		.loc 1 861 0
 3487 13e8 073085E0 		add	r3, r5, r7
 3488              	.LVL721:
 3489              		.loc 1 860 0
 3490 13ec 062082E0 		add	r2, r2, r6
 3491              	.LVL722:
 3492              		.loc 1 804 0
 3493 13f0 0100A0E1 		mov	r0, r1
 3494              		.loc 1 836 0
 3495 13f4 0150A0E1 		mov	r5, r1
 3496              		.loc 1 837 0
 3497 13f8 0160A0E1 		mov	r6, r1
 3498              		.loc 1 863 0
 3499 13fc 5C108DE5 		str	r1, [sp, #92]
 3500              		.loc 1 803 0
 3501 1400 01108CE0 		add	r1, ip, r1
 3502 1404 0C118DE5 		str	r1, [sp, #268]
 3503              	.LVL723:
 3504              		.loc 1 804 0
ARM GAS  /cygdrive/c/DOCUME~1/mkwapisz/LOCALS~1/Temp/cc1OEM1Z.s 			page 79


 3505 1408 08119DE5 		ldr	r1, [sp, #264]
 3506 140c 000081E0 		add	r0, r1, r0
 3507              		.loc 1 836 0
 3508 1410 2CC19DE5 		ldr	ip, [sp, #300]
 3509              		.loc 1 804 0
 3510 1414 10018DE5 		str	r0, [sp, #272]
 3511              	.LVL724:
 3512              		.loc 1 837 0
 3513 1418 30019DE5 		ldr	r0, [sp, #304]
 3514              	.LVL725:
 3515              		.loc 1 808 0
 3516 141c 2448A0E1 		mov	r4, r4, lsr #16
 3517              	.LVL726:
 3518              	.LVL727:
 3519              		.loc 1 842 0
 3520 1420 2478A0E1 		mov	r7, r4, lsr #16
 3521              		.loc 1 836 0
 3522 1424 05508CE0 		add	r5, ip, r5
 3523              		.loc 1 837 0
 3524 1428 066080E0 		add	r6, r0, r6
 3525              		.loc 1 863 0
 3526 142c 0B3083E0 		add	r3, r3, fp
 3527              	.LVL728:
 3528              	.LVL729:
 3529              		.loc 1 809 0
 3530 1430 2898A0E1 		mov	r9, r8, lsr #16
 3531              		.loc 1 866 0
 3532 1434 58708DE5 		str	r7, [sp, #88]
 3533              		.loc 1 867 0
 3534 1438 50708DE5 		str	r7, [sp, #80]
 3535              		.loc 1 886 0
 3536 143c 38708DE5 		str	r7, [sp, #56]
 3537              		.loc 1 888 0
 3538 1440 30708DE5 		str	r7, [sp, #48]
 3539              		.loc 1 836 0
 3540 1444 34518DE5 		str	r5, [sp, #308]
 3541              	.LVL730:
 3542              		.loc 1 837 0
 3543 1448 38618DE5 		str	r6, [sp, #312]
 3544              	.LVL731:
 3545              		.loc 1 863 0
 3546 144c 00308DE5 		str	r3, [sp, #0]
 3547              	.LVL732:
 3548              		.loc 1 804 0
 3549 1450 0CC19DE5 		ldr	ip, [sp, #268]
 3550 1454 10319DE5 		ldr	r3, [sp, #272]
 3551              		.loc 1 843 0
 3552 1458 09A0A0E1 		mov	sl, r9
 3553              		.loc 1 885 0
 3554 145c 0980A0E1 		mov	r8, r9
 3555              	.LVL733:
 3556              	.LVL734:
 3557              		.loc 1 809 0
 3558 1460 049889E1 		orr	r9, r9, r4, asl #16
 3559              	.LVL735:
 3560              		.loc 1 808 0
 3561 1464 044884E1 		orr	r4, r4, r4, asl #16
ARM GAS  /cygdrive/c/DOCUME~1/mkwapisz/LOCALS~1/Temp/cc1OEM1Z.s 			page 80


 3562 1468 84408DE5 		str	r4, [sp, #132]
 3563              		.loc 1 804 0
 3564 146c 03C08CE0 		add	ip, ip, r3
 3565 1470 14C18DE5 		str	ip, [sp, #276]
 3566              	.LVL736:
 3567              		.loc 1 808 0
 3568 1474 84C09DE5 		ldr	ip, [sp, #132]
 3569              		.loc 1 887 0
 3570 1478 07E0A0E1 		mov	lr, r7
 3571              	.LVL737:
 3572              		.loc 1 843 0
 3573 147c 04A88AE1 		orr	sl, sl, r4, asl #16
 3574              	.LVL738:
 3575              		.loc 1 842 0
 3576 1480 047887E1 		orr	r7, r7, r4, asl #16
 3577              		.loc 1 808 0
 3578 1484 0C9089E0 		add	r9, r9, ip
 3579              	.LVL739:
 3580              	.LVL740:
 3581              		.loc 1 867 0
 3582 1488 0E488EE1 		orr	r4, lr, lr, asl #16
 3583              	.LVL741:
 3584              		.loc 1 837 0
 3585 148c 4D3F8DE2 		add	r3, sp, #308
 3586 1490 081093E8 		ldmia	r3, {r3, ip}	@ phole ldm
 3587              	.LVL742:
 3588              		.loc 1 810 0
 3589 1494 2408A0E1 		mov	r0, r4, lsr #16
 3590              	.LVL743:
 3591              		.loc 1 886 0
 3592 1498 04588EE1 		orr	r5, lr, r4, asl #16
 3593              		.loc 1 842 0
 3594 149c 70708DE5 		str	r7, [sp, #112]
 3595              	.LVL744:
 3596              		.loc 1 844 0
 3597 14a0 2018A0E1 		mov	r1, r0, lsr #16
 3598              		.loc 1 837 0
 3599 14a4 0C3083E0 		add	r3, r3, ip
 3600              	.LVL745:
 3601              		.loc 1 810 0
 3602 14a8 000880E1 		orr	r0, r0, r0, asl #16
 3603              	.LVL746:
 3604              		.loc 1 867 0
 3605 14ac 4C408DE5 		str	r4, [sp, #76]
 3606              		.loc 1 887 0
 3607 14b0 05E0A0E1 		mov	lr, r5
 3608              		.loc 1 837 0
 3609 14b4 3C318DE5 		str	r3, [sp, #316]
 3610              	.LVL747:
 3611              	.LVL748:
 3612              		.loc 1 885 0
 3613 14b8 048888E1 		orr	r8, r8, r4, asl #16
 3614              	.LVL749:
 3615              		.loc 1 842 0
 3616 14bc 70309DE5 		ldr	r3, [sp, #112]
 3617              		.loc 1 811 0
 3618 14c0 0040A0E1 		mov	r4, r0
ARM GAS  /cygdrive/c/DOCUME~1/mkwapisz/LOCALS~1/Temp/cc1OEM1Z.s 			page 81


 3619              	.LVL750:
 3620              		.loc 1 862 0
 3621 14c4 0B2082E0 		add	r2, r2, fp
 3622              	.LVL751:
 3623              		.loc 1 886 0
 3624 14c8 0E8088E0 		add	r8, r8, lr
 3625              	.LVL752:
 3626              		.loc 1 811 0
 3627 14cc 049089E0 		add	r9, r9, r4
 3628              	.LVL753:
 3629              		.loc 1 887 0
 3630 14d0 0EE08EE0 		add	lr, lr, lr
 3631              		.loc 1 844 0
 3632 14d4 3C419DE5 		ldr	r4, [sp, #316]
 3633              		.loc 1 867 0
 3634 14d8 4CC09DE5 		ldr	ip, [sp, #76]
 3635              		.loc 1 887 0
 3636 14dc 18E18DE5 		str	lr, [sp, #280]
 3637              	.LVL754:
 3638              		.loc 1 890 0
 3639 14e0 28108DE5 		str	r1, [sp, #40]
 3640              		.loc 1 842 0
 3641 14e4 03A08AE0 		add	sl, sl, r3
 3642              	.LVL755:
 3643              	.LVL756:
 3644              		.loc 1 844 0
 3645 14e8 001881E1 		orr	r1, r1, r0, asl #16
 3646              		.loc 1 866 0
 3647 14ec 032082E0 		add	r2, r2, r3
 3648              	.LVL757:
 3649              		.loc 1 867 0
 3650 14f0 00309DE5 		ldr	r3, [sp, #0]
 3651              		.loc 1 889 0
 3652 14f4 01B0A0E1 		mov	fp, r1
 3653              		.loc 1 890 0
 3654 14f8 24108DE5 		str	r1, [sp, #36]
 3655              		.loc 1 844 0
 3656 14fc 011064E0 		rsb	r1, r4, r1
 3657              	.LVL758:
 3658              		.loc 1 890 0
 3659 1500 18419DE5 		ldr	r4, [sp, #280]
 3660              		.loc 1 867 0
 3661 1504 0C3083E0 		add	r3, r3, ip
 3662              		.loc 1 886 0
 3663 1508 34508DE5 		str	r5, [sp, #52]
 3664              		.loc 1 888 0
 3665 150c 2C508DE5 		str	r5, [sp, #44]
 3666              	.LVL759:
 3667              		.loc 1 845 0
 3668 1510 2558A0E1 		mov	r5, r5, lsr #16
 3669              	.LVL760:
 3670              	.LVL761:
 3671              		.loc 1 812 0
 3672 1514 20C8A0E1 		mov	ip, r0, lsr #16
 3673              		.loc 1 867 0
 3674 1518 00308DE5 		str	r3, [sp, #0]
 3675              	.LVL762:
ARM GAS  /cygdrive/c/DOCUME~1/mkwapisz/LOCALS~1/Temp/cc1OEM1Z.s 			page 82


 3676              	.LVL763:
 3677              		.loc 1 845 0
 3678 151c 005885E1 		orr	r5, r5, r0, asl #16
 3679              		.loc 1 890 0
 3680 1520 0B4084E0 		add	r4, r4, fp
 3681              		.loc 1 810 0
 3682 1524 14319DE5 		ldr	r3, [sp, #276]
 3683              		.loc 1 866 0
 3684 1528 54708DE5 		str	r7, [sp, #84]
 3685              		.loc 1 845 0
 3686 152c 05A08AE0 		add	sl, sl, r5
 3687              	.LVL764:
 3688              		.loc 1 889 0
 3689 1530 0B8088E0 		add	r8, r8, fp
 3690              	.LVL765:
 3691              		.loc 1 869 0
 3692 1534 00509DE5 		ldr	r5, [sp, #0]
 3693              	.LVL766:
 3694              		.loc 1 812 0
 3695 1538 04B88CE1 		orr	fp, ip, r4, asl #16
 3696              	.LVL767:
 3697              		.loc 1 869 0
 3698 153c 2778A0E1 		mov	r7, r7, lsr #16
 3699              	.LVL768:
 3700 1540 007887E1 		orr	r7, r7, r0, asl #16
 3701              		.loc 1 846 0
 3702 1544 6CC08DE5 		str	ip, [sp, #108]
 3703              		.loc 1 847 0
 3704 1548 64C08DE5 		str	ip, [sp, #100]
 3705              		.loc 1 870 0
 3706 154c 48C08DE5 		str	ip, [sp, #72]
 3707              		.loc 1 871 0
 3708 1550 40C08DE5 		str	ip, [sp, #64]
 3709              		.loc 1 891 0
 3710 1554 20C08DE5 		str	ip, [sp, #32]
 3711              		.loc 1 892 0
 3712 1558 18C08DE5 		str	ip, [sp, #24]
 3713              	.LVL769:
 3714              		.loc 1 890 0
 3715 155c 1C418DE5 		str	r4, [sp, #284]
 3716              	.LVL770:
 3717              		.loc 1 813 0
 3718 1560 80B08DE5 		str	fp, [sp, #128]
 3719              	.LVL771:
 3720              		.loc 1 868 0
 3721 1564 2668A0E1 		mov	r6, r6, lsr #16
 3722              	.LVL772:
 3723              		.loc 1 846 0
 3724 1568 68B08DE5 		str	fp, [sp, #104]
 3725              		.loc 1 847 0
 3726 156c 64409DE5 		ldr	r4, [sp, #100]
 3727              	.LVL773:
 3728              		.loc 1 868 0
 3729 1570 006886E1 		orr	r6, r6, r0, asl #16
 3730              	.LVL774:
 3731              		.loc 1 810 0
 3732 1574 000063E0 		rsb	r0, r3, r0
ARM GAS  /cygdrive/c/DOCUME~1/mkwapisz/LOCALS~1/Temp/cc1OEM1Z.s 			page 83


 3733              	.LVL775:
 3734              		.loc 1 869 0
 3735 1578 073085E0 		add	r3, r5, r7
 3736              	.LVL776:
 3737              		.loc 1 870 0
 3738 157c 48509DE5 		ldr	r5, [sp, #72]
 3739              	.LVL777:
 3740              		.loc 1 847 0
 3741 1580 044884E1 		orr	r4, r4, r4, asl #16
 3742              	.LVL778:
 3743              		.loc 1 870 0
 3744 1584 045885E1 		orr	r5, r5, r4, asl #16
 3745              	.LVL779:
 3746              		.loc 1 847 0
 3747 1588 60408DE5 		str	r4, [sp, #96]
 3748              		.loc 1 891 0
 3749 158c 20409DE5 		ldr	r4, [sp, #32]
 3750              	.LVL780:
 3751 1590 044884E1 		orr	r4, r4, r4, asl #16
 3752              	.LVL781:
 3753              		.loc 1 814 0
 3754 1594 24C8A0E1 		mov	ip, r4, lsr #16
 3755              		.loc 1 815 0
 3756 1598 0CE0A0E1 		mov	lr, ip
 3757              		.loc 1 814 0
 3758 159c 7CC08DE5 		str	ip, [sp, #124]
 3759              		.loc 1 847 0
 3760 15a0 60C09DE5 		ldr	ip, [sp, #96]
 3761              		.loc 1 870 0
 3762 15a4 44508DE5 		str	r5, [sp, #68]
 3763              		.loc 1 847 0
 3764 15a8 0CA08AE0 		add	sl, sl, ip
 3765              	.LVL782:
 3766              		.loc 1 870 0
 3767 15ac 44C09DE5 		ldr	ip, [sp, #68]
 3768              	.LVL783:
 3769              		.loc 1 891 0
 3770 15b0 1C408DE5 		str	r4, [sp, #28]
 3771              		.loc 1 871 0
 3772 15b4 0C3083E0 		add	r3, r3, ip
 3773              	.LVL784:
 3774 15b8 00308DE5 		str	r3, [sp, #0]
 3775              	.LVL785:
 3776              		.loc 1 891 0
 3777 15bc 1C309DE5 		ldr	r3, [sp, #28]
 3778              		.loc 1 868 0
 3779 15c0 062082E0 		add	r2, r2, r6
 3780              	.LVL786:
 3781              		.loc 1 892 0
 3782 15c4 14508DE5 		str	r5, [sp, #20]
 3783              		.loc 1 870 0
 3784 15c8 0C2082E0 		add	r2, r2, ip
 3785              	.LVL787:
 3786              		.loc 1 891 0
 3787 15cc 038088E0 		add	r8, r8, r3
 3788              	.LVL788:
 3789              		.loc 1 892 0
ARM GAS  /cygdrive/c/DOCUME~1/mkwapisz/LOCALS~1/Temp/cc1OEM1Z.s 			page 84


 3790 15d0 1CC19DE5 		ldr	ip, [sp, #284]
 3791 15d4 14309DE5 		ldr	r3, [sp, #20]
 3792              		.loc 1 812 0
 3793 15d8 0B0080E0 		add	r0, r0, fp
 3794              	.LVL789:
 3795              		.loc 1 813 0
 3796 15dc 0B9089E0 		add	r9, r9, fp
 3797              	.LVL790:
 3798              		.loc 1 846 0
 3799 15e0 0B1081E0 		add	r1, r1, fp
 3800              	.LVL791:
 3801              		.loc 1 871 0
 3802 15e4 3C508DE5 		str	r5, [sp, #60]
 3803              		.loc 1 892 0
 3804 15e8 03B08CE0 		add	fp, ip, r3
 3805              	.LVL792:
 3806              	.LVL793:
 3807              		.loc 1 849 0
 3808 15ec 2558A0E1 		mov	r5, r5, lsr #16
 3809              	.LVL794:
 3810              	.LVL795:
 3811              		.loc 1 814 0
 3812 15f0 0EC88EE1 		orr	ip, lr, lr, asl #16
 3813              	.LVL796:
 3814              		.loc 1 872 0
 3815 15f4 2668A0E1 		mov	r6, r6, lsr #16
 3816              	.LVL797:
 3817              	.LVL798:
 3818              		.loc 1 873 0
 3819 15f8 2778A0E1 		mov	r7, r7, lsr #16
 3820              	.LVL799:
 3821 15fc 00409DE5 		ldr	r4, [sp, #0]
 3822              	.LVL800:
 3823              		.loc 1 849 0
 3824 1600 0C5885E1 		orr	r5, r5, ip, asl #16
 3825              	.LVL801:
 3826              		.loc 1 872 0
 3827 1604 0C6886E1 		orr	r6, r6, ip, asl #16
 3828              	.LVL802:
 3829              		.loc 1 873 0
 3830 1608 0C7887E1 		orr	r7, r7, ip, asl #16
 3831              		.loc 1 849 0
 3832 160c 05A08AE0 		add	sl, sl, r5
 3833              	.LVL803:
 3834              	.LVL804:
 3835              		.loc 1 814 0
 3836 1610 0C0080E0 		add	r0, r0, ip
 3837              	.LVL805:
 3838              		.loc 1 815 0
 3839 1614 0C9089E0 		add	r9, r9, ip
 3840              	.LVL806:
 3841              		.loc 1 848 0
 3842 1618 0C1081E0 		add	r1, r1, ip
 3843              	.LVL807:
 3844              		.loc 1 872 0
 3845 161c 062082E0 		add	r2, r2, r6
 3846              	.LVL808:
ARM GAS  /cygdrive/c/DOCUME~1/mkwapisz/LOCALS~1/Temp/cc1OEM1Z.s 			page 85


 3847              		.loc 1 873 0
 3848 1620 073084E0 		add	r3, r4, r7
 3849              	.LVL809:
 3850              		.loc 1 894 0
 3851 1624 0B8088E0 		add	r8, r8, fp
 3852              	.LVL810:
 3853              		.loc 1 817 0
 3854 1628 090080E0 		add	r0, r0, r9
 3855              	.LVL811:
 3856              		.loc 1 851 0
 3857 162c 0A1081E0 		add	r1, r1, sl
 3858              	.LVL812:
 3859              		.loc 1 875 0
 3860 1630 032082E0 		add	r2, r2, r3
 3861              	.LVL813:
 3862              		.loc 1 894 0
 3863 1634 008068E2 		rsb	r8, r8, #0
 3864 1638 0050A0E3 		mov	r5, #0
 3865              		.loc 1 815 0
 3866 163c 0CE0A0E1 		mov	lr, ip
 3867              		.loc 1 814 0
 3868 1640 78C08DE5 		str	ip, [sp, #120]
 3869              		.loc 1 817 0
 3870 1644 E8008DE5 		str	r0, [sp, #232]
 3871              	.LVL814:
 3872              		.loc 1 851 0
 3873 1648 F4108DE5 		str	r1, [sp, #244]
 3874              	.LVL815:
 3875              		.loc 1 875 0
 3876 164c F8208DE5 		str	r2, [sp, #248]
 3877              	.LVL816:
 3878              		.loc 1 894 0
 3879 1650 F0808DE5 		str	r8, [sp, #240]
 3880              	.LVL817:
 3881 1654 DC508DE5 		str	r5, [sp, #220]
 3882              	.LVL818:
 3883 1658 C90100EA 		b	.L45
 3884              	.LVL819:
 3885              	.L46:
 3886              		.loc 1 773 0
 3887 165c 2020A0E3 		mov	r2, #32
 3888 1660 570F8DE2 		add	r0, sp, #348
 3889              		.loc 1 774 0
 3890 1664 02C080E0 		add	ip, r0, r2
 3891              		.loc 1 773 0
 3892 1668 0010A0E3 		mov	r1, #0
 3893              		.loc 1 774 0
 3894 166c A4C08DE5 		str	ip, [sp, #164]
 3895              		.loc 1 773 0
 3896 1670 FEFFFFEB 		bl	memset
 3897              		.loc 1 774 0
 3898 1674 0010A0E3 		mov	r1, #0
 3899 1678 2020A0E3 		mov	r2, #32
 3900 167c A4009DE5 		ldr	r0, [sp, #164]
 3901 1680 FEFFFFEB 		bl	memset
 3902              		.loc 1 796 0
 3903 1684 D4009DE5 		ldr	r0, [sp, #212]
ARM GAS  /cygdrive/c/DOCUME~1/mkwapisz/LOCALS~1/Temp/cc1OEM1Z.s 			page 86


 3904 1688 013040E2 		sub	r3, r0, #1
 3905 168c 0F3003E2 		and	r3, r3, #15
 3906 1690 013083E3 		orr	r3, r3, #1
 3907 1694 04179FE5 		ldr	r1, .L55
 3908              		.loc 1 807 0
 3909 1698 0120C0E3 		bic	r2, r0, #1
 3910              		.loc 1 796 0
 3911 169c 0331A0E1 		mov	r3, r3, asl #2
 3912              		.loc 1 807 0
 3913 16a0 0221A0E1 		mov	r2, r2, asl #2
 3914              		.loc 1 796 0
 3915 16a4 B0308DE5 		str	r3, [sp, #176]
 3916              		.loc 1 807 0
 3917 16a8 01B082E0 		add	fp, r2, r1
 3918              	.LVL820:
 3919 16ac D0208DE5 		str	r2, [sp, #208]
 3920              		.loc 1 796 0
 3921 16b0 B0209DE5 		ldr	r2, [sp, #176]
 3922 16b4 9C409DE5 		ldr	r4, [sp, #156]
 3923 16b8 DC509DE5 		ldr	r5, [sp, #220]
 3924 16bc 019082E0 		add	r9, r2, r1
 3925              	.LVL821:
 3926              		.loc 1 791 0
 3927 16c0 0030E0E1 		mvn	r3, r0
 3928 16c4 851384E0 		add	r1, r4, r5, asl #7
 3929              		.loc 1 782 0
 3930 16c8 012000E2 		and	r2, r0, #1
 3931              		.loc 1 791 0
 3932 16cc 013003E2 		and	r3, r3, #1
 3933              	.LBB346:
 3934              		.loc 1 799 0
 3935 16d0 300089E2 		add	r0, r9, #48
 3936              	.LBE346:
 3937              		.loc 1 782 0
 3938 16d4 8224A0E1 		mov	r2, r2, asl #9
 3939              		.loc 1 791 0
 3940 16d8 8334A0E1 		mov	r3, r3, asl #9
 3941 16dc 301081E2 		add	r1, r1, #48
 3942              	.LBB347:
 3943              		.loc 1 798 0
 3944 16e0 38C089E2 		add	ip, r9, #56
 3945              	.LBE347:
 3946              	.LBB348:
 3947              		.loc 1 799 0
 3948 16e4 B8008DE5 		str	r0, [sp, #184]
 3949              	.LBE348:
 3950              	.LBB349:
 3951              		.loc 1 810 0
 3952 16e8 30008BE2 		add	r0, fp, #48
 3953              	.LBE349:
 3954              	.LBB350:
 3955              		.loc 1 803 0
 3956 16ec 104089E2 		add	r4, r9, #16
 3957              	.LBE350:
 3958              	.LBB351:
 3959              		.loc 1 804 0
 3960 16f0 085089E2 		add	r5, r9, #8
ARM GAS  /cygdrive/c/DOCUME~1/mkwapisz/LOCALS~1/Temp/cc1OEM1Z.s 			page 87


 3961              	.LBE351:
 3962              		.loc 1 782 0
 3963 16f4 A8208DE5 		str	r2, [sp, #168]
 3964              		.loc 1 791 0
 3965 16f8 AC308DE5 		str	r3, [sp, #172]
 3966              	.LBB352:
 3967              		.loc 1 801 0
 3968 16fc 202089E2 		add	r2, r9, #32
 3969              	.LBE352:
 3970              	.LBB353:
 3971              		.loc 1 802 0
 3972 1700 183089E2 		add	r3, r9, #24
 3973 1704 08108DE5 		str	r1, [sp, #8]
 3974              	.LBE353:
 3975              	.LBB354:
 3976              		.loc 1 798 0
 3977 1708 B4C08DE5 		str	ip, [sp, #180]
 3978              	.LBE354:
 3979              	.LBB355:
 3980              		.loc 1 800 0
 3981 170c 281089E2 		add	r1, r9, #40
 3982              	.LBE355:
 3983              	.LBB356:
 3984              		.loc 1 809 0
 3985 1710 38C08BE2 		add	ip, fp, #56
 3986              	.LBE356:
 3987              	.LBB357:
 3988              		.loc 1 810 0
 3989 1714 44018DE5 		str	r0, [sp, #324]
 3990 1718 A0009DE5 		ldr	r0, [sp, #160]
 3991              	.LBE357:
 3992              	.LBB358:
 3993              		.loc 1 800 0
 3994 171c BC108DE5 		str	r1, [sp, #188]
 3995              	.LBE358:
 3996              	.LBB359:
 3997              		.loc 1 801 0
 3998 1720 C0208DE5 		str	r2, [sp, #192]
 3999              	.LBE359:
 4000              	.LBB360:
 4001              		.loc 1 802 0
 4002 1724 C4308DE5 		str	r3, [sp, #196]
 4003              	.LBE360:
 4004              	.LBB361:
 4005              		.loc 1 803 0
 4006 1728 C8408DE5 		str	r4, [sp, #200]
 4007              	.LBE361:
 4008              	.LBB362:
 4009              		.loc 1 804 0
 4010 172c CC508DE5 		str	r5, [sp, #204]
 4011              	.LBE362:
 4012              	.LBB363:
 4013              		.loc 1 809 0
 4014 1730 40C18DE5 		str	ip, [sp, #320]
 4015              	.LBE363:
 4016              	.LBB364:
 4017              		.loc 1 811 0
ARM GAS  /cygdrive/c/DOCUME~1/mkwapisz/LOCALS~1/Temp/cc1OEM1Z.s 			page 88


 4018 1734 28108BE2 		add	r1, fp, #40
 4019              	.LBE364:
 4020              	.LBB365:
 4021              		.loc 1 812 0
 4022 1738 20208BE2 		add	r2, fp, #32
 4023              	.LBE365:
 4024              	.LBB366:
 4025              		.loc 1 813 0
 4026 173c 18308BE2 		add	r3, fp, #24
 4027              	.LBE366:
 4028              	.LBB367:
 4029              		.loc 1 814 0
 4030 1740 10408BE2 		add	r4, fp, #16
 4031              	.LBE367:
 4032              	.LBB368:
 4033              		.loc 1 815 0
 4034 1744 08508BE2 		add	r5, fp, #8
 4035 1748 00C0A0E3 		mov	ip, #0
 4036              	.LBE368:
 4037              	.LBB369:
 4038              		.loc 1 811 0
 4039 174c 48118DE5 		str	r1, [sp, #328]
 4040              	.LBE369:
 4041              	.LBB370:
 4042              		.loc 1 812 0
 4043 1750 4C218DE5 		str	r2, [sp, #332]
 4044              	.LBE370:
 4045              	.LBB371:
 4046              		.loc 1 813 0
 4047 1754 50318DE5 		str	r3, [sp, #336]
 4048              	.LBE371:
 4049              	.LBB372:
 4050              		.loc 1 814 0
 4051 1758 54418DE5 		str	r4, [sp, #340]
 4052              	.LBE372:
 4053              	.LBB373:
 4054              		.loc 1 815 0
 4055 175c 58518DE5 		str	r5, [sp, #344]
 4056 1760 D8C08DE5 		str	ip, [sp, #216]
 4057 1764 04008DE5 		str	r0, [sp, #4]
 4058 1768 750100EA 		b	.L47
 4059              	.LVL822:
 4060              	.L48:
 4061              	.LBE373:
 4062              		.loc 1 782 0
 4063 176c 04109DE5 		ldr	r1, [sp, #4]
 4064 1770 A8209DE5 		ldr	r2, [sp, #168]
 4065 1774 D4309DE5 		ldr	r3, [sp, #212]
 4066 1778 024081E0 		add	r4, r1, r2
 4067              	.LVL823:
 4068 177c 08009DE5 		ldr	r0, [sp, #8]
 4069 1780 A310A0E1 		mov	r1, r3, lsr #1
 4070 1784 0420A0E1 		mov	r2, r4
 4071 1788 013B84E2 		add	r3, r4, #1024
 4072 178c 87FAFFEB 		bl	dct32
 4073              		.loc 1 791 0
 4074 1790 04C09DE5 		ldr	ip, [sp, #4]
ARM GAS  /cygdrive/c/DOCUME~1/mkwapisz/LOCALS~1/Temp/cc1OEM1Z.s 			page 89


 4075 1794 AC009DE5 		ldr	r0, [sp, #172]
 4076              	.LVL824:
 4077              	.LBB374:
 4078              		.loc 1 797 0
 4079 1798 003099E5 		ldr	r3, [r9, #0]
 4080              	.LBE374:
 4081              		.loc 1 791 0
 4082 179c 00508CE0 		add	r5, ip, r0
 4083              	.LVL825:
 4084              	.LBB375:
 4085              		.loc 1 797 0
 4086 17a0 00209CE7 		ldr	r2, [ip, r0]
 4087              	.LVL826:
 4088 17a4 0410A0E1 		mov	r1, r4
 4089              	.LVL827:
 4090 17a8 0400A0E1 		mov	r0, r4
 4091 17ac FEFFFFEB 		bl	MAD_F_MLX
 4092              	.LVL828:
 4093              	.LBE375:
 4094              	.LBB376:
 4095              		.loc 1 798 0
 4096 17b0 B4C09DE5 		ldr	ip, [sp, #180]
 4097 17b4 042095E5 		ldr	r2, [r5, #4]
 4098 17b8 00309CE5 		ldr	r3, [ip, #0]
 4099              	.LVL829:
 4100 17bc 0410A0E1 		mov	r1, r4
 4101              	.LVL830:
 4102 17c0 0400A0E1 		mov	r0, r4
 4103 17c4 FEFFFFEB 		bl	MAD_F_MLX
 4104              	.LVL831:
 4105              	.LBE376:
 4106              	.LBB377:
 4107              		.loc 1 799 0
 4108 17c8 B8C09DE5 		ldr	ip, [sp, #184]
 4109 17cc 082095E5 		ldr	r2, [r5, #8]
 4110 17d0 00309CE5 		ldr	r3, [ip, #0]
 4111              	.LVL832:
 4112 17d4 0410A0E1 		mov	r1, r4
 4113              	.LVL833:
 4114 17d8 0400A0E1 		mov	r0, r4
 4115 17dc FEFFFFEB 		bl	MAD_F_MLX
 4116              	.LVL834:
 4117              	.LBE377:
 4118              	.LBB378:
 4119              		.loc 1 800 0
 4120 17e0 BCC09DE5 		ldr	ip, [sp, #188]
 4121 17e4 0C2095E5 		ldr	r2, [r5, #12]
 4122 17e8 00309CE5 		ldr	r3, [ip, #0]
 4123              	.LVL835:
 4124 17ec 0410A0E1 		mov	r1, r4
 4125              	.LVL836:
 4126 17f0 0400A0E1 		mov	r0, r4
 4127 17f4 FEFFFFEB 		bl	MAD_F_MLX
 4128              	.LVL837:
 4129              	.LBE378:
 4130              	.LBB379:
 4131              		.loc 1 801 0
ARM GAS  /cygdrive/c/DOCUME~1/mkwapisz/LOCALS~1/Temp/cc1OEM1Z.s 			page 90


 4132 17f8 C0C09DE5 		ldr	ip, [sp, #192]
 4133 17fc 102095E5 		ldr	r2, [r5, #16]
 4134 1800 00309CE5 		ldr	r3, [ip, #0]
 4135              	.LVL838:
 4136 1804 0410A0E1 		mov	r1, r4
 4137              	.LVL839:
 4138 1808 0400A0E1 		mov	r0, r4
 4139 180c FEFFFFEB 		bl	MAD_F_MLX
 4140              	.LVL840:
 4141              	.LBE379:
 4142              	.LBB380:
 4143              		.loc 1 802 0
 4144 1810 C4C09DE5 		ldr	ip, [sp, #196]
 4145 1814 142095E5 		ldr	r2, [r5, #20]
 4146 1818 00309CE5 		ldr	r3, [ip, #0]
 4147              	.LVL841:
 4148 181c 0410A0E1 		mov	r1, r4
 4149              	.LVL842:
 4150 1820 0400A0E1 		mov	r0, r4
 4151 1824 FEFFFFEB 		bl	MAD_F_MLX
 4152              	.LVL843:
 4153              	.LBE380:
 4154              	.LBB381:
 4155              		.loc 1 803 0
 4156 1828 C8C09DE5 		ldr	ip, [sp, #200]
 4157 182c 182095E5 		ldr	r2, [r5, #24]
 4158 1830 00309CE5 		ldr	r3, [ip, #0]
 4159              	.LVL844:
 4160 1834 0410A0E1 		mov	r1, r4
 4161              	.LVL845:
 4162 1838 0400A0E1 		mov	r0, r4
 4163 183c FEFFFFEB 		bl	MAD_F_MLX
 4164              	.LVL846:
 4165              	.LBE381:
 4166              	.LBB382:
 4167              		.loc 1 804 0
 4168 1840 CCC09DE5 		ldr	ip, [sp, #204]
 4169 1844 1C2095E5 		ldr	r2, [r5, #28]
 4170 1848 00309CE5 		ldr	r3, [ip, #0]
 4171              	.LVL847:
 4172 184c 0410A0E1 		mov	r1, r4
 4173              	.LVL848:
 4174 1850 0400A0E1 		mov	r0, r4
 4175 1854 FEFFFFEB 		bl	MAD_F_MLX
 4176              	.LVL849:
 4177              	.LBE382:
 4178              	.LBB383:
 4179              		.loc 1 808 0
 4180 1858 04309DE5 		ldr	r3, [sp, #4]
 4181 185c A8C09DE5 		ldr	ip, [sp, #168]
 4182              	.LVL850:
 4183 1860 0410A0E1 		mov	r1, r4
 4184 1864 0C2093E7 		ldr	r2, [r3, ip]
 4185              	.LVL851:
 4186 1868 0400A0E1 		mov	r0, r4
 4187 186c 00309BE5 		ldr	r3, [fp, #0]
 4188 1870 FEFFFFEB 		bl	MAD_F_MLX
ARM GAS  /cygdrive/c/DOCUME~1/mkwapisz/LOCALS~1/Temp/cc1OEM1Z.s 			page 91


 4189              	.LVL852:
 4190              	.LBE383:
 4191              	.LBB384:
 4192              		.loc 1 809 0
 4193 1874 40C19DE5 		ldr	ip, [sp, #320]
 4194              	.LVL853:
 4195 1878 0910A0E1 		mov	r1, r9
 4196 187c 00309CE5 		ldr	r3, [ip, #0]
 4197              	.LVL854:
 4198 1880 042094E5 		ldr	r2, [r4, #4]
 4199              	.LVL855:
 4200 1884 0400A0E1 		mov	r0, r4
 4201 1888 FEFFFFEB 		bl	MAD_F_MLX
 4202              	.LBE384:
 4203              	.LBB385:
 4204              		.loc 1 810 0
 4205 188c 44C19DE5 		ldr	ip, [sp, #324]
 4206              	.LVL856:
 4207 1890 0410A0E1 		mov	r1, r4
 4208 1894 00309CE5 		ldr	r3, [ip, #0]
 4209              	.LVL857:
 4210 1898 082094E5 		ldr	r2, [r4, #8]
 4211              	.LVL858:
 4212 189c 0400A0E1 		mov	r0, r4
 4213 18a0 FEFFFFEB 		bl	MAD_F_MLX
 4214              	.LVL859:
 4215              	.LBE385:
 4216              	.LBB386:
 4217              		.loc 1 811 0
 4218 18a4 48C19DE5 		ldr	ip, [sp, #328]
 4219              	.LVL860:
 4220 18a8 0410A0E1 		mov	r1, r4
 4221 18ac 00309CE5 		ldr	r3, [ip, #0]
 4222              	.LVL861:
 4223 18b0 0C2094E5 		ldr	r2, [r4, #12]
 4224              	.LVL862:
 4225 18b4 0400A0E1 		mov	r0, r4
 4226 18b8 FEFFFFEB 		bl	MAD_F_MLX
 4227              	.LVL863:
 4228              	.LBE386:
 4229              	.LBB387:
 4230              		.loc 1 812 0
 4231 18bc 4CC19DE5 		ldr	ip, [sp, #332]
 4232              	.LVL864:
 4233 18c0 0410A0E1 		mov	r1, r4
 4234 18c4 00309CE5 		ldr	r3, [ip, #0]
 4235              	.LVL865:
 4236 18c8 102094E5 		ldr	r2, [r4, #16]
 4237              	.LVL866:
 4238 18cc 0400A0E1 		mov	r0, r4
 4239 18d0 FEFFFFEB 		bl	MAD_F_MLX
 4240              	.LVL867:
 4241              	.LBE387:
 4242              	.LBB388:
 4243              		.loc 1 813 0
 4244 18d4 50C19DE5 		ldr	ip, [sp, #336]
 4245              	.LVL868:
ARM GAS  /cygdrive/c/DOCUME~1/mkwapisz/LOCALS~1/Temp/cc1OEM1Z.s 			page 92


 4246 18d8 0410A0E1 		mov	r1, r4
 4247 18dc 00309CE5 		ldr	r3, [ip, #0]
 4248              	.LVL869:
 4249 18e0 142094E5 		ldr	r2, [r4, #20]
 4250              	.LVL870:
 4251 18e4 0400A0E1 		mov	r0, r4
 4252 18e8 FEFFFFEB 		bl	MAD_F_MLX
 4253              	.LVL871:
 4254              	.LBE388:
 4255              	.LBB389:
 4256              		.loc 1 814 0
 4257 18ec 54C19DE5 		ldr	ip, [sp, #340]
 4258              	.LVL872:
 4259 18f0 0410A0E1 		mov	r1, r4
 4260 18f4 00309CE5 		ldr	r3, [ip, #0]
 4261              	.LVL873:
 4262 18f8 182094E5 		ldr	r2, [r4, #24]
 4263              	.LVL874:
 4264 18fc 0400A0E1 		mov	r0, r4
 4265 1900 FEFFFFEB 		bl	MAD_F_MLX
 4266              	.LVL875:
 4267              	.LBE389:
 4268              	.LBB390:
 4269              		.loc 1 815 0
 4270 1904 58C19DE5 		ldr	ip, [sp, #344]
 4271              	.LVL876:
 4272 1908 0410A0E1 		mov	r1, r4
 4273              	.LVL877:
 4274 190c 1C2094E5 		ldr	r2, [r4, #28]
 4275 1910 00309CE5 		ldr	r3, [ip, #0]
 4276              	.LVL878:
 4277 1914 0400A0E1 		mov	r0, r4
 4278 1918 FEFFFFEB 		bl	MAD_F_MLX
 4279              	.LVL879:
 4280              	.LBE390:
 4281              		.loc 1 818 0
 4282 191c E8009DE5 		ldr	r0, [sp, #232]
 4283 1920 B6F9FFEB 		bl	scale
 4284              		.loc 1 780 0
 4285 1924 D8309DE5 		ldr	r3, [sp, #216]
 4286 1928 571F8DE2 		add	r1, sp, #348
 4287 192c 8322A0E1 		mov	r2, r3, asl #5
 4288              		.loc 1 818 0
 4289 1930 B23091E1 		ldrh	r3, [r1, r2]
 4290 1934 003083E0 		add	r3, r3, r0
 4291              		.loc 1 780 0
 4292 1938 020081E0 		add	r0, r1, r2
 4293              	.LVL880:
 4294              		.loc 1 819 0
 4295 193c 0080A0E1 		mov	r8, r0
 4296              	.LVL881:
 4297 1940 020080E2 		add	r0, r0, #2
 4298              	.LVL882:
 4299 1944 0560A0E1 		mov	r6, r5
 4300              		.loc 1 818 0
 4301 1948 B23081E1 		strh	r3, [r1, r2]	@ movhi
 4302              		.loc 1 792 0
ARM GAS  /cygdrive/c/DOCUME~1/mkwapisz/LOCALS~1/Temp/cc1OEM1Z.s 			page 93


 4303 194c 015B85E2 		add	r5, r5, #1024
 4304              	.LVL883:
 4305              		.loc 1 819 0
 4306 1950 48A49FE5 		ldr	sl, .L55
 4307              	.LVL884:
 4308 1954 EC008DE5 		str	r0, [sp, #236]
 4309              		.loc 1 792 0
 4310 1958 E0508DE5 		str	r5, [sp, #224]
 4311              	.LVL885:
 4312              		.loc 1 819 0
 4313 195c 0470A0E1 		mov	r7, r4
 4314 1960 0850A0E1 		mov	r5, r8
 4315              	.L49:
 4316              		.loc 1 829 0
 4317 1964 B0C09DE5 		ldr	ip, [sp, #176]
 4318              		.loc 1 825 0
 4319 1968 80A08AE2 		add	sl, sl, #128
 4320              		.loc 1 829 0
 4321 196c 0C408AE0 		add	r4, sl, ip
 4322              	.LVL886:
 4323              	.LBB391:
 4324              		.loc 1 830 0
 4325 1970 0C309AE7 		ldr	r3, [sl, ip]
 4326 1974 002496E5 		ldr	r2, [r6, #1024]
 4327              	.LVL887:
 4328 1978 0410A0E1 		mov	r1, r4
 4329              	.LVL888:
 4330 197c 0400A0E1 		mov	r0, r4
 4331 1980 FEFFFFEB 		bl	MAD_F_MLX
 4332              	.LVL889:
 4333              	.LBE391:
 4334              	.LBB392:
 4335              		.loc 1 831 0
 4336 1984 042496E5 		ldr	r2, [r6, #1028]
 4337              	.LVL890:
 4338 1988 383094E5 		ldr	r3, [r4, #56]
 4339              	.LVL891:
 4340 198c 0400A0E1 		mov	r0, r4
 4341              	.LVL892:
 4342 1990 0910A0E1 		mov	r1, r9
 4343 1994 FEFFFFEB 		bl	MAD_F_MLX
 4344              	.LBE392:
 4345              	.LBB393:
 4346              		.loc 1 832 0
 4347 1998 082496E5 		ldr	r2, [r6, #1032]
 4348              	.LVL893:
 4349 199c 303094E5 		ldr	r3, [r4, #48]
 4350              	.LVL894:
 4351 19a0 0400A0E1 		mov	r0, r4
 4352              	.LVL895:
 4353 19a4 0A10A0E1 		mov	r1, sl
 4354 19a8 FEFFFFEB 		bl	MAD_F_MLX
 4355              	.LVL896:
 4356              	.LBE393:
 4357              	.LBB394:
 4358              		.loc 1 833 0
 4359 19ac 0410A0E1 		mov	r1, r4
ARM GAS  /cygdrive/c/DOCUME~1/mkwapisz/LOCALS~1/Temp/cc1OEM1Z.s 			page 94


 4360 19b0 0C2496E5 		ldr	r2, [r6, #1036]
 4361              	.LVL897:
 4362 19b4 283094E5 		ldr	r3, [r4, #40]
 4363              	.LVL898:
 4364 19b8 0400A0E1 		mov	r0, r4
 4365 19bc FEFFFFEB 		bl	MAD_F_MLX
 4366              	.LVL899:
 4367              	.LVL900:
 4368              	.LBE394:
 4369              	.LBB395:
 4370              		.loc 1 834 0
 4371 19c0 0410A0E1 		mov	r1, r4
 4372 19c4 102496E5 		ldr	r2, [r6, #1040]
 4373              	.LVL901:
 4374 19c8 203094E5 		ldr	r3, [r4, #32]
 4375              	.LVL902:
 4376 19cc 0400A0E1 		mov	r0, r4
 4377 19d0 FEFFFFEB 		bl	MAD_F_MLX
 4378              	.LVL903:
 4379              	.LVL904:
 4380              	.LBE395:
 4381              	.LBB396:
 4382              		.loc 1 835 0
 4383 19d4 0510A0E1 		mov	r1, r5
 4384 19d8 142496E5 		ldr	r2, [r6, #1044]
 4385              	.LVL905:
 4386 19dc 183094E5 		ldr	r3, [r4, #24]
 4387              	.LVL906:
 4388 19e0 0400A0E1 		mov	r0, r4
 4389 19e4 FEFFFFEB 		bl	MAD_F_MLX
 4390              	.LVL907:
 4391              	.LBE396:
 4392              	.LBB397:
 4393              		.loc 1 836 0
 4394 19e8 0410A0E1 		mov	r1, r4
 4395 19ec 182496E5 		ldr	r2, [r6, #1048]
 4396              	.LVL908:
 4397 19f0 103094E5 		ldr	r3, [r4, #16]
 4398              	.LVL909:
 4399 19f4 0400A0E1 		mov	r0, r4
 4400 19f8 FEFFFFEB 		bl	MAD_F_MLX
 4401              	.LVL910:
 4402              	.LBE397:
 4403              		.loc 1 840 0
 4404 19fc D0209DE5 		ldr	r2, [sp, #208]
 4405              	.LVL911:
 4406              	.LBB398:
 4407              		.loc 1 837 0
 4408 1a00 0410A0E1 		mov	r1, r4
 4409              	.LVL912:
 4410 1a04 083094E5 		ldr	r3, [r4, #8]
 4411              	.LVL913:
 4412 1a08 0400A0E1 		mov	r0, r4
 4413              	.LVL914:
 4414              	.LBE398:
 4415              		.loc 1 840 0
 4416 1a0c 02408AE0 		add	r4, sl, r2
ARM GAS  /cygdrive/c/DOCUME~1/mkwapisz/LOCALS~1/Temp/cc1OEM1Z.s 			page 95


 4417              	.LVL915:
 4418              	.LBB399:
 4419              		.loc 1 837 0
 4420 1a10 1C2496E5 		ldr	r2, [r6, #1052]
 4421 1a14 FEFFFFEB 		bl	MAD_F_MLX
 4422              	.LVL916:
 4423              	.LBE399:
 4424              	.LBB400:
 4425              		.loc 1 842 0
 4426 1a18 3C2097E5 		ldr	r2, [r7, #60]
 4427 1a1c 083094E5 		ldr	r3, [r4, #8]
 4428              	.LVL917:
 4429 1a20 0410A0E1 		mov	r1, r4
 4430              	.LVL918:
 4431 1a24 0400A0E1 		mov	r0, r4
 4432 1a28 FEFFFFEB 		bl	MAD_F_MLX
 4433              	.LVL919:
 4434              	.LBE400:
 4435              	.LBB401:
 4436              		.loc 1 843 0
 4437 1a2c 382097E5 		ldr	r2, [r7, #56]
 4438              	.LVL920:
 4439 1a30 103094E5 		ldr	r3, [r4, #16]
 4440              	.LVL921:
 4441 1a34 0400A0E1 		mov	r0, r4
 4442              	.LVL922:
 4443 1a38 0A10A0E1 		mov	r1, sl
 4444 1a3c FEFFFFEB 		bl	MAD_F_MLX
 4445              	.LVL923:
 4446              	.LBE401:
 4447              	.LBB402:
 4448              		.loc 1 844 0
 4449 1a40 0410A0E1 		mov	r1, r4
 4450 1a44 342097E5 		ldr	r2, [r7, #52]
 4451              	.LVL924:
 4452 1a48 183094E5 		ldr	r3, [r4, #24]
 4453              	.LVL925:
 4454 1a4c 0400A0E1 		mov	r0, r4
 4455 1a50 FEFFFFEB 		bl	MAD_F_MLX
 4456              	.LVL926:
 4457              	.LVL927:
 4458              	.LBE402:
 4459              	.LBB403:
 4460              		.loc 1 845 0
 4461 1a54 0510A0E1 		mov	r1, r5
 4462 1a58 302097E5 		ldr	r2, [r7, #48]
 4463              	.LVL928:
 4464 1a5c 203094E5 		ldr	r3, [r4, #32]
 4465              	.LVL929:
 4466 1a60 0400A0E1 		mov	r0, r4
 4467 1a64 FEFFFFEB 		bl	MAD_F_MLX
 4468              	.LVL930:
 4469              	.LBE403:
 4470              	.LBB404:
 4471              		.loc 1 846 0
 4472 1a68 0410A0E1 		mov	r1, r4
 4473 1a6c 2C2097E5 		ldr	r2, [r7, #44]
ARM GAS  /cygdrive/c/DOCUME~1/mkwapisz/LOCALS~1/Temp/cc1OEM1Z.s 			page 96


 4474              	.LVL931:
 4475 1a70 283094E5 		ldr	r3, [r4, #40]
 4476              	.LVL932:
 4477 1a74 0400A0E1 		mov	r0, r4
 4478 1a78 FEFFFFEB 		bl	MAD_F_MLX
 4479              	.LVL933:
 4480              	.LVL934:
 4481              	.LBE404:
 4482              	.LBB405:
 4483              		.loc 1 847 0
 4484 1a7c 0410A0E1 		mov	r1, r4
 4485 1a80 282097E5 		ldr	r2, [r7, #40]
 4486              	.LVL935:
 4487 1a84 303094E5 		ldr	r3, [r4, #48]
 4488              	.LVL936:
 4489 1a88 0400A0E1 		mov	r0, r4
 4490 1a8c FEFFFFEB 		bl	MAD_F_MLX
 4491              	.LVL937:
 4492              	.LVL938:
 4493              	.LBE405:
 4494              	.LBB406:
 4495              		.loc 1 848 0
 4496 1a90 0410A0E1 		mov	r1, r4
 4497              	.LVL939:
 4498 1a94 383094E5 		ldr	r3, [r4, #56]
 4499 1a98 242097E5 		ldr	r2, [r7, #36]
 4500              	.LVL940:
 4501 1a9c 0400A0E1 		mov	r0, r4
 4502 1aa0 FEFFFFEB 		bl	MAD_F_MLX
 4503              	.LVL941:
 4504              	.LVL942:
 4505              	.LBE406:
 4506              	.LBB407:
 4507              		.loc 1 849 0
 4508 1aa4 0400A0E1 		mov	r0, r4
 4509 1aa8 D0409DE5 		ldr	r4, [sp, #208]
 4510              	.LVL943:
 4511 1aac 0510A0E1 		mov	r1, r5
 4512 1ab0 202097E5 		ldr	r2, [r7, #32]
 4513              	.LVL944:
 4514 1ab4 04309AE7 		ldr	r3, [sl, r4]
 4515 1ab8 FEFFFFEB 		bl	MAD_F_MLX
 4516              	.LVL945:
 4517              	.LBE407:
 4518              		.loc 1 852 0
 4519 1abc F4009DE5 		ldr	r0, [sp, #244]
 4520 1ac0 4EF9FFEB 		bl	scale
 4521              	.LVL946:
 4522 1ac4 B2C0D5E1 		ldrh	ip, [r5, #2]
 4523 1ac8 00008CE0 		add	r0, ip, r0
 4524 1acc 0C008DE5 		str	r0, [sp, #12]
 4525              		.loc 1 855 0
 4526 1ad0 D0409DE5 		ldr	r4, [sp, #208]
 4527              		.loc 1 852 0
 4528 1ad4 0CC09DE5 		ldr	ip, [sp, #12]
 4529              		.loc 1 855 0
 4530 1ad8 0A4064E0 		rsb	r4, r4, sl
ARM GAS  /cygdrive/c/DOCUME~1/mkwapisz/LOCALS~1/Temp/cc1OEM1Z.s 			page 97


 4531              	.LVL947:
 4532              		.loc 1 852 0
 4533 1adc B2C0E5E1 		strh	ip, [r5, #2]!	@ movhi
 4534              	.LBB408:
 4535              		.loc 1 856 0
 4536 1ae0 202097E5 		ldr	r2, [r7, #32]
 4537 1ae4 3C3094E5 		ldr	r3, [r4, #60]
 4538              	.LVL948:
 4539 1ae8 0410A0E1 		mov	r1, r4
 4540              	.LVL949:
 4541 1aec 0400A0E1 		mov	r0, r4
 4542 1af0 FEFFFFEB 		bl	MAD_F_MLX
 4543              	.LVL950:
 4544              	.LVL951:
 4545              	.LBE408:
 4546              	.LBB409:
 4547              		.loc 1 857 0
 4548 1af4 0810A0E1 		mov	r1, r8
 4549 1af8 242097E5 		ldr	r2, [r7, #36]
 4550              	.LVL952:
 4551 1afc 443094E5 		ldr	r3, [r4, #68]
 4552              	.LVL953:
 4553 1b00 0400A0E1 		mov	r0, r4
 4554 1b04 FEFFFFEB 		bl	MAD_F_MLX
 4555              	.LVL954:
 4556              	.LBE409:
 4557              	.LBB410:
 4558              		.loc 1 858 0
 4559 1b08 0410A0E1 		mov	r1, r4
 4560 1b0c 282097E5 		ldr	r2, [r7, #40]
 4561              	.LVL955:
 4562 1b10 4C3094E5 		ldr	r3, [r4, #76]
 4563              	.LVL956:
 4564 1b14 0400A0E1 		mov	r0, r4
 4565 1b18 FEFFFFEB 		bl	MAD_F_MLX
 4566              	.LVL957:
 4567              	.LVL958:
 4568              	.LBE410:
 4569              	.LBB411:
 4570              		.loc 1 859 0
 4571 1b1c 0410A0E1 		mov	r1, r4
 4572 1b20 2C2097E5 		ldr	r2, [r7, #44]
 4573              	.LVL959:
 4574 1b24 543094E5 		ldr	r3, [r4, #84]
 4575              	.LVL960:
 4576 1b28 0400A0E1 		mov	r0, r4
 4577 1b2c FEFFFFEB 		bl	MAD_F_MLX
 4578              	.LVL961:
 4579              	.LVL962:
 4580              	.LBE411:
 4581              	.LBB412:
 4582              		.loc 1 860 0
 4583 1b30 0610A0E1 		mov	r1, r6
 4584 1b34 302097E5 		ldr	r2, [r7, #48]
 4585              	.LVL963:
 4586 1b38 5C3094E5 		ldr	r3, [r4, #92]
 4587              	.LVL964:
ARM GAS  /cygdrive/c/DOCUME~1/mkwapisz/LOCALS~1/Temp/cc1OEM1Z.s 			page 98


 4588 1b3c 0400A0E1 		mov	r0, r4
 4589 1b40 FEFFFFEB 		bl	MAD_F_MLX
 4590              	.LVL965:
 4591              	.LBE412:
 4592              	.LBB413:
 4593              		.loc 1 861 0
 4594 1b44 0710A0E1 		mov	r1, r7
 4595              	.LVL966:
 4596 1b48 342097E5 		ldr	r2, [r7, #52]
 4597              	.LVL967:
 4598 1b4c 643094E5 		ldr	r3, [r4, #100]
 4599              	.LVL968:
 4600 1b50 0400A0E1 		mov	r0, r4
 4601 1b54 FEFFFFEB 		bl	MAD_F_MLX
 4602              	.LVL969:
 4603              	.LVL970:
 4604              	.LBE413:
 4605              	.LBB414:
 4606              		.loc 1 862 0
 4607 1b58 0410A0E1 		mov	r1, r4
 4608 1b5c 382097E5 		ldr	r2, [r7, #56]
 4609              	.LVL971:
 4610 1b60 6C3094E5 		ldr	r3, [r4, #108]
 4611              	.LVL972:
 4612 1b64 0400A0E1 		mov	r0, r4
 4613 1b68 FEFFFFEB 		bl	MAD_F_MLX
 4614              	.LVL973:
 4615              	.LBE414:
 4616              		.loc 1 865 0
 4617 1b6c B0209DE5 		ldr	r2, [sp, #176]
 4618              	.LVL974:
 4619              	.LBB415:
 4620              		.loc 1 863 0
 4621 1b70 0410A0E1 		mov	r1, r4
 4622              	.LVL975:
 4623 1b74 743094E5 		ldr	r3, [r4, #116]
 4624              	.LVL976:
 4625 1b78 0400A0E1 		mov	r0, r4
 4626              	.LBE415:
 4627              		.loc 1 865 0
 4628 1b7c 0A4062E0 		rsb	r4, r2, sl
 4629              	.LVL977:
 4630              	.LBB416:
 4631              		.loc 1 863 0
 4632 1b80 3C2097E5 		ldr	r2, [r7, #60]
 4633 1b84 FEFFFFEB 		bl	MAD_F_MLX
 4634              	.LVL978:
 4635              	.LVL979:
 4636              	.LBE416:
 4637              	.LBB417:
 4638              		.loc 1 866 0
 4639 1b88 1C2496E5 		ldr	r2, [r6, #1052]
 4640 1b8c 743094E5 		ldr	r3, [r4, #116]
 4641              	.LVL980:
 4642 1b90 0410A0E1 		mov	r1, r4
 4643              	.LVL981:
 4644 1b94 0400A0E1 		mov	r0, r4
ARM GAS  /cygdrive/c/DOCUME~1/mkwapisz/LOCALS~1/Temp/cc1OEM1Z.s 			page 99


 4645 1b98 FEFFFFEB 		bl	MAD_F_MLX
 4646              	.LVL982:
 4647              	.LBE417:
 4648              	.LBB418:
 4649              		.loc 1 867 0
 4650 1b9c 182496E5 		ldr	r2, [r6, #1048]
 4651              	.LVL983:
 4652 1ba0 0410A0E1 		mov	r1, r4
 4653              	.LVL984:
 4654 1ba4 6C3094E5 		ldr	r3, [r4, #108]
 4655              	.LVL985:
 4656 1ba8 0400A0E1 		mov	r0, r4
 4657 1bac FEFFFFEB 		bl	MAD_F_MLX
 4658              	.LVL986:
 4659              	.LVL987:
 4660              	.LBE418:
 4661              	.LBB419:
 4662              		.loc 1 868 0
 4663 1bb0 0610A0E1 		mov	r1, r6
 4664              	.LVL988:
 4665 1bb4 142496E5 		ldr	r2, [r6, #1044]
 4666              	.LVL989:
 4667 1bb8 643094E5 		ldr	r3, [r4, #100]
 4668              	.LVL990:
 4669 1bbc 0400A0E1 		mov	r0, r4
 4670 1bc0 FEFFFFEB 		bl	MAD_F_MLX
 4671              	.LVL991:
 4672              	.LVL992:
 4673              	.LBE419:
 4674              	.LBB420:
 4675              		.loc 1 869 0
 4676 1bc4 0710A0E1 		mov	r1, r7
 4677 1bc8 102496E5 		ldr	r2, [r6, #1040]
 4678              	.LVL993:
 4679 1bcc 5C3094E5 		ldr	r3, [r4, #92]
 4680              	.LVL994:
 4681 1bd0 0400A0E1 		mov	r0, r4
 4682 1bd4 FEFFFFEB 		bl	MAD_F_MLX
 4683              	.LBE420:
 4684              	.LBB421:
 4685              		.loc 1 870 0
 4686 1bd8 0C2496E5 		ldr	r2, [r6, #1036]
 4687              	.LVL995:
 4688 1bdc 0410A0E1 		mov	r1, r4
 4689              	.LVL996:
 4690 1be0 543094E5 		ldr	r3, [r4, #84]
 4691              	.LVL997:
 4692 1be4 0400A0E1 		mov	r0, r4
 4693 1be8 FEFFFFEB 		bl	MAD_F_MLX
 4694              	.LVL998:
 4695              	.LBE421:
 4696              	.LBB422:
 4697              		.loc 1 871 0
 4698 1bec 082496E5 		ldr	r2, [r6, #1032]
 4699              	.LVL999:
 4700 1bf0 0410A0E1 		mov	r1, r4
 4701              	.LVL1000:
ARM GAS  /cygdrive/c/DOCUME~1/mkwapisz/LOCALS~1/Temp/cc1OEM1Z.s 			page 100


 4702 1bf4 4C3094E5 		ldr	r3, [r4, #76]
 4703              	.LVL1001:
 4704 1bf8 0400A0E1 		mov	r0, r4
 4705 1bfc FEFFFFEB 		bl	MAD_F_MLX
 4706              	.LVL1002:
 4707              	.LVL1003:
 4708              	.LBE422:
 4709              	.LBB423:
 4710              		.loc 1 872 0
 4711 1c00 0610A0E1 		mov	r1, r6
 4712              	.LVL1004:
 4713 1c04 042496E5 		ldr	r2, [r6, #1028]
 4714              	.LVL1005:
 4715 1c08 443094E5 		ldr	r3, [r4, #68]
 4716              	.LVL1006:
 4717 1c0c 0400A0E1 		mov	r0, r4
 4718 1c10 FEFFFFEB 		bl	MAD_F_MLX
 4719              	.LVL1007:
 4720              	.LBE423:
 4721              	.LBB424:
 4722              		.loc 1 873 0
 4723 1c14 002496E5 		ldr	r2, [r6, #1024]
 4724              	.LVL1008:
 4725 1c18 0710A0E1 		mov	r1, r7
 4726              	.LVL1009:
 4727 1c1c 3C3094E5 		ldr	r3, [r4, #60]
 4728              	.LVL1010:
 4729 1c20 0400A0E1 		mov	r0, r4
 4730 1c24 FEFFFFEB 		bl	MAD_F_MLX
 4731              	.LBE424:
 4732              		.loc 1 876 0
 4733 1c28 F8009DE5 		ldr	r0, [sp, #248]
 4734 1c2c F3F8FFEB 		bl	scale
 4735              	.LVL1011:
 4736 1c30 BE31D8E1 		ldrh	r3, [r8, #30]
 4737              		.loc 1 822 0
 4738 1c34 68219FE5 		ldr	r2, .L55+4
 4739              		.loc 1 876 0
 4740 1c38 003083E0 		add	r3, r3, r0
 4741              		.loc 1 822 0
 4742 1c3c 02005AE1 		cmp	sl, r2
 4743              		.loc 1 876 0
 4744 1c40 BE31C8E1 		strh	r3, [r8, #30]	@ movhi
 4745              	.LVL1012:
 4746 1c44 207087E2 		add	r7, r7, #32
 4747 1c48 206086E2 		add	r6, r6, #32
 4748 1c4c 028048E2 		sub	r8, r8, #2
 4749              		.loc 1 822 0
 4750 1c50 43FFFF1A 		bne	.L49
 4751              	.LBB425:
 4752              		.loc 1 885 0
 4753 1c54 B0509DE5 		ldr	r5, [sp, #176]
 4754 1c58 E0309DE5 		ldr	r3, [sp, #224]
 4755              	.LBE425:
 4756              		.loc 1 822 0
 4757 1c5c E0C09DE5 		ldr	ip, [sp, #224]
 4758              		.loc 1 884 0
ARM GAS  /cygdrive/c/DOCUME~1/mkwapisz/LOCALS~1/Temp/cc1OEM1Z.s 			page 101


 4759 1c60 80408AE2 		add	r4, sl, #128
 4760              	.LVL1013:
 4761              	.LBB426:
 4762              		.loc 1 885 0
 4763 1c64 E02193E5 		ldr	r2, [r3, #480]
 4764 1c68 043095E7 		ldr	r3, [r5, r4]
 4765              	.LBE426:
 4766              		.loc 1 884 0
 4767 1c6c 044085E0 		add	r4, r5, r4
 4768              	.LVL1014:
 4769              	.LVL1015:
 4770              	.LBB427:
 4771              		.loc 1 885 0
 4772 1c70 0400A0E1 		mov	r0, r4
 4773              	.LBE427:
 4774              		.loc 1 822 0
 4775 1c74 1E5E8CE2 		add	r5, ip, #480
 4776              	.LVL1016:
 4777              	.LVL1017:
 4778              	.LBB428:
 4779              		.loc 1 885 0
 4780 1c78 0810A0E1 		mov	r1, r8
 4781 1c7c FEFFFFEB 		bl	MAD_F_MLX
 4782              	.LVL1018:
 4783              	.LBE428:
 4784              	.LBB429:
 4785              		.loc 1 886 0
 4786 1c80 0410A0E1 		mov	r1, r4
 4787              	.LVL1019:
 4788 1c84 383094E5 		ldr	r3, [r4, #56]
 4789              	.LVL1020:
 4790 1c88 0400A0E1 		mov	r0, r4
 4791 1c8c 042095E5 		ldr	r2, [r5, #4]
 4792 1c90 FEFFFFEB 		bl	MAD_F_MLX
 4793              	.LVL1021:
 4794              	.LVL1022:
 4795              	.LBE429:
 4796              	.LBB430:
 4797              		.loc 1 887 0
 4798 1c94 0410A0E1 		mov	r1, r4
 4799              	.LVL1023:
 4800 1c98 303094E5 		ldr	r3, [r4, #48]
 4801              	.LVL1024:
 4802 1c9c 0400A0E1 		mov	r0, r4
 4803 1ca0 082095E5 		ldr	r2, [r5, #8]
 4804 1ca4 FEFFFFEB 		bl	MAD_F_MLX
 4805              	.LVL1025:
 4806              	.LVL1026:
 4807              	.LBE430:
 4808              	.LBB431:
 4809              		.loc 1 888 0
 4810 1ca8 0410A0E1 		mov	r1, r4
 4811              	.LVL1027:
 4812 1cac 283094E5 		ldr	r3, [r4, #40]
 4813              	.LVL1028:
 4814 1cb0 0400A0E1 		mov	r0, r4
 4815 1cb4 0C2095E5 		ldr	r2, [r5, #12]
ARM GAS  /cygdrive/c/DOCUME~1/mkwapisz/LOCALS~1/Temp/cc1OEM1Z.s 			page 102


 4816 1cb8 FEFFFFEB 		bl	MAD_F_MLX
 4817              	.LVL1029:
 4818              	.LVL1030:
 4819              	.LBE431:
 4820              	.LBB432:
 4821              		.loc 1 889 0
 4822 1cbc 0410A0E1 		mov	r1, r4
 4823              	.LVL1031:
 4824 1cc0 203094E5 		ldr	r3, [r4, #32]
 4825              	.LVL1032:
 4826 1cc4 0400A0E1 		mov	r0, r4
 4827 1cc8 102095E5 		ldr	r2, [r5, #16]
 4828 1ccc FEFFFFEB 		bl	MAD_F_MLX
 4829              	.LVL1033:
 4830              	.LVL1034:
 4831              	.LBE432:
 4832              	.LBB433:
 4833              		.loc 1 890 0
 4834 1cd0 0410A0E1 		mov	r1, r4
 4835              	.LVL1035:
 4836 1cd4 183094E5 		ldr	r3, [r4, #24]
 4837              	.LVL1036:
 4838 1cd8 0400A0E1 		mov	r0, r4
 4839 1cdc 142095E5 		ldr	r2, [r5, #20]
 4840 1ce0 FEFFFFEB 		bl	MAD_F_MLX
 4841              	.LVL1037:
 4842              	.LVL1038:
 4843              	.LBE433:
 4844              	.LBB434:
 4845              		.loc 1 891 0
 4846 1ce4 0410A0E1 		mov	r1, r4
 4847              	.LVL1039:
 4848 1ce8 103094E5 		ldr	r3, [r4, #16]
 4849              	.LVL1040:
 4850 1cec 0400A0E1 		mov	r0, r4
 4851 1cf0 182095E5 		ldr	r2, [r5, #24]
 4852 1cf4 FEFFFFEB 		bl	MAD_F_MLX
 4853              	.LVL1041:
 4854              	.LVL1042:
 4855              	.LBE434:
 4856              	.LBB435:
 4857              		.loc 1 892 0
 4858 1cf8 0410A0E1 		mov	r1, r4
 4859              	.LVL1043:
 4860 1cfc 083094E5 		ldr	r3, [r4, #8]
 4861 1d00 1C2095E5 		ldr	r2, [r5, #28]
 4862              	.LVL1044:
 4863 1d04 0400A0E1 		mov	r0, r4
 4864 1d08 FEFFFFEB 		bl	MAD_F_MLX
 4865              	.LVL1045:
 4866              	.LBE435:
 4867              		.loc 1 895 0
 4868 1d0c F0009DE5 		ldr	r0, [sp, #240]
 4869 1d10 BAF8FFEB 		bl	scale
 4870 1d14 EC109DE5 		ldr	r1, [sp, #236]
 4871 1d18 BE31D1E1 		ldrh	r3, [r1, #30]
 4872 1d1c 003083E0 		add	r3, r3, r0
ARM GAS  /cygdrive/c/DOCUME~1/mkwapisz/LOCALS~1/Temp/cc1OEM1Z.s 			page 103


 4873              		.loc 1 776 0
 4874 1d20 D8209DE5 		ldr	r2, [sp, #216]
 4875 1d24 08409DE5 		ldr	r4, [sp, #8]
 4876              	.LVL1046:
 4877              		.loc 1 895 0
 4878 1d28 BE31C1E1 		strh	r3, [r1, #30]	@ movhi
 4879 1d2c 04309DE5 		ldr	r3, [sp, #4]
 4880              		.loc 1 776 0
 4881 1d30 012082E2 		add	r2, r2, #1
 4882 1d34 023B83E2 		add	r3, r3, #2048
 4883 1d38 124C84E2 		add	r4, r4, #4608
 4884 1d3c D8208DE5 		str	r2, [sp, #216]
 4885 1d40 18008DE9 		stmib	sp, {r3, r4}	@ phole stm
 4886              	.LVL1047:
 4887              	.L47:
 4888 1d44 D8509DE5 		ldr	r5, [sp, #216]
 4889              	.LVL1048:
 4890 1d48 98C09DE5 		ldr	ip, [sp, #152]
 4891 1d4c 0C0055E1 		cmp	r5, ip
 4892 1d50 85FEFF1A 		bne	.L48
 4893              		.loc 1 901 0
 4894 1d54 A4109DE5 		ldr	r1, [sp, #164]
 4895 1d58 0C30A0E1 		mov	r3, ip
 4896 1d5c 570F8DE2 		add	r0, sp, #348
 4897 1d60 2020A0E3 		mov	r2, #32
 4898 1d64 FEFFFFEB 		bl	render_sample_block
 4899              		.loc 1 904 0
 4900 1d68 D4009DE5 		ldr	r0, [sp, #212]
 4901              		.loc 1 771 0
 4902 1d6c DC109DE5 		ldr	r1, [sp, #220]
 4903              		.loc 1 904 0
 4904 1d70 013080E2 		add	r3, r0, #1
 4905 1d74 0F3003E2 		and	r3, r3, #15
 4906              		.loc 1 771 0
 4907 1d78 011081E2 		add	r1, r1, #1
 4908              		.loc 1 904 0
 4909 1d7c D4308DE5 		str	r3, [sp, #212]
 4910              		.loc 1 771 0
 4911 1d80 DC108DE5 		str	r1, [sp, #220]
 4912              	.LVL1049:
 4913              	.L45:
 4914 1d84 DC209DE5 		ldr	r2, [sp, #220]
 4915 1d88 94309DE5 		ldr	r3, [sp, #148]
 4916              	.LVL1050:
 4917 1d8c 030052E1 		cmp	r2, r3
 4918 1d90 31FEFF1A 		bne	.L46
 4919              	.LVL1051:
 4920              	.L52:
 4921              		.loc 1 907 0
 4922 1d94 67DF8DE2 		add	sp, sp, #412
 4923 1d98 F04FBDE8 		ldmfd	sp!, {r4, r5, r6, r7, r8, r9, sl, fp, lr}
 4924 1d9c 1EFF2FE1 		bx	lr
 4925              	.L56:
 4926              		.align	2
 4927              	.L55:
 4928 1da0 00000000 		.word	D
 4929 1da4 80070000 		.word	D+1920
ARM GAS  /cygdrive/c/DOCUME~1/mkwapisz/LOCALS~1/Temp/cc1OEM1Z.s 			page 104


 4930              	.LFE7:
 4931              		.size	synth_half, .-synth_half
 4932              		.align	2
 4933              		.type	synth_full, %function
 4934              	synth_full:
 4935              	.LFB6:
 4936              		.loc 1 592 0
 4937              		@ Function supports interworking.
 4938              		@ args = 0, pretend = 0, frame = 476
 4939              		@ frame_needed = 0, uses_anonymous_args = 0
 4940              	.LVL1052:
 4941 1da8 F04F2DE9 		stmfd	sp!, {r4, r5, r6, r7, r8, r9, sl, fp, lr}
 4942              	.LCFI7:
 4943 1dac 77DF4DE2 		sub	sp, sp, #476
 4944              	.LCFI8:
 4945              		.loc 1 592 0
 4946 1db0 94308DE5 		str	r3, [sp, #148]
 4947              		.loc 1 604 0
 4948 1db4 013AA0E3 		mov	r3, #4096
 4949              	.LVL1053:
 4950 1db8 033090E7 		ldr	r3, [r0, r3]
 4951              		.loc 1 606 0
 4952 1dbc 020052E3 		cmp	r2, #2
 4953              		.loc 1 592 0
 4954 1dc0 98208DE5 		str	r2, [sp, #152]
 4955 1dc4 A0008DE5 		str	r0, [sp, #160]
 4956 1dc8 9C108DE5 		str	r1, [sp, #156]
 4957              		.loc 1 604 0
 4958 1dcc D4308DE5 		str	r3, [sp, #212]
 4959              	.LVL1054:
 4960              		.loc 1 606 0
 4961 1dd0 A902008A 		bhi	.L67
 4962              	.LVL1055:
 4963              	.LVL1056:
 4964              		.loc 1 635 0
 4965 1dd4 2408A0E1 		mov	r0, r4, lsr #16
 4966              	.LVL1057:
 4967              		.loc 1 637 0
 4968 1dd8 2058A0E1 		mov	r5, r0, lsr #16
 4969              	.LVL1058:
 4970              		.loc 1 635 0
 4971 1ddc 000880E1 		orr	r0, r0, r0, asl #16
 4972 1de0 E0008DE5 		str	r0, [sp, #224]
 4973              	.LVL1059:
 4974              		.loc 1 636 0
 4975 1de4 E0C09DE5 		ldr	ip, [sp, #224]
 4976              		.loc 1 671 0
 4977 1de8 0510A0E1 		mov	r1, r5
 4978 1dec 74508DE5 		str	r5, [sp, #116]
 4979              	.LVL1060:
 4980              		.loc 1 637 0
 4981 1df0 005885E1 		orr	r5, r5, r0, asl #16
 4982 1df4 88508DE5 		str	r5, [sp, #136]
 4983              		.loc 1 636 0
 4984 1df8 0C30A0E1 		mov	r3, ip
 4985 1dfc 0CC08CE0 		add	ip, ip, ip
 4986 1e00 F4C08DE5 		str	ip, [sp, #244]
ARM GAS  /cygdrive/c/DOCUME~1/mkwapisz/LOCALS~1/Temp/cc1OEM1Z.s 			page 105


 4987              	.LVL1061:
 4988              	.LVL1062:
 4989              		.loc 1 669 0
 4990 1e04 2998A0E1 		mov	r9, r9, lsr #16
 4991              	.LVL1063:
 4992              		.loc 1 637 0
 4993 1e08 03C0A0E1 		mov	ip, r3
 4994 1e0c 88309DE5 		ldr	r3, [sp, #136]
 4995              		.loc 1 671 0
 4996 1e10 0140A0E1 		mov	r4, r1
 4997              	.LVL1064:
 4998 1e14 01B881E1 		orr	fp, r1, r1, asl #16
 4999              	.LVL1065:
 5000              		.loc 1 669 0
 5001 1e18 009889E1 		orr	r9, r9, r0, asl #16
 5002              	.LVL1066:
 5003              		.loc 1 670 0
 5004 1e1c 2AA8A0E1 		mov	sl, sl, lsr #16
 5005              	.LVL1067:
 5006              	.LVL1068:
 5007              		.loc 1 695 0
 5008 1e20 2888A0E1 		mov	r8, r8, lsr #16
 5009              	.LVL1069:
 5010              	.LVL1070:
 5011              		.loc 1 670 0
 5012 1e24 01A88AE1 		orr	sl, sl, r1, asl #16
 5013              	.LVL1071:
 5014              		.loc 1 695 0
 5015 1e28 018888E1 		orr	r8, r8, r1, asl #16
 5016              		.loc 1 637 0
 5017 1e2c 03C08CE0 		add	ip, ip, r3
 5018              		.loc 1 669 0
 5019 1e30 099083E0 		add	r9, r3, r9
 5020              	.LVL1072:
 5021              		.loc 1 636 0
 5022 1e34 90008DE5 		str	r0, [sp, #144]
 5023              		.loc 1 639 0
 5024 1e38 F4309DE5 		ldr	r3, [sp, #244]
 5025              		.loc 1 638 0
 5026 1e3c 8C008DE5 		str	r0, [sp, #140]
 5027              		.loc 1 696 0
 5028 1e40 0B10A0E1 		mov	r1, fp
 5029              	.LVL1073:
 5030              	.LVL1074:
 5031              		.loc 1 639 0
 5032 1e44 2408A0E1 		mov	r0, r4, lsr #16
 5033              	.LVL1075:
 5034 1e48 000880E1 		orr	r0, r0, r0, asl #16
 5035              		.loc 1 669 0
 5036 1e4c 1C918DE5 		str	r9, [sp, #284]
 5037              	.LVL1076:
 5038              		.loc 1 668 0
 5039 1e50 18518DE5 		str	r5, [sp, #280]
 5040              	.LVL1077:
 5041              		.loc 1 696 0
 5042 1e54 011081E0 		add	r1, r1, r1
 5043              	.LVL1078:
ARM GAS  /cygdrive/c/DOCUME~1/mkwapisz/LOCALS~1/Temp/cc1OEM1Z.s 			page 106


 5044              		.loc 1 673 0
 5045 1e58 2558A0E1 		mov	r5, r5, lsr #16
 5046              	.LVL1079:
 5047              	.LVL1080:
 5048              		.loc 1 699 0
 5049 1e5c 2778A0E1 		mov	r7, r7, lsr #16
 5050              	.LVL1081:
 5051              		.loc 1 696 0
 5052 1e60 00108DE5 		str	r1, [sp, #0]
 5053              	.LVL1082:
 5054              	.LVL1083:
 5055              		.loc 1 673 0
 5056 1e64 005885E1 		orr	r5, r5, r0, asl #16
 5057              	.LVL1084:
 5058              		.loc 1 699 0
 5059 1e68 007887E1 		orr	r7, r7, r0, asl #16
 5060              	.LVL1085:
 5061              		.loc 1 641 0
 5062 1e6c 2018A0E1 		mov	r1, r0, lsr #16
 5063              	.LVL1086:
 5064              		.loc 1 640 0
 5065 1e70 00E0A0E1 		mov	lr, r0
 5066              		.loc 1 672 0
 5067 1e74 0040A0E1 		mov	r4, r0
 5068              	.LVL1087:
 5069              		.loc 1 639 0
 5070 1e78 000083E0 		add	r0, r3, r0
 5071              		.loc 1 672 0
 5072 1e7c 1C319DE5 		ldr	r3, [sp, #284]
 5073              		.loc 1 694 0
 5074 1e80 0B20A0E1 		mov	r2, fp
 5075              	.LVL1088:
 5076              		.loc 1 670 0
 5077 1e84 0AB08BE0 		add	fp, fp, sl
 5078 1e88 20B18DE5 		str	fp, [sp, #288]
 5079              	.LVL1089:
 5080              		.loc 1 672 0
 5081 1e8c 044083E0 		add	r4, r3, r4
 5082 1e90 24418DE5 		str	r4, [sp, #292]
 5083              	.LVL1090:
 5084              		.loc 1 673 0
 5085 1e94 20419DE5 		ldr	r4, [sp, #288]
 5086              		.loc 1 637 0
 5087 1e98 F8C08DE5 		str	ip, [sp, #248]
 5088              	.LVL1091:
 5089              		.loc 1 698 0
 5090 1e9c 0560A0E1 		mov	r6, r5
 5091              		.loc 1 639 0
 5092 1ea0 FC008DE5 		str	r0, [sp, #252]
 5093              	.LVL1092:
 5094              		.loc 1 673 0
 5095 1ea4 055084E0 		add	r5, r4, r5
 5096              		.loc 1 640 0
 5097 1ea8 F8009DE5 		ldr	r0, [sp, #248]
 5098              		.loc 1 673 0
 5099 1eac 28518DE5 		str	r5, [sp, #296]
 5100              	.LVL1093:
ARM GAS  /cygdrive/c/DOCUME~1/mkwapisz/LOCALS~1/Temp/cc1OEM1Z.s 			page 107


 5101              		.loc 1 641 0
 5102 1eb0 FCC09DE5 		ldr	ip, [sp, #252]
 5103              		.loc 1 699 0
 5104 1eb4 00509DE5 		ldr	r5, [sp, #0]
 5105              		.loc 1 640 0
 5106 1eb8 0EE080E0 		add	lr, r0, lr
 5107              		.loc 1 695 0
 5108 1ebc 082082E0 		add	r2, r2, r8
 5109              	.LVL1094:
 5110              		.loc 1 642 0
 5111 1ec0 0180A0E1 		mov	r8, r1
 5112              	.LVL1095:
 5113              		.loc 1 641 0
 5114 1ec4 041881E1 		orr	r1, r1, r4, asl #16
 5115              		.loc 1 700 0
 5116 1ec8 01B0A0E1 		mov	fp, r1
 5117              		.loc 1 640 0
 5118 1ecc 00E18DE5 		str	lr, [sp, #256]
 5119              	.LVL1096:
 5120              		.loc 1 699 0
 5121 1ed0 073085E0 		add	r3, r5, r7
 5122              	.LVL1097:
 5123              		.loc 1 698 0
 5124 1ed4 062082E0 		add	r2, r2, r6
 5125              	.LVL1098:
 5126              		.loc 1 642 0
 5127 1ed8 0100A0E1 		mov	r0, r1
 5128              		.loc 1 674 0
 5129 1edc 0150A0E1 		mov	r5, r1
 5130              		.loc 1 675 0
 5131 1ee0 0160A0E1 		mov	r6, r1
 5132              		.loc 1 701 0
 5133 1ee4 5C108DE5 		str	r1, [sp, #92]
 5134              		.loc 1 641 0
 5135 1ee8 01108CE0 		add	r1, ip, r1
 5136 1eec 04118DE5 		str	r1, [sp, #260]
 5137              	.LVL1099:
 5138              		.loc 1 642 0
 5139 1ef0 00119DE5 		ldr	r1, [sp, #256]
 5140 1ef4 000081E0 		add	r0, r1, r0
 5141              		.loc 1 674 0
 5142 1ef8 24C19DE5 		ldr	ip, [sp, #292]
 5143              		.loc 1 642 0
 5144 1efc 08018DE5 		str	r0, [sp, #264]
 5145              	.LVL1100:
 5146              		.loc 1 675 0
 5147 1f00 28019DE5 		ldr	r0, [sp, #296]
 5148              	.LVL1101:
 5149              		.loc 1 646 0
 5150 1f04 2448A0E1 		mov	r4, r4, lsr #16
 5151              	.LVL1102:
 5152              	.LVL1103:
 5153              		.loc 1 680 0
 5154 1f08 2478A0E1 		mov	r7, r4, lsr #16
 5155              		.loc 1 674 0
 5156 1f0c 05508CE0 		add	r5, ip, r5
 5157              		.loc 1 675 0
ARM GAS  /cygdrive/c/DOCUME~1/mkwapisz/LOCALS~1/Temp/cc1OEM1Z.s 			page 108


 5158 1f10 066080E0 		add	r6, r0, r6
 5159              		.loc 1 701 0
 5160 1f14 0B3083E0 		add	r3, r3, fp
 5161              	.LVL1104:
 5162              	.LVL1105:
 5163              		.loc 1 647 0
 5164 1f18 2898A0E1 		mov	r9, r8, lsr #16
 5165              		.loc 1 704 0
 5166 1f1c 58708DE5 		str	r7, [sp, #88]
 5167              		.loc 1 705 0
 5168 1f20 50708DE5 		str	r7, [sp, #80]
 5169              		.loc 1 724 0
 5170 1f24 38708DE5 		str	r7, [sp, #56]
 5171              		.loc 1 726 0
 5172 1f28 30708DE5 		str	r7, [sp, #48]
 5173              		.loc 1 674 0
 5174 1f2c 2C518DE5 		str	r5, [sp, #300]
 5175              	.LVL1106:
 5176              		.loc 1 675 0
 5177 1f30 30618DE5 		str	r6, [sp, #304]
 5178              	.LVL1107:
 5179              		.loc 1 701 0
 5180 1f34 00308DE5 		str	r3, [sp, #0]
 5181              	.LVL1108:
 5182              		.loc 1 642 0
 5183 1f38 04C19DE5 		ldr	ip, [sp, #260]
 5184 1f3c 08319DE5 		ldr	r3, [sp, #264]
 5185              		.loc 1 681 0
 5186 1f40 09A0A0E1 		mov	sl, r9
 5187              		.loc 1 723 0
 5188 1f44 0980A0E1 		mov	r8, r9
 5189              	.LVL1109:
 5190              	.LVL1110:
 5191              		.loc 1 647 0
 5192 1f48 049889E1 		orr	r9, r9, r4, asl #16
 5193              	.LVL1111:
 5194              		.loc 1 646 0
 5195 1f4c 044884E1 		orr	r4, r4, r4, asl #16
 5196 1f50 84408DE5 		str	r4, [sp, #132]
 5197              		.loc 1 642 0
 5198 1f54 03C08CE0 		add	ip, ip, r3
 5199 1f58 0CC18DE5 		str	ip, [sp, #268]
 5200              	.LVL1112:
 5201              		.loc 1 646 0
 5202 1f5c 84C09DE5 		ldr	ip, [sp, #132]
 5203              		.loc 1 725 0
 5204 1f60 07E0A0E1 		mov	lr, r7
 5205              	.LVL1113:
 5206              		.loc 1 681 0
 5207 1f64 04A88AE1 		orr	sl, sl, r4, asl #16
 5208              	.LVL1114:
 5209              		.loc 1 680 0
 5210 1f68 047887E1 		orr	r7, r7, r4, asl #16
 5211              		.loc 1 646 0
 5212 1f6c 0C9089E0 		add	r9, r9, ip
 5213              	.LVL1115:
 5214              	.LVL1116:
ARM GAS  /cygdrive/c/DOCUME~1/mkwapisz/LOCALS~1/Temp/cc1OEM1Z.s 			page 109


 5215              		.loc 1 705 0
 5216 1f70 0E488EE1 		orr	r4, lr, lr, asl #16
 5217              	.LVL1117:
 5218              		.loc 1 675 0
 5219 1f74 4B3F8DE2 		add	r3, sp, #300
 5220 1f78 081093E8 		ldmia	r3, {r3, ip}	@ phole ldm
 5221              	.LVL1118:
 5222              		.loc 1 648 0
 5223 1f7c 2408A0E1 		mov	r0, r4, lsr #16
 5224              	.LVL1119:
 5225              		.loc 1 724 0
 5226 1f80 04588EE1 		orr	r5, lr, r4, asl #16
 5227              		.loc 1 680 0
 5228 1f84 70708DE5 		str	r7, [sp, #112]
 5229              	.LVL1120:
 5230              		.loc 1 682 0
 5231 1f88 2018A0E1 		mov	r1, r0, lsr #16
 5232              		.loc 1 675 0
 5233 1f8c 0C3083E0 		add	r3, r3, ip
 5234              	.LVL1121:
 5235              		.loc 1 648 0
 5236 1f90 000880E1 		orr	r0, r0, r0, asl #16
 5237              	.LVL1122:
 5238              		.loc 1 705 0
 5239 1f94 4C408DE5 		str	r4, [sp, #76]
 5240              		.loc 1 725 0
 5241 1f98 05E0A0E1 		mov	lr, r5
 5242              		.loc 1 675 0
 5243 1f9c 34318DE5 		str	r3, [sp, #308]
 5244              	.LVL1123:
 5245              	.LVL1124:
 5246              		.loc 1 723 0
 5247 1fa0 048888E1 		orr	r8, r8, r4, asl #16
 5248              	.LVL1125:
 5249              		.loc 1 680 0
 5250 1fa4 70309DE5 		ldr	r3, [sp, #112]
 5251              		.loc 1 649 0
 5252 1fa8 0040A0E1 		mov	r4, r0
 5253              	.LVL1126:
 5254              		.loc 1 700 0
 5255 1fac 0B2082E0 		add	r2, r2, fp
 5256              	.LVL1127:
 5257              		.loc 1 724 0
 5258 1fb0 0E8088E0 		add	r8, r8, lr
 5259              	.LVL1128:
 5260              		.loc 1 649 0
 5261 1fb4 049089E0 		add	r9, r9, r4
 5262              	.LVL1129:
 5263              		.loc 1 725 0
 5264 1fb8 0EE08EE0 		add	lr, lr, lr
 5265              		.loc 1 682 0
 5266 1fbc 34419DE5 		ldr	r4, [sp, #308]
 5267              		.loc 1 705 0
 5268 1fc0 4CC09DE5 		ldr	ip, [sp, #76]
 5269              		.loc 1 725 0
 5270 1fc4 10E18DE5 		str	lr, [sp, #272]
 5271              	.LVL1130:
ARM GAS  /cygdrive/c/DOCUME~1/mkwapisz/LOCALS~1/Temp/cc1OEM1Z.s 			page 110


 5272              		.loc 1 728 0
 5273 1fc8 28108DE5 		str	r1, [sp, #40]
 5274              		.loc 1 680 0
 5275 1fcc 03A08AE0 		add	sl, sl, r3
 5276              	.LVL1131:
 5277              	.LVL1132:
 5278              		.loc 1 682 0
 5279 1fd0 001881E1 		orr	r1, r1, r0, asl #16
 5280              		.loc 1 704 0
 5281 1fd4 032082E0 		add	r2, r2, r3
 5282              	.LVL1133:
 5283              		.loc 1 705 0
 5284 1fd8 00309DE5 		ldr	r3, [sp, #0]
 5285              		.loc 1 727 0
 5286 1fdc 01B0A0E1 		mov	fp, r1
 5287              		.loc 1 728 0
 5288 1fe0 24108DE5 		str	r1, [sp, #36]
 5289              		.loc 1 682 0
 5290 1fe4 011064E0 		rsb	r1, r4, r1
 5291              	.LVL1134:
 5292              		.loc 1 728 0
 5293 1fe8 10419DE5 		ldr	r4, [sp, #272]
 5294              		.loc 1 705 0
 5295 1fec 0C3083E0 		add	r3, r3, ip
 5296              		.loc 1 724 0
 5297 1ff0 34508DE5 		str	r5, [sp, #52]
 5298              		.loc 1 726 0
 5299 1ff4 2C508DE5 		str	r5, [sp, #44]
 5300              	.LVL1135:
 5301              		.loc 1 683 0
 5302 1ff8 2558A0E1 		mov	r5, r5, lsr #16
 5303              	.LVL1136:
 5304              	.LVL1137:
 5305              		.loc 1 650 0
 5306 1ffc 20C8A0E1 		mov	ip, r0, lsr #16
 5307              		.loc 1 705 0
 5308 2000 00308DE5 		str	r3, [sp, #0]
 5309              	.LVL1138:
 5310              	.LVL1139:
 5311              		.loc 1 683 0
 5312 2004 005885E1 		orr	r5, r5, r0, asl #16
 5313              		.loc 1 728 0
 5314 2008 0B4084E0 		add	r4, r4, fp
 5315              		.loc 1 648 0
 5316 200c 0C319DE5 		ldr	r3, [sp, #268]
 5317              		.loc 1 704 0
 5318 2010 54708DE5 		str	r7, [sp, #84]
 5319              		.loc 1 683 0
 5320 2014 05A08AE0 		add	sl, sl, r5
 5321              	.LVL1140:
 5322              		.loc 1 727 0
 5323 2018 0B8088E0 		add	r8, r8, fp
 5324              	.LVL1141:
 5325              		.loc 1 707 0
 5326 201c 00509DE5 		ldr	r5, [sp, #0]
 5327              	.LVL1142:
 5328              		.loc 1 650 0
ARM GAS  /cygdrive/c/DOCUME~1/mkwapisz/LOCALS~1/Temp/cc1OEM1Z.s 			page 111


 5329 2020 04B88CE1 		orr	fp, ip, r4, asl #16
 5330              	.LVL1143:
 5331              		.loc 1 707 0
 5332 2024 2778A0E1 		mov	r7, r7, lsr #16
 5333              	.LVL1144:
 5334 2028 007887E1 		orr	r7, r7, r0, asl #16
 5335              		.loc 1 684 0
 5336 202c 6CC08DE5 		str	ip, [sp, #108]
 5337              		.loc 1 685 0
 5338 2030 64C08DE5 		str	ip, [sp, #100]
 5339              		.loc 1 708 0
 5340 2034 48C08DE5 		str	ip, [sp, #72]
 5341              		.loc 1 709 0
 5342 2038 40C08DE5 		str	ip, [sp, #64]
 5343              		.loc 1 729 0
 5344 203c 20C08DE5 		str	ip, [sp, #32]
 5345              		.loc 1 730 0
 5346 2040 18C08DE5 		str	ip, [sp, #24]
 5347              	.LVL1145:
 5348              		.loc 1 728 0
 5349 2044 14418DE5 		str	r4, [sp, #276]
 5350              	.LVL1146:
 5351              		.loc 1 651 0
 5352 2048 80B08DE5 		str	fp, [sp, #128]
 5353              	.LVL1147:
 5354              		.loc 1 706 0
 5355 204c 2668A0E1 		mov	r6, r6, lsr #16
 5356              	.LVL1148:
 5357              		.loc 1 684 0
 5358 2050 68B08DE5 		str	fp, [sp, #104]
 5359              		.loc 1 685 0
 5360 2054 64409DE5 		ldr	r4, [sp, #100]
 5361              	.LVL1149:
 5362              		.loc 1 706 0
 5363 2058 006886E1 		orr	r6, r6, r0, asl #16
 5364              	.LVL1150:
 5365              		.loc 1 648 0
 5366 205c 000063E0 		rsb	r0, r3, r0
 5367              	.LVL1151:
 5368              		.loc 1 707 0
 5369 2060 073085E0 		add	r3, r5, r7
 5370              	.LVL1152:
 5371              		.loc 1 708 0
 5372 2064 48509DE5 		ldr	r5, [sp, #72]
 5373              	.LVL1153:
 5374              		.loc 1 685 0
 5375 2068 044884E1 		orr	r4, r4, r4, asl #16
 5376              	.LVL1154:
 5377              		.loc 1 708 0
 5378 206c 045885E1 		orr	r5, r5, r4, asl #16
 5379              	.LVL1155:
 5380              		.loc 1 685 0
 5381 2070 60408DE5 		str	r4, [sp, #96]
 5382              		.loc 1 729 0
 5383 2074 20409DE5 		ldr	r4, [sp, #32]
 5384              	.LVL1156:
 5385 2078 044884E1 		orr	r4, r4, r4, asl #16
ARM GAS  /cygdrive/c/DOCUME~1/mkwapisz/LOCALS~1/Temp/cc1OEM1Z.s 			page 112


 5386              	.LVL1157:
 5387              		.loc 1 652 0
 5388 207c 24C8A0E1 		mov	ip, r4, lsr #16
 5389              		.loc 1 653 0
 5390 2080 0CE0A0E1 		mov	lr, ip
 5391              		.loc 1 652 0
 5392 2084 7CC08DE5 		str	ip, [sp, #124]
 5393              		.loc 1 685 0
 5394 2088 60C09DE5 		ldr	ip, [sp, #96]
 5395              		.loc 1 708 0
 5396 208c 44508DE5 		str	r5, [sp, #68]
 5397              		.loc 1 685 0
 5398 2090 0CA08AE0 		add	sl, sl, ip
 5399              	.LVL1158:
 5400              		.loc 1 708 0
 5401 2094 44C09DE5 		ldr	ip, [sp, #68]
 5402              	.LVL1159:
 5403              		.loc 1 729 0
 5404 2098 1C408DE5 		str	r4, [sp, #28]
 5405              		.loc 1 709 0
 5406 209c 0C3083E0 		add	r3, r3, ip
 5407              	.LVL1160:
 5408 20a0 00308DE5 		str	r3, [sp, #0]
 5409              	.LVL1161:
 5410              		.loc 1 729 0
 5411 20a4 1C309DE5 		ldr	r3, [sp, #28]
 5412              		.loc 1 706 0
 5413 20a8 062082E0 		add	r2, r2, r6
 5414              	.LVL1162:
 5415              		.loc 1 730 0
 5416 20ac 14508DE5 		str	r5, [sp, #20]
 5417              		.loc 1 708 0
 5418 20b0 0C2082E0 		add	r2, r2, ip
 5419              	.LVL1163:
 5420              		.loc 1 729 0
 5421 20b4 038088E0 		add	r8, r8, r3
 5422              	.LVL1164:
 5423              		.loc 1 730 0
 5424 20b8 14C19DE5 		ldr	ip, [sp, #276]
 5425 20bc 14309DE5 		ldr	r3, [sp, #20]
 5426              		.loc 1 650 0
 5427 20c0 0B0080E0 		add	r0, r0, fp
 5428              	.LVL1165:
 5429              		.loc 1 651 0
 5430 20c4 0B9089E0 		add	r9, r9, fp
 5431              	.LVL1166:
 5432              		.loc 1 684 0
 5433 20c8 0B1081E0 		add	r1, r1, fp
 5434              	.LVL1167:
 5435              		.loc 1 709 0
 5436 20cc 3C508DE5 		str	r5, [sp, #60]
 5437              		.loc 1 730 0
 5438 20d0 03B08CE0 		add	fp, ip, r3
 5439              	.LVL1168:
 5440              	.LVL1169:
 5441              		.loc 1 687 0
 5442 20d4 2558A0E1 		mov	r5, r5, lsr #16
ARM GAS  /cygdrive/c/DOCUME~1/mkwapisz/LOCALS~1/Temp/cc1OEM1Z.s 			page 113


 5443              	.LVL1170:
 5444              	.LVL1171:
 5445              		.loc 1 652 0
 5446 20d8 0EC88EE1 		orr	ip, lr, lr, asl #16
 5447              	.LVL1172:
 5448              		.loc 1 710 0
 5449 20dc 2668A0E1 		mov	r6, r6, lsr #16
 5450              	.LVL1173:
 5451              	.LVL1174:
 5452              		.loc 1 711 0
 5453 20e0 2778A0E1 		mov	r7, r7, lsr #16
 5454              	.LVL1175:
 5455 20e4 00409DE5 		ldr	r4, [sp, #0]
 5456              	.LVL1176:
 5457              		.loc 1 687 0
 5458 20e8 0C5885E1 		orr	r5, r5, ip, asl #16
 5459              	.LVL1177:
 5460              		.loc 1 710 0
 5461 20ec 0C6886E1 		orr	r6, r6, ip, asl #16
 5462              	.LVL1178:
 5463              		.loc 1 711 0
 5464 20f0 0C7887E1 		orr	r7, r7, ip, asl #16
 5465              		.loc 1 687 0
 5466 20f4 05A08AE0 		add	sl, sl, r5
 5467              	.LVL1179:
 5468              	.LVL1180:
 5469              		.loc 1 652 0
 5470 20f8 0C0080E0 		add	r0, r0, ip
 5471              	.LVL1181:
 5472              		.loc 1 653 0
 5473 20fc 0C9089E0 		add	r9, r9, ip
 5474              	.LVL1182:
 5475              		.loc 1 686 0
 5476 2100 0C1081E0 		add	r1, r1, ip
 5477              	.LVL1183:
 5478              		.loc 1 710 0
 5479 2104 062082E0 		add	r2, r2, r6
 5480              	.LVL1184:
 5481              		.loc 1 711 0
 5482 2108 073084E0 		add	r3, r4, r7
 5483              	.LVL1185:
 5484              		.loc 1 732 0
 5485 210c 0B8088E0 		add	r8, r8, fp
 5486              	.LVL1186:
 5487              		.loc 1 655 0
 5488 2110 090080E0 		add	r0, r0, r9
 5489              	.LVL1187:
 5490              		.loc 1 689 0
 5491 2114 0A1081E0 		add	r1, r1, sl
 5492              	.LVL1188:
 5493              		.loc 1 713 0
 5494 2118 032082E0 		add	r2, r2, r3
 5495              	.LVL1189:
 5496              		.loc 1 732 0
 5497 211c 008068E2 		rsb	r8, r8, #0
 5498 2120 0050A0E3 		mov	r5, #0
 5499              		.loc 1 653 0
ARM GAS  /cygdrive/c/DOCUME~1/mkwapisz/LOCALS~1/Temp/cc1OEM1Z.s 			page 114


 5500 2124 0CE0A0E1 		mov	lr, ip
 5501              		.loc 1 652 0
 5502 2128 78C08DE5 		str	ip, [sp, #120]
 5503              		.loc 1 655 0
 5504 212c E4008DE5 		str	r0, [sp, #228]
 5505              	.LVL1190:
 5506              		.loc 1 689 0
 5507 2130 EC108DE5 		str	r1, [sp, #236]
 5508              	.LVL1191:
 5509              		.loc 1 713 0
 5510 2134 F0208DE5 		str	r2, [sp, #240]
 5511              	.LVL1192:
 5512              		.loc 1 732 0
 5513 2138 E8808DE5 		str	r8, [sp, #232]
 5514              	.LVL1193:
 5515 213c DC508DE5 		str	r5, [sp, #220]
 5516              	.LVL1194:
 5517 2140 C90100EA 		b	.L60
 5518              	.LVL1195:
 5519              	.L61:
 5520              		.loc 1 611 0
 5521 2144 4020A0E3 		mov	r2, #64
 5522 2148 570F8DE2 		add	r0, sp, #348
 5523              		.loc 1 612 0
 5524 214c 02C080E0 		add	ip, r0, r2
 5525              		.loc 1 611 0
 5526 2150 0010A0E3 		mov	r1, #0
 5527              		.loc 1 612 0
 5528 2154 A4C08DE5 		str	ip, [sp, #164]
 5529              		.loc 1 611 0
 5530 2158 FEFFFFEB 		bl	memset
 5531              		.loc 1 612 0
 5532 215c 0010A0E3 		mov	r1, #0
 5533 2160 4020A0E3 		mov	r2, #64
 5534 2164 A4009DE5 		ldr	r0, [sp, #164]
 5535 2168 FEFFFFEB 		bl	memset
 5536              		.loc 1 634 0
 5537 216c D4009DE5 		ldr	r0, [sp, #212]
 5538 2170 013040E2 		sub	r3, r0, #1
 5539 2174 0F3003E2 		and	r3, r3, #15
 5540 2178 013083E3 		orr	r3, r3, #1
 5541 217c 04179FE5 		ldr	r1, .L70
 5542              		.loc 1 645 0
 5543 2180 0120C0E3 		bic	r2, r0, #1
 5544              		.loc 1 634 0
 5545 2184 0331A0E1 		mov	r3, r3, asl #2
 5546              		.loc 1 645 0
 5547 2188 0221A0E1 		mov	r2, r2, asl #2
 5548              		.loc 1 634 0
 5549 218c B0308DE5 		str	r3, [sp, #176]
 5550              		.loc 1 645 0
 5551 2190 01B082E0 		add	fp, r2, r1
 5552              	.LVL1196:
 5553 2194 D0208DE5 		str	r2, [sp, #208]
 5554              		.loc 1 634 0
 5555 2198 B0209DE5 		ldr	r2, [sp, #176]
 5556 219c 9C409DE5 		ldr	r4, [sp, #156]
ARM GAS  /cygdrive/c/DOCUME~1/mkwapisz/LOCALS~1/Temp/cc1OEM1Z.s 			page 115


 5557 21a0 DC509DE5 		ldr	r5, [sp, #220]
 5558 21a4 019082E0 		add	r9, r2, r1
 5559              	.LVL1197:
 5560              		.loc 1 629 0
 5561 21a8 0030E0E1 		mvn	r3, r0
 5562 21ac 851384E0 		add	r1, r4, r5, asl #7
 5563              		.loc 1 620 0
 5564 21b0 012000E2 		and	r2, r0, #1
 5565              		.loc 1 629 0
 5566 21b4 013003E2 		and	r3, r3, #1
 5567              	.LBB436:
 5568              		.loc 1 637 0
 5569 21b8 300089E2 		add	r0, r9, #48
 5570              	.LBE436:
 5571              		.loc 1 620 0
 5572 21bc 8224A0E1 		mov	r2, r2, asl #9
 5573              		.loc 1 629 0
 5574 21c0 8334A0E1 		mov	r3, r3, asl #9
 5575 21c4 301081E2 		add	r1, r1, #48
 5576              	.LBB437:
 5577              		.loc 1 636 0
 5578 21c8 38C089E2 		add	ip, r9, #56
 5579              	.LBE437:
 5580              	.LBB438:
 5581              		.loc 1 637 0
 5582 21cc B8008DE5 		str	r0, [sp, #184]
 5583              	.LBE438:
 5584              	.LBB439:
 5585              		.loc 1 648 0
 5586 21d0 30008BE2 		add	r0, fp, #48
 5587              	.LBE439:
 5588              	.LBB440:
 5589              		.loc 1 641 0
 5590 21d4 104089E2 		add	r4, r9, #16
 5591              	.LBE440:
 5592              	.LBB441:
 5593              		.loc 1 642 0
 5594 21d8 085089E2 		add	r5, r9, #8
 5595              	.LBE441:
 5596              		.loc 1 620 0
 5597 21dc A8208DE5 		str	r2, [sp, #168]
 5598              		.loc 1 629 0
 5599 21e0 AC308DE5 		str	r3, [sp, #172]
 5600              	.LBB442:
 5601              		.loc 1 639 0
 5602 21e4 202089E2 		add	r2, r9, #32
 5603              	.LBE442:
 5604              	.LBB443:
 5605              		.loc 1 640 0
 5606 21e8 183089E2 		add	r3, r9, #24
 5607 21ec 08108DE5 		str	r1, [sp, #8]
 5608              	.LBE443:
 5609              	.LBB444:
 5610              		.loc 1 636 0
 5611 21f0 B4C08DE5 		str	ip, [sp, #180]
 5612              	.LBE444:
 5613              	.LBB445:
ARM GAS  /cygdrive/c/DOCUME~1/mkwapisz/LOCALS~1/Temp/cc1OEM1Z.s 			page 116


 5614              		.loc 1 638 0
 5615 21f4 281089E2 		add	r1, r9, #40
 5616              	.LBE445:
 5617              	.LBB446:
 5618              		.loc 1 647 0
 5619 21f8 38C08BE2 		add	ip, fp, #56
 5620              	.LBE446:
 5621              	.LBB447:
 5622              		.loc 1 648 0
 5623 21fc 3C018DE5 		str	r0, [sp, #316]
 5624 2200 A0009DE5 		ldr	r0, [sp, #160]
 5625              	.LBE447:
 5626              	.LBB448:
 5627              		.loc 1 638 0
 5628 2204 BC108DE5 		str	r1, [sp, #188]
 5629              	.LBE448:
 5630              	.LBB449:
 5631              		.loc 1 639 0
 5632 2208 C0208DE5 		str	r2, [sp, #192]
 5633              	.LBE449:
 5634              	.LBB450:
 5635              		.loc 1 640 0
 5636 220c C4308DE5 		str	r3, [sp, #196]
 5637              	.LBE450:
 5638              	.LBB451:
 5639              		.loc 1 641 0
 5640 2210 C8408DE5 		str	r4, [sp, #200]
 5641              	.LBE451:
 5642              	.LBB452:
 5643              		.loc 1 642 0
 5644 2214 CC508DE5 		str	r5, [sp, #204]
 5645              	.LBE452:
 5646              	.LBB453:
 5647              		.loc 1 647 0
 5648 2218 38C18DE5 		str	ip, [sp, #312]
 5649              	.LBE453:
 5650              	.LBB454:
 5651              		.loc 1 649 0
 5652 221c 28108BE2 		add	r1, fp, #40
 5653              	.LBE454:
 5654              	.LBB455:
 5655              		.loc 1 650 0
 5656 2220 20208BE2 		add	r2, fp, #32
 5657              	.LBE455:
 5658              	.LBB456:
 5659              		.loc 1 651 0
 5660 2224 18308BE2 		add	r3, fp, #24
 5661              	.LBE456:
 5662              	.LBB457:
 5663              		.loc 1 652 0
 5664 2228 10408BE2 		add	r4, fp, #16
 5665              	.LBE457:
 5666              	.LBB458:
 5667              		.loc 1 653 0
 5668 222c 08508BE2 		add	r5, fp, #8
 5669 2230 00C0A0E3 		mov	ip, #0
 5670              	.LBE458:
ARM GAS  /cygdrive/c/DOCUME~1/mkwapisz/LOCALS~1/Temp/cc1OEM1Z.s 			page 117


 5671              	.LBB459:
 5672              		.loc 1 649 0
 5673 2234 40118DE5 		str	r1, [sp, #320]
 5674              	.LBE459:
 5675              	.LBB460:
 5676              		.loc 1 650 0
 5677 2238 44218DE5 		str	r2, [sp, #324]
 5678              	.LBE460:
 5679              	.LBB461:
 5680              		.loc 1 651 0
 5681 223c 48318DE5 		str	r3, [sp, #328]
 5682              	.LBE461:
 5683              	.LBB462:
 5684              		.loc 1 652 0
 5685 2240 4C418DE5 		str	r4, [sp, #332]
 5686              	.LBE462:
 5687              	.LBB463:
 5688              		.loc 1 653 0
 5689 2244 50518DE5 		str	r5, [sp, #336]
 5690 2248 D8C08DE5 		str	ip, [sp, #216]
 5691 224c 04008DE5 		str	r0, [sp, #4]
 5692 2250 750100EA 		b	.L62
 5693              	.LVL1198:
 5694              	.L63:
 5695              	.LBE463:
 5696              		.loc 1 620 0
 5697 2254 04109DE5 		ldr	r1, [sp, #4]
 5698 2258 A8209DE5 		ldr	r2, [sp, #168]
 5699 225c D4309DE5 		ldr	r3, [sp, #212]
 5700 2260 024081E0 		add	r4, r1, r2
 5701              	.LVL1199:
 5702 2264 08009DE5 		ldr	r0, [sp, #8]
 5703 2268 A310A0E1 		mov	r1, r3, lsr #1
 5704 226c 0420A0E1 		mov	r2, r4
 5705 2270 013B84E2 		add	r3, r4, #1024
 5706 2274 CDF7FFEB 		bl	dct32
 5707              		.loc 1 629 0
 5708 2278 04C09DE5 		ldr	ip, [sp, #4]
 5709 227c AC009DE5 		ldr	r0, [sp, #172]
 5710              	.LVL1200:
 5711              	.LBB464:
 5712              		.loc 1 635 0
 5713 2280 003099E5 		ldr	r3, [r9, #0]
 5714              	.LBE464:
 5715              		.loc 1 629 0
 5716 2284 00508CE0 		add	r5, ip, r0
 5717              	.LVL1201:
 5718              	.LBB465:
 5719              		.loc 1 635 0
 5720 2288 00209CE7 		ldr	r2, [ip, r0]
 5721              	.LVL1202:
 5722 228c 0410A0E1 		mov	r1, r4
 5723              	.LVL1203:
 5724 2290 0400A0E1 		mov	r0, r4
 5725 2294 FEFFFFEB 		bl	MAD_F_MLX
 5726              	.LVL1204:
 5727              	.LBE465:
ARM GAS  /cygdrive/c/DOCUME~1/mkwapisz/LOCALS~1/Temp/cc1OEM1Z.s 			page 118


 5728              	.LBB466:
 5729              		.loc 1 636 0
 5730 2298 B4C09DE5 		ldr	ip, [sp, #180]
 5731 229c 042095E5 		ldr	r2, [r5, #4]
 5732 22a0 00309CE5 		ldr	r3, [ip, #0]
 5733              	.LVL1205:
 5734 22a4 0410A0E1 		mov	r1, r4
 5735              	.LVL1206:
 5736 22a8 0400A0E1 		mov	r0, r4
 5737 22ac FEFFFFEB 		bl	MAD_F_MLX
 5738              	.LVL1207:
 5739              	.LBE466:
 5740              	.LBB467:
 5741              		.loc 1 637 0
 5742 22b0 B8C09DE5 		ldr	ip, [sp, #184]
 5743 22b4 082095E5 		ldr	r2, [r5, #8]
 5744 22b8 00309CE5 		ldr	r3, [ip, #0]
 5745              	.LVL1208:
 5746 22bc 0410A0E1 		mov	r1, r4
 5747              	.LVL1209:
 5748 22c0 0400A0E1 		mov	r0, r4
 5749 22c4 FEFFFFEB 		bl	MAD_F_MLX
 5750              	.LVL1210:
 5751              	.LBE467:
 5752              	.LBB468:
 5753              		.loc 1 638 0
 5754 22c8 BCC09DE5 		ldr	ip, [sp, #188]
 5755 22cc 0C2095E5 		ldr	r2, [r5, #12]
 5756 22d0 00309CE5 		ldr	r3, [ip, #0]
 5757              	.LVL1211:
 5758 22d4 0410A0E1 		mov	r1, r4
 5759              	.LVL1212:
 5760 22d8 0400A0E1 		mov	r0, r4
 5761 22dc FEFFFFEB 		bl	MAD_F_MLX
 5762              	.LVL1213:
 5763              	.LBE468:
 5764              	.LBB469:
 5765              		.loc 1 639 0
 5766 22e0 C0C09DE5 		ldr	ip, [sp, #192]
 5767 22e4 102095E5 		ldr	r2, [r5, #16]
 5768 22e8 00309CE5 		ldr	r3, [ip, #0]
 5769              	.LVL1214:
 5770 22ec 0410A0E1 		mov	r1, r4
 5771              	.LVL1215:
 5772 22f0 0400A0E1 		mov	r0, r4
 5773 22f4 FEFFFFEB 		bl	MAD_F_MLX
 5774              	.LVL1216:
 5775              	.LBE469:
 5776              	.LBB470:
 5777              		.loc 1 640 0
 5778 22f8 C4C09DE5 		ldr	ip, [sp, #196]
 5779 22fc 142095E5 		ldr	r2, [r5, #20]
 5780 2300 00309CE5 		ldr	r3, [ip, #0]
 5781              	.LVL1217:
 5782 2304 0410A0E1 		mov	r1, r4
 5783              	.LVL1218:
 5784 2308 0400A0E1 		mov	r0, r4
ARM GAS  /cygdrive/c/DOCUME~1/mkwapisz/LOCALS~1/Temp/cc1OEM1Z.s 			page 119


 5785 230c FEFFFFEB 		bl	MAD_F_MLX
 5786              	.LVL1219:
 5787              	.LBE470:
 5788              	.LBB471:
 5789              		.loc 1 641 0
 5790 2310 C8C09DE5 		ldr	ip, [sp, #200]
 5791 2314 182095E5 		ldr	r2, [r5, #24]
 5792 2318 00309CE5 		ldr	r3, [ip, #0]
 5793              	.LVL1220:
 5794 231c 0410A0E1 		mov	r1, r4
 5795              	.LVL1221:
 5796 2320 0400A0E1 		mov	r0, r4
 5797 2324 FEFFFFEB 		bl	MAD_F_MLX
 5798              	.LVL1222:
 5799              	.LBE471:
 5800              	.LBB472:
 5801              		.loc 1 642 0
 5802 2328 CCC09DE5 		ldr	ip, [sp, #204]
 5803 232c 1C2095E5 		ldr	r2, [r5, #28]
 5804 2330 00309CE5 		ldr	r3, [ip, #0]
 5805              	.LVL1223:
 5806 2334 0410A0E1 		mov	r1, r4
 5807              	.LVL1224:
 5808 2338 0400A0E1 		mov	r0, r4
 5809 233c FEFFFFEB 		bl	MAD_F_MLX
 5810              	.LVL1225:
 5811              	.LBE472:
 5812              	.LBB473:
 5813              		.loc 1 646 0
 5814 2340 04309DE5 		ldr	r3, [sp, #4]
 5815 2344 A8C09DE5 		ldr	ip, [sp, #168]
 5816              	.LVL1226:
 5817 2348 0410A0E1 		mov	r1, r4
 5818 234c 0C2093E7 		ldr	r2, [r3, ip]
 5819              	.LVL1227:
 5820 2350 0400A0E1 		mov	r0, r4
 5821 2354 00309BE5 		ldr	r3, [fp, #0]
 5822 2358 FEFFFFEB 		bl	MAD_F_MLX
 5823              	.LVL1228:
 5824              	.LBE473:
 5825              	.LBB474:
 5826              		.loc 1 647 0
 5827 235c 38C19DE5 		ldr	ip, [sp, #312]
 5828              	.LVL1229:
 5829 2360 0910A0E1 		mov	r1, r9
 5830 2364 00309CE5 		ldr	r3, [ip, #0]
 5831              	.LVL1230:
 5832 2368 042094E5 		ldr	r2, [r4, #4]
 5833              	.LVL1231:
 5834 236c 0400A0E1 		mov	r0, r4
 5835 2370 FEFFFFEB 		bl	MAD_F_MLX
 5836              	.LBE474:
 5837              	.LBB475:
 5838              		.loc 1 648 0
 5839 2374 3CC19DE5 		ldr	ip, [sp, #316]
 5840              	.LVL1232:
 5841 2378 0410A0E1 		mov	r1, r4
ARM GAS  /cygdrive/c/DOCUME~1/mkwapisz/LOCALS~1/Temp/cc1OEM1Z.s 			page 120


 5842 237c 00309CE5 		ldr	r3, [ip, #0]
 5843              	.LVL1233:
 5844 2380 082094E5 		ldr	r2, [r4, #8]
 5845              	.LVL1234:
 5846 2384 0400A0E1 		mov	r0, r4
 5847 2388 FEFFFFEB 		bl	MAD_F_MLX
 5848              	.LVL1235:
 5849              	.LBE475:
 5850              	.LBB476:
 5851              		.loc 1 649 0
 5852 238c 40C19DE5 		ldr	ip, [sp, #320]
 5853              	.LVL1236:
 5854 2390 0410A0E1 		mov	r1, r4
 5855 2394 00309CE5 		ldr	r3, [ip, #0]
 5856              	.LVL1237:
 5857 2398 0C2094E5 		ldr	r2, [r4, #12]
 5858              	.LVL1238:
 5859 239c 0400A0E1 		mov	r0, r4
 5860 23a0 FEFFFFEB 		bl	MAD_F_MLX
 5861              	.LVL1239:
 5862              	.LBE476:
 5863              	.LBB477:
 5864              		.loc 1 650 0
 5865 23a4 44C19DE5 		ldr	ip, [sp, #324]
 5866              	.LVL1240:
 5867 23a8 0410A0E1 		mov	r1, r4
 5868 23ac 00309CE5 		ldr	r3, [ip, #0]
 5869              	.LVL1241:
 5870 23b0 102094E5 		ldr	r2, [r4, #16]
 5871              	.LVL1242:
 5872 23b4 0400A0E1 		mov	r0, r4
 5873 23b8 FEFFFFEB 		bl	MAD_F_MLX
 5874              	.LVL1243:
 5875              	.LBE477:
 5876              	.LBB478:
 5877              		.loc 1 651 0
 5878 23bc 48C19DE5 		ldr	ip, [sp, #328]
 5879              	.LVL1244:
 5880 23c0 0410A0E1 		mov	r1, r4
 5881 23c4 00309CE5 		ldr	r3, [ip, #0]
 5882              	.LVL1245:
 5883 23c8 142094E5 		ldr	r2, [r4, #20]
 5884              	.LVL1246:
 5885 23cc 0400A0E1 		mov	r0, r4
 5886 23d0 FEFFFFEB 		bl	MAD_F_MLX
 5887              	.LVL1247:
 5888              	.LBE478:
 5889              	.LBB479:
 5890              		.loc 1 652 0
 5891 23d4 4CC19DE5 		ldr	ip, [sp, #332]
 5892              	.LVL1248:
 5893 23d8 0410A0E1 		mov	r1, r4
 5894 23dc 00309CE5 		ldr	r3, [ip, #0]
 5895              	.LVL1249:
 5896 23e0 182094E5 		ldr	r2, [r4, #24]
 5897              	.LVL1250:
 5898 23e4 0400A0E1 		mov	r0, r4
ARM GAS  /cygdrive/c/DOCUME~1/mkwapisz/LOCALS~1/Temp/cc1OEM1Z.s 			page 121


 5899 23e8 FEFFFFEB 		bl	MAD_F_MLX
 5900              	.LVL1251:
 5901              	.LBE479:
 5902              	.LBB480:
 5903              		.loc 1 653 0
 5904 23ec 50C19DE5 		ldr	ip, [sp, #336]
 5905              	.LVL1252:
 5906 23f0 0410A0E1 		mov	r1, r4
 5907              	.LVL1253:
 5908 23f4 1C2094E5 		ldr	r2, [r4, #28]
 5909 23f8 00309CE5 		ldr	r3, [ip, #0]
 5910              	.LVL1254:
 5911 23fc 0400A0E1 		mov	r0, r4
 5912 2400 FEFFFFEB 		bl	MAD_F_MLX
 5913              	.LVL1255:
 5914              	.LBE480:
 5915              		.loc 1 656 0
 5916 2404 E4009DE5 		ldr	r0, [sp, #228]
 5917 2408 FCF6FFEB 		bl	scale
 5918              		.loc 1 618 0
 5919 240c D8309DE5 		ldr	r3, [sp, #216]
 5920 2410 571F8DE2 		add	r1, sp, #348
 5921 2414 0323A0E1 		mov	r2, r3, asl #6
 5922              		.loc 1 656 0
 5923 2418 B23091E1 		ldrh	r3, [r1, r2]
 5924 241c 003083E0 		add	r3, r3, r0
 5925              		.loc 1 618 0
 5926 2420 020081E0 		add	r0, r1, r2
 5927              	.LVL1256:
 5928              		.loc 1 657 0
 5929 2424 0080A0E1 		mov	r8, r0
 5930              	.LVL1257:
 5931 2428 020080E2 		add	r0, r0, #2
 5932              	.LVL1258:
 5933 242c 0560A0E1 		mov	r6, r5
 5934              		.loc 1 656 0
 5935 2430 B23081E1 		strh	r3, [r1, r2]	@ movhi
 5936              		.loc 1 630 0
 5937 2434 015B85E2 		add	r5, r5, #1024
 5938              	.LVL1259:
 5939              		.loc 1 657 0
 5940 2438 48A49FE5 		ldr	sl, .L70
 5941              	.LVL1260:
 5942 243c 54018DE5 		str	r0, [sp, #340]
 5943              		.loc 1 630 0
 5944 2440 58518DE5 		str	r5, [sp, #344]
 5945              	.LVL1261:
 5946              		.loc 1 657 0
 5947 2444 0470A0E1 		mov	r7, r4
 5948 2448 0850A0E1 		mov	r5, r8
 5949              	.L64:
 5950              		.loc 1 667 0
 5951 244c B0C09DE5 		ldr	ip, [sp, #176]
 5952              		.loc 1 663 0
 5953 2450 80A08AE2 		add	sl, sl, #128
 5954              		.loc 1 667 0
 5955 2454 0C408AE0 		add	r4, sl, ip
ARM GAS  /cygdrive/c/DOCUME~1/mkwapisz/LOCALS~1/Temp/cc1OEM1Z.s 			page 122


 5956              	.LVL1262:
 5957              	.LBB481:
 5958              		.loc 1 668 0
 5959 2458 0C309AE7 		ldr	r3, [sl, ip]
 5960 245c 002496E5 		ldr	r2, [r6, #1024]
 5961              	.LVL1263:
 5962 2460 0410A0E1 		mov	r1, r4
 5963              	.LVL1264:
 5964 2464 0400A0E1 		mov	r0, r4
 5965 2468 FEFFFFEB 		bl	MAD_F_MLX
 5966              	.LVL1265:
 5967              	.LBE481:
 5968              	.LBB482:
 5969              		.loc 1 669 0
 5970 246c 042496E5 		ldr	r2, [r6, #1028]
 5971              	.LVL1266:
 5972 2470 383094E5 		ldr	r3, [r4, #56]
 5973              	.LVL1267:
 5974 2474 0400A0E1 		mov	r0, r4
 5975              	.LVL1268:
 5976 2478 0910A0E1 		mov	r1, r9
 5977 247c FEFFFFEB 		bl	MAD_F_MLX
 5978              	.LBE482:
 5979              	.LBB483:
 5980              		.loc 1 670 0
 5981 2480 082496E5 		ldr	r2, [r6, #1032]
 5982              	.LVL1269:
 5983 2484 303094E5 		ldr	r3, [r4, #48]
 5984              	.LVL1270:
 5985 2488 0400A0E1 		mov	r0, r4
 5986              	.LVL1271:
 5987 248c 0A10A0E1 		mov	r1, sl
 5988 2490 FEFFFFEB 		bl	MAD_F_MLX
 5989              	.LVL1272:
 5990              	.LBE483:
 5991              	.LBB484:
 5992              		.loc 1 671 0
 5993 2494 0410A0E1 		mov	r1, r4
 5994 2498 0C2496E5 		ldr	r2, [r6, #1036]
 5995              	.LVL1273:
 5996 249c 283094E5 		ldr	r3, [r4, #40]
 5997              	.LVL1274:
 5998 24a0 0400A0E1 		mov	r0, r4
 5999 24a4 FEFFFFEB 		bl	MAD_F_MLX
 6000              	.LVL1275:
 6001              	.LVL1276:
 6002              	.LBE484:
 6003              	.LBB485:
 6004              		.loc 1 672 0
 6005 24a8 0410A0E1 		mov	r1, r4
 6006 24ac 102496E5 		ldr	r2, [r6, #1040]
 6007              	.LVL1277:
 6008 24b0 203094E5 		ldr	r3, [r4, #32]
 6009              	.LVL1278:
 6010 24b4 0400A0E1 		mov	r0, r4
 6011 24b8 FEFFFFEB 		bl	MAD_F_MLX
 6012              	.LVL1279:
ARM GAS  /cygdrive/c/DOCUME~1/mkwapisz/LOCALS~1/Temp/cc1OEM1Z.s 			page 123


 6013              	.LVL1280:
 6014              	.LBE485:
 6015              	.LBB486:
 6016              		.loc 1 673 0
 6017 24bc 0510A0E1 		mov	r1, r5
 6018 24c0 142496E5 		ldr	r2, [r6, #1044]
 6019              	.LVL1281:
 6020 24c4 183094E5 		ldr	r3, [r4, #24]
 6021              	.LVL1282:
 6022 24c8 0400A0E1 		mov	r0, r4
 6023 24cc FEFFFFEB 		bl	MAD_F_MLX
 6024              	.LVL1283:
 6025              	.LBE486:
 6026              	.LBB487:
 6027              		.loc 1 674 0
 6028 24d0 0410A0E1 		mov	r1, r4
 6029 24d4 182496E5 		ldr	r2, [r6, #1048]
 6030              	.LVL1284:
 6031 24d8 103094E5 		ldr	r3, [r4, #16]
 6032              	.LVL1285:
 6033 24dc 0400A0E1 		mov	r0, r4
 6034 24e0 FEFFFFEB 		bl	MAD_F_MLX
 6035              	.LVL1286:
 6036              	.LBE487:
 6037              		.loc 1 678 0
 6038 24e4 D0209DE5 		ldr	r2, [sp, #208]
 6039              	.LVL1287:
 6040              	.LBB488:
 6041              		.loc 1 675 0
 6042 24e8 0410A0E1 		mov	r1, r4
 6043              	.LVL1288:
 6044 24ec 083094E5 		ldr	r3, [r4, #8]
 6045              	.LVL1289:
 6046 24f0 0400A0E1 		mov	r0, r4
 6047              	.LVL1290:
 6048              	.LBE488:
 6049              		.loc 1 678 0
 6050 24f4 02408AE0 		add	r4, sl, r2
 6051              	.LVL1291:
 6052              	.LBB489:
 6053              		.loc 1 675 0
 6054 24f8 1C2496E5 		ldr	r2, [r6, #1052]
 6055 24fc FEFFFFEB 		bl	MAD_F_MLX
 6056              	.LVL1292:
 6057              	.LBE489:
 6058              	.LBB490:
 6059              		.loc 1 680 0
 6060 2500 3C2097E5 		ldr	r2, [r7, #60]
 6061 2504 083094E5 		ldr	r3, [r4, #8]
 6062              	.LVL1293:
 6063 2508 0410A0E1 		mov	r1, r4
 6064              	.LVL1294:
 6065 250c 0400A0E1 		mov	r0, r4
 6066 2510 FEFFFFEB 		bl	MAD_F_MLX
 6067              	.LVL1295:
 6068              	.LBE490:
 6069              	.LBB491:
ARM GAS  /cygdrive/c/DOCUME~1/mkwapisz/LOCALS~1/Temp/cc1OEM1Z.s 			page 124


 6070              		.loc 1 681 0
 6071 2514 382097E5 		ldr	r2, [r7, #56]
 6072              	.LVL1296:
 6073 2518 103094E5 		ldr	r3, [r4, #16]
 6074              	.LVL1297:
 6075 251c 0400A0E1 		mov	r0, r4
 6076              	.LVL1298:
 6077 2520 0A10A0E1 		mov	r1, sl
 6078 2524 FEFFFFEB 		bl	MAD_F_MLX
 6079              	.LVL1299:
 6080              	.LBE491:
 6081              	.LBB492:
 6082              		.loc 1 682 0
 6083 2528 0410A0E1 		mov	r1, r4
 6084 252c 342097E5 		ldr	r2, [r7, #52]
 6085              	.LVL1300:
 6086 2530 183094E5 		ldr	r3, [r4, #24]
 6087              	.LVL1301:
 6088 2534 0400A0E1 		mov	r0, r4
 6089 2538 FEFFFFEB 		bl	MAD_F_MLX
 6090              	.LVL1302:
 6091              	.LVL1303:
 6092              	.LBE492:
 6093              	.LBB493:
 6094              		.loc 1 683 0
 6095 253c 0510A0E1 		mov	r1, r5
 6096 2540 302097E5 		ldr	r2, [r7, #48]
 6097              	.LVL1304:
 6098 2544 203094E5 		ldr	r3, [r4, #32]
 6099              	.LVL1305:
 6100 2548 0400A0E1 		mov	r0, r4
 6101 254c FEFFFFEB 		bl	MAD_F_MLX
 6102              	.LVL1306:
 6103              	.LBE493:
 6104              	.LBB494:
 6105              		.loc 1 684 0
 6106 2550 0410A0E1 		mov	r1, r4
 6107 2554 2C2097E5 		ldr	r2, [r7, #44]
 6108              	.LVL1307:
 6109 2558 283094E5 		ldr	r3, [r4, #40]
 6110              	.LVL1308:
 6111 255c 0400A0E1 		mov	r0, r4
 6112 2560 FEFFFFEB 		bl	MAD_F_MLX
 6113              	.LVL1309:
 6114              	.LVL1310:
 6115              	.LBE494:
 6116              	.LBB495:
 6117              		.loc 1 685 0
 6118 2564 0410A0E1 		mov	r1, r4
 6119 2568 282097E5 		ldr	r2, [r7, #40]
 6120              	.LVL1311:
 6121 256c 303094E5 		ldr	r3, [r4, #48]
 6122              	.LVL1312:
 6123 2570 0400A0E1 		mov	r0, r4
 6124 2574 FEFFFFEB 		bl	MAD_F_MLX
 6125              	.LVL1313:
 6126              	.LVL1314:
ARM GAS  /cygdrive/c/DOCUME~1/mkwapisz/LOCALS~1/Temp/cc1OEM1Z.s 			page 125


 6127              	.LBE495:
 6128              	.LBB496:
 6129              		.loc 1 686 0
 6130 2578 0410A0E1 		mov	r1, r4
 6131              	.LVL1315:
 6132 257c 383094E5 		ldr	r3, [r4, #56]
 6133 2580 242097E5 		ldr	r2, [r7, #36]
 6134              	.LVL1316:
 6135 2584 0400A0E1 		mov	r0, r4
 6136 2588 FEFFFFEB 		bl	MAD_F_MLX
 6137              	.LVL1317:
 6138              	.LVL1318:
 6139              	.LBE496:
 6140              	.LBB497:
 6141              		.loc 1 687 0
 6142 258c 0400A0E1 		mov	r0, r4
 6143 2590 D0409DE5 		ldr	r4, [sp, #208]
 6144              	.LVL1319:
 6145 2594 0510A0E1 		mov	r1, r5
 6146 2598 202097E5 		ldr	r2, [r7, #32]
 6147              	.LVL1320:
 6148 259c 04309AE7 		ldr	r3, [sl, r4]
 6149 25a0 FEFFFFEB 		bl	MAD_F_MLX
 6150              	.LVL1321:
 6151              	.LBE497:
 6152              		.loc 1 690 0
 6153 25a4 EC009DE5 		ldr	r0, [sp, #236]
 6154 25a8 94F6FFEB 		bl	scale
 6155              	.LVL1322:
 6156 25ac B2C0D5E1 		ldrh	ip, [r5, #2]
 6157 25b0 00008CE0 		add	r0, ip, r0
 6158 25b4 0C008DE5 		str	r0, [sp, #12]
 6159              		.loc 1 693 0
 6160 25b8 D0409DE5 		ldr	r4, [sp, #208]
 6161              		.loc 1 690 0
 6162 25bc 0CC09DE5 		ldr	ip, [sp, #12]
 6163              		.loc 1 693 0
 6164 25c0 0A4064E0 		rsb	r4, r4, sl
 6165              	.LVL1323:
 6166              		.loc 1 690 0
 6167 25c4 B2C0E5E1 		strh	ip, [r5, #2]!	@ movhi
 6168              	.LBB498:
 6169              		.loc 1 694 0
 6170 25c8 202097E5 		ldr	r2, [r7, #32]
 6171 25cc 3C3094E5 		ldr	r3, [r4, #60]
 6172              	.LVL1324:
 6173 25d0 0410A0E1 		mov	r1, r4
 6174              	.LVL1325:
 6175 25d4 0400A0E1 		mov	r0, r4
 6176 25d8 FEFFFFEB 		bl	MAD_F_MLX
 6177              	.LVL1326:
 6178              	.LVL1327:
 6179              	.LBE498:
 6180              	.LBB499:
 6181              		.loc 1 695 0
 6182 25dc 0810A0E1 		mov	r1, r8
 6183 25e0 242097E5 		ldr	r2, [r7, #36]
ARM GAS  /cygdrive/c/DOCUME~1/mkwapisz/LOCALS~1/Temp/cc1OEM1Z.s 			page 126


 6184              	.LVL1328:
 6185 25e4 443094E5 		ldr	r3, [r4, #68]
 6186              	.LVL1329:
 6187 25e8 0400A0E1 		mov	r0, r4
 6188 25ec FEFFFFEB 		bl	MAD_F_MLX
 6189              	.LVL1330:
 6190              	.LBE499:
 6191              	.LBB500:
 6192              		.loc 1 696 0
 6193 25f0 0410A0E1 		mov	r1, r4
 6194 25f4 282097E5 		ldr	r2, [r7, #40]
 6195              	.LVL1331:
 6196 25f8 4C3094E5 		ldr	r3, [r4, #76]
 6197              	.LVL1332:
 6198 25fc 0400A0E1 		mov	r0, r4
 6199 2600 FEFFFFEB 		bl	MAD_F_MLX
 6200              	.LVL1333:
 6201              	.LVL1334:
 6202              	.LBE500:
 6203              	.LBB501:
 6204              		.loc 1 697 0
 6205 2604 0410A0E1 		mov	r1, r4
 6206 2608 2C2097E5 		ldr	r2, [r7, #44]
 6207              	.LVL1335:
 6208 260c 543094E5 		ldr	r3, [r4, #84]
 6209              	.LVL1336:
 6210 2610 0400A0E1 		mov	r0, r4
 6211 2614 FEFFFFEB 		bl	MAD_F_MLX
 6212              	.LVL1337:
 6213              	.LVL1338:
 6214              	.LBE501:
 6215              	.LBB502:
 6216              		.loc 1 698 0
 6217 2618 0610A0E1 		mov	r1, r6
 6218 261c 302097E5 		ldr	r2, [r7, #48]
 6219              	.LVL1339:
 6220 2620 5C3094E5 		ldr	r3, [r4, #92]
 6221              	.LVL1340:
 6222 2624 0400A0E1 		mov	r0, r4
 6223 2628 FEFFFFEB 		bl	MAD_F_MLX
 6224              	.LVL1341:
 6225              	.LBE502:
 6226              	.LBB503:
 6227              		.loc 1 699 0
 6228 262c 0710A0E1 		mov	r1, r7
 6229              	.LVL1342:
 6230 2630 342097E5 		ldr	r2, [r7, #52]
 6231              	.LVL1343:
 6232 2634 643094E5 		ldr	r3, [r4, #100]
 6233              	.LVL1344:
 6234 2638 0400A0E1 		mov	r0, r4
 6235 263c FEFFFFEB 		bl	MAD_F_MLX
 6236              	.LVL1345:
 6237              	.LVL1346:
 6238              	.LBE503:
 6239              	.LBB504:
 6240              		.loc 1 700 0
ARM GAS  /cygdrive/c/DOCUME~1/mkwapisz/LOCALS~1/Temp/cc1OEM1Z.s 			page 127


 6241 2640 0410A0E1 		mov	r1, r4
 6242 2644 382097E5 		ldr	r2, [r7, #56]
 6243              	.LVL1347:
 6244 2648 6C3094E5 		ldr	r3, [r4, #108]
 6245              	.LVL1348:
 6246 264c 0400A0E1 		mov	r0, r4
 6247 2650 FEFFFFEB 		bl	MAD_F_MLX
 6248              	.LVL1349:
 6249              	.LBE504:
 6250              		.loc 1 703 0
 6251 2654 B0209DE5 		ldr	r2, [sp, #176]
 6252              	.LVL1350:
 6253              	.LBB505:
 6254              		.loc 1 701 0
 6255 2658 0410A0E1 		mov	r1, r4
 6256              	.LVL1351:
 6257 265c 743094E5 		ldr	r3, [r4, #116]
 6258              	.LVL1352:
 6259 2660 0400A0E1 		mov	r0, r4
 6260              	.LBE505:
 6261              		.loc 1 703 0
 6262 2664 0A4062E0 		rsb	r4, r2, sl
 6263              	.LVL1353:
 6264              	.LBB506:
 6265              		.loc 1 701 0
 6266 2668 3C2097E5 		ldr	r2, [r7, #60]
 6267 266c FEFFFFEB 		bl	MAD_F_MLX
 6268              	.LVL1354:
 6269              	.LVL1355:
 6270              	.LBE506:
 6271              	.LBB507:
 6272              		.loc 1 704 0
 6273 2670 1C2496E5 		ldr	r2, [r6, #1052]
 6274 2674 743094E5 		ldr	r3, [r4, #116]
 6275              	.LVL1356:
 6276 2678 0410A0E1 		mov	r1, r4
 6277              	.LVL1357:
 6278 267c 0400A0E1 		mov	r0, r4
 6279 2680 FEFFFFEB 		bl	MAD_F_MLX
 6280              	.LVL1358:
 6281              	.LBE507:
 6282              	.LBB508:
 6283              		.loc 1 705 0
 6284 2684 182496E5 		ldr	r2, [r6, #1048]
 6285              	.LVL1359:
 6286 2688 0410A0E1 		mov	r1, r4
 6287              	.LVL1360:
 6288 268c 6C3094E5 		ldr	r3, [r4, #108]
 6289              	.LVL1361:
 6290 2690 0400A0E1 		mov	r0, r4
 6291 2694 FEFFFFEB 		bl	MAD_F_MLX
 6292              	.LVL1362:
 6293              	.LVL1363:
 6294              	.LBE508:
 6295              	.LBB509:
 6296              		.loc 1 706 0
 6297 2698 0610A0E1 		mov	r1, r6
ARM GAS  /cygdrive/c/DOCUME~1/mkwapisz/LOCALS~1/Temp/cc1OEM1Z.s 			page 128


 6298              	.LVL1364:
 6299 269c 142496E5 		ldr	r2, [r6, #1044]
 6300              	.LVL1365:
 6301 26a0 643094E5 		ldr	r3, [r4, #100]
 6302              	.LVL1366:
 6303 26a4 0400A0E1 		mov	r0, r4
 6304 26a8 FEFFFFEB 		bl	MAD_F_MLX
 6305              	.LVL1367:
 6306              	.LVL1368:
 6307              	.LBE509:
 6308              	.LBB510:
 6309              		.loc 1 707 0
 6310 26ac 0710A0E1 		mov	r1, r7
 6311 26b0 102496E5 		ldr	r2, [r6, #1040]
 6312              	.LVL1369:
 6313 26b4 5C3094E5 		ldr	r3, [r4, #92]
 6314              	.LVL1370:
 6315 26b8 0400A0E1 		mov	r0, r4
 6316 26bc FEFFFFEB 		bl	MAD_F_MLX
 6317              	.LBE510:
 6318              	.LBB511:
 6319              		.loc 1 708 0
 6320 26c0 0C2496E5 		ldr	r2, [r6, #1036]
 6321              	.LVL1371:
 6322 26c4 0410A0E1 		mov	r1, r4
 6323              	.LVL1372:
 6324 26c8 543094E5 		ldr	r3, [r4, #84]
 6325              	.LVL1373:
 6326 26cc 0400A0E1 		mov	r0, r4
 6327 26d0 FEFFFFEB 		bl	MAD_F_MLX
 6328              	.LVL1374:
 6329              	.LBE511:
 6330              	.LBB512:
 6331              		.loc 1 709 0
 6332 26d4 082496E5 		ldr	r2, [r6, #1032]
 6333              	.LVL1375:
 6334 26d8 0410A0E1 		mov	r1, r4
 6335              	.LVL1376:
 6336 26dc 4C3094E5 		ldr	r3, [r4, #76]
 6337              	.LVL1377:
 6338 26e0 0400A0E1 		mov	r0, r4
 6339 26e4 FEFFFFEB 		bl	MAD_F_MLX
 6340              	.LVL1378:
 6341              	.LVL1379:
 6342              	.LBE512:
 6343              	.LBB513:
 6344              		.loc 1 710 0
 6345 26e8 0610A0E1 		mov	r1, r6
 6346              	.LVL1380:
 6347 26ec 042496E5 		ldr	r2, [r6, #1028]
 6348              	.LVL1381:
 6349 26f0 443094E5 		ldr	r3, [r4, #68]
 6350              	.LVL1382:
 6351 26f4 0400A0E1 		mov	r0, r4
 6352 26f8 FEFFFFEB 		bl	MAD_F_MLX
 6353              	.LVL1383:
 6354              	.LBE513:
ARM GAS  /cygdrive/c/DOCUME~1/mkwapisz/LOCALS~1/Temp/cc1OEM1Z.s 			page 129


 6355              	.LBB514:
 6356              		.loc 1 711 0
 6357 26fc 002496E5 		ldr	r2, [r6, #1024]
 6358              	.LVL1384:
 6359 2700 0710A0E1 		mov	r1, r7
 6360              	.LVL1385:
 6361 2704 3C3094E5 		ldr	r3, [r4, #60]
 6362              	.LVL1386:
 6363 2708 0400A0E1 		mov	r0, r4
 6364 270c FEFFFFEB 		bl	MAD_F_MLX
 6365              	.LBE514:
 6366              		.loc 1 714 0
 6367 2710 F0009DE5 		ldr	r0, [sp, #240]
 6368 2714 39F6FFEB 		bl	scale
 6369              	.LVL1387:
 6370 2718 BE33D8E1 		ldrh	r3, [r8, #62]
 6371              		.loc 1 660 0
 6372 271c 68219FE5 		ldr	r2, .L70+4
 6373              		.loc 1 714 0
 6374 2720 003083E0 		add	r3, r3, r0
 6375              		.loc 1 660 0
 6376 2724 02005AE1 		cmp	sl, r2
 6377              		.loc 1 714 0
 6378 2728 BE33C8E1 		strh	r3, [r8, #62]	@ movhi
 6379              	.LVL1388:
 6380 272c 207087E2 		add	r7, r7, #32
 6381 2730 206086E2 		add	r6, r6, #32
 6382 2734 028048E2 		sub	r8, r8, #2
 6383              		.loc 1 660 0
 6384 2738 43FFFF1A 		bne	.L64
 6385              	.LBB515:
 6386              		.loc 1 723 0
 6387 273c B0509DE5 		ldr	r5, [sp, #176]
 6388 2740 58319DE5 		ldr	r3, [sp, #344]
 6389              	.LBE515:
 6390              		.loc 1 660 0
 6391 2744 58C19DE5 		ldr	ip, [sp, #344]
 6392              		.loc 1 722 0
 6393 2748 80408AE2 		add	r4, sl, #128
 6394              	.LVL1389:
 6395              	.LBB516:
 6396              		.loc 1 723 0
 6397 274c E02193E5 		ldr	r2, [r3, #480]
 6398 2750 043095E7 		ldr	r3, [r5, r4]
 6399              	.LBE516:
 6400              		.loc 1 722 0
 6401 2754 044085E0 		add	r4, r5, r4
 6402              	.LVL1390:
 6403              	.LVL1391:
 6404              	.LBB517:
 6405              		.loc 1 723 0
 6406 2758 0400A0E1 		mov	r0, r4
 6407              	.LBE517:
 6408              		.loc 1 660 0
 6409 275c 1E5E8CE2 		add	r5, ip, #480
 6410              	.LVL1392:
 6411              	.LVL1393:
ARM GAS  /cygdrive/c/DOCUME~1/mkwapisz/LOCALS~1/Temp/cc1OEM1Z.s 			page 130


 6412              	.LBB518:
 6413              		.loc 1 723 0
 6414 2760 0810A0E1 		mov	r1, r8
 6415 2764 FEFFFFEB 		bl	MAD_F_MLX
 6416              	.LVL1394:
 6417              	.LBE518:
 6418              	.LBB519:
 6419              		.loc 1 724 0
 6420 2768 0410A0E1 		mov	r1, r4
 6421              	.LVL1395:
 6422 276c 383094E5 		ldr	r3, [r4, #56]
 6423              	.LVL1396:
 6424 2770 0400A0E1 		mov	r0, r4
 6425 2774 042095E5 		ldr	r2, [r5, #4]
 6426 2778 FEFFFFEB 		bl	MAD_F_MLX
 6427              	.LVL1397:
 6428              	.LVL1398:
 6429              	.LBE519:
 6430              	.LBB520:
 6431              		.loc 1 725 0
 6432 277c 0410A0E1 		mov	r1, r4
 6433              	.LVL1399:
 6434 2780 303094E5 		ldr	r3, [r4, #48]
 6435              	.LVL1400:
 6436 2784 0400A0E1 		mov	r0, r4
 6437 2788 082095E5 		ldr	r2, [r5, #8]
 6438 278c FEFFFFEB 		bl	MAD_F_MLX
 6439              	.LVL1401:
 6440              	.LVL1402:
 6441              	.LBE520:
 6442              	.LBB521:
 6443              		.loc 1 726 0
 6444 2790 0410A0E1 		mov	r1, r4
 6445              	.LVL1403:
 6446 2794 283094E5 		ldr	r3, [r4, #40]
 6447              	.LVL1404:
 6448 2798 0400A0E1 		mov	r0, r4
 6449 279c 0C2095E5 		ldr	r2, [r5, #12]
 6450 27a0 FEFFFFEB 		bl	MAD_F_MLX
 6451              	.LVL1405:
 6452              	.LVL1406:
 6453              	.LBE521:
 6454              	.LBB522:
 6455              		.loc 1 727 0
 6456 27a4 0410A0E1 		mov	r1, r4
 6457              	.LVL1407:
 6458 27a8 203094E5 		ldr	r3, [r4, #32]
 6459              	.LVL1408:
 6460 27ac 0400A0E1 		mov	r0, r4
 6461 27b0 102095E5 		ldr	r2, [r5, #16]
 6462 27b4 FEFFFFEB 		bl	MAD_F_MLX
 6463              	.LVL1409:
 6464              	.LVL1410:
 6465              	.LBE522:
 6466              	.LBB523:
 6467              		.loc 1 728 0
 6468 27b8 0410A0E1 		mov	r1, r4
ARM GAS  /cygdrive/c/DOCUME~1/mkwapisz/LOCALS~1/Temp/cc1OEM1Z.s 			page 131


 6469              	.LVL1411:
 6470 27bc 183094E5 		ldr	r3, [r4, #24]
 6471              	.LVL1412:
 6472 27c0 0400A0E1 		mov	r0, r4
 6473 27c4 142095E5 		ldr	r2, [r5, #20]
 6474 27c8 FEFFFFEB 		bl	MAD_F_MLX
 6475              	.LVL1413:
 6476              	.LVL1414:
 6477              	.LBE523:
 6478              	.LBB524:
 6479              		.loc 1 729 0
 6480 27cc 0410A0E1 		mov	r1, r4
 6481              	.LVL1415:
 6482 27d0 103094E5 		ldr	r3, [r4, #16]
 6483              	.LVL1416:
 6484 27d4 0400A0E1 		mov	r0, r4
 6485 27d8 182095E5 		ldr	r2, [r5, #24]
 6486 27dc FEFFFFEB 		bl	MAD_F_MLX
 6487              	.LVL1417:
 6488              	.LVL1418:
 6489              	.LBE524:
 6490              	.LBB525:
 6491              		.loc 1 730 0
 6492 27e0 0410A0E1 		mov	r1, r4
 6493              	.LVL1419:
 6494 27e4 083094E5 		ldr	r3, [r4, #8]
 6495 27e8 1C2095E5 		ldr	r2, [r5, #28]
 6496              	.LVL1420:
 6497 27ec 0400A0E1 		mov	r0, r4
 6498 27f0 FEFFFFEB 		bl	MAD_F_MLX
 6499              	.LVL1421:
 6500              	.LBE525:
 6501              		.loc 1 733 0
 6502 27f4 E8009DE5 		ldr	r0, [sp, #232]
 6503 27f8 00F6FFEB 		bl	scale
 6504 27fc 54119DE5 		ldr	r1, [sp, #340]
 6505 2800 BE31D1E1 		ldrh	r3, [r1, #30]
 6506 2804 003083E0 		add	r3, r3, r0
 6507              		.loc 1 614 0
 6508 2808 D8209DE5 		ldr	r2, [sp, #216]
 6509 280c 08409DE5 		ldr	r4, [sp, #8]
 6510              	.LVL1422:
 6511              		.loc 1 733 0
 6512 2810 BE31C1E1 		strh	r3, [r1, #30]	@ movhi
 6513 2814 04309DE5 		ldr	r3, [sp, #4]
 6514              		.loc 1 614 0
 6515 2818 012082E2 		add	r2, r2, #1
 6516 281c 023B83E2 		add	r3, r3, #2048
 6517 2820 124C84E2 		add	r4, r4, #4608
 6518 2824 D8208DE5 		str	r2, [sp, #216]
 6519 2828 18008DE9 		stmib	sp, {r3, r4}	@ phole stm
 6520              	.LVL1423:
 6521              	.L62:
 6522 282c D8509DE5 		ldr	r5, [sp, #216]
 6523              	.LVL1424:
 6524 2830 98C09DE5 		ldr	ip, [sp, #152]
 6525 2834 0C0055E1 		cmp	r5, ip
ARM GAS  /cygdrive/c/DOCUME~1/mkwapisz/LOCALS~1/Temp/cc1OEM1Z.s 			page 132


 6526 2838 85FEFF1A 		bne	.L63
 6527              		.loc 1 739 0
 6528 283c A4109DE5 		ldr	r1, [sp, #164]
 6529 2840 0C30A0E1 		mov	r3, ip
 6530 2844 570F8DE2 		add	r0, sp, #348
 6531 2848 2020A0E3 		mov	r2, #32
 6532 284c FEFFFFEB 		bl	render_sample_block
 6533              		.loc 1 741 0
 6534 2850 D4009DE5 		ldr	r0, [sp, #212]
 6535              		.loc 1 609 0
 6536 2854 DC109DE5 		ldr	r1, [sp, #220]
 6537              		.loc 1 741 0
 6538 2858 013080E2 		add	r3, r0, #1
 6539 285c 0F3003E2 		and	r3, r3, #15
 6540              		.loc 1 609 0
 6541 2860 011081E2 		add	r1, r1, #1
 6542              		.loc 1 741 0
 6543 2864 D4308DE5 		str	r3, [sp, #212]
 6544              		.loc 1 609 0
 6545 2868 DC108DE5 		str	r1, [sp, #220]
 6546              	.LVL1425:
 6547              	.L60:
 6548 286c DC209DE5 		ldr	r2, [sp, #220]
 6549 2870 94309DE5 		ldr	r3, [sp, #148]
 6550              	.LVL1426:
 6551 2874 030052E1 		cmp	r2, r3
 6552 2878 31FEFF1A 		bne	.L61
 6553              	.LVL1427:
 6554              	.L67:
 6555              		.loc 1 744 0
 6556 287c 77DF8DE2 		add	sp, sp, #476
 6557 2880 F04FBDE8 		ldmfd	sp!, {r4, r5, r6, r7, r8, r9, sl, fp, lr}
 6558 2884 1EFF2FE1 		bx	lr
 6559              	.L71:
 6560              		.align	2
 6561              	.L70:
 6562 2888 00000000 		.word	D
 6563 288c 80070000 		.word	D+1920
 6564              	.LFE6:
 6565              		.size	synth_full, .-synth_full
 6566              		.section	.rodata
 6567              		.align	2
 6568              		.type	D, %object
 6569              		.size	D, 2176
 6570              	D:
 6571 0000 00000000 		.word	0
 6572 0004 E3FFFFFF 		.word	-29
 6573 0008 D5000000 		.word	213
 6574 000c 35FEFFFF 		.word	-459
 6575 0010 F5070000 		.word	2037
 6576 0014 DFEBFFFF 		.word	-5153
 6577 0018 AE190000 		.word	6574
 6578 001c 8F6DFFFF 		.word	-37489
 6579 0020 1E250100 		.word	75038
 6580 0024 71920000 		.word	37489
 6581 0028 AE190000 		.word	6574
 6582 002c 21140000 		.word	5153
ARM GAS  /cygdrive/c/DOCUME~1/mkwapisz/LOCALS~1/Temp/cc1OEM1Z.s 			page 133


 6583 0030 F5070000 		.word	2037
 6584 0034 CB010000 		.word	459
 6585 0038 D5000000 		.word	213
 6586 003c 1D000000 		.word	29
 6587 0040 00000000 		.word	0
 6588 0044 E3FFFFFF 		.word	-29
 6589 0048 D5000000 		.word	213
 6590 004c 35FEFFFF 		.word	-459
 6591 0050 F5070000 		.word	2037
 6592 0054 DFEBFFFF 		.word	-5153
 6593 0058 AE190000 		.word	6574
 6594 005c 8F6DFFFF 		.word	-37489
 6595 0060 1E250100 		.word	75038
 6596 0064 71920000 		.word	37489
 6597 0068 AE190000 		.word	6574
 6598 006c 21140000 		.word	5153
 6599 0070 F5070000 		.word	2037
 6600 0074 CB010000 		.word	459
 6601 0078 D5000000 		.word	213
 6602 007c 1D000000 		.word	29
 6603 0080 FFFFFFFF 		.word	-1
 6604 0084 E1FFFFFF 		.word	-31
 6605 0088 DA000000 		.word	218
 6606 008c F9FDFFFF 		.word	-519
 6607 0090 D0070000 		.word	2000
 6608 0094 73EAFFFF 		.word	-5517
 6609 0098 47170000 		.word	5959
 6610 009c 5866FFFF 		.word	-39336
 6611 00a0 F0240100 		.word	74992
 6612 00a4 388B0000 		.word	35640
 6613 00a8 DE1B0000 		.word	7134
 6614 00ac B4120000 		.word	4788
 6615 00b0 0F080000 		.word	2063
 6616 00b4 91010000 		.word	401
 6617 00b8 D0000000 		.word	208
 6618 00bc 1A000000 		.word	26
 6619 00c0 FFFFFFFF 		.word	-1
 6620 00c4 E1FFFFFF 		.word	-31
 6621 00c8 DA000000 		.word	218
 6622 00cc F9FDFFFF 		.word	-519
 6623 00d0 D0070000 		.word	2000
 6624 00d4 73EAFFFF 		.word	-5517
 6625 00d8 47170000 		.word	5959
 6626 00dc 5866FFFF 		.word	-39336
 6627 00e0 F0240100 		.word	74992
 6628 00e4 388B0000 		.word	35640
 6629 00e8 DE1B0000 		.word	7134
 6630 00ec B4120000 		.word	4788
 6631 00f0 0F080000 		.word	2063
 6632 00f4 91010000 		.word	401
 6633 00f8 D0000000 		.word	208
 6634 00fc 1A000000 		.word	26
 6635 0100 FFFFFFFF 		.word	-1
 6636 0104 DDFFFFFF 		.word	-35
 6637 0108 DE000000 		.word	222
 6638 010c BBFDFFFF 		.word	-581
 6639 0110 A0070000 		.word	1952
ARM GAS  /cygdrive/c/DOCUME~1/mkwapisz/LOCALS~1/Temp/cc1OEM1Z.s 			page 134


 6640 0114 09E9FFFF 		.word	-5879
 6641 0118 A8140000 		.word	5288
 6642 011c 285FFFFF 		.word	-41176
 6643 0120 68240100 		.word	74856
 6644 0124 FF830000 		.word	33791
 6645 0128 D81D0000 		.word	7640
 6646 012c 49110000 		.word	4425
 6647 0130 20080000 		.word	2080
 6648 0134 5B010000 		.word	347
 6649 0138 CA000000 		.word	202
 6650 013c 18000000 		.word	24
 6651 0140 FFFFFFFF 		.word	-1
 6652 0144 DDFFFFFF 		.word	-35
 6653 0148 DE000000 		.word	222
 6654 014c BBFDFFFF 		.word	-581
 6655 0150 A0070000 		.word	1952
 6656 0154 09E9FFFF 		.word	-5879
 6657 0158 A8140000 		.word	5288
 6658 015c 285FFFFF 		.word	-41176
 6659 0160 68240100 		.word	74856
 6660 0164 FF830000 		.word	33791
 6661 0168 D81D0000 		.word	7640
 6662 016c 49110000 		.word	4425
 6663 0170 20080000 		.word	2080
 6664 0174 5B010000 		.word	347
 6665 0178 CA000000 		.word	202
 6666 017c 18000000 		.word	24
 6667 0180 FFFFFFFF 		.word	-1
 6668 0184 DAFFFFFF 		.word	-38
 6669 0188 E1000000 		.word	225
 6670 018c 7BFDFFFF 		.word	-645
 6671 0190 65070000 		.word	1893
 6672 0194 A3E7FFFF 		.word	-6237
 6673 0198 D1110000 		.word	4561
 6674 019c 0258FFFF 		.word	-43006
 6675 01a0 86230100 		.word	74630
 6676 01a4 CB7C0000 		.word	31947
 6677 01a8 9C1F0000 		.word	8092
 6678 01ac DF0F0000 		.word	4063
 6679 01b0 27080000 		.word	2087
 6680 01b4 26010000 		.word	294
 6681 01b8 C4000000 		.word	196
 6682 01bc 15000000 		.word	21
 6683 01c0 FFFFFFFF 		.word	-1
 6684 01c4 DAFFFFFF 		.word	-38
 6685 01c8 E1000000 		.word	225
 6686 01cc 7BFDFFFF 		.word	-645
 6687 01d0 65070000 		.word	1893
 6688 01d4 A3E7FFFF 		.word	-6237
 6689 01d8 D1110000 		.word	4561
 6690 01dc 0258FFFF 		.word	-43006
 6691 01e0 86230100 		.word	74630
 6692 01e4 CB7C0000 		.word	31947
 6693 01e8 9C1F0000 		.word	8092
 6694 01ec DF0F0000 		.word	4063
 6695 01f0 27080000 		.word	2087
 6696 01f4 26010000 		.word	294
ARM GAS  /cygdrive/c/DOCUME~1/mkwapisz/LOCALS~1/Temp/cc1OEM1Z.s 			page 135


 6697 01f8 C4000000 		.word	196
 6698 01fc 15000000 		.word	21
 6699 0200 FFFFFFFF 		.word	-1
 6700 0204 D7FFFFFF 		.word	-41
 6701 0208 E3000000 		.word	227
 6702 020c 39FDFFFF 		.word	-711
 6703 0210 1E070000 		.word	1822
 6704 0214 43E6FFFF 		.word	-6589
 6705 0218 C00E0000 		.word	3776
 6706 021c EB50FFFF 		.word	-44821
 6707 0220 49220100 		.word	74313
 6708 0224 A0750000 		.word	30112
 6709 0228 2C210000 		.word	8492
 6710 022c 790E0000 		.word	3705
 6711 0230 25080000 		.word	2085
 6712 0234 F4000000 		.word	244
 6713 0238 BE000000 		.word	190
 6714 023c 13000000 		.word	19
 6715 0240 FFFFFFFF 		.word	-1
 6716 0244 D7FFFFFF 		.word	-41
 6717 0248 E3000000 		.word	227
 6718 024c 39FDFFFF 		.word	-711
 6719 0250 1E070000 		.word	1822
 6720 0254 43E6FFFF 		.word	-6589
 6721 0258 C00E0000 		.word	3776
 6722 025c EB50FFFF 		.word	-44821
 6723 0260 49220100 		.word	74313
 6724 0264 A0750000 		.word	30112
 6725 0268 2C210000 		.word	8492
 6726 026c 790E0000 		.word	3705
 6727 0270 25080000 		.word	2085
 6728 0274 F4000000 		.word	244
 6729 0278 BE000000 		.word	190
 6730 027c 13000000 		.word	19
 6731 0280 FFFFFFFF 		.word	-1
 6732 0284 D3FFFFFF 		.word	-45
 6733 0288 E4000000 		.word	228
 6734 028c F5FCFFFF 		.word	-779
 6735 0290 CB060000 		.word	1739
 6736 0294 E9E4FFFF 		.word	-6935
 6737 0298 770B0000 		.word	2935
 6738 029c E749FFFF 		.word	-46617
 6739 02a0 B4200100 		.word	73908
 6740 02a4 816E0000 		.word	28289
 6741 02a8 88220000 		.word	8840
 6742 02ac 170D0000 		.word	3351
 6743 02b0 1B080000 		.word	2075
 6744 02b4 C5000000 		.word	197
 6745 02b8 B7000000 		.word	183
 6746 02bc 11000000 		.word	17
 6747 02c0 FFFFFFFF 		.word	-1
 6748 02c4 D3FFFFFF 		.word	-45
 6749 02c8 E4000000 		.word	228
 6750 02cc F5FCFFFF 		.word	-779
 6751 02d0 CB060000 		.word	1739
 6752 02d4 E9E4FFFF 		.word	-6935
 6753 02d8 770B0000 		.word	2935
ARM GAS  /cygdrive/c/DOCUME~1/mkwapisz/LOCALS~1/Temp/cc1OEM1Z.s 			page 136


 6754 02dc E749FFFF 		.word	-46617
 6755 02e0 B4200100 		.word	73908
 6756 02e4 816E0000 		.word	28289
 6757 02e8 88220000 		.word	8840
 6758 02ec 170D0000 		.word	3351
 6759 02f0 1B080000 		.word	2075
 6760 02f4 C5000000 		.word	197
 6761 02f8 B7000000 		.word	183
 6762 02fc 11000000 		.word	17
 6763 0300 FFFFFFFF 		.word	-1
 6764 0304 CFFFFFFF 		.word	-49
 6765 0308 E4000000 		.word	228
 6766 030c B0FCFFFF 		.word	-848
 6767 0310 6C060000 		.word	1644
 6768 0314 99E3FFFF 		.word	-7271
 6769 0318 F5070000 		.word	2037
 6770 031c FA42FFFF 		.word	-48390
 6771 0320 C71E0100 		.word	73415
 6772 0324 72670000 		.word	26482
 6773 0328 B3230000 		.word	9139
 6774 032c BC0B0000 		.word	3004
 6775 0330 09080000 		.word	2057
 6776 0334 99000000 		.word	153
 6777 0338 B0000000 		.word	176
 6778 033c 10000000 		.word	16
 6779 0340 FFFFFFFF 		.word	-1
 6780 0344 CFFFFFFF 		.word	-49
 6781 0348 E4000000 		.word	228
 6782 034c B0FCFFFF 		.word	-848
 6783 0350 6C060000 		.word	1644
 6784 0354 99E3FFFF 		.word	-7271
 6785 0358 F5070000 		.word	2037
 6786 035c FA42FFFF 		.word	-48390
 6787 0360 C71E0100 		.word	73415
 6788 0364 72670000 		.word	26482
 6789 0368 B3230000 		.word	9139
 6790 036c BC0B0000 		.word	3004
 6791 0370 09080000 		.word	2057
 6792 0374 99000000 		.word	153
 6793 0378 B0000000 		.word	176
 6794 037c 10000000 		.word	16
 6795 0380 FEFFFFFF 		.word	-2
 6796 0384 CBFFFFFF 		.word	-53
 6797 0388 E3000000 		.word	227
 6798 038c 69FCFFFF 		.word	-919
 6799 0390 FF050000 		.word	1535
 6800 0394 53E2FFFF 		.word	-7597
 6801 0398 3A040000 		.word	1082
 6802 039c 273CFFFF 		.word	-50137
 6803 03a0 831C0100 		.word	72835
 6804 03a4 76600000 		.word	24694
 6805 03a8 AD240000 		.word	9389
 6806 03ac 670A0000 		.word	2663
 6807 03b0 F0070000 		.word	2032
 6808 03b4 6F000000 		.word	111
 6809 03b8 A9000000 		.word	169
 6810 03bc 0E000000 		.word	14
ARM GAS  /cygdrive/c/DOCUME~1/mkwapisz/LOCALS~1/Temp/cc1OEM1Z.s 			page 137


 6811 03c0 FEFFFFFF 		.word	-2
 6812 03c4 CBFFFFFF 		.word	-53
 6813 03c8 E3000000 		.word	227
 6814 03cc 69FCFFFF 		.word	-919
 6815 03d0 FF050000 		.word	1535
 6816 03d4 53E2FFFF 		.word	-7597
 6817 03d8 3A040000 		.word	1082
 6818 03dc 273CFFFF 		.word	-50137
 6819 03e0 831C0100 		.word	72835
 6820 03e4 76600000 		.word	24694
 6821 03e8 AD240000 		.word	9389
 6822 03ec 670A0000 		.word	2663
 6823 03f0 F0070000 		.word	2032
 6824 03f4 6F000000 		.word	111
 6825 03f8 A9000000 		.word	169
 6826 03fc 0E000000 		.word	14
 6827 0400 FEFFFFFF 		.word	-2
 6828 0404 C6FFFFFF 		.word	-58
 6829 0408 E0000000 		.word	224
 6830 040c 21FCFFFF 		.word	-991
 6831 0410 86050000 		.word	1414
 6832 0414 1AE1FFFF 		.word	-7910
 6833 0418 46000000 		.word	70
 6834 041c 7335FFFF 		.word	-51853
 6835 0420 E9190100 		.word	72169
 6836 0424 91590000 		.word	22929
 6837 0428 78250000 		.word	9592
 6838 042c 1A090000 		.word	2330
 6839 0430 D1070000 		.word	2001
 6840 0434 48000000 		.word	72
 6841 0438 A1000000 		.word	161
 6842 043c 0D000000 		.word	13
 6843 0440 FEFFFFFF 		.word	-2
 6844 0444 C6FFFFFF 		.word	-58
 6845 0448 E0000000 		.word	224
 6846 044c 21FCFFFF 		.word	-991
 6847 0450 86050000 		.word	1414
 6848 0454 1AE1FFFF 		.word	-7910
 6849 0458 46000000 		.word	70
 6850 045c 7335FFFF 		.word	-51853
 6851 0460 E9190100 		.word	72169
 6852 0464 91590000 		.word	22929
 6853 0468 78250000 		.word	9592
 6854 046c 1A090000 		.word	2330
 6855 0470 D1070000 		.word	2001
 6856 0474 48000000 		.word	72
 6857 0478 A1000000 		.word	161
 6858 047c 0D000000 		.word	13
 6859 0480 FEFFFFFF 		.word	-2
 6860 0484 C1FFFFFF 		.word	-63
 6861 0488 DD000000 		.word	221
 6862 048c D8FBFFFF 		.word	-1064
 6863 0490 00050000 		.word	1280
 6864 0494 EFDFFFFF 		.word	-8209
 6865 0498 1AFCFFFF 		.word	-998
 6866 049c E22EFFFF 		.word	-53534
 6867 04a0 FC160100 		.word	71420
ARM GAS  /cygdrive/c/DOCUME~1/mkwapisz/LOCALS~1/Temp/cc1OEM1Z.s 			page 138


 6868 04a4 C5520000 		.word	21189
 6869 04a8 16260000 		.word	9750
 6870 04ac D6070000 		.word	2006
 6871 04b0 AA070000 		.word	1962
 6872 04b4 24000000 		.word	36
 6873 04b8 9A000000 		.word	154
 6874 04bc 0B000000 		.word	11
 6875 04c0 FEFFFFFF 		.word	-2
 6876 04c4 C1FFFFFF 		.word	-63
 6877 04c8 DD000000 		.word	221
 6878 04cc D8FBFFFF 		.word	-1064
 6879 04d0 00050000 		.word	1280
 6880 04d4 EFDFFFFF 		.word	-8209
 6881 04d8 1AFCFFFF 		.word	-998
 6882 04dc E22EFFFF 		.word	-53534
 6883 04e0 FC160100 		.word	71420
 6884 04e4 C5520000 		.word	21189
 6885 04e8 16260000 		.word	9750
 6886 04ec D6070000 		.word	2006
 6887 04f0 AA070000 		.word	1962
 6888 04f4 24000000 		.word	36
 6889 04f8 9A000000 		.word	154
 6890 04fc 0B000000 		.word	11
 6891 0500 FEFFFFFF 		.word	-2
 6892 0504 BCFFFFFF 		.word	-68
 6893 0508 D7000000 		.word	215
 6894 050c 8FFBFFFF 		.word	-1137
 6895 0510 6B040000 		.word	1131
 6896 0514 D5DEFFFF 		.word	-8491
 6897 0518 B6F7FFFF 		.word	-2122
 6898 051c 7628FFFF 		.word	-55178
 6899 0520 BE130100 		.word	70590
 6900 0524 164C0000 		.word	19478
 6901 0528 87260000 		.word	9863
 6902 052c 9C060000 		.word	1692
 6903 0530 7F070000 		.word	1919
 6904 0534 02000000 		.word	2
 6905 0538 93000000 		.word	147
 6906 053c 0A000000 		.word	10
 6907 0540 FEFFFFFF 		.word	-2
 6908 0544 BCFFFFFF 		.word	-68
 6909 0548 D7000000 		.word	215
 6910 054c 8FFBFFFF 		.word	-1137
 6911 0550 6B040000 		.word	1131
 6912 0554 D5DEFFFF 		.word	-8491
 6913 0558 B6F7FFFF 		.word	-2122
 6914 055c 7628FFFF 		.word	-55178
 6915 0560 BE130100 		.word	70590
 6916 0564 164C0000 		.word	19478
 6917 0568 87260000 		.word	9863
 6918 056c 9C060000 		.word	1692
 6919 0570 7F070000 		.word	1919
 6920 0574 02000000 		.word	2
 6921 0578 93000000 		.word	147
 6922 057c 0A000000 		.word	10
 6923 0580 FDFFFFFF 		.word	-3
 6924 0584 B7FFFFFF 		.word	-73
ARM GAS  /cygdrive/c/DOCUME~1/mkwapisz/LOCALS~1/Temp/cc1OEM1Z.s 			page 139


 6925 0588 D0000000 		.word	208
 6926 058c 46FBFFFF 		.word	-1210
 6927 0590 CA030000 		.word	970
 6928 0594 CDDDFFFF 		.word	-8755
 6929 0598 1CF3FFFF 		.word	-3300
 6930 059c 3622FFFF 		.word	-56778
 6931 05a0 2F100100 		.word	69679
 6932 05a4 87450000 		.word	17799
 6933 05a8 CF260000 		.word	9935
 6934 05ac 6C050000 		.word	1388
 6935 05b0 4E070000 		.word	1870
 6936 05b4 E3FFFFFF 		.word	-29
 6937 05b8 8B000000 		.word	139
 6938 05bc 09000000 		.word	9
 6939 05c0 FDFFFFFF 		.word	-3
 6940 05c4 B7FFFFFF 		.word	-73
 6941 05c8 D0000000 		.word	208
 6942 05cc 46FBFFFF 		.word	-1210
 6943 05d0 CA030000 		.word	970
 6944 05d4 CDDDFFFF 		.word	-8755
 6945 05d8 1CF3FFFF 		.word	-3300
 6946 05dc 3622FFFF 		.word	-56778
 6947 05e0 2F100100 		.word	69679
 6948 05e4 87450000 		.word	17799
 6949 05e8 CF260000 		.word	9935
 6950 05ec 6C050000 		.word	1388
 6951 05f0 4E070000 		.word	1870
 6952 05f4 E3FFFFFF 		.word	-29
 6953 05f8 8B000000 		.word	139
 6954 05fc 09000000 		.word	9
 6955 0600 FDFFFFFF 		.word	-3
 6956 0604 B1FFFFFF 		.word	-79
 6957 0608 C8000000 		.word	200
 6958 060c FDFAFFFF 		.word	-1283
 6959 0610 1A030000 		.word	794
 6960 0614 DADCFFFF 		.word	-8998
 6961 0618 4BEEFFFF 		.word	-4533
 6962 061c 231CFFFF 		.word	-58333
 6963 0620 540C0100 		.word	68692
 6964 0624 1B3F0000 		.word	16155
 6965 0628 EE260000 		.word	9966
 6966 062c 47040000 		.word	1095
 6967 0630 19070000 		.word	1817
 6968 0634 C7FFFFFF 		.word	-57
 6969 0638 84000000 		.word	132
 6970 063c 08000000 		.word	8
 6971 0640 FDFFFFFF 		.word	-3
 6972 0644 B1FFFFFF 		.word	-79
 6973 0648 C8000000 		.word	200
 6974 064c FDFAFFFF 		.word	-1283
 6975 0650 1A030000 		.word	794
 6976 0654 DADCFFFF 		.word	-8998
 6977 0658 4BEEFFFF 		.word	-4533
 6978 065c 231CFFFF 		.word	-58333
 6979 0660 540C0100 		.word	68692
 6980 0664 1B3F0000 		.word	16155
 6981 0668 EE260000 		.word	9966
ARM GAS  /cygdrive/c/DOCUME~1/mkwapisz/LOCALS~1/Temp/cc1OEM1Z.s 			page 140


 6982 066c 47040000 		.word	1095
 6983 0670 19070000 		.word	1817
 6984 0674 C7FFFFFF 		.word	-57
 6985 0678 84000000 		.word	132
 6986 067c 08000000 		.word	8
 6987 0680 FCFFFFFF 		.word	-4
 6988 0684 ABFFFFFF 		.word	-85
 6989 0688 BD000000 		.word	189
 6990 068c B4FAFFFF 		.word	-1356
 6991 0690 5D020000 		.word	605
 6992 0694 FDDBFFFF 		.word	-9219
 6993 0698 46E9FFFF 		.word	-5818
 6994 069c 4216FFFF 		.word	-59838
 6995 06a0 2D080100 		.word	67629
 6996 06a4 D4380000 		.word	14548
 6997 06a8 E7260000 		.word	9959
 6998 06ac 2E030000 		.word	814
 6999 06b0 DF060000 		.word	1759
 7000 06b4 ADFFFFFF 		.word	-83
 7001 06b8 7D000000 		.word	125
 7002 06bc 07000000 		.word	7
 7003 06c0 FCFFFFFF 		.word	-4
 7004 06c4 ABFFFFFF 		.word	-85
 7005 06c8 BD000000 		.word	189
 7006 06cc B4FAFFFF 		.word	-1356
 7007 06d0 5D020000 		.word	605
 7008 06d4 FDDBFFFF 		.word	-9219
 7009 06d8 46E9FFFF 		.word	-5818
 7010 06dc 4216FFFF 		.word	-59838
 7011 06e0 2D080100 		.word	67629
 7012 06e4 D4380000 		.word	14548
 7013 06e8 E7260000 		.word	9959
 7014 06ec 2E030000 		.word	814
 7015 06f0 DF060000 		.word	1759
 7016 06f4 ADFFFFFF 		.word	-83
 7017 06f8 7D000000 		.word	125
 7018 06fc 07000000 		.word	7
 7019 0700 FCFFFFFF 		.word	-4
 7020 0704 A5FFFFFF 		.word	-91
 7021 0708 B1000000 		.word	177
 7022 070c 6CFAFFFF 		.word	-1428
 7023 0710 92010000 		.word	402
 7024 0714 38DBFFFF 		.word	-9416
 7025 0718 0EE4FFFF 		.word	-7154
 7026 071c 9710FFFF 		.word	-61289
 7027 0720 BE030100 		.word	66494
 7028 0724 B4320000 		.word	12980
 7029 0728 BC260000 		.word	9916
 7030 072c 21020000 		.word	545
 7031 0730 A2060000 		.word	1698
 7032 0734 96FFFFFF 		.word	-106
 7033 0738 75000000 		.word	117
 7034 073c 07000000 		.word	7
 7035 0740 FCFFFFFF 		.word	-4
 7036 0744 A5FFFFFF 		.word	-91
 7037 0748 B1000000 		.word	177
 7038 074c 6CFAFFFF 		.word	-1428
ARM GAS  /cygdrive/c/DOCUME~1/mkwapisz/LOCALS~1/Temp/cc1OEM1Z.s 			page 141


 7039 0750 92010000 		.word	402
 7040 0754 38DBFFFF 		.word	-9416
 7041 0758 0EE4FFFF 		.word	-7154
 7042 075c 9710FFFF 		.word	-61289
 7043 0760 BE030100 		.word	66494
 7044 0764 B4320000 		.word	12980
 7045 0768 BC260000 		.word	9916
 7046 076c 21020000 		.word	545
 7047 0770 A2060000 		.word	1698
 7048 0774 96FFFFFF 		.word	-106
 7049 0778 75000000 		.word	117
 7050 077c 07000000 		.word	7
 7051 0780 FBFFFFFF 		.word	-5
 7052 0784 9FFFFFFF 		.word	-97
 7053 0788 A3000000 		.word	163
 7054 078c 26FAFFFF 		.word	-1498
 7055 0790 B9000000 		.word	185
 7056 0794 8FDAFFFF 		.word	-9585
 7057 0798 A4DEFFFF 		.word	-8540
 7058 079c 240BFFFF 		.word	-62684
 7059 07a0 0AFF0000 		.word	65290
 7060 07a4 BF2C0000 		.word	11455
 7061 07a8 6E260000 		.word	9838
 7062 07ac 20010000 		.word	288
 7063 07b0 62060000 		.word	1634
 7064 07b4 81FFFFFF 		.word	-127
 7065 07b8 6F000000 		.word	111
 7066 07bc 06000000 		.word	6
 7067 07c0 FBFFFFFF 		.word	-5
 7068 07c4 9FFFFFFF 		.word	-97
 7069 07c8 A3000000 		.word	163
 7070 07cc 26FAFFFF 		.word	-1498
 7071 07d0 B9000000 		.word	185
 7072 07d4 8FDAFFFF 		.word	-9585
 7073 07d8 A4DEFFFF 		.word	-8540
 7074 07dc 240BFFFF 		.word	-62684
 7075 07e0 0AFF0000 		.word	65290
 7076 07e4 BF2C0000 		.word	11455
 7077 07e8 6E260000 		.word	9838
 7078 07ec 20010000 		.word	288
 7079 07f0 62060000 		.word	1634
 7080 07f4 81FFFFFF 		.word	-127
 7081 07f8 6F000000 		.word	111
 7082 07fc 06000000 		.word	6
 7083 0800 FBFFFFFF 		.word	-5
 7084 0804 98FFFFFF 		.word	-104
 7085 0808 92000000 		.word	146
 7086 080c E1F9FFFF 		.word	-1567
 7087 0810 D3FFFFFF 		.word	-45
 7088 0814 01DAFFFF 		.word	-9727
 7089 0818 09D9FFFF 		.word	-9975
 7090 081c ED05FFFF 		.word	-64019
 7091 0820 13FA0000 		.word	64019
 7092 0824 F7260000 		.word	9975
 7093 0828 FF250000 		.word	9727
 7094 082c 2D000000 		.word	45
 7095 0830 1F060000 		.word	1567
ARM GAS  /cygdrive/c/DOCUME~1/mkwapisz/LOCALS~1/Temp/cc1OEM1Z.s 			page 142


 7096 0834 6EFFFFFF 		.word	-146
 7097 0838 68000000 		.word	104
 7098 083c 05000000 		.word	5
 7099 0840 FBFFFFFF 		.word	-5
 7100 0844 98FFFFFF 		.word	-104
 7101 0848 92000000 		.word	146
 7102 084c E1F9FFFF 		.word	-1567
 7103 0850 D3FFFFFF 		.word	-45
 7104 0854 01DAFFFF 		.word	-9727
 7105 0858 09D9FFFF 		.word	-9975
 7106 085c ED05FFFF 		.word	-64019
 7107 0860 13FA0000 		.word	64019
 7108 0864 F7260000 		.word	9975
 7109 0868 FF250000 		.word	9727
 7110 086c 2D000000 		.word	45
 7111 0870 1F060000 		.word	1567
 7112 0874 6EFFFFFF 		.word	-146
 7113 0878 68000000 		.word	104
 7114 087c 05000000 		.word	5
 7115              		.section	.debug_frame,"",%progbits
 7116              	.Lframe0:
 7117 0000 0C000000 		.4byte	.LECIE0-.LSCIE0
 7118              	.LSCIE0:
 7119 0004 FFFFFFFF 		.4byte	0xffffffff
 7120 0008 01       		.byte	0x1
 7121 0009 00       		.ascii	"\000"
 7122 000a 01       		.uleb128 0x1
 7123 000b 7C       		.sleb128 -4
 7124 000c 0E       		.byte	0xe
 7125 000d 0C       		.byte	0xc
 7126 000e 0D       		.uleb128 0xd
 7127 000f 00       		.uleb128 0x0
 7128              		.align	2
 7129              	.LECIE0:
 7130              	.LSFDE0:
 7131 0010 0C000000 		.4byte	.LEFDE0-.LASFDE0
 7132              	.LASFDE0:
 7133 0014 00000000 		.4byte	.Lframe0
 7134 0018 00000000 		.4byte	.LFB2
 7135 001c 20000000 		.4byte	.LFE2-.LFB2
 7136              		.align	2
 7137              	.LEFDE0:
 7138              	.LSFDE2:
 7139 0020 14000000 		.4byte	.LEFDE2-.LASFDE2
 7140              	.LASFDE2:
 7141 0024 00000000 		.4byte	.Lframe0
 7142 0028 20000000 		.4byte	.LFB4
 7143 002c 74000000 		.4byte	.LFE4-.LFB4
 7144 0030 44       		.byte	0x4
 7145              		.4byte	.LCFI0-.LFB4
 7146 0031 0E       		.byte	0xe
 7147 0032 04       		.uleb128 0x4
 7148 0033 8E       		.byte	0x8e
 7149 0034 01       		.uleb128 0x1
 7150 0035 000000   		.align	2
 7151              	.LEFDE2:
 7152              	.LSFDE4:
ARM GAS  /cygdrive/c/DOCUME~1/mkwapisz/LOCALS~1/Temp/cc1OEM1Z.s 			page 143


 7153 0038 14000000 		.4byte	.LEFDE4-.LASFDE4
 7154              	.LASFDE4:
 7155 003c 00000000 		.4byte	.Lframe0
 7156 0040 94000000 		.4byte	.LFB3
 7157 0044 3C000000 		.4byte	.LFE3-.LFB3
 7158 0048 44       		.byte	0x4
 7159              		.4byte	.LCFI1-.LFB3
 7160 0049 0E       		.byte	0xe
 7161 004a 08       		.uleb128 0x8
 7162 004b 8E       		.byte	0x8e
 7163 004c 01       		.uleb128 0x1
 7164 004d 84       		.byte	0x84
 7165 004e 02       		.uleb128 0x2
 7166 004f 00       		.align	2
 7167              	.LEFDE4:
 7168              	.LSFDE6:
 7169 0050 1C000000 		.4byte	.LEFDE6-.LASFDE6
 7170              	.LASFDE6:
 7171 0054 00000000 		.4byte	.Lframe0
 7172 0058 D0000000 		.4byte	.LFB8
 7173 005c E0000000 		.4byte	.LFE8-.LFB8
 7174 0060 4C       		.byte	0x4
 7175              		.4byte	.LCFI2-.LFB8
 7176 0061 0E       		.byte	0xe
 7177 0062 18       		.uleb128 0x18
 7178 0063 8E       		.byte	0x8e
 7179 0064 01       		.uleb128 0x1
 7180 0065 88       		.byte	0x88
 7181 0066 02       		.uleb128 0x2
 7182 0067 87       		.byte	0x87
 7183 0068 03       		.uleb128 0x3
 7184 0069 86       		.byte	0x86
 7185 006a 04       		.uleb128 0x4
 7186 006b 85       		.byte	0x85
 7187 006c 05       		.uleb128 0x5
 7188 006d 84       		.byte	0x84
 7189 006e 06       		.uleb128 0x6
 7190 006f 00       		.align	2
 7191              	.LEFDE6:
 7192              	.LSFDE8:
 7193 0070 28000000 		.4byte	.LEFDE8-.LASFDE8
 7194              	.LASFDE8:
 7195 0074 00000000 		.4byte	.Lframe0
 7196 0078 B0010000 		.4byte	.LFB5
 7197 007c 10110000 		.4byte	.LFE5-.LFB5
 7198 0080 44       		.byte	0x4
 7199              		.4byte	.LCFI3-.LFB5
 7200 0081 0E       		.byte	0xe
 7201 0082 24       		.uleb128 0x24
 7202 0083 8E       		.byte	0x8e
 7203 0084 01       		.uleb128 0x1
 7204 0085 8B       		.byte	0x8b
 7205 0086 02       		.uleb128 0x2
 7206 0087 8A       		.byte	0x8a
 7207 0088 03       		.uleb128 0x3
 7208 0089 89       		.byte	0x89
 7209 008a 04       		.uleb128 0x4
ARM GAS  /cygdrive/c/DOCUME~1/mkwapisz/LOCALS~1/Temp/cc1OEM1Z.s 			page 144


 7210 008b 88       		.byte	0x88
 7211 008c 05       		.uleb128 0x5
 7212 008d 87       		.byte	0x87
 7213 008e 06       		.uleb128 0x6
 7214 008f 86       		.byte	0x86
 7215 0090 07       		.uleb128 0x7
 7216 0091 85       		.byte	0x85
 7217 0092 08       		.uleb128 0x8
 7218 0093 84       		.byte	0x84
 7219 0094 09       		.uleb128 0x9
 7220 0095 4C       		.byte	0x4
 7221              		.4byte	.LCFI4-.LCFI3
 7222 0096 0E       		.byte	0xe
 7223 0097 D003     		.uleb128 0x1d0
 7224 0099 000000   		.align	2
 7225              	.LEFDE8:
 7226              	.LSFDE10:
 7227 009c 28000000 		.4byte	.LEFDE10-.LASFDE10
 7228              	.LASFDE10:
 7229 00a0 00000000 		.4byte	.Lframe0
 7230 00a4 C0120000 		.4byte	.LFB7
 7231 00a8 E80A0000 		.4byte	.LFE7-.LFB7
 7232 00ac 44       		.byte	0x4
 7233              		.4byte	.LCFI5-.LFB7
 7234 00ad 0E       		.byte	0xe
 7235 00ae 24       		.uleb128 0x24
 7236 00af 44       		.byte	0x4
 7237              		.4byte	.LCFI6-.LCFI5
 7238 00b0 0E       		.byte	0xe
 7239 00b1 C003     		.uleb128 0x1c0
 7240 00b3 8E       		.byte	0x8e
 7241 00b4 01       		.uleb128 0x1
 7242 00b5 8B       		.byte	0x8b
 7243 00b6 02       		.uleb128 0x2
 7244 00b7 8A       		.byte	0x8a
 7245 00b8 03       		.uleb128 0x3
 7246 00b9 89       		.byte	0x89
 7247 00ba 04       		.uleb128 0x4
 7248 00bb 88       		.byte	0x88
 7249 00bc 05       		.uleb128 0x5
 7250 00bd 87       		.byte	0x87
 7251 00be 06       		.uleb128 0x6
 7252 00bf 86       		.byte	0x86
 7253 00c0 07       		.uleb128 0x7
 7254 00c1 85       		.byte	0x85
 7255 00c2 08       		.uleb128 0x8
 7256 00c3 84       		.byte	0x84
 7257 00c4 09       		.uleb128 0x9
 7258 00c5 000000   		.align	2
 7259              	.LEFDE10:
 7260              	.LSFDE12:
 7261 00c8 28000000 		.4byte	.LEFDE12-.LASFDE12
 7262              	.LASFDE12:
 7263 00cc 00000000 		.4byte	.Lframe0
 7264 00d0 A81D0000 		.4byte	.LFB6
 7265 00d4 E80A0000 		.4byte	.LFE6-.LFB6
 7266 00d8 44       		.byte	0x4
ARM GAS  /cygdrive/c/DOCUME~1/mkwapisz/LOCALS~1/Temp/cc1OEM1Z.s 			page 145


 7267              		.4byte	.LCFI7-.LFB6
 7268 00d9 0E       		.byte	0xe
 7269 00da 24       		.uleb128 0x24
 7270 00db 44       		.byte	0x4
 7271              		.4byte	.LCFI8-.LCFI7
 7272 00dc 0E       		.byte	0xe
 7273 00dd 8004     		.uleb128 0x200
 7274 00df 8E       		.byte	0x8e
 7275 00e0 01       		.uleb128 0x1
 7276 00e1 8B       		.byte	0x8b
 7277 00e2 02       		.uleb128 0x2
 7278 00e3 8A       		.byte	0x8a
 7279 00e4 03       		.uleb128 0x3
 7280 00e5 89       		.byte	0x89
 7281 00e6 04       		.uleb128 0x4
 7282 00e7 88       		.byte	0x88
 7283 00e8 05       		.uleb128 0x5
 7284 00e9 87       		.byte	0x87
 7285 00ea 06       		.uleb128 0x6
 7286 00eb 86       		.byte	0x86
 7287 00ec 07       		.uleb128 0x7
 7288 00ed 85       		.byte	0x85
 7289 00ee 08       		.uleb128 0x8
 7290 00ef 84       		.byte	0x84
 7291 00f0 09       		.uleb128 0x9
 7292 00f1 000000   		.align	2
 7293              	.LEFDE12:
 7294              		.file 2 "fixed.h"
 7295              		.file 3 "synth.h"
 7296              		.file 4 "frame.h"
 7297              		.file 5 "timer.h"
 7298              		.text
 7299              	.Letext0:
 7300              		.section	.debug_loc,"",%progbits
 7301              	.Ldebug_loc0:
 7302              	.LLST1:
 7303 0000 00000000 		.4byte	.LVL0-.Ltext0
 7304 0004 04000000 		.4byte	.LVL1-.Ltext0
 7305 0008 0100     		.2byte	0x1
 7306 000a 50       		.byte	0x50
 7307 000b 0C000000 		.4byte	.LVL2-.Ltext0
 7308 000f 0C000000 		.4byte	.LVL2-.Ltext0
 7309 0013 0100     		.2byte	0x1
 7310 0015 50       		.byte	0x50
 7311 0016 00000000 		.4byte	0x0
 7312 001a 00000000 		.4byte	0x0
 7313              	.LLST2:
 7314 001e 20000000 		.4byte	.LFB4-.Ltext0
 7315 0022 24000000 		.4byte	.LCFI0-.Ltext0
 7316 0026 0100     		.2byte	0x1
 7317 0028 5D       		.byte	0x5d
 7318 0029 24000000 		.4byte	.LCFI0-.Ltext0
 7319 002d 94000000 		.4byte	.LFE4-.Ltext0
 7320 0031 0200     		.2byte	0x2
 7321 0033 7D       		.byte	0x7d
 7322 0034 04       		.sleb128 4
 7323 0035 00000000 		.4byte	0x0
ARM GAS  /cygdrive/c/DOCUME~1/mkwapisz/LOCALS~1/Temp/cc1OEM1Z.s 			page 146


 7324 0039 00000000 		.4byte	0x0
 7325              	.LLST3:
 7326 003d 94000000 		.4byte	.LFB3-.Ltext0
 7327 0041 98000000 		.4byte	.LCFI1-.Ltext0
 7328 0045 0100     		.2byte	0x1
 7329 0047 5D       		.byte	0x5d
 7330 0048 98000000 		.4byte	.LCFI1-.Ltext0
 7331 004c D0000000 		.4byte	.LFE3-.Ltext0
 7332 0050 0200     		.2byte	0x2
 7333 0052 7D       		.byte	0x7d
 7334 0053 08       		.sleb128 8
 7335 0054 00000000 		.4byte	0x0
 7336 0058 00000000 		.4byte	0x0
 7337              	.LLST4:
 7338 005c 94000000 		.4byte	.LVL7-.Ltext0
 7339 0060 A0000000 		.4byte	.LVL8-.Ltext0
 7340 0064 0100     		.2byte	0x1
 7341 0066 50       		.byte	0x50
 7342 0067 A0000000 		.4byte	.LVL8-.Ltext0
 7343 006b D0000000 		.4byte	.LFE3-.Ltext0
 7344 006f 0100     		.2byte	0x1
 7345 0071 54       		.byte	0x54
 7346 0072 00000000 		.4byte	0x0
 7347 0076 00000000 		.4byte	0x0
 7348              	.LLST5:
 7349 007a D0000000 		.4byte	.LFB8-.Ltext0
 7350 007e DC000000 		.4byte	.LCFI2-.Ltext0
 7351 0082 0100     		.2byte	0x1
 7352 0084 5D       		.byte	0x5d
 7353 0085 DC000000 		.4byte	.LCFI2-.Ltext0
 7354 0089 B0010000 		.4byte	.LFE8-.Ltext0
 7355 008d 0200     		.2byte	0x2
 7356 008f 7D       		.byte	0x7d
 7357 0090 18       		.sleb128 24
 7358 0091 00000000 		.4byte	0x0
 7359 0095 00000000 		.4byte	0x0
 7360              	.LLST6:
 7361 0099 D0000000 		.4byte	.LVL9-.Ltext0
 7362 009d F8000000 		.4byte	.LVL12-.Ltext0
 7363 00a1 0100     		.2byte	0x1
 7364 00a3 50       		.byte	0x50
 7365 00a4 F8000000 		.4byte	.LVL12-.Ltext0
 7366 00a8 B0010000 		.4byte	.LFE8-.Ltext0
 7367 00ac 0100     		.2byte	0x1
 7368 00ae 54       		.byte	0x54
 7369 00af 00000000 		.4byte	0x0
 7370 00b3 00000000 		.4byte	0x0
 7371              	.LLST7:
 7372 00b7 D0000000 		.4byte	.LVL9-.Ltext0
 7373 00bb F8000000 		.4byte	.LVL12-.Ltext0
 7374 00bf 0100     		.2byte	0x1
 7375 00c1 51       		.byte	0x51
 7376 00c2 F8000000 		.4byte	.LVL12-.Ltext0
 7377 00c6 B0010000 		.4byte	.LFE8-.Ltext0
 7378 00ca 0100     		.2byte	0x1
 7379 00cc 55       		.byte	0x55
 7380 00cd 00000000 		.4byte	0x0
ARM GAS  /cygdrive/c/DOCUME~1/mkwapisz/LOCALS~1/Temp/cc1OEM1Z.s 			page 147


 7381 00d1 00000000 		.4byte	0x0
 7382              	.LLST8:
 7383 00d5 40010000 		.4byte	.LVL13-.Ltext0
 7384 00d9 64010000 		.4byte	.LVL14-.Ltext0
 7385 00dd 0100     		.2byte	0x1
 7386 00df 5C       		.byte	0x5c
 7387 00e0 68010000 		.4byte	.LVL15-.Ltext0
 7388 00e4 80010000 		.4byte	.LVL16-.Ltext0
 7389 00e8 0100     		.2byte	0x1
 7390 00ea 5C       		.byte	0x5c
 7391 00eb 00000000 		.4byte	0x0
 7392 00ef 00000000 		.4byte	0x0
 7393              	.LLST9:
 7394 00f3 B0010000 		.4byte	.LFB5-.Ltext0
 7395 00f7 B4010000 		.4byte	.LCFI3-.Ltext0
 7396 00fb 0100     		.2byte	0x1
 7397 00fd 5D       		.byte	0x5d
 7398 00fe B4010000 		.4byte	.LCFI3-.Ltext0
 7399 0102 C0010000 		.4byte	.LCFI4-.Ltext0
 7400 0106 0200     		.2byte	0x2
 7401 0108 7D       		.byte	0x7d
 7402 0109 24       		.sleb128 36
 7403 010a C0010000 		.4byte	.LCFI4-.Ltext0
 7404 010e C0120000 		.4byte	.LFE5-.Ltext0
 7405 0112 0300     		.2byte	0x3
 7406 0114 7D       		.byte	0x7d
 7407 0115 D003     		.sleb128 464
 7408 0117 00000000 		.4byte	0x0
 7409 011b 00000000 		.4byte	0x0
 7410              	.LLST10:
 7411 011f B0010000 		.4byte	.LVL17-.Ltext0
 7412 0123 D4010000 		.4byte	.LVL18-.Ltext0
 7413 0127 0100     		.2byte	0x1
 7414 0129 50       		.byte	0x50
 7415 012a D4010000 		.4byte	.LVL18-.Ltext0
 7416 012e F8010000 		.4byte	.LVL23-.Ltext0
 7417 0132 0100     		.2byte	0x1
 7418 0134 54       		.byte	0x54
 7419 0135 5C020000 		.4byte	.LVL44-.Ltext0
 7420 0139 64020000 		.4byte	.LVL45-.Ltext0
 7421 013d 0100     		.2byte	0x1
 7422 013f 54       		.byte	0x54
 7423 0140 8C020000 		.4byte	.LVL53-.Ltext0
 7424 0144 94020000 		.4byte	.LVL54-.Ltext0
 7425 0148 0100     		.2byte	0x1
 7426 014a 54       		.byte	0x54
 7427 014b F8020000 		.4byte	.LVL75-.Ltext0
 7428 014f 00030000 		.4byte	.LVL76-.Ltext0
 7429 0153 0100     		.2byte	0x1
 7430 0155 54       		.byte	0x54
 7431 0156 28030000 		.4byte	.LVL84-.Ltext0
 7432 015a 38030000 		.4byte	.LVL85-.Ltext0
 7433 015e 0100     		.2byte	0x1
 7434 0160 54       		.byte	0x54
 7435 0161 9C030000 		.4byte	.LVL106-.Ltext0
 7436 0165 A4030000 		.4byte	.LVL107-.Ltext0
 7437 0169 0100     		.2byte	0x1
ARM GAS  /cygdrive/c/DOCUME~1/mkwapisz/LOCALS~1/Temp/cc1OEM1Z.s 			page 148


 7438 016b 54       		.byte	0x54
 7439 016c CC030000 		.4byte	.LVL115-.Ltext0
 7440 0170 DC030000 		.4byte	.LVL116-.Ltext0
 7441 0174 0100     		.2byte	0x1
 7442 0176 54       		.byte	0x54
 7443 0177 40040000 		.4byte	.LVL137-.Ltext0
 7444 017b 48040000 		.4byte	.LVL138-.Ltext0
 7445 017f 0100     		.2byte	0x1
 7446 0181 54       		.byte	0x54
 7447 0182 70040000 		.4byte	.LVL146-.Ltext0
 7448 0186 80040000 		.4byte	.LVL147-.Ltext0
 7449 018a 0100     		.2byte	0x1
 7450 018c 54       		.byte	0x54
 7451 018d E4040000 		.4byte	.LVL168-.Ltext0
 7452 0191 EC040000 		.4byte	.LVL169-.Ltext0
 7453 0195 0100     		.2byte	0x1
 7454 0197 54       		.byte	0x54
 7455 0198 10050000 		.4byte	.LVL177-.Ltext0
 7456 019c 20050000 		.4byte	.LVL179-.Ltext0
 7457 01a0 0100     		.2byte	0x1
 7458 01a2 54       		.byte	0x54
 7459 01a3 90050000 		.4byte	.LVL202-.Ltext0
 7460 01a7 98050000 		.4byte	.LVL203-.Ltext0
 7461 01ab 0100     		.2byte	0x1
 7462 01ad 54       		.byte	0x54
 7463 01ae C0050000 		.4byte	.LVL211-.Ltext0
 7464 01b2 C8050000 		.4byte	.LVL212-.Ltext0
 7465 01b6 0100     		.2byte	0x1
 7466 01b8 54       		.byte	0x54
 7467 01b9 2C060000 		.4byte	.LVL233-.Ltext0
 7468 01bd 34060000 		.4byte	.LVL234-.Ltext0
 7469 01c1 0100     		.2byte	0x1
 7470 01c3 54       		.byte	0x54
 7471 01c4 58060000 		.4byte	.LVL242-.Ltext0
 7472 01c8 60060000 		.4byte	.LVL243-.Ltext0
 7473 01cc 0100     		.2byte	0x1
 7474 01ce 54       		.byte	0x54
 7475 01cf 00000000 		.4byte	0x0
 7476 01d3 00000000 		.4byte	0x0
 7477              	.LLST11:
 7478 01d7 B0010000 		.4byte	.LVL17-.Ltext0
 7479 01db D8010000 		.4byte	.LVL19-.Ltext0
 7480 01df 0100     		.2byte	0x1
 7481 01e1 51       		.byte	0x51
 7482 01e2 D8010000 		.4byte	.LVL19-.Ltext0
 7483 01e6 C0120000 		.4byte	.LFE5-.Ltext0
 7484 01ea 0300     		.2byte	0x3
 7485 01ec 91       		.byte	0x91
 7486 01ed E07C     		.sleb128 -416
 7487 01ef 00000000 		.4byte	0x0
 7488 01f3 00000000 		.4byte	0x0
 7489              	.LLST12:
 7490 01f7 B0010000 		.4byte	.LVL17-.Ltext0
 7491 01fb D4010000 		.4byte	.LVL18-.Ltext0
 7492 01ff 0100     		.2byte	0x1
 7493 0201 52       		.byte	0x52
 7494 0202 D4010000 		.4byte	.LVL18-.Ltext0
ARM GAS  /cygdrive/c/DOCUME~1/mkwapisz/LOCALS~1/Temp/cc1OEM1Z.s 			page 149


 7495 0206 C0120000 		.4byte	.LFE5-.Ltext0
 7496 020a 0300     		.2byte	0x3
 7497 020c 91       		.byte	0x91
 7498 020d DC7C     		.sleb128 -420
 7499 020f 00000000 		.4byte	0x0
 7500 0213 00000000 		.4byte	0x0
 7501              	.LLST13:
 7502 0217 B0010000 		.4byte	.LVL17-.Ltext0
 7503 021b E0010000 		.4byte	.LVL20-.Ltext0
 7504 021f 0100     		.2byte	0x1
 7505 0221 53       		.byte	0x53
 7506 0222 E0010000 		.4byte	.LVL20-.Ltext0
 7507 0226 C0120000 		.4byte	.LFE5-.Ltext0
 7508 022a 0300     		.2byte	0x3
 7509 022c 91       		.byte	0x91
 7510 022d D87C     		.sleb128 -424
 7511 022f 00000000 		.4byte	0x0
 7512 0233 00000000 		.4byte	0x0
 7513              	.LLST14:
 7514 0237 08020000 		.4byte	.LVL26-.Ltext0
 7515 023b 18020000 		.4byte	.LVL30-.Ltext0
 7516 023f 0100     		.2byte	0x1
 7517 0241 56       		.byte	0x56
 7518 0242 28020000 		.4byte	.LVL33-.Ltext0
 7519 0246 28020000 		.4byte	.LVL33-.Ltext0
 7520 024a 0100     		.2byte	0x1
 7521 024c 56       		.byte	0x56
 7522 024d 00000000 		.4byte	0x0
 7523 0251 00000000 		.4byte	0x0
 7524              	.LLST15:
 7525 0255 18020000 		.4byte	.LVL30-.Ltext0
 7526 0259 28020000 		.4byte	.LVL33-.Ltext0
 7527 025d 0100     		.2byte	0x1
 7528 025f 56       		.byte	0x56
 7529 0260 28020000 		.4byte	.LVL33-.Ltext0
 7530 0264 2C020000 		.4byte	.LVL34-.Ltext0
 7531 0268 0100     		.2byte	0x1
 7532 026a 56       		.byte	0x56
 7533 026b 00000000 		.4byte	0x0
 7534 026f 00000000 		.4byte	0x0
 7535              	.LLST16:
 7536 0273 A8020000 		.4byte	.LVL57-.Ltext0
 7537 0277 B8020000 		.4byte	.LVL61-.Ltext0
 7538 027b 0100     		.2byte	0x1
 7539 027d 56       		.byte	0x56
 7540 027e C8020000 		.4byte	.LVL64-.Ltext0
 7541 0282 C8020000 		.4byte	.LVL64-.Ltext0
 7542 0286 0100     		.2byte	0x1
 7543 0288 56       		.byte	0x56
 7544 0289 00000000 		.4byte	0x0
 7545 028d 00000000 		.4byte	0x0
 7546              	.LLST17:
 7547 0291 9C020000 		.4byte	.LVL55-.Ltext0
 7548 0295 C4060000 		.4byte	.LVL260-.Ltext0
 7549 0299 0100     		.2byte	0x1
 7550 029b 5B       		.byte	0x5b
 7551 029c 00000000 		.4byte	0x0
ARM GAS  /cygdrive/c/DOCUME~1/mkwapisz/LOCALS~1/Temp/cc1OEM1Z.s 			page 150


 7552 02a0 00000000 		.4byte	0x0
 7553              	.LLST18:
 7554 02a4 B8020000 		.4byte	.LVL61-.Ltext0
 7555 02a8 C8020000 		.4byte	.LVL64-.Ltext0
 7556 02ac 0100     		.2byte	0x1
 7557 02ae 56       		.byte	0x56
 7558 02af C8020000 		.4byte	.LVL64-.Ltext0
 7559 02b3 CC020000 		.4byte	.LVL65-.Ltext0
 7560 02b7 0100     		.2byte	0x1
 7561 02b9 56       		.byte	0x56
 7562 02ba 00000000 		.4byte	0x0
 7563 02be 00000000 		.4byte	0x0
 7564              	.LLST19:
 7565 02c2 48030000 		.4byte	.LVL88-.Ltext0
 7566 02c6 58030000 		.4byte	.LVL92-.Ltext0
 7567 02ca 0100     		.2byte	0x1
 7568 02cc 56       		.byte	0x56
 7569 02cd 68030000 		.4byte	.LVL95-.Ltext0
 7570 02d1 68030000 		.4byte	.LVL95-.Ltext0
 7571 02d5 0100     		.2byte	0x1
 7572 02d7 56       		.byte	0x56
 7573 02d8 00000000 		.4byte	0x0
 7574 02dc 00000000 		.4byte	0x0
 7575              	.LLST20:
 7576 02e0 58030000 		.4byte	.LVL92-.Ltext0
 7577 02e4 68030000 		.4byte	.LVL95-.Ltext0
 7578 02e8 0100     		.2byte	0x1
 7579 02ea 56       		.byte	0x56
 7580 02eb 68030000 		.4byte	.LVL95-.Ltext0
 7581 02ef 6C030000 		.4byte	.LVL96-.Ltext0
 7582 02f3 0100     		.2byte	0x1
 7583 02f5 56       		.byte	0x56
 7584 02f6 00000000 		.4byte	0x0
 7585 02fa 00000000 		.4byte	0x0
 7586              	.LLST21:
 7587 02fe EC030000 		.4byte	.LVL119-.Ltext0
 7588 0302 FC030000 		.4byte	.LVL123-.Ltext0
 7589 0306 0100     		.2byte	0x1
 7590 0308 56       		.byte	0x56
 7591 0309 0C040000 		.4byte	.LVL126-.Ltext0
 7592 030d 0C040000 		.4byte	.LVL126-.Ltext0
 7593 0311 0100     		.2byte	0x1
 7594 0313 56       		.byte	0x56
 7595 0314 00000000 		.4byte	0x0
 7596 0318 00000000 		.4byte	0x0
 7597              	.LLST22:
 7598 031c FC030000 		.4byte	.LVL123-.Ltext0
 7599 0320 0C040000 		.4byte	.LVL126-.Ltext0
 7600 0324 0100     		.2byte	0x1
 7601 0326 56       		.byte	0x56
 7602 0327 0C040000 		.4byte	.LVL126-.Ltext0
 7603 032b 10040000 		.4byte	.LVL127-.Ltext0
 7604 032f 0100     		.2byte	0x1
 7605 0331 56       		.byte	0x56
 7606 0332 00000000 		.4byte	0x0
 7607 0336 00000000 		.4byte	0x0
 7608              	.LLST23:
ARM GAS  /cygdrive/c/DOCUME~1/mkwapisz/LOCALS~1/Temp/cc1OEM1Z.s 			page 151


 7609 033a 90040000 		.4byte	.LVL150-.Ltext0
 7610 033e A0040000 		.4byte	.LVL154-.Ltext0
 7611 0342 0100     		.2byte	0x1
 7612 0344 56       		.byte	0x56
 7613 0345 B0040000 		.4byte	.LVL157-.Ltext0
 7614 0349 B0040000 		.4byte	.LVL157-.Ltext0
 7615 034d 0100     		.2byte	0x1
 7616 034f 56       		.byte	0x56
 7617 0350 00000000 		.4byte	0x0
 7618 0354 00000000 		.4byte	0x0
 7619              	.LLST24:
 7620 0358 A0040000 		.4byte	.LVL154-.Ltext0
 7621 035c B0040000 		.4byte	.LVL157-.Ltext0
 7622 0360 0100     		.2byte	0x1
 7623 0362 56       		.byte	0x56
 7624 0363 B0040000 		.4byte	.LVL157-.Ltext0
 7625 0367 B4040000 		.4byte	.LVL158-.Ltext0
 7626 036b 0100     		.2byte	0x1
 7627 036d 56       		.byte	0x56
 7628 036e 00000000 		.4byte	0x0
 7629 0372 00000000 		.4byte	0x0
 7630              	.LLST25:
 7631 0376 08050000 		.4byte	.LVL174-.Ltext0
 7632 037a 6C070000 		.4byte	.LVL287-.Ltext0
 7633 037e 0100     		.2byte	0x1
 7634 0380 5A       		.byte	0x5a
 7635 0381 00000000 		.4byte	0x0
 7636 0385 00000000 		.4byte	0x0
 7637              	.LLST26:
 7638 0389 4C050000 		.4byte	.LVL187-.Ltext0
 7639 038d 60050000 		.4byte	.LVL191-.Ltext0
 7640 0391 0100     		.2byte	0x1
 7641 0393 5C       		.byte	0x5c
 7642 0394 00000000 		.4byte	0x0
 7643 0398 00000000 		.4byte	0x0
 7644              	.LLST27:
 7645 039c 6C070000 		.4byte	.LVL287-.Ltext0
 7646 03a0 080C0000 		.4byte	.LVL446-.Ltext0
 7647 03a4 0100     		.2byte	0x1
 7648 03a6 5A       		.byte	0x5a
 7649 03a7 00000000 		.4byte	0x0
 7650 03ab 00000000 		.4byte	0x0
 7651              	.LLST28:
 7652 03af D4050000 		.4byte	.LVL214-.Ltext0
 7653 03b3 EC050000 		.4byte	.LVL219-.Ltext0
 7654 03b7 0100     		.2byte	0x1
 7655 03b9 56       		.byte	0x56
 7656 03ba FC050000 		.4byte	.LVL222-.Ltext0
 7657 03be FC050000 		.4byte	.LVL222-.Ltext0
 7658 03c2 0100     		.2byte	0x1
 7659 03c4 56       		.byte	0x56
 7660 03c5 00000000 		.4byte	0x0
 7661 03c9 00000000 		.4byte	0x0
 7662              	.LLST29:
 7663 03cd E8050000 		.4byte	.LVL217-.Ltext0
 7664 03d1 8C070000 		.4byte	.LVL293-.Ltext0
 7665 03d5 0100     		.2byte	0x1
ARM GAS  /cygdrive/c/DOCUME~1/mkwapisz/LOCALS~1/Temp/cc1OEM1Z.s 			page 152


 7666 03d7 58       		.byte	0x58
 7667 03d8 00000000 		.4byte	0x0
 7668 03dc 00000000 		.4byte	0x0
 7669              	.LLST30:
 7670 03e0 EC050000 		.4byte	.LVL219-.Ltext0
 7671 03e4 FC050000 		.4byte	.LVL222-.Ltext0
 7672 03e8 0100     		.2byte	0x1
 7673 03ea 56       		.byte	0x56
 7674 03eb FC050000 		.4byte	.LVL222-.Ltext0
 7675 03ef 00060000 		.4byte	.LVL223-.Ltext0
 7676 03f3 0100     		.2byte	0x1
 7677 03f5 56       		.byte	0x56
 7678 03f6 00000000 		.4byte	0x0
 7679 03fa 00000000 		.4byte	0x0
 7680              	.LLST31:
 7681 03fe 8C070000 		.4byte	.LVL293-.Ltext0
 7682 0402 D4090000 		.4byte	.LVL396-.Ltext0
 7683 0406 0100     		.2byte	0x1
 7684 0408 58       		.byte	0x58
 7685 0409 00000000 		.4byte	0x0
 7686 040d 00000000 		.4byte	0x0
 7687              	.LLST32:
 7688 0411 50060000 		.4byte	.LVL239-.Ltext0
 7689 0415 90070000 		.4byte	.LVL294-.Ltext0
 7690 0419 0100     		.2byte	0x1
 7691 041b 56       		.byte	0x56
 7692 041c 00000000 		.4byte	0x0
 7693 0420 00000000 		.4byte	0x0
 7694              	.LLST33:
 7695 0424 7C060000 		.4byte	.LVL248-.Ltext0
 7696 0428 A0060000 		.4byte	.LVL256-.Ltext0
 7697 042c 0100     		.2byte	0x1
 7698 042e 57       		.byte	0x57
 7699 042f 00000000 		.4byte	0x0
 7700 0433 00000000 		.4byte	0x0
 7701              	.LLST34:
 7702 0437 78060000 		.4byte	.LVL246-.Ltext0
 7703 043b E8070000 		.4byte	.LVL311-.Ltext0
 7704 043f 0100     		.2byte	0x1
 7705 0441 55       		.byte	0x55
 7706 0442 00000000 		.4byte	0x0
 7707 0446 00000000 		.4byte	0x0
 7708              	.LLST35:
 7709 044a 8C060000 		.4byte	.LVL252-.Ltext0
 7710 044e A4060000 		.4byte	.LVL257-.Ltext0
 7711 0452 0100     		.2byte	0x1
 7712 0454 5C       		.byte	0x5c
 7713 0455 00000000 		.4byte	0x0
 7714 0459 00000000 		.4byte	0x0
 7715              	.LLST36:
 7716 045d A0060000 		.4byte	.LVL256-.Ltext0
 7717 0461 040A0000 		.4byte	.LVL400-.Ltext0
 7718 0465 0100     		.2byte	0x1
 7719 0467 57       		.byte	0x57
 7720 0468 00000000 		.4byte	0x0
 7721 046c 00000000 		.4byte	0x0
 7722              	.LLST37:
ARM GAS  /cygdrive/c/DOCUME~1/mkwapisz/LOCALS~1/Temp/cc1OEM1Z.s 			page 153


 7723 0470 90070000 		.4byte	.LVL294-.Ltext0
 7724 0474 CC090000 		.4byte	.LVL395-.Ltext0
 7725 0478 0100     		.2byte	0x1
 7726 047a 56       		.byte	0x56
 7727 047b 00000000 		.4byte	0x0
 7728 047f 00000000 		.4byte	0x0
 7729              	.LLST38:
 7730 0483 98090000 		.4byte	.LVL386-.Ltext0
 7731 0487 A0090000 		.4byte	.LVL389-.Ltext0
 7732 048b 0100     		.2byte	0x1
 7733 048d 54       		.byte	0x54
 7734 048e 400A0000 		.4byte	.LVL405-.Ltext0
 7735 0492 480A0000 		.4byte	.LVL407-.Ltext0
 7736 0496 0100     		.2byte	0x1
 7737 0498 54       		.byte	0x54
 7738 0499 400C0000 		.4byte	.LVL452-.Ltext0
 7739 049d 540C0000 		.4byte	.LVL453-.Ltext0
 7740 04a1 0100     		.2byte	0x1
 7741 04a3 54       		.byte	0x54
 7742 04a4 00000000 		.4byte	0x0
 7743 04a8 00000000 		.4byte	0x0
 7744              	.LLST39:
 7745 04ac A0090000 		.4byte	.LVL388-.Ltext0
 7746 04b0 8C0C0000 		.4byte	.LVL466-.Ltext0
 7747 04b4 0100     		.2byte	0x1
 7748 04b6 55       		.byte	0x55
 7749 04b7 00000000 		.4byte	0x0
 7750 04bb 00000000 		.4byte	0x0
 7751              	.LLST40:
 7752 04bf 9C090000 		.4byte	.LVL387-.Ltext0
 7753 04c3 540E0000 		.4byte	.LVL535-.Ltext0
 7754 04c7 0100     		.2byte	0x1
 7755 04c9 5B       		.byte	0x5b
 7756 04ca 00000000 		.4byte	0x0
 7757 04ce 00000000 		.4byte	0x0
 7758              	.LLST41:
 7759 04d2 CC090000 		.4byte	.LVL395-.Ltext0
 7760 04d6 4C0E0000 		.4byte	.LVL534-.Ltext0
 7761 04da 0100     		.2byte	0x1
 7762 04dc 56       		.byte	0x56
 7763 04dd 00000000 		.4byte	0x0
 7764 04e1 00000000 		.4byte	0x0
 7765              	.LLST42:
 7766 04e5 440A0000 		.4byte	.LVL406-.Ltext0
 7767 04e9 A80A0000 		.4byte	.LVL417-.Ltext0
 7768 04ed 0100     		.2byte	0x1
 7769 04ef 51       		.byte	0x51
 7770 04f0 00000000 		.4byte	0x0
 7771 04f4 00000000 		.4byte	0x0
 7772              	.LLST43:
 7773 04f8 640A0000 		.4byte	.LVL410-.Ltext0
 7774 04fc A00A0000 		.4byte	.LVL415-.Ltext0
 7775 0500 0100     		.2byte	0x1
 7776 0502 52       		.byte	0x52
 7777 0503 00000000 		.4byte	0x0
 7778 0507 00000000 		.4byte	0x0
 7779              	.LLST44:
ARM GAS  /cygdrive/c/DOCUME~1/mkwapisz/LOCALS~1/Temp/cc1OEM1Z.s 			page 154


 7780 050b 180B0000 		.4byte	.LVL426-.Ltext0
 7781 050f 680C0000 		.4byte	.LVL457-.Ltext0
 7782 0513 0100     		.2byte	0x1
 7783 0515 5E       		.byte	0x5e
 7784 0516 00000000 		.4byte	0x0
 7785 051a 00000000 		.4byte	0x0
 7786              	.LLST45:
 7787 051e CC0B0000 		.4byte	.LVL441-.Ltext0
 7788 0522 580C0000 		.4byte	.LVL454-.Ltext0
 7789 0526 0100     		.2byte	0x1
 7790 0528 51       		.byte	0x51
 7791 0529 00000000 		.4byte	0x0
 7792 052d 00000000 		.4byte	0x0
 7793              	.LLST46:
 7794 0531 1C0B0000 		.4byte	.LVL427-.Ltext0
 7795 0535 C00B0000 		.4byte	.LVL438-.Ltext0
 7796 0539 0100     		.2byte	0x1
 7797 053b 53       		.byte	0x53
 7798 053c 00000000 		.4byte	0x0
 7799 0540 00000000 		.4byte	0x0
 7800              	.LLST47:
 7801 0544 B80B0000 		.4byte	.LVL437-.Ltext0
 7802 0548 400C0000 		.4byte	.LVL451-.Ltext0
 7803 054c 0100     		.2byte	0x1
 7804 054e 5C       		.byte	0x5c
 7805 054f 00000000 		.4byte	0x0
 7806 0553 00000000 		.4byte	0x0
 7807              	.LLST48:
 7808 0557 C40B0000 		.4byte	.LVL439-.Ltext0
 7809 055b 600C0000 		.4byte	.LVL456-.Ltext0
 7810 055f 0100     		.2byte	0x1
 7811 0561 50       		.byte	0x50
 7812 0562 00000000 		.4byte	0x0
 7813 0566 00000000 		.4byte	0x0
 7814              	.LLST49:
 7815 056a 040C0000 		.4byte	.LVL445-.Ltext0
 7816 056e 840D0000 		.4byte	.LVL500-.Ltext0
 7817 0572 0100     		.2byte	0x1
 7818 0574 57       		.byte	0x57
 7819 0575 00000000 		.4byte	0x0
 7820 0579 00000000 		.4byte	0x0
 7821              	.LLST50:
 7822 057d 080C0000 		.4byte	.LVL446-.Ltext0
 7823 0581 200D0000 		.4byte	.LVL484-.Ltext0
 7824 0585 0100     		.2byte	0x1
 7825 0587 5A       		.byte	0x5a
 7826 0588 00000000 		.4byte	0x0
 7827 058c 00000000 		.4byte	0x0
 7828              	.LLST51:
 7829 0590 7C0C0000 		.4byte	.LVL461-.Ltext0
 7830 0594 800C0000 		.4byte	.LVL462-.Ltext0
 7831 0598 0100     		.2byte	0x1
 7832 059a 54       		.byte	0x54
 7833 059b 880C0000 		.4byte	.LVL465-.Ltext0
 7834 059f 940C0000 		.4byte	.LVL467-.Ltext0
 7835 05a3 0100     		.2byte	0x1
 7836 05a5 54       		.byte	0x54
ARM GAS  /cygdrive/c/DOCUME~1/mkwapisz/LOCALS~1/Temp/cc1OEM1Z.s 			page 155


 7837 05a6 00000000 		.4byte	0x0
 7838 05aa 00000000 		.4byte	0x0
 7839              	.LLST52:
 7840 05ae 880C0000 		.4byte	.LVL464-.Ltext0
 7841 05b2 940C0000 		.4byte	.LVL467-.Ltext0
 7842 05b6 0100     		.2byte	0x1
 7843 05b8 52       		.byte	0x52
 7844 05b9 00000000 		.4byte	0x0
 7845 05bd 00000000 		.4byte	0x0
 7846              	.LLST53:
 7847 05c1 8C0C0000 		.4byte	.LVL466-.Ltext0
 7848 05c5 B80C0000 		.4byte	.LVL471-.Ltext0
 7849 05c9 0100     		.2byte	0x1
 7850 05cb 55       		.byte	0x55
 7851 05cc 00000000 		.4byte	0x0
 7852 05d0 00000000 		.4byte	0x0
 7853              	.LLST54:
 7854 05d4 200D0000 		.4byte	.LVL484-.Ltext0
 7855 05d8 F00D0000 		.4byte	.LVL516-.Ltext0
 7856 05dc 0100     		.2byte	0x1
 7857 05de 5A       		.byte	0x5a
 7858 05df 00000000 		.4byte	0x0
 7859 05e3 00000000 		.4byte	0x0
 7860              	.LLST55:
 7861 05e7 840D0000 		.4byte	.LVL500-.Ltext0
 7862 05eb 9C0F0000 		.4byte	.LVL582-.Ltext0
 7863 05ef 0100     		.2byte	0x1
 7864 05f1 57       		.byte	0x57
 7865 05f2 00000000 		.4byte	0x0
 7866 05f6 00000000 		.4byte	0x0
 7867              	.LLST56:
 7868 05fa F00D0000 		.4byte	.LVL516-.Ltext0
 7869 05fe 100F0000 		.4byte	.LVL562-.Ltext0
 7870 0602 0100     		.2byte	0x1
 7871 0604 5A       		.byte	0x5a
 7872 0605 00000000 		.4byte	0x0
 7873 0609 00000000 		.4byte	0x0
 7874              	.LLST57:
 7875 060d 280E0000 		.4byte	.LVL528-.Ltext0
 7876 0611 C40E0000 		.4byte	.LVL550-.Ltext0
 7877 0615 0100     		.2byte	0x1
 7878 0617 55       		.byte	0x55
 7879 0618 00000000 		.4byte	0x0
 7880 061c 00000000 		.4byte	0x0
 7881              	.LLST58:
 7882 0620 3C0E0000 		.4byte	.LVL532-.Ltext0
 7883 0624 5C0E0000 		.4byte	.LVL536-.Ltext0
 7884 0628 0100     		.2byte	0x1
 7885 062a 54       		.byte	0x54
 7886 062b 780E0000 		.4byte	.LVL541-.Ltext0
 7887 062f 7C0E0000 		.4byte	.LVL542-.Ltext0
 7888 0633 0100     		.2byte	0x1
 7889 0635 54       		.byte	0x54
 7890 0636 00000000 		.4byte	0x0
 7891 063a 00000000 		.4byte	0x0
 7892              	.LLST59:
 7893 063e 4C0E0000 		.4byte	.LVL534-.Ltext0
ARM GAS  /cygdrive/c/DOCUME~1/mkwapisz/LOCALS~1/Temp/cc1OEM1Z.s 			page 156


 7894 0642 9C0E0000 		.4byte	.LVL546-.Ltext0
 7895 0646 0100     		.2byte	0x1
 7896 0648 56       		.byte	0x56
 7897 0649 00000000 		.4byte	0x0
 7898 064d 00000000 		.4byte	0x0
 7899              	.LLST60:
 7900 0651 540E0000 		.4byte	.LVL535-.Ltext0
 7901 0655 780E0000 		.4byte	.LVL540-.Ltext0
 7902 0659 0100     		.2byte	0x1
 7903 065b 5B       		.byte	0x5b
 7904 065c 00000000 		.4byte	0x0
 7905 0660 00000000 		.4byte	0x0
 7906              	.LLST61:
 7907 0664 780E0000 		.4byte	.LVL540-.Ltext0
 7908 0668 900F0000 		.4byte	.LVL581-.Ltext0
 7909 066c 0100     		.2byte	0x1
 7910 066e 5B       		.byte	0x5b
 7911 066f 00000000 		.4byte	0x0
 7912 0673 00000000 		.4byte	0x0
 7913              	.LLST62:
 7914 0677 0C0F0000 		.4byte	.LVL561-.Ltext0
 7915 067b 180F0000 		.4byte	.LVL563-.Ltext0
 7916 067f 0100     		.2byte	0x1
 7917 0681 54       		.byte	0x54
 7918 0682 400F0000 		.4byte	.LVL569-.Ltext0
 7919 0686 4C0F0000 		.4byte	.LVL571-.Ltext0
 7920 068a 0100     		.2byte	0x1
 7921 068c 54       		.byte	0x54
 7922 068d 00000000 		.4byte	0x0
 7923 0691 00000000 		.4byte	0x0
 7924              	.LLST63:
 7925 0695 100F0000 		.4byte	.LVL562-.Ltext0
 7926 0699 E0100000 		.4byte	.LVL625-.Ltext0
 7927 069d 0100     		.2byte	0x1
 7928 069f 5A       		.byte	0x5a
 7929 06a0 00000000 		.4byte	0x0
 7930 06a4 00000000 		.4byte	0x0
 7931              	.LLST64:
 7932 06a8 680F0000 		.4byte	.LVL574-.Ltext0
 7933 06ac 84100000 		.4byte	.LVL611-.Ltext0
 7934 06b0 0100     		.2byte	0x1
 7935 06b2 55       		.byte	0x55
 7936 06b3 00000000 		.4byte	0x0
 7937 06b7 00000000 		.4byte	0x0
 7938              	.LLST65:
 7939 06bb 800F0000 		.4byte	.LVL578-.Ltext0
 7940 06bf A40F0000 		.4byte	.LVL583-.Ltext0
 7941 06c3 0100     		.2byte	0x1
 7942 06c5 54       		.byte	0x54
 7943 06c6 24100000 		.4byte	.LVL600-.Ltext0
 7944 06ca 28100000 		.4byte	.LVL601-.Ltext0
 7945 06ce 0100     		.2byte	0x1
 7946 06d0 54       		.byte	0x54
 7947 06d1 00000000 		.4byte	0x0
 7948 06d5 00000000 		.4byte	0x0
 7949              	.LLST66:
 7950 06d9 8C0F0000 		.4byte	.LVL580-.Ltext0
ARM GAS  /cygdrive/c/DOCUME~1/mkwapisz/LOCALS~1/Temp/cc1OEM1Z.s 			page 157


 7951 06dd 48100000 		.4byte	.LVL605-.Ltext0
 7952 06e1 0100     		.2byte	0x1
 7953 06e3 56       		.byte	0x56
 7954 06e4 00000000 		.4byte	0x0
 7955 06e8 00000000 		.4byte	0x0
 7956              	.LLST67:
 7957 06ec 900F0000 		.4byte	.LVL581-.Ltext0
 7958 06f0 AC100000 		.4byte	.LVL619-.Ltext0
 7959 06f4 0100     		.2byte	0x1
 7960 06f6 5B       		.byte	0x5b
 7961 06f7 00000000 		.4byte	0x0
 7962 06fb 00000000 		.4byte	0x0
 7963              	.LLST68:
 7964 06ff 9C0F0000 		.4byte	.LVL582-.Ltext0
 7965 0703 C80F0000 		.4byte	.LVL587-.Ltext0
 7966 0707 0100     		.2byte	0x1
 7967 0709 57       		.byte	0x57
 7968 070a 00000000 		.4byte	0x0
 7969 070e 00000000 		.4byte	0x0
 7970              	.LLST69:
 7971 0712 C80F0000 		.4byte	.LVL587-.Ltext0
 7972 0716 F80F0000 		.4byte	.LVL593-.Ltext0
 7973 071a 0100     		.2byte	0x1
 7974 071c 57       		.byte	0x57
 7975 071d 00000000 		.4byte	0x0
 7976 0721 00000000 		.4byte	0x0
 7977              	.LLST70:
 7978 0725 EC0F0000 		.4byte	.LVL592-.Ltext0
 7979 0729 00110000 		.4byte	.LVL631-.Ltext0
 7980 072d 0100     		.2byte	0x1
 7981 072f 58       		.byte	0x58
 7982 0730 00000000 		.4byte	0x0
 7983 0734 00000000 		.4byte	0x0
 7984              	.LLST71:
 7985 0738 F80F0000 		.4byte	.LVL593-.Ltext0
 7986 073c 24100000 		.4byte	.LVL599-.Ltext0
 7987 0740 0100     		.2byte	0x1
 7988 0742 57       		.byte	0x57
 7989 0743 00000000 		.4byte	0x0
 7990 0747 00000000 		.4byte	0x0
 7991              	.LLST72:
 7992 074b 24100000 		.4byte	.LVL599-.Ltext0
 7993 074f 54100000 		.4byte	.LVL606-.Ltext0
 7994 0753 0100     		.2byte	0x1
 7995 0755 57       		.byte	0x57
 7996 0756 00000000 		.4byte	0x0
 7997 075a 00000000 		.4byte	0x0
 7998              	.LLST73:
 7999 075e A8100000 		.4byte	.LVL618-.Ltext0
 8000 0762 A4120000 		.4byte	.LVL673-.Ltext0
 8001 0766 0100     		.2byte	0x1
 8002 0768 57       		.byte	0x57
 8003 0769 00000000 		.4byte	0x0
 8004 076d 00000000 		.4byte	0x0
 8005              	.LLST74:
 8006 0771 B8100000 		.4byte	.LVL620-.Ltext0
 8007 0775 BC100000 		.4byte	.LVL621-.Ltext0
ARM GAS  /cygdrive/c/DOCUME~1/mkwapisz/LOCALS~1/Temp/cc1OEM1Z.s 			page 158


 8008 0779 0100     		.2byte	0x1
 8009 077b 54       		.byte	0x54
 8010 077c DC100000 		.4byte	.LVL624-.Ltext0
 8011 0780 E0100000 		.4byte	.LVL626-.Ltext0
 8012 0784 0100     		.2byte	0x1
 8013 0786 54       		.byte	0x54
 8014 0787 FC100000 		.4byte	.LVL630-.Ltext0
 8015 078b 04110000 		.4byte	.LVL632-.Ltext0
 8016 078f 0100     		.2byte	0x1
 8017 0791 54       		.byte	0x54
 8018 0792 00000000 		.4byte	0x0
 8019 0796 00000000 		.4byte	0x0
 8020              	.LLST75:
 8021 079a 00110000 		.4byte	.LVL631-.Ltext0
 8022 079e 5C110000 		.4byte	.LVL643-.Ltext0
 8023 07a2 0100     		.2byte	0x1
 8024 07a4 58       		.byte	0x58
 8025 07a5 00000000 		.4byte	0x0
 8026 07a9 00000000 		.4byte	0x0
 8027              	.LLST76:
 8028 07ad E0100000 		.4byte	.LVL625-.Ltext0
 8029 07b1 10110000 		.4byte	.LVL634-.Ltext0
 8030 07b5 0100     		.2byte	0x1
 8031 07b7 5A       		.byte	0x5a
 8032 07b8 00000000 		.4byte	0x0
 8033 07bc 00000000 		.4byte	0x0
 8034              	.LLST77:
 8035 07c0 10110000 		.4byte	.LVL634-.Ltext0
 8036 07c4 50110000 		.4byte	.LVL642-.Ltext0
 8037 07c8 0100     		.2byte	0x1
 8038 07ca 5A       		.byte	0x5a
 8039 07cb 00000000 		.4byte	0x0
 8040 07cf 00000000 		.4byte	0x0
 8041              	.LLST78:
 8042 07d3 18110000 		.4byte	.LVL635-.Ltext0
 8043 07d7 3C110000 		.4byte	.LVL639-.Ltext0
 8044 07db 0100     		.2byte	0x1
 8045 07dd 53       		.byte	0x53
 8046 07de 00000000 		.4byte	0x0
 8047 07e2 00000000 		.4byte	0x0
 8048              	.LLST79:
 8049 07e6 24110000 		.4byte	.LVL636-.Ltext0
 8050 07ea 28110000 		.4byte	.LVL637-.Ltext0
 8051 07ee 0100     		.2byte	0x1
 8052 07f0 54       		.byte	0x54
 8053 07f1 34110000 		.4byte	.LVL638-.Ltext0
 8054 07f5 3C110000 		.4byte	.LVL639-.Ltext0
 8055 07f9 0100     		.2byte	0x1
 8056 07fb 54       		.byte	0x54
 8057 07fc 5C110000 		.4byte	.LVL644-.Ltext0
 8058 0800 60110000 		.4byte	.LVL645-.Ltext0
 8059 0804 0100     		.2byte	0x1
 8060 0806 54       		.byte	0x54
 8061 0807 00000000 		.4byte	0x0
 8062 080b 00000000 		.4byte	0x0
 8063              	.LLST80:
 8064 080f 5C110000 		.4byte	.LVL643-.Ltext0
ARM GAS  /cygdrive/c/DOCUME~1/mkwapisz/LOCALS~1/Temp/cc1OEM1Z.s 			page 159


 8065 0813 C0110000 		.4byte	.LVL659-.Ltext0
 8066 0817 0100     		.2byte	0x1
 8067 0819 58       		.byte	0x58
 8068 081a 00000000 		.4byte	0x0
 8069 081e 00000000 		.4byte	0x0
 8070              	.LLST81:
 8071 0822 60110000 		.4byte	.LVL645-.Ltext0
 8072 0826 68110000 		.4byte	.LVL646-.Ltext0
 8073 082a 0100     		.2byte	0x1
 8074 082c 54       		.byte	0x54
 8075 082d 90110000 		.4byte	.LVL651-.Ltext0
 8076 0831 94110000 		.4byte	.LVL652-.Ltext0
 8077 0835 0100     		.2byte	0x1
 8078 0837 54       		.byte	0x54
 8079 0838 00000000 		.4byte	0x0
 8080 083c 00000000 		.4byte	0x0
 8081              	.LLST82:
 8082 0840 94110000 		.4byte	.LVL652-.Ltext0
 8083 0844 98110000 		.4byte	.LVL653-.Ltext0
 8084 0848 0100     		.2byte	0x1
 8085 084a 54       		.byte	0x54
 8086 084b 9C110000 		.4byte	.LVL654-.Ltext0
 8087 084f A4110000 		.4byte	.LVL655-.Ltext0
 8088 0853 0100     		.2byte	0x1
 8089 0855 54       		.byte	0x54
 8090 0856 C8110000 		.4byte	.LVL660-.Ltext0
 8091 085a CC110000 		.4byte	.LVL661-.Ltext0
 8092 085e 0100     		.2byte	0x1
 8093 0860 54       		.byte	0x54
 8094 0861 00000000 		.4byte	0x0
 8095 0865 00000000 		.4byte	0x0
 8096              	.LLST83:
 8097 0869 CC110000 		.4byte	.LVL661-.Ltext0
 8098 086d 54120000 		.4byte	.LVL662-.Ltext0
 8099 0871 0100     		.2byte	0x1
 8100 0873 54       		.byte	0x54
 8101 0874 7C120000 		.4byte	.LVL667-.Ltext0
 8102 0878 80120000 		.4byte	.LVL668-.Ltext0
 8103 087c 0100     		.2byte	0x1
 8104 087e 54       		.byte	0x54
 8105 087f 00000000 		.4byte	0x0
 8106 0883 00000000 		.4byte	0x0
 8107              	.LLST84:
 8108 0887 80120000 		.4byte	.LVL668-.Ltext0
 8109 088b 88120000 		.4byte	.LVL669-.Ltext0
 8110 088f 0100     		.2byte	0x1
 8111 0891 54       		.byte	0x54
 8112 0892 AC120000 		.4byte	.LVL674-.Ltext0
 8113 0896 B0120000 		.4byte	.LVL675-.Ltext0
 8114 089a 0100     		.2byte	0x1
 8115 089c 54       		.byte	0x54
 8116 089d 00000000 		.4byte	0x0
 8117 08a1 00000000 		.4byte	0x0
 8118              	.LLST85:
 8119 08a5 04020000 		.4byte	.LVL25-.Ltext0
 8120 08a9 08020000 		.4byte	.LVL27-.Ltext0
 8121 08ad 0100     		.2byte	0x1
ARM GAS  /cygdrive/c/DOCUME~1/mkwapisz/LOCALS~1/Temp/cc1OEM1Z.s 			page 160


 8122 08af 54       		.byte	0x54
 8123 08b0 00000000 		.4byte	0x0
 8124 08b4 00000000 		.4byte	0x0
 8125              	.LLST86:
 8126 08b8 D4010000 		.4byte	.LVL18-.Ltext0
 8127 08bc E8010000 		.4byte	.LVL22-.Ltext0
 8128 08c0 0100     		.2byte	0x1
 8129 08c2 50       		.byte	0x50
 8130 08c3 F8010000 		.4byte	.LVL23-.Ltext0
 8131 08c7 04020000 		.4byte	.LVL25-.Ltext0
 8132 08cb 0100     		.2byte	0x1
 8133 08cd 54       		.byte	0x54
 8134 08ce 00000000 		.4byte	0x0
 8135 08d2 00000000 		.4byte	0x0
 8136              	.LLST87:
 8137 08d6 10020000 		.4byte	.LVL28-.Ltext0
 8138 08da 1C020000 		.4byte	.LVL31-.Ltext0
 8139 08de 0100     		.2byte	0x1
 8140 08e0 54       		.byte	0x54
 8141 08e1 00000000 		.4byte	0x0
 8142 08e5 00000000 		.4byte	0x0
 8143              	.LLST88:
 8144 08e9 08020000 		.4byte	.LVL27-.Ltext0
 8145 08ed 10020000 		.4byte	.LVL28-.Ltext0
 8146 08f1 0100     		.2byte	0x1
 8147 08f3 54       		.byte	0x54
 8148 08f4 10020000 		.4byte	.LVL28-.Ltext0
 8149 08f8 18020000 		.4byte	.LVL29-.Ltext0
 8150 08fc 0100     		.2byte	0x1
 8151 08fe 51       		.byte	0x51
 8152 08ff 00000000 		.4byte	0x0
 8153 0903 00000000 		.4byte	0x0
 8154              	.LLST89:
 8155 0907 24020000 		.4byte	.LVL32-.Ltext0
 8156 090b 3C020000 		.4byte	.LVL37-.Ltext0
 8157 090f 0100     		.2byte	0x1
 8158 0911 54       		.byte	0x54
 8159 0912 50020000 		.4byte	.LVL40-.Ltext0
 8160 0916 54020000 		.4byte	.LVL41-.Ltext0
 8161 091a 0100     		.2byte	0x1
 8162 091c 54       		.byte	0x54
 8163 091d 00000000 		.4byte	0x0
 8164 0921 00000000 		.4byte	0x0
 8165              	.LLST90:
 8166 0925 1C020000 		.4byte	.LVL31-.Ltext0
 8167 0929 24020000 		.4byte	.LVL32-.Ltext0
 8168 092d 0100     		.2byte	0x1
 8169 092f 54       		.byte	0x54
 8170 0930 24020000 		.4byte	.LVL32-.Ltext0
 8171 0934 34020000 		.4byte	.LVL36-.Ltext0
 8172 0938 0100     		.2byte	0x1
 8173 093a 51       		.byte	0x51
 8174 093b 3C020000 		.4byte	.LVL37-.Ltext0
 8175 093f 48020000 		.4byte	.LVL38-.Ltext0
 8176 0943 0100     		.2byte	0x1
 8177 0945 54       		.byte	0x54
 8178 0946 00000000 		.4byte	0x0
ARM GAS  /cygdrive/c/DOCUME~1/mkwapisz/LOCALS~1/Temp/cc1OEM1Z.s 			page 161


 8179 094a 00000000 		.4byte	0x0
 8180              	.LLST91:
 8181 094e 4C020000 		.4byte	.LVL39-.Ltext0
 8182 0952 50020000 		.4byte	.LVL40-.Ltext0
 8183 0956 0100     		.2byte	0x1
 8184 0958 54       		.byte	0x54
 8185 0959 50020000 		.4byte	.LVL40-.Ltext0
 8186 095d 5C020000 		.4byte	.LVL43-.Ltext0
 8187 0961 0100     		.2byte	0x1
 8188 0963 50       		.byte	0x50
 8189 0964 7C020000 		.4byte	.LVL48-.Ltext0
 8190 0968 80020000 		.4byte	.LVL49-.Ltext0
 8191 096c 0100     		.2byte	0x1
 8192 096e 54       		.byte	0x54
 8193 096f 00000000 		.4byte	0x0
 8194 0973 00000000 		.4byte	0x0
 8195              	.LLST92:
 8196 0977 48020000 		.4byte	.LVL38-.Ltext0
 8197 097b 4C020000 		.4byte	.LVL39-.Ltext0
 8198 097f 0100     		.2byte	0x1
 8199 0981 54       		.byte	0x54
 8200 0982 4C020000 		.4byte	.LVL39-.Ltext0
 8201 0986 5C020000 		.4byte	.LVL43-.Ltext0
 8202 098a 0100     		.2byte	0x1
 8203 098c 51       		.byte	0x51
 8204 098d 64020000 		.4byte	.LVL45-.Ltext0
 8205 0991 6C020000 		.4byte	.LVL46-.Ltext0
 8206 0995 0100     		.2byte	0x1
 8207 0997 54       		.byte	0x54
 8208 0998 00000000 		.4byte	0x0
 8209 099c 00000000 		.4byte	0x0
 8210              	.LLST93:
 8211 09a0 78020000 		.4byte	.LVL47-.Ltext0
 8212 09a4 7C020000 		.4byte	.LVL48-.Ltext0
 8213 09a8 0100     		.2byte	0x1
 8214 09aa 54       		.byte	0x54
 8215 09ab 7C020000 		.4byte	.LVL48-.Ltext0
 8216 09af 8C020000 		.4byte	.LVL52-.Ltext0
 8217 09b3 0100     		.2byte	0x1
 8218 09b5 50       		.byte	0x50
 8219 09b6 A4020000 		.4byte	.LVL56-.Ltext0
 8220 09ba A8020000 		.4byte	.LVL58-.Ltext0
 8221 09be 0100     		.2byte	0x1
 8222 09c0 54       		.byte	0x54
 8223 09c1 00000000 		.4byte	0x0
 8224 09c5 00000000 		.4byte	0x0
 8225              	.LLST94:
 8226 09c9 6C020000 		.4byte	.LVL46-.Ltext0
 8227 09cd 78020000 		.4byte	.LVL47-.Ltext0
 8228 09d1 0100     		.2byte	0x1
 8229 09d3 54       		.byte	0x54
 8230 09d4 78020000 		.4byte	.LVL47-.Ltext0
 8231 09d8 8C020000 		.4byte	.LVL52-.Ltext0
 8232 09dc 0100     		.2byte	0x1
 8233 09de 51       		.byte	0x51
 8234 09df 94020000 		.4byte	.LVL54-.Ltext0
 8235 09e3 A4020000 		.4byte	.LVL56-.Ltext0
ARM GAS  /cygdrive/c/DOCUME~1/mkwapisz/LOCALS~1/Temp/cc1OEM1Z.s 			page 162


 8236 09e7 0100     		.2byte	0x1
 8237 09e9 54       		.byte	0x54
 8238 09ea 00000000 		.4byte	0x0
 8239 09ee 00000000 		.4byte	0x0
 8240              	.LLST95:
 8241 09f2 B0020000 		.4byte	.LVL59-.Ltext0
 8242 09f6 BC020000 		.4byte	.LVL62-.Ltext0
 8243 09fa 0100     		.2byte	0x1
 8244 09fc 54       		.byte	0x54
 8245 09fd 00000000 		.4byte	0x0
 8246 0a01 00000000 		.4byte	0x0
 8247              	.LLST96:
 8248 0a05 A8020000 		.4byte	.LVL58-.Ltext0
 8249 0a09 B0020000 		.4byte	.LVL59-.Ltext0
 8250 0a0d 0100     		.2byte	0x1
 8251 0a0f 54       		.byte	0x54
 8252 0a10 B0020000 		.4byte	.LVL59-.Ltext0
 8253 0a14 B8020000 		.4byte	.LVL60-.Ltext0
 8254 0a18 0100     		.2byte	0x1
 8255 0a1a 51       		.byte	0x51
 8256 0a1b 00000000 		.4byte	0x0
 8257 0a1f 00000000 		.4byte	0x0
 8258              	.LLST97:
 8259 0a23 C4020000 		.4byte	.LVL63-.Ltext0
 8260 0a27 D8020000 		.4byte	.LVL68-.Ltext0
 8261 0a2b 0100     		.2byte	0x1
 8262 0a2d 54       		.byte	0x54
 8263 0a2e EC020000 		.4byte	.LVL71-.Ltext0
 8264 0a32 F0020000 		.4byte	.LVL72-.Ltext0
 8265 0a36 0100     		.2byte	0x1
 8266 0a38 54       		.byte	0x54
 8267 0a39 00000000 		.4byte	0x0
 8268 0a3d 00000000 		.4byte	0x0
 8269              	.LLST98:
 8270 0a41 BC020000 		.4byte	.LVL62-.Ltext0
 8271 0a45 C4020000 		.4byte	.LVL63-.Ltext0
 8272 0a49 0100     		.2byte	0x1
 8273 0a4b 54       		.byte	0x54
 8274 0a4c C4020000 		.4byte	.LVL63-.Ltext0
 8275 0a50 D4020000 		.4byte	.LVL67-.Ltext0
 8276 0a54 0100     		.2byte	0x1
 8277 0a56 51       		.byte	0x51
 8278 0a57 D8020000 		.4byte	.LVL68-.Ltext0
 8279 0a5b E0020000 		.4byte	.LVL69-.Ltext0
 8280 0a5f 0100     		.2byte	0x1
 8281 0a61 54       		.byte	0x54
 8282 0a62 00000000 		.4byte	0x0
 8283 0a66 00000000 		.4byte	0x0
 8284              	.LLST99:
 8285 0a6a E8020000 		.4byte	.LVL70-.Ltext0
 8286 0a6e EC020000 		.4byte	.LVL71-.Ltext0
 8287 0a72 0100     		.2byte	0x1
 8288 0a74 54       		.byte	0x54
 8289 0a75 EC020000 		.4byte	.LVL71-.Ltext0
 8290 0a79 F8020000 		.4byte	.LVL74-.Ltext0
 8291 0a7d 0100     		.2byte	0x1
 8292 0a7f 50       		.byte	0x50
ARM GAS  /cygdrive/c/DOCUME~1/mkwapisz/LOCALS~1/Temp/cc1OEM1Z.s 			page 163


 8293 0a80 18030000 		.4byte	.LVL79-.Ltext0
 8294 0a84 1C030000 		.4byte	.LVL80-.Ltext0
 8295 0a88 0100     		.2byte	0x1
 8296 0a8a 54       		.byte	0x54
 8297 0a8b 00000000 		.4byte	0x0
 8298 0a8f 00000000 		.4byte	0x0
 8299              	.LLST100:
 8300 0a93 E0020000 		.4byte	.LVL69-.Ltext0
 8301 0a97 E8020000 		.4byte	.LVL70-.Ltext0
 8302 0a9b 0100     		.2byte	0x1
 8303 0a9d 54       		.byte	0x54
 8304 0a9e E8020000 		.4byte	.LVL70-.Ltext0
 8305 0aa2 F8020000 		.4byte	.LVL74-.Ltext0
 8306 0aa6 0100     		.2byte	0x1
 8307 0aa8 51       		.byte	0x51
 8308 0aa9 00030000 		.4byte	.LVL76-.Ltext0
 8309 0aad 08030000 		.4byte	.LVL77-.Ltext0
 8310 0ab1 0100     		.2byte	0x1
 8311 0ab3 54       		.byte	0x54
 8312 0ab4 00000000 		.4byte	0x0
 8313 0ab8 00000000 		.4byte	0x0
 8314              	.LLST101:
 8315 0abc 14030000 		.4byte	.LVL78-.Ltext0
 8316 0ac0 18030000 		.4byte	.LVL79-.Ltext0
 8317 0ac4 0100     		.2byte	0x1
 8318 0ac6 54       		.byte	0x54
 8319 0ac7 18030000 		.4byte	.LVL79-.Ltext0
 8320 0acb 28030000 		.4byte	.LVL83-.Ltext0
 8321 0acf 0100     		.2byte	0x1
 8322 0ad1 50       		.byte	0x50
 8323 0ad2 44030000 		.4byte	.LVL87-.Ltext0
 8324 0ad6 48030000 		.4byte	.LVL89-.Ltext0
 8325 0ada 0100     		.2byte	0x1
 8326 0adc 54       		.byte	0x54
 8327 0add 00000000 		.4byte	0x0
 8328 0ae1 00000000 		.4byte	0x0
 8329              	.LLST102:
 8330 0ae5 08030000 		.4byte	.LVL77-.Ltext0
 8331 0ae9 14030000 		.4byte	.LVL78-.Ltext0
 8332 0aed 0100     		.2byte	0x1
 8333 0aef 54       		.byte	0x54
 8334 0af0 14030000 		.4byte	.LVL78-.Ltext0
 8335 0af4 28030000 		.4byte	.LVL83-.Ltext0
 8336 0af8 0100     		.2byte	0x1
 8337 0afa 51       		.byte	0x51
 8338 0afb 38030000 		.4byte	.LVL85-.Ltext0
 8339 0aff 44030000 		.4byte	.LVL87-.Ltext0
 8340 0b03 0100     		.2byte	0x1
 8341 0b05 54       		.byte	0x54
 8342 0b06 00000000 		.4byte	0x0
 8343 0b0a 00000000 		.4byte	0x0
 8344              	.LLST103:
 8345 0b0e 50030000 		.4byte	.LVL90-.Ltext0
 8346 0b12 5C030000 		.4byte	.LVL93-.Ltext0
 8347 0b16 0100     		.2byte	0x1
 8348 0b18 54       		.byte	0x54
 8349 0b19 00000000 		.4byte	0x0
ARM GAS  /cygdrive/c/DOCUME~1/mkwapisz/LOCALS~1/Temp/cc1OEM1Z.s 			page 164


 8350 0b1d 00000000 		.4byte	0x0
 8351              	.LLST104:
 8352 0b21 48030000 		.4byte	.LVL89-.Ltext0
 8353 0b25 50030000 		.4byte	.LVL90-.Ltext0
 8354 0b29 0100     		.2byte	0x1
 8355 0b2b 54       		.byte	0x54
 8356 0b2c 50030000 		.4byte	.LVL90-.Ltext0
 8357 0b30 58030000 		.4byte	.LVL91-.Ltext0
 8358 0b34 0100     		.2byte	0x1
 8359 0b36 51       		.byte	0x51
 8360 0b37 00000000 		.4byte	0x0
 8361 0b3b 00000000 		.4byte	0x0
 8362              	.LLST105:
 8363 0b3f 64030000 		.4byte	.LVL94-.Ltext0
 8364 0b43 7C030000 		.4byte	.LVL99-.Ltext0
 8365 0b47 0100     		.2byte	0x1
 8366 0b49 54       		.byte	0x54
 8367 0b4a 90030000 		.4byte	.LVL102-.Ltext0
 8368 0b4e 94030000 		.4byte	.LVL103-.Ltext0
 8369 0b52 0100     		.2byte	0x1
 8370 0b54 54       		.byte	0x54
 8371 0b55 00000000 		.4byte	0x0
 8372 0b59 00000000 		.4byte	0x0
 8373              	.LLST106:
 8374 0b5d 5C030000 		.4byte	.LVL93-.Ltext0
 8375 0b61 64030000 		.4byte	.LVL94-.Ltext0
 8376 0b65 0100     		.2byte	0x1
 8377 0b67 54       		.byte	0x54
 8378 0b68 64030000 		.4byte	.LVL94-.Ltext0
 8379 0b6c 74030000 		.4byte	.LVL98-.Ltext0
 8380 0b70 0100     		.2byte	0x1
 8381 0b72 51       		.byte	0x51
 8382 0b73 7C030000 		.4byte	.LVL99-.Ltext0
 8383 0b77 88030000 		.4byte	.LVL100-.Ltext0
 8384 0b7b 0100     		.2byte	0x1
 8385 0b7d 54       		.byte	0x54
 8386 0b7e 00000000 		.4byte	0x0
 8387 0b82 00000000 		.4byte	0x0
 8388              	.LLST107:
 8389 0b86 8C030000 		.4byte	.LVL101-.Ltext0
 8390 0b8a 90030000 		.4byte	.LVL102-.Ltext0
 8391 0b8e 0100     		.2byte	0x1
 8392 0b90 54       		.byte	0x54
 8393 0b91 90030000 		.4byte	.LVL102-.Ltext0
 8394 0b95 9C030000 		.4byte	.LVL105-.Ltext0
 8395 0b99 0100     		.2byte	0x1
 8396 0b9b 50       		.byte	0x50
 8397 0b9c BC030000 		.4byte	.LVL110-.Ltext0
 8398 0ba0 C0030000 		.4byte	.LVL111-.Ltext0
 8399 0ba4 0100     		.2byte	0x1
 8400 0ba6 54       		.byte	0x54
 8401 0ba7 00000000 		.4byte	0x0
 8402 0bab 00000000 		.4byte	0x0
 8403              	.LLST108:
 8404 0baf 88030000 		.4byte	.LVL100-.Ltext0
 8405 0bb3 8C030000 		.4byte	.LVL101-.Ltext0
 8406 0bb7 0100     		.2byte	0x1
ARM GAS  /cygdrive/c/DOCUME~1/mkwapisz/LOCALS~1/Temp/cc1OEM1Z.s 			page 165


 8407 0bb9 54       		.byte	0x54
 8408 0bba 8C030000 		.4byte	.LVL101-.Ltext0
 8409 0bbe 9C030000 		.4byte	.LVL105-.Ltext0
 8410 0bc2 0100     		.2byte	0x1
 8411 0bc4 51       		.byte	0x51
 8412 0bc5 A4030000 		.4byte	.LVL107-.Ltext0
 8413 0bc9 AC030000 		.4byte	.LVL108-.Ltext0
 8414 0bcd 0100     		.2byte	0x1
 8415 0bcf 54       		.byte	0x54
 8416 0bd0 00000000 		.4byte	0x0
 8417 0bd4 00000000 		.4byte	0x0
 8418              	.LLST109:
 8419 0bd8 B8030000 		.4byte	.LVL109-.Ltext0
 8420 0bdc BC030000 		.4byte	.LVL110-.Ltext0
 8421 0be0 0100     		.2byte	0x1
 8422 0be2 54       		.byte	0x54
 8423 0be3 BC030000 		.4byte	.LVL110-.Ltext0
 8424 0be7 CC030000 		.4byte	.LVL114-.Ltext0
 8425 0beb 0100     		.2byte	0x1
 8426 0bed 50       		.byte	0x50
 8427 0bee E8030000 		.4byte	.LVL118-.Ltext0
 8428 0bf2 EC030000 		.4byte	.LVL120-.Ltext0
 8429 0bf6 0100     		.2byte	0x1
 8430 0bf8 54       		.byte	0x54
 8431 0bf9 00000000 		.4byte	0x0
 8432 0bfd 00000000 		.4byte	0x0
 8433              	.LLST110:
 8434 0c01 AC030000 		.4byte	.LVL108-.Ltext0
 8435 0c05 B8030000 		.4byte	.LVL109-.Ltext0
 8436 0c09 0100     		.2byte	0x1
 8437 0c0b 54       		.byte	0x54
 8438 0c0c B8030000 		.4byte	.LVL109-.Ltext0
 8439 0c10 CC030000 		.4byte	.LVL114-.Ltext0
 8440 0c14 0100     		.2byte	0x1
 8441 0c16 51       		.byte	0x51
 8442 0c17 DC030000 		.4byte	.LVL116-.Ltext0
 8443 0c1b E8030000 		.4byte	.LVL118-.Ltext0
 8444 0c1f 0100     		.2byte	0x1
 8445 0c21 54       		.byte	0x54
 8446 0c22 00000000 		.4byte	0x0
 8447 0c26 00000000 		.4byte	0x0
 8448              	.LLST111:
 8449 0c2a F4030000 		.4byte	.LVL121-.Ltext0
 8450 0c2e 00040000 		.4byte	.LVL124-.Ltext0
 8451 0c32 0100     		.2byte	0x1
 8452 0c34 54       		.byte	0x54
 8453 0c35 00000000 		.4byte	0x0
 8454 0c39 00000000 		.4byte	0x0
 8455              	.LLST112:
 8456 0c3d EC030000 		.4byte	.LVL120-.Ltext0
 8457 0c41 F4030000 		.4byte	.LVL121-.Ltext0
 8458 0c45 0100     		.2byte	0x1
 8459 0c47 54       		.byte	0x54
 8460 0c48 F4030000 		.4byte	.LVL121-.Ltext0
 8461 0c4c FC030000 		.4byte	.LVL122-.Ltext0
 8462 0c50 0100     		.2byte	0x1
 8463 0c52 51       		.byte	0x51
ARM GAS  /cygdrive/c/DOCUME~1/mkwapisz/LOCALS~1/Temp/cc1OEM1Z.s 			page 166


 8464 0c53 00000000 		.4byte	0x0
 8465 0c57 00000000 		.4byte	0x0
 8466              	.LLST113:
 8467 0c5b 08040000 		.4byte	.LVL125-.Ltext0
 8468 0c5f 24040000 		.4byte	.LVL130-.Ltext0
 8469 0c63 0100     		.2byte	0x1
 8470 0c65 54       		.byte	0x54
 8471 0c66 34040000 		.4byte	.LVL133-.Ltext0
 8472 0c6a 38040000 		.4byte	.LVL134-.Ltext0
 8473 0c6e 0100     		.2byte	0x1
 8474 0c70 54       		.byte	0x54
 8475 0c71 00000000 		.4byte	0x0
 8476 0c75 00000000 		.4byte	0x0
 8477              	.LLST114:
 8478 0c79 00040000 		.4byte	.LVL124-.Ltext0
 8479 0c7d 08040000 		.4byte	.LVL125-.Ltext0
 8480 0c81 0100     		.2byte	0x1
 8481 0c83 54       		.byte	0x54
 8482 0c84 08040000 		.4byte	.LVL125-.Ltext0
 8483 0c88 18040000 		.4byte	.LVL129-.Ltext0
 8484 0c8c 0100     		.2byte	0x1
 8485 0c8e 51       		.byte	0x51
 8486 0c8f 24040000 		.4byte	.LVL130-.Ltext0
 8487 0c93 2C040000 		.4byte	.LVL131-.Ltext0
 8488 0c97 0100     		.2byte	0x1
 8489 0c99 54       		.byte	0x54
 8490 0c9a 00000000 		.4byte	0x0
 8491 0c9e 00000000 		.4byte	0x0
 8492              	.LLST115:
 8493 0ca2 30040000 		.4byte	.LVL132-.Ltext0
 8494 0ca6 34040000 		.4byte	.LVL133-.Ltext0
 8495 0caa 0100     		.2byte	0x1
 8496 0cac 54       		.byte	0x54
 8497 0cad 34040000 		.4byte	.LVL133-.Ltext0
 8498 0cb1 40040000 		.4byte	.LVL136-.Ltext0
 8499 0cb5 0100     		.2byte	0x1
 8500 0cb7 50       		.byte	0x50
 8501 0cb8 60040000 		.4byte	.LVL141-.Ltext0
 8502 0cbc 64040000 		.4byte	.LVL142-.Ltext0
 8503 0cc0 0100     		.2byte	0x1
 8504 0cc2 54       		.byte	0x54
 8505 0cc3 00000000 		.4byte	0x0
 8506 0cc7 00000000 		.4byte	0x0
 8507              	.LLST116:
 8508 0ccb 2C040000 		.4byte	.LVL131-.Ltext0
 8509 0ccf 30040000 		.4byte	.LVL132-.Ltext0
 8510 0cd3 0100     		.2byte	0x1
 8511 0cd5 54       		.byte	0x54
 8512 0cd6 30040000 		.4byte	.LVL132-.Ltext0
 8513 0cda 40040000 		.4byte	.LVL136-.Ltext0
 8514 0cde 0100     		.2byte	0x1
 8515 0ce0 51       		.byte	0x51
 8516 0ce1 48040000 		.4byte	.LVL138-.Ltext0
 8517 0ce5 50040000 		.4byte	.LVL139-.Ltext0
 8518 0ce9 0100     		.2byte	0x1
 8519 0ceb 54       		.byte	0x54
 8520 0cec 00000000 		.4byte	0x0
ARM GAS  /cygdrive/c/DOCUME~1/mkwapisz/LOCALS~1/Temp/cc1OEM1Z.s 			page 167


 8521 0cf0 00000000 		.4byte	0x0
 8522              	.LLST117:
 8523 0cf4 5C040000 		.4byte	.LVL140-.Ltext0
 8524 0cf8 60040000 		.4byte	.LVL141-.Ltext0
 8525 0cfc 0100     		.2byte	0x1
 8526 0cfe 54       		.byte	0x54
 8527 0cff 60040000 		.4byte	.LVL141-.Ltext0
 8528 0d03 70040000 		.4byte	.LVL145-.Ltext0
 8529 0d07 0100     		.2byte	0x1
 8530 0d09 50       		.byte	0x50
 8531 0d0a 8C040000 		.4byte	.LVL149-.Ltext0
 8532 0d0e 90040000 		.4byte	.LVL151-.Ltext0
 8533 0d12 0100     		.2byte	0x1
 8534 0d14 54       		.byte	0x54
 8535 0d15 00000000 		.4byte	0x0
 8536 0d19 00000000 		.4byte	0x0
 8537              	.LLST118:
 8538 0d1d 50040000 		.4byte	.LVL139-.Ltext0
 8539 0d21 5C040000 		.4byte	.LVL140-.Ltext0
 8540 0d25 0100     		.2byte	0x1
 8541 0d27 54       		.byte	0x54
 8542 0d28 5C040000 		.4byte	.LVL140-.Ltext0
 8543 0d2c 70040000 		.4byte	.LVL145-.Ltext0
 8544 0d30 0100     		.2byte	0x1
 8545 0d32 51       		.byte	0x51
 8546 0d33 80040000 		.4byte	.LVL147-.Ltext0
 8547 0d37 8C040000 		.4byte	.LVL149-.Ltext0
 8548 0d3b 0100     		.2byte	0x1
 8549 0d3d 54       		.byte	0x54
 8550 0d3e 00000000 		.4byte	0x0
 8551 0d42 00000000 		.4byte	0x0
 8552              	.LLST119:
 8553 0d46 98040000 		.4byte	.LVL152-.Ltext0
 8554 0d4a A4040000 		.4byte	.LVL155-.Ltext0
 8555 0d4e 0100     		.2byte	0x1
 8556 0d50 54       		.byte	0x54
 8557 0d51 00000000 		.4byte	0x0
 8558 0d55 00000000 		.4byte	0x0
 8559              	.LLST120:
 8560 0d59 90040000 		.4byte	.LVL151-.Ltext0
 8561 0d5d 98040000 		.4byte	.LVL152-.Ltext0
 8562 0d61 0100     		.2byte	0x1
 8563 0d63 54       		.byte	0x54
 8564 0d64 98040000 		.4byte	.LVL152-.Ltext0
 8565 0d68 A0040000 		.4byte	.LVL153-.Ltext0
 8566 0d6c 0100     		.2byte	0x1
 8567 0d6e 51       		.byte	0x51
 8568 0d6f 00000000 		.4byte	0x0
 8569 0d73 00000000 		.4byte	0x0
 8570              	.LLST121:
 8571 0d77 AC040000 		.4byte	.LVL156-.Ltext0
 8572 0d7b C4040000 		.4byte	.LVL161-.Ltext0
 8573 0d7f 0100     		.2byte	0x1
 8574 0d81 54       		.byte	0x54
 8575 0d82 D8040000 		.4byte	.LVL164-.Ltext0
 8576 0d86 DC040000 		.4byte	.LVL165-.Ltext0
 8577 0d8a 0100     		.2byte	0x1
ARM GAS  /cygdrive/c/DOCUME~1/mkwapisz/LOCALS~1/Temp/cc1OEM1Z.s 			page 168


 8578 0d8c 54       		.byte	0x54
 8579 0d8d 00000000 		.4byte	0x0
 8580 0d91 00000000 		.4byte	0x0
 8581              	.LLST122:
 8582 0d95 A4040000 		.4byte	.LVL155-.Ltext0
 8583 0d99 AC040000 		.4byte	.LVL156-.Ltext0
 8584 0d9d 0100     		.2byte	0x1
 8585 0d9f 54       		.byte	0x54
 8586 0da0 AC040000 		.4byte	.LVL156-.Ltext0
 8587 0da4 BC040000 		.4byte	.LVL160-.Ltext0
 8588 0da8 0100     		.2byte	0x1
 8589 0daa 51       		.byte	0x51
 8590 0dab C4040000 		.4byte	.LVL161-.Ltext0
 8591 0daf D0040000 		.4byte	.LVL162-.Ltext0
 8592 0db3 0100     		.2byte	0x1
 8593 0db5 54       		.byte	0x54
 8594 0db6 00000000 		.4byte	0x0
 8595 0dba 00000000 		.4byte	0x0
 8596              	.LLST123:
 8597 0dbe D4040000 		.4byte	.LVL163-.Ltext0
 8598 0dc2 D8040000 		.4byte	.LVL164-.Ltext0
 8599 0dc6 0100     		.2byte	0x1
 8600 0dc8 54       		.byte	0x54
 8601 0dc9 D8040000 		.4byte	.LVL164-.Ltext0
 8602 0dcd E4040000 		.4byte	.LVL167-.Ltext0
 8603 0dd1 0100     		.2byte	0x1
 8604 0dd3 50       		.byte	0x50
 8605 0dd4 00050000 		.4byte	.LVL172-.Ltext0
 8606 0dd8 04050000 		.4byte	.LVL173-.Ltext0
 8607 0ddc 0100     		.2byte	0x1
 8608 0dde 54       		.byte	0x54
 8609 0ddf 00000000 		.4byte	0x0
 8610 0de3 00000000 		.4byte	0x0
 8611              	.LLST124:
 8612 0de7 D0040000 		.4byte	.LVL162-.Ltext0
 8613 0deb D4040000 		.4byte	.LVL163-.Ltext0
 8614 0def 0100     		.2byte	0x1
 8615 0df1 54       		.byte	0x54
 8616 0df2 D4040000 		.4byte	.LVL163-.Ltext0
 8617 0df6 E4040000 		.4byte	.LVL167-.Ltext0
 8618 0dfa 0100     		.2byte	0x1
 8619 0dfc 51       		.byte	0x51
 8620 0dfd EC040000 		.4byte	.LVL169-.Ltext0
 8621 0e01 FC040000 		.4byte	.LVL171-.Ltext0
 8622 0e05 0100     		.2byte	0x1
 8623 0e07 54       		.byte	0x54
 8624 0e08 00000000 		.4byte	0x0
 8625 0e0c 00000000 		.4byte	0x0
 8626              	.LLST125:
 8627 0e10 FC040000 		.4byte	.LVL171-.Ltext0
 8628 0e14 00050000 		.4byte	.LVL172-.Ltext0
 8629 0e18 0100     		.2byte	0x1
 8630 0e1a 54       		.byte	0x54
 8631 0e1b 00050000 		.4byte	.LVL172-.Ltext0
 8632 0e1f 10050000 		.4byte	.LVL176-.Ltext0
 8633 0e23 0100     		.2byte	0x1
 8634 0e25 50       		.byte	0x50
ARM GAS  /cygdrive/c/DOCUME~1/mkwapisz/LOCALS~1/Temp/cc1OEM1Z.s 			page 169


 8635 0e26 30050000 		.4byte	.LVL181-.Ltext0
 8636 0e2a 34050000 		.4byte	.LVL182-.Ltext0
 8637 0e2e 0100     		.2byte	0x1
 8638 0e30 54       		.byte	0x54
 8639 0e31 00000000 		.4byte	0x0
 8640 0e35 00000000 		.4byte	0x0
 8641              	.LLST126:
 8642 0e39 F4040000 		.4byte	.LVL170-.Ltext0
 8643 0e3d 1C050000 		.4byte	.LVL178-.Ltext0
 8644 0e41 0100     		.2byte	0x1
 8645 0e43 59       		.byte	0x59
 8646 0e44 00000000 		.4byte	0x0
 8647 0e48 00000000 		.4byte	0x0
 8648              	.LLST127:
 8649 0e4c 2C050000 		.4byte	.LVL180-.Ltext0
 8650 0e50 30050000 		.4byte	.LVL181-.Ltext0
 8651 0e54 0100     		.2byte	0x1
 8652 0e56 54       		.byte	0x54
 8653 0e57 30050000 		.4byte	.LVL181-.Ltext0
 8654 0e5b 40050000 		.4byte	.LVL185-.Ltext0
 8655 0e5f 0100     		.2byte	0x1
 8656 0e61 50       		.byte	0x50
 8657 0e62 48050000 		.4byte	.LVL186-.Ltext0
 8658 0e66 50050000 		.4byte	.LVL188-.Ltext0
 8659 0e6a 0100     		.2byte	0x1
 8660 0e6c 54       		.byte	0x54
 8661 0e6d 00000000 		.4byte	0x0
 8662 0e71 00000000 		.4byte	0x0
 8663              	.LLST128:
 8664 0e75 20050000 		.4byte	.LVL179-.Ltext0
 8665 0e79 2C050000 		.4byte	.LVL180-.Ltext0
 8666 0e7d 0100     		.2byte	0x1
 8667 0e7f 54       		.byte	0x54
 8668 0e80 2C050000 		.4byte	.LVL180-.Ltext0
 8669 0e84 40050000 		.4byte	.LVL185-.Ltext0
 8670 0e88 0100     		.2byte	0x1
 8671 0e8a 51       		.byte	0x51
 8672 0e8b 40050000 		.4byte	.LVL185-.Ltext0
 8673 0e8f 48050000 		.4byte	.LVL186-.Ltext0
 8674 0e93 0100     		.2byte	0x1
 8675 0e95 54       		.byte	0x54
 8676 0e96 00000000 		.4byte	0x0
 8677 0e9a 00000000 		.4byte	0x0
 8678              	.LLST129:
 8679 0e9e 60050000 		.4byte	.LVL192-.Ltext0
 8680 0ea2 70050000 		.4byte	.LVL195-.Ltext0
 8681 0ea6 0100     		.2byte	0x1
 8682 0ea8 54       		.byte	0x54
 8683 0ea9 84050000 		.4byte	.LVL198-.Ltext0
 8684 0ead 88050000 		.4byte	.LVL199-.Ltext0
 8685 0eb1 0100     		.2byte	0x1
 8686 0eb3 54       		.byte	0x54
 8687 0eb4 00000000 		.4byte	0x0
 8688 0eb8 00000000 		.4byte	0x0
 8689              	.LLST130:
 8690 0ebc 58050000 		.4byte	.LVL189-.Ltext0
 8691 0ec0 5C050000 		.4byte	.LVL190-.Ltext0
ARM GAS  /cygdrive/c/DOCUME~1/mkwapisz/LOCALS~1/Temp/cc1OEM1Z.s 			page 170


 8692 0ec4 0100     		.2byte	0x1
 8693 0ec6 54       		.byte	0x54
 8694 0ec7 5C050000 		.4byte	.LVL190-.Ltext0
 8695 0ecb 6C050000 		.4byte	.LVL194-.Ltext0
 8696 0ecf 0100     		.2byte	0x1
 8697 0ed1 51       		.byte	0x51
 8698 0ed2 70050000 		.4byte	.LVL195-.Ltext0
 8699 0ed6 78050000 		.4byte	.LVL196-.Ltext0
 8700 0eda 0100     		.2byte	0x1
 8701 0edc 54       		.byte	0x54
 8702 0edd 00000000 		.4byte	0x0
 8703 0ee1 00000000 		.4byte	0x0
 8704              	.LLST131:
 8705 0ee5 80050000 		.4byte	.LVL197-.Ltext0
 8706 0ee9 84050000 		.4byte	.LVL198-.Ltext0
 8707 0eed 0100     		.2byte	0x1
 8708 0eef 54       		.byte	0x54
 8709 0ef0 84050000 		.4byte	.LVL198-.Ltext0
 8710 0ef4 90050000 		.4byte	.LVL201-.Ltext0
 8711 0ef8 0100     		.2byte	0x1
 8712 0efa 50       		.byte	0x50
 8713 0efb B0050000 		.4byte	.LVL206-.Ltext0
 8714 0eff B4050000 		.4byte	.LVL207-.Ltext0
 8715 0f03 0100     		.2byte	0x1
 8716 0f05 54       		.byte	0x54
 8717 0f06 00000000 		.4byte	0x0
 8718 0f0a 00000000 		.4byte	0x0
 8719              	.LLST132:
 8720 0f0e 78050000 		.4byte	.LVL196-.Ltext0
 8721 0f12 80050000 		.4byte	.LVL197-.Ltext0
 8722 0f16 0100     		.2byte	0x1
 8723 0f18 54       		.byte	0x54
 8724 0f19 80050000 		.4byte	.LVL197-.Ltext0
 8725 0f1d 90050000 		.4byte	.LVL201-.Ltext0
 8726 0f21 0100     		.2byte	0x1
 8727 0f23 51       		.byte	0x51
 8728 0f24 98050000 		.4byte	.LVL203-.Ltext0
 8729 0f28 A0050000 		.4byte	.LVL204-.Ltext0
 8730 0f2c 0100     		.2byte	0x1
 8731 0f2e 54       		.byte	0x54
 8732 0f2f 00000000 		.4byte	0x0
 8733 0f33 00000000 		.4byte	0x0
 8734              	.LLST133:
 8735 0f37 AC050000 		.4byte	.LVL205-.Ltext0
 8736 0f3b B0050000 		.4byte	.LVL206-.Ltext0
 8737 0f3f 0100     		.2byte	0x1
 8738 0f41 54       		.byte	0x54
 8739 0f42 B0050000 		.4byte	.LVL206-.Ltext0
 8740 0f46 C0050000 		.4byte	.LVL210-.Ltext0
 8741 0f4a 0100     		.2byte	0x1
 8742 0f4c 50       		.byte	0x50
 8743 0f4d D0050000 		.4byte	.LVL213-.Ltext0
 8744 0f51 D8050000 		.4byte	.LVL215-.Ltext0
 8745 0f55 0100     		.2byte	0x1
 8746 0f57 54       		.byte	0x54
 8747 0f58 00000000 		.4byte	0x0
 8748 0f5c 00000000 		.4byte	0x0
ARM GAS  /cygdrive/c/DOCUME~1/mkwapisz/LOCALS~1/Temp/cc1OEM1Z.s 			page 171


 8749              	.LLST134:
 8750 0f60 A0050000 		.4byte	.LVL204-.Ltext0
 8751 0f64 AC050000 		.4byte	.LVL205-.Ltext0
 8752 0f68 0100     		.2byte	0x1
 8753 0f6a 54       		.byte	0x54
 8754 0f6b AC050000 		.4byte	.LVL205-.Ltext0
 8755 0f6f C0050000 		.4byte	.LVL210-.Ltext0
 8756 0f73 0100     		.2byte	0x1
 8757 0f75 51       		.byte	0x51
 8758 0f76 C8050000 		.4byte	.LVL212-.Ltext0
 8759 0f7a D0050000 		.4byte	.LVL213-.Ltext0
 8760 0f7e 0100     		.2byte	0x1
 8761 0f80 54       		.byte	0x54
 8762 0f81 00000000 		.4byte	0x0
 8763 0f85 00000000 		.4byte	0x0
 8764              	.LLST135:
 8765 0f89 F8050000 		.4byte	.LVL221-.Ltext0
 8766 0f8d 0C060000 		.4byte	.LVL226-.Ltext0
 8767 0f91 0100     		.2byte	0x1
 8768 0f93 54       		.byte	0x54
 8769 0f94 20060000 		.4byte	.LVL229-.Ltext0
 8770 0f98 24060000 		.4byte	.LVL230-.Ltext0
 8771 0f9c 0100     		.2byte	0x1
 8772 0f9e 54       		.byte	0x54
 8773 0f9f 00000000 		.4byte	0x0
 8774 0fa3 00000000 		.4byte	0x0
 8775              	.LLST136:
 8776 0fa7 F0050000 		.4byte	.LVL220-.Ltext0
 8777 0fab F8050000 		.4byte	.LVL221-.Ltext0
 8778 0faf 0100     		.2byte	0x1
 8779 0fb1 54       		.byte	0x54
 8780 0fb2 F8050000 		.4byte	.LVL221-.Ltext0
 8781 0fb6 08060000 		.4byte	.LVL225-.Ltext0
 8782 0fba 0100     		.2byte	0x1
 8783 0fbc 51       		.byte	0x51
 8784 0fbd 0C060000 		.4byte	.LVL226-.Ltext0
 8785 0fc1 18060000 		.4byte	.LVL227-.Ltext0
 8786 0fc5 0100     		.2byte	0x1
 8787 0fc7 54       		.byte	0x54
 8788 0fc8 00000000 		.4byte	0x0
 8789 0fcc 00000000 		.4byte	0x0
 8790              	.LLST137:
 8791 0fd0 E0050000 		.4byte	.LVL216-.Ltext0
 8792 0fd4 F0050000 		.4byte	.LVL220-.Ltext0
 8793 0fd8 0100     		.2byte	0x1
 8794 0fda 54       		.byte	0x54
 8795 0fdb 00000000 		.4byte	0x0
 8796 0fdf 00000000 		.4byte	0x0
 8797              	.LLST138:
 8798 0fe3 D8050000 		.4byte	.LVL215-.Ltext0
 8799 0fe7 E0050000 		.4byte	.LVL216-.Ltext0
 8800 0feb 0100     		.2byte	0x1
 8801 0fed 54       		.byte	0x54
 8802 0fee E0050000 		.4byte	.LVL216-.Ltext0
 8803 0ff2 EC050000 		.4byte	.LVL218-.Ltext0
 8804 0ff6 0100     		.2byte	0x1
 8805 0ff8 51       		.byte	0x51
ARM GAS  /cygdrive/c/DOCUME~1/mkwapisz/LOCALS~1/Temp/cc1OEM1Z.s 			page 172


 8806 0ff9 00000000 		.4byte	0x0
 8807 0ffd 00000000 		.4byte	0x0
 8808              	.LLST139:
 8809 1001 1C060000 		.4byte	.LVL228-.Ltext0
 8810 1005 20060000 		.4byte	.LVL229-.Ltext0
 8811 1009 0100     		.2byte	0x1
 8812 100b 54       		.byte	0x54
 8813 100c 20060000 		.4byte	.LVL229-.Ltext0
 8814 1010 2C060000 		.4byte	.LVL232-.Ltext0
 8815 1014 0100     		.2byte	0x1
 8816 1016 50       		.byte	0x50
 8817 1017 48060000 		.4byte	.LVL237-.Ltext0
 8818 101b 4C060000 		.4byte	.LVL238-.Ltext0
 8819 101f 0100     		.2byte	0x1
 8820 1021 54       		.byte	0x54
 8821 1022 00000000 		.4byte	0x0
 8822 1026 00000000 		.4byte	0x0
 8823              	.LLST140:
 8824 102a 18060000 		.4byte	.LVL227-.Ltext0
 8825 102e 1C060000 		.4byte	.LVL228-.Ltext0
 8826 1032 0100     		.2byte	0x1
 8827 1034 54       		.byte	0x54
 8828 1035 1C060000 		.4byte	.LVL228-.Ltext0
 8829 1039 2C060000 		.4byte	.LVL232-.Ltext0
 8830 103d 0100     		.2byte	0x1
 8831 103f 51       		.byte	0x51
 8832 1040 34060000 		.4byte	.LVL234-.Ltext0
 8833 1044 44060000 		.4byte	.LVL236-.Ltext0
 8834 1048 0100     		.2byte	0x1
 8835 104a 54       		.byte	0x54
 8836 104b 00000000 		.4byte	0x0
 8837 104f 00000000 		.4byte	0x0
 8838              	.LLST141:
 8839 1053 44060000 		.4byte	.LVL236-.Ltext0
 8840 1057 48060000 		.4byte	.LVL237-.Ltext0
 8841 105b 0100     		.2byte	0x1
 8842 105d 54       		.byte	0x54
 8843 105e 48060000 		.4byte	.LVL237-.Ltext0
 8844 1062 58060000 		.4byte	.LVL241-.Ltext0
 8845 1066 0100     		.2byte	0x1
 8846 1068 50       		.byte	0x50
 8847 1069 78060000 		.4byte	.LVL247-.Ltext0
 8848 106d 80060000 		.4byte	.LVL249-.Ltext0
 8849 1071 0100     		.2byte	0x1
 8850 1073 54       		.byte	0x54
 8851 1074 00000000 		.4byte	0x0
 8852 1078 00000000 		.4byte	0x0
 8853              	.LLST142:
 8854 107c 3C060000 		.4byte	.LVL235-.Ltext0
 8855 1080 74060000 		.4byte	.LVL245-.Ltext0
 8856 1084 0100     		.2byte	0x1
 8857 1086 57       		.byte	0x57
 8858 1087 00000000 		.4byte	0x0
 8859 108b 00000000 		.4byte	0x0
 8860              	.LLST143:
 8861 108f 6C060000 		.4byte	.LVL244-.Ltext0
 8862 1093 78060000 		.4byte	.LVL247-.Ltext0
ARM GAS  /cygdrive/c/DOCUME~1/mkwapisz/LOCALS~1/Temp/cc1OEM1Z.s 			page 173


 8863 1097 0100     		.2byte	0x1
 8864 1099 54       		.byte	0x54
 8865 109a 78060000 		.4byte	.LVL247-.Ltext0
 8866 109e 80060000 		.4byte	.LVL249-.Ltext0
 8867 10a2 0100     		.2byte	0x1
 8868 10a4 50       		.byte	0x50
 8869 10a5 88060000 		.4byte	.LVL251-.Ltext0
 8870 10a9 90060000 		.4byte	.LVL253-.Ltext0
 8871 10ad 0100     		.2byte	0x1
 8872 10af 54       		.byte	0x54
 8873 10b0 00000000 		.4byte	0x0
 8874 10b4 00000000 		.4byte	0x0
 8875              	.LLST144:
 8876 10b8 60060000 		.4byte	.LVL243-.Ltext0
 8877 10bc 6C060000 		.4byte	.LVL244-.Ltext0
 8878 10c0 0100     		.2byte	0x1
 8879 10c2 54       		.byte	0x54
 8880 10c3 6C060000 		.4byte	.LVL244-.Ltext0
 8881 10c7 80060000 		.4byte	.LVL249-.Ltext0
 8882 10cb 0100     		.2byte	0x1
 8883 10cd 51       		.byte	0x51
 8884 10ce 80060000 		.4byte	.LVL249-.Ltext0
 8885 10d2 88060000 		.4byte	.LVL250-.Ltext0
 8886 10d6 0100     		.2byte	0x1
 8887 10d8 54       		.byte	0x54
 8888 10d9 00000000 		.4byte	0x0
 8889 10dd 00000000 		.4byte	0x0
 8890              	.LLST145:
 8891 10e1 98060000 		.4byte	.LVL255-.Ltext0
 8892 10e5 B0060000 		.4byte	.LVL258-.Ltext0
 8893 10e9 0100     		.2byte	0x1
 8894 10eb 54       		.byte	0x54
 8895 10ec CC060000 		.4byte	.LVL263-.Ltext0
 8896 10f0 D0060000 		.4byte	.LVL264-.Ltext0
 8897 10f4 0100     		.2byte	0x1
 8898 10f6 54       		.byte	0x54
 8899 10f7 00000000 		.4byte	0x0
 8900 10fb 00000000 		.4byte	0x0
 8901              	.LLST146:
 8902 10ff 90060000 		.4byte	.LVL253-.Ltext0
 8903 1103 94060000 		.4byte	.LVL254-.Ltext0
 8904 1107 0100     		.2byte	0x1
 8905 1109 54       		.byte	0x54
 8906 110a 94060000 		.4byte	.LVL254-.Ltext0
 8907 110e A4060000 		.4byte	.LVL257-.Ltext0
 8908 1112 0100     		.2byte	0x1
 8909 1114 51       		.byte	0x51
 8910 1115 B0060000 		.4byte	.LVL258-.Ltext0
 8911 1119 BC060000 		.4byte	.LVL259-.Ltext0
 8912 111d 0100     		.2byte	0x1
 8913 111f 54       		.byte	0x54
 8914 1120 00000000 		.4byte	0x0
 8915 1124 00000000 		.4byte	0x0
 8916              	.LLST147:
 8917 1128 C8060000 		.4byte	.LVL262-.Ltext0
 8918 112c CC060000 		.4byte	.LVL263-.Ltext0
 8919 1130 0100     		.2byte	0x1
ARM GAS  /cygdrive/c/DOCUME~1/mkwapisz/LOCALS~1/Temp/cc1OEM1Z.s 			page 174


 8920 1132 54       		.byte	0x54
 8921 1133 CC060000 		.4byte	.LVL263-.Ltext0
 8922 1137 E0060000 		.4byte	.LVL268-.Ltext0
 8923 113b 0100     		.2byte	0x1
 8924 113d 50       		.byte	0x50
 8925 113e 14070000 		.4byte	.LVL273-.Ltext0
 8926 1142 18070000 		.4byte	.LVL274-.Ltext0
 8927 1146 0100     		.2byte	0x1
 8928 1148 54       		.byte	0x54
 8929 1149 00000000 		.4byte	0x0
 8930 114d 00000000 		.4byte	0x0
 8931              	.LLST148:
 8932 1151 C4060000 		.4byte	.LVL261-.Ltext0
 8933 1155 C8060000 		.4byte	.LVL262-.Ltext0
 8934 1159 0100     		.2byte	0x1
 8935 115b 54       		.byte	0x54
 8936 115c C8060000 		.4byte	.LVL262-.Ltext0
 8937 1160 E0060000 		.4byte	.LVL268-.Ltext0
 8938 1164 0100     		.2byte	0x1
 8939 1166 51       		.byte	0x51
 8940 1167 F8060000 		.4byte	.LVL269-.Ltext0
 8941 116b 0C070000 		.4byte	.LVL271-.Ltext0
 8942 116f 0100     		.2byte	0x1
 8943 1171 54       		.byte	0x54
 8944 1172 00000000 		.4byte	0x0
 8945 1176 00000000 		.4byte	0x0
 8946              	.LLST149:
 8947 117a 10070000 		.4byte	.LVL272-.Ltext0
 8948 117e 14070000 		.4byte	.LVL273-.Ltext0
 8949 1182 0100     		.2byte	0x1
 8950 1184 54       		.byte	0x54
 8951 1185 14070000 		.4byte	.LVL273-.Ltext0
 8952 1189 24070000 		.4byte	.LVL277-.Ltext0
 8953 118d 0100     		.2byte	0x1
 8954 118f 50       		.byte	0x50
 8955 1190 54070000 		.4byte	.LVL283-.Ltext0
 8956 1194 58070000 		.4byte	.LVL284-.Ltext0
 8957 1198 0100     		.2byte	0x1
 8958 119a 54       		.byte	0x54
 8959 119b 00000000 		.4byte	0x0
 8960 119f 00000000 		.4byte	0x0
 8961              	.LLST150:
 8962 11a3 0C070000 		.4byte	.LVL271-.Ltext0
 8963 11a7 10070000 		.4byte	.LVL272-.Ltext0
 8964 11ab 0100     		.2byte	0x1
 8965 11ad 54       		.byte	0x54
 8966 11ae 10070000 		.4byte	.LVL272-.Ltext0
 8967 11b2 24070000 		.4byte	.LVL277-.Ltext0
 8968 11b6 0100     		.2byte	0x1
 8969 11b8 51       		.byte	0x51
 8970 11b9 2C070000 		.4byte	.LVL278-.Ltext0
 8971 11bd 38070000 		.4byte	.LVL279-.Ltext0
 8972 11c1 0100     		.2byte	0x1
 8973 11c3 54       		.byte	0x54
 8974 11c4 00000000 		.4byte	0x0
 8975 11c8 00000000 		.4byte	0x0
 8976              	.LLST151:
ARM GAS  /cygdrive/c/DOCUME~1/mkwapisz/LOCALS~1/Temp/cc1OEM1Z.s 			page 175


 8977 11cc 50070000 		.4byte	.LVL282-.Ltext0
 8978 11d0 54070000 		.4byte	.LVL283-.Ltext0
 8979 11d4 0100     		.2byte	0x1
 8980 11d6 54       		.byte	0x54
 8981 11d7 54070000 		.4byte	.LVL283-.Ltext0
 8982 11db 60070000 		.4byte	.LVL286-.Ltext0
 8983 11df 0100     		.2byte	0x1
 8984 11e1 50       		.byte	0x50
 8985 11e2 84070000 		.4byte	.LVL291-.Ltext0
 8986 11e6 88070000 		.4byte	.LVL292-.Ltext0
 8987 11ea 0100     		.2byte	0x1
 8988 11ec 54       		.byte	0x54
 8989 11ed 00000000 		.4byte	0x0
 8990 11f1 00000000 		.4byte	0x0
 8991              	.LLST152:
 8992 11f5 48070000 		.4byte	.LVL281-.Ltext0
 8993 11f9 50070000 		.4byte	.LVL282-.Ltext0
 8994 11fd 0100     		.2byte	0x1
 8995 11ff 54       		.byte	0x54
 8996 1200 50070000 		.4byte	.LVL282-.Ltext0
 8997 1204 60070000 		.4byte	.LVL286-.Ltext0
 8998 1208 0100     		.2byte	0x1
 8999 120a 51       		.byte	0x51
 9000 120b 74070000 		.4byte	.LVL288-.Ltext0
 9001 120f 78070000 		.4byte	.LVL289-.Ltext0
 9002 1213 0100     		.2byte	0x1
 9003 1215 54       		.byte	0x54
 9004 1216 00000000 		.4byte	0x0
 9005 121a 00000000 		.4byte	0x0
 9006              	.LLST153:
 9007 121e A8070000 		.4byte	.LVL299-.Ltext0
 9008 1222 AC070000 		.4byte	.LVL300-.Ltext0
 9009 1226 0100     		.2byte	0x1
 9010 1228 54       		.byte	0x54
 9011 1229 AC070000 		.4byte	.LVL300-.Ltext0
 9012 122d B8070000 		.4byte	.LVL303-.Ltext0
 9013 1231 0100     		.2byte	0x1
 9014 1233 50       		.byte	0x50
 9015 1234 D4070000 		.4byte	.LVL307-.Ltext0
 9016 1238 D8070000 		.4byte	.LVL308-.Ltext0
 9017 123c 0100     		.2byte	0x1
 9018 123e 54       		.byte	0x54
 9019 123f 00000000 		.4byte	0x0
 9020 1243 00000000 		.4byte	0x0
 9021              	.LLST154:
 9022 1247 A0070000 		.4byte	.LVL297-.Ltext0
 9023 124b A4070000 		.4byte	.LVL298-.Ltext0
 9024 124f 0100     		.2byte	0x1
 9025 1251 54       		.byte	0x54
 9026 1252 A4070000 		.4byte	.LVL298-.Ltext0
 9027 1256 B8070000 		.4byte	.LVL303-.Ltext0
 9028 125a 0100     		.2byte	0x1
 9029 125c 51       		.byte	0x51
 9030 125d C0070000 		.4byte	.LVL304-.Ltext0
 9031 1261 CC070000 		.4byte	.LVL305-.Ltext0
 9032 1265 0100     		.2byte	0x1
 9033 1267 54       		.byte	0x54
ARM GAS  /cygdrive/c/DOCUME~1/mkwapisz/LOCALS~1/Temp/cc1OEM1Z.s 			page 176


 9034 1268 00000000 		.4byte	0x0
 9035 126c 00000000 		.4byte	0x0
 9036              	.LLST155:
 9037 1270 80070000 		.4byte	.LVL290-.Ltext0
 9038 1274 84070000 		.4byte	.LVL291-.Ltext0
 9039 1278 0100     		.2byte	0x1
 9040 127a 54       		.byte	0x54
 9041 127b 84070000 		.4byte	.LVL291-.Ltext0
 9042 127f 98070000 		.4byte	.LVL296-.Ltext0
 9043 1283 0100     		.2byte	0x1
 9044 1285 50       		.byte	0x50
 9045 1286 AC070000 		.4byte	.LVL300-.Ltext0
 9046 128a B0070000 		.4byte	.LVL301-.Ltext0
 9047 128e 0100     		.2byte	0x1
 9048 1290 54       		.byte	0x54
 9049 1291 00000000 		.4byte	0x0
 9050 1295 00000000 		.4byte	0x0
 9051              	.LLST156:
 9052 1299 78070000 		.4byte	.LVL289-.Ltext0
 9053 129d 80070000 		.4byte	.LVL290-.Ltext0
 9054 12a1 0100     		.2byte	0x1
 9055 12a3 54       		.byte	0x54
 9056 12a4 80070000 		.4byte	.LVL290-.Ltext0
 9057 12a8 98070000 		.4byte	.LVL296-.Ltext0
 9058 12ac 0100     		.2byte	0x1
 9059 12ae 51       		.byte	0x51
 9060 12af 98070000 		.4byte	.LVL296-.Ltext0
 9061 12b3 A0070000 		.4byte	.LVL297-.Ltext0
 9062 12b7 0100     		.2byte	0x1
 9063 12b9 54       		.byte	0x54
 9064 12ba 00000000 		.4byte	0x0
 9065 12be 00000000 		.4byte	0x0
 9066              	.LLST157:
 9067 12c2 D0070000 		.4byte	.LVL306-.Ltext0
 9068 12c6 D4070000 		.4byte	.LVL307-.Ltext0
 9069 12ca 0100     		.2byte	0x1
 9070 12cc 54       		.byte	0x54
 9071 12cd D4070000 		.4byte	.LVL307-.Ltext0
 9072 12d1 E0070000 		.4byte	.LVL310-.Ltext0
 9073 12d5 0100     		.2byte	0x1
 9074 12d7 50       		.byte	0x50
 9075 12d8 FC070000 		.4byte	.LVL315-.Ltext0
 9076 12dc 00080000 		.4byte	.LVL316-.Ltext0
 9077 12e0 0100     		.2byte	0x1
 9078 12e2 54       		.byte	0x54
 9079 12e3 00000000 		.4byte	0x0
 9080 12e7 00000000 		.4byte	0x0
 9081              	.LLST158:
 9082 12eb CC070000 		.4byte	.LVL305-.Ltext0
 9083 12ef D0070000 		.4byte	.LVL306-.Ltext0
 9084 12f3 0100     		.2byte	0x1
 9085 12f5 54       		.byte	0x54
 9086 12f6 D0070000 		.4byte	.LVL306-.Ltext0
 9087 12fa E0070000 		.4byte	.LVL310-.Ltext0
 9088 12fe 0100     		.2byte	0x1
 9089 1300 51       		.byte	0x51
 9090 1301 E8070000 		.4byte	.LVL312-.Ltext0
ARM GAS  /cygdrive/c/DOCUME~1/mkwapisz/LOCALS~1/Temp/cc1OEM1Z.s 			page 177


 9091 1305 F0070000 		.4byte	.LVL313-.Ltext0
 9092 1309 0100     		.2byte	0x1
 9093 130b 54       		.byte	0x54
 9094 130c 00000000 		.4byte	0x0
 9095 1310 00000000 		.4byte	0x0
 9096              	.LLST159:
 9097 1314 F8070000 		.4byte	.LVL314-.Ltext0
 9098 1318 FC070000 		.4byte	.LVL315-.Ltext0
 9099 131c 0100     		.2byte	0x1
 9100 131e 54       		.byte	0x54
 9101 131f FC070000 		.4byte	.LVL315-.Ltext0
 9102 1323 08080000 		.4byte	.LVL318-.Ltext0
 9103 1327 0100     		.2byte	0x1
 9104 1329 50       		.byte	0x50
 9105 132a 24080000 		.4byte	.LVL322-.Ltext0
 9106 132e 28080000 		.4byte	.LVL323-.Ltext0
 9107 1332 0100     		.2byte	0x1
 9108 1334 54       		.byte	0x54
 9109 1335 00000000 		.4byte	0x0
 9110 1339 00000000 		.4byte	0x0
 9111              	.LLST160:
 9112 133d F0070000 		.4byte	.LVL313-.Ltext0
 9113 1341 F8070000 		.4byte	.LVL314-.Ltext0
 9114 1345 0100     		.2byte	0x1
 9115 1347 54       		.byte	0x54
 9116 1348 F8070000 		.4byte	.LVL314-.Ltext0
 9117 134c 08080000 		.4byte	.LVL318-.Ltext0
 9118 1350 0100     		.2byte	0x1
 9119 1352 51       		.byte	0x51
 9120 1353 14080000 		.4byte	.LVL319-.Ltext0
 9121 1357 18080000 		.4byte	.LVL320-.Ltext0
 9122 135b 0100     		.2byte	0x1
 9123 135d 54       		.byte	0x54
 9124 135e 00000000 		.4byte	0x0
 9125 1362 00000000 		.4byte	0x0
 9126              	.LLST161:
 9127 1366 20080000 		.4byte	.LVL321-.Ltext0
 9128 136a 24080000 		.4byte	.LVL322-.Ltext0
 9129 136e 0100     		.2byte	0x1
 9130 1370 54       		.byte	0x54
 9131 1371 24080000 		.4byte	.LVL322-.Ltext0
 9132 1375 30080000 		.4byte	.LVL325-.Ltext0
 9133 1379 0100     		.2byte	0x1
 9134 137b 50       		.byte	0x50
 9135 137c 48080000 		.4byte	.LVL330-.Ltext0
 9136 1380 4C080000 		.4byte	.LVL331-.Ltext0
 9137 1384 0100     		.2byte	0x1
 9138 1386 54       		.byte	0x54
 9139 1387 00000000 		.4byte	0x0
 9140 138b 00000000 		.4byte	0x0
 9141              	.LLST162:
 9142 138f 18080000 		.4byte	.LVL320-.Ltext0
 9143 1393 20080000 		.4byte	.LVL321-.Ltext0
 9144 1397 0100     		.2byte	0x1
 9145 1399 54       		.byte	0x54
 9146 139a 20080000 		.4byte	.LVL321-.Ltext0
 9147 139e 30080000 		.4byte	.LVL325-.Ltext0
ARM GAS  /cygdrive/c/DOCUME~1/mkwapisz/LOCALS~1/Temp/cc1OEM1Z.s 			page 178


 9148 13a2 0100     		.2byte	0x1
 9149 13a4 51       		.byte	0x51
 9150 13a5 34080000 		.4byte	.LVL326-.Ltext0
 9151 13a9 3C080000 		.4byte	.LVL327-.Ltext0
 9152 13ad 0100     		.2byte	0x1
 9153 13af 54       		.byte	0x54
 9154 13b0 00000000 		.4byte	0x0
 9155 13b4 00000000 		.4byte	0x0
 9156              	.LLST163:
 9157 13b8 44080000 		.4byte	.LVL329-.Ltext0
 9158 13bc 48080000 		.4byte	.LVL330-.Ltext0
 9159 13c0 0100     		.2byte	0x1
 9160 13c2 54       		.byte	0x54
 9161 13c3 48080000 		.4byte	.LVL330-.Ltext0
 9162 13c7 54080000 		.4byte	.LVL333-.Ltext0
 9163 13cb 0100     		.2byte	0x1
 9164 13cd 50       		.byte	0x50
 9165 13ce 70080000 		.4byte	.LVL337-.Ltext0
 9166 13d2 74080000 		.4byte	.LVL338-.Ltext0
 9167 13d6 0100     		.2byte	0x1
 9168 13d8 54       		.byte	0x54
 9169 13d9 00000000 		.4byte	0x0
 9170 13dd 00000000 		.4byte	0x0
 9171              	.LLST164:
 9172 13e1 3C080000 		.4byte	.LVL327-.Ltext0
 9173 13e5 40080000 		.4byte	.LVL328-.Ltext0
 9174 13e9 0100     		.2byte	0x1
 9175 13eb 54       		.byte	0x54
 9176 13ec 40080000 		.4byte	.LVL328-.Ltext0
 9177 13f0 54080000 		.4byte	.LVL333-.Ltext0
 9178 13f4 0100     		.2byte	0x1
 9179 13f6 51       		.byte	0x51
 9180 13f7 5C080000 		.4byte	.LVL334-.Ltext0
 9181 13fb 68080000 		.4byte	.LVL335-.Ltext0
 9182 13ff 0100     		.2byte	0x1
 9183 1401 54       		.byte	0x54
 9184 1402 00000000 		.4byte	0x0
 9185 1406 00000000 		.4byte	0x0
 9186              	.LLST165:
 9187 140a 6C080000 		.4byte	.LVL336-.Ltext0
 9188 140e 70080000 		.4byte	.LVL337-.Ltext0
 9189 1412 0100     		.2byte	0x1
 9190 1414 54       		.byte	0x54
 9191 1415 70080000 		.4byte	.LVL337-.Ltext0
 9192 1419 7C080000 		.4byte	.LVL340-.Ltext0
 9193 141d 0100     		.2byte	0x1
 9194 141f 50       		.byte	0x50
 9195 1420 98080000 		.4byte	.LVL344-.Ltext0
 9196 1424 9C080000 		.4byte	.LVL345-.Ltext0
 9197 1428 0100     		.2byte	0x1
 9198 142a 54       		.byte	0x54
 9199 142b 00000000 		.4byte	0x0
 9200 142f 00000000 		.4byte	0x0
 9201              	.LLST166:
 9202 1433 68080000 		.4byte	.LVL335-.Ltext0
 9203 1437 6C080000 		.4byte	.LVL336-.Ltext0
 9204 143b 0100     		.2byte	0x1
ARM GAS  /cygdrive/c/DOCUME~1/mkwapisz/LOCALS~1/Temp/cc1OEM1Z.s 			page 179


 9205 143d 54       		.byte	0x54
 9206 143e 6C080000 		.4byte	.LVL336-.Ltext0
 9207 1442 7C080000 		.4byte	.LVL340-.Ltext0
 9208 1446 0100     		.2byte	0x1
 9209 1448 51       		.byte	0x51
 9210 1449 84080000 		.4byte	.LVL341-.Ltext0
 9211 144d 8C080000 		.4byte	.LVL342-.Ltext0
 9212 1451 0100     		.2byte	0x1
 9213 1453 54       		.byte	0x54
 9214 1454 00000000 		.4byte	0x0
 9215 1458 00000000 		.4byte	0x0
 9216              	.LLST167:
 9217 145c 94080000 		.4byte	.LVL343-.Ltext0
 9218 1460 98080000 		.4byte	.LVL344-.Ltext0
 9219 1464 0100     		.2byte	0x1
 9220 1466 54       		.byte	0x54
 9221 1467 98080000 		.4byte	.LVL344-.Ltext0
 9222 146b A4080000 		.4byte	.LVL347-.Ltext0
 9223 146f 0100     		.2byte	0x1
 9224 1471 50       		.byte	0x50
 9225 1472 C0080000 		.4byte	.LVL351-.Ltext0
 9226 1476 C4080000 		.4byte	.LVL352-.Ltext0
 9227 147a 0100     		.2byte	0x1
 9228 147c 54       		.byte	0x54
 9229 147d 00000000 		.4byte	0x0
 9230 1481 00000000 		.4byte	0x0
 9231              	.LLST168:
 9232 1485 8C080000 		.4byte	.LVL342-.Ltext0
 9233 1489 94080000 		.4byte	.LVL343-.Ltext0
 9234 148d 0100     		.2byte	0x1
 9235 148f 54       		.byte	0x54
 9236 1490 94080000 		.4byte	.LVL343-.Ltext0
 9237 1494 A4080000 		.4byte	.LVL347-.Ltext0
 9238 1498 0100     		.2byte	0x1
 9239 149a 51       		.byte	0x51
 9240 149b B0080000 		.4byte	.LVL348-.Ltext0
 9241 149f B4080000 		.4byte	.LVL349-.Ltext0
 9242 14a3 0100     		.2byte	0x1
 9243 14a5 54       		.byte	0x54
 9244 14a6 00000000 		.4byte	0x0
 9245 14aa 00000000 		.4byte	0x0
 9246              	.LLST169:
 9247 14ae BC080000 		.4byte	.LVL350-.Ltext0
 9248 14b2 C0080000 		.4byte	.LVL351-.Ltext0
 9249 14b6 0100     		.2byte	0x1
 9250 14b8 54       		.byte	0x54
 9251 14b9 C0080000 		.4byte	.LVL351-.Ltext0
 9252 14bd CC080000 		.4byte	.LVL354-.Ltext0
 9253 14c1 0100     		.2byte	0x1
 9254 14c3 50       		.byte	0x50
 9255 14c4 E8080000 		.4byte	.LVL359-.Ltext0
 9256 14c8 EC080000 		.4byte	.LVL360-.Ltext0
 9257 14cc 0100     		.2byte	0x1
 9258 14ce 54       		.byte	0x54
 9259 14cf 00000000 		.4byte	0x0
 9260 14d3 00000000 		.4byte	0x0
 9261              	.LLST170:
ARM GAS  /cygdrive/c/DOCUME~1/mkwapisz/LOCALS~1/Temp/cc1OEM1Z.s 			page 180


 9262 14d7 B4080000 		.4byte	.LVL349-.Ltext0
 9263 14db BC080000 		.4byte	.LVL350-.Ltext0
 9264 14df 0100     		.2byte	0x1
 9265 14e1 54       		.byte	0x54
 9266 14e2 BC080000 		.4byte	.LVL350-.Ltext0
 9267 14e6 CC080000 		.4byte	.LVL354-.Ltext0
 9268 14ea 0100     		.2byte	0x1
 9269 14ec 51       		.byte	0x51
 9270 14ed D4080000 		.4byte	.LVL355-.Ltext0
 9271 14f1 DC080000 		.4byte	.LVL356-.Ltext0
 9272 14f5 0100     		.2byte	0x1
 9273 14f7 54       		.byte	0x54
 9274 14f8 00000000 		.4byte	0x0
 9275 14fc 00000000 		.4byte	0x0
 9276              	.LLST171:
 9277 1500 E4080000 		.4byte	.LVL358-.Ltext0
 9278 1504 E8080000 		.4byte	.LVL359-.Ltext0
 9279 1508 0100     		.2byte	0x1
 9280 150a 54       		.byte	0x54
 9281 150b E8080000 		.4byte	.LVL359-.Ltext0
 9282 150f F4080000 		.4byte	.LVL362-.Ltext0
 9283 1513 0100     		.2byte	0x1
 9284 1515 50       		.byte	0x50
 9285 1516 10090000 		.4byte	.LVL366-.Ltext0
 9286 151a 14090000 		.4byte	.LVL367-.Ltext0
 9287 151e 0100     		.2byte	0x1
 9288 1520 54       		.byte	0x54
 9289 1521 00000000 		.4byte	0x0
 9290 1525 00000000 		.4byte	0x0
 9291              	.LLST172:
 9292 1529 DC080000 		.4byte	.LVL356-.Ltext0
 9293 152d E0080000 		.4byte	.LVL357-.Ltext0
 9294 1531 0100     		.2byte	0x1
 9295 1533 54       		.byte	0x54
 9296 1534 E0080000 		.4byte	.LVL357-.Ltext0
 9297 1538 F4080000 		.4byte	.LVL362-.Ltext0
 9298 153c 0100     		.2byte	0x1
 9299 153e 51       		.byte	0x51
 9300 153f FC080000 		.4byte	.LVL363-.Ltext0
 9301 1543 04090000 		.4byte	.LVL364-.Ltext0
 9302 1547 0100     		.2byte	0x1
 9303 1549 54       		.byte	0x54
 9304 154a 00000000 		.4byte	0x0
 9305 154e 00000000 		.4byte	0x0
 9306              	.LLST173:
 9307 1552 04090000 		.4byte	.LVL364-.Ltext0
 9308 1556 08090000 		.4byte	.LVL365-.Ltext0
 9309 155a 0100     		.2byte	0x1
 9310 155c 54       		.byte	0x54
 9311 155d 08090000 		.4byte	.LVL365-.Ltext0
 9312 1561 1C090000 		.4byte	.LVL369-.Ltext0
 9313 1565 0100     		.2byte	0x1
 9314 1567 50       		.byte	0x50
 9315 1568 38090000 		.4byte	.LVL373-.Ltext0
 9316 156c 3C090000 		.4byte	.LVL374-.Ltext0
 9317 1570 0100     		.2byte	0x1
 9318 1572 54       		.byte	0x54
ARM GAS  /cygdrive/c/DOCUME~1/mkwapisz/LOCALS~1/Temp/cc1OEM1Z.s 			page 181


 9319 1573 00000000 		.4byte	0x0
 9320 1577 00000000 		.4byte	0x0
 9321              	.LLST174:
 9322 157b 08090000 		.4byte	.LVL365-.Ltext0
 9323 157f 10090000 		.4byte	.LVL366-.Ltext0
 9324 1583 0100     		.2byte	0x1
 9325 1585 54       		.byte	0x54
 9326 1586 10090000 		.4byte	.LVL366-.Ltext0
 9327 158a 1C090000 		.4byte	.LVL369-.Ltext0
 9328 158e 0100     		.2byte	0x1
 9329 1590 51       		.byte	0x51
 9330 1591 24090000 		.4byte	.LVL370-.Ltext0
 9331 1595 2C090000 		.4byte	.LVL371-.Ltext0
 9332 1599 0100     		.2byte	0x1
 9333 159b 54       		.byte	0x54
 9334 159c 00000000 		.4byte	0x0
 9335 15a0 00000000 		.4byte	0x0
 9336              	.LLST175:
 9337 15a4 34090000 		.4byte	.LVL372-.Ltext0
 9338 15a8 38090000 		.4byte	.LVL373-.Ltext0
 9339 15ac 0100     		.2byte	0x1
 9340 15ae 54       		.byte	0x54
 9341 15af 38090000 		.4byte	.LVL373-.Ltext0
 9342 15b3 44090000 		.4byte	.LVL376-.Ltext0
 9343 15b7 0100     		.2byte	0x1
 9344 15b9 50       		.byte	0x50
 9345 15ba 60090000 		.4byte	.LVL380-.Ltext0
 9346 15be 64090000 		.4byte	.LVL381-.Ltext0
 9347 15c2 0100     		.2byte	0x1
 9348 15c4 54       		.byte	0x54
 9349 15c5 00000000 		.4byte	0x0
 9350 15c9 00000000 		.4byte	0x0
 9351              	.LLST176:
 9352 15cd 2C090000 		.4byte	.LVL371-.Ltext0
 9353 15d1 34090000 		.4byte	.LVL372-.Ltext0
 9354 15d5 0100     		.2byte	0x1
 9355 15d7 54       		.byte	0x54
 9356 15d8 34090000 		.4byte	.LVL372-.Ltext0
 9357 15dc 44090000 		.4byte	.LVL376-.Ltext0
 9358 15e0 0100     		.2byte	0x1
 9359 15e2 51       		.byte	0x51
 9360 15e3 50090000 		.4byte	.LVL377-.Ltext0
 9361 15e7 58090000 		.4byte	.LVL378-.Ltext0
 9362 15eb 0100     		.2byte	0x1
 9363 15ed 54       		.byte	0x54
 9364 15ee 00000000 		.4byte	0x0
 9365 15f2 00000000 		.4byte	0x0
 9366              	.LLST177:
 9367 15f6 5C090000 		.4byte	.LVL379-.Ltext0
 9368 15fa 60090000 		.4byte	.LVL380-.Ltext0
 9369 15fe 0100     		.2byte	0x1
 9370 1600 54       		.byte	0x54
 9371 1601 60090000 		.4byte	.LVL380-.Ltext0
 9372 1605 6C090000 		.4byte	.LVL383-.Ltext0
 9373 1609 0100     		.2byte	0x1
 9374 160b 50       		.byte	0x50
 9375 160c A8090000 		.4byte	.LVL391-.Ltext0
ARM GAS  /cygdrive/c/DOCUME~1/mkwapisz/LOCALS~1/Temp/cc1OEM1Z.s 			page 182


 9376 1610 AC090000 		.4byte	.LVL392-.Ltext0
 9377 1614 0100     		.2byte	0x1
 9378 1616 54       		.byte	0x54
 9379 1617 00000000 		.4byte	0x0
 9380 161b 00000000 		.4byte	0x0
 9381              	.LLST178:
 9382 161f 58090000 		.4byte	.LVL378-.Ltext0
 9383 1623 5C090000 		.4byte	.LVL379-.Ltext0
 9384 1627 0100     		.2byte	0x1
 9385 1629 54       		.byte	0x54
 9386 162a 5C090000 		.4byte	.LVL379-.Ltext0
 9387 162e 6C090000 		.4byte	.LVL383-.Ltext0
 9388 1632 0100     		.2byte	0x1
 9389 1634 51       		.byte	0x51
 9390 1635 8C090000 		.4byte	.LVL384-.Ltext0
 9391 1639 90090000 		.4byte	.LVL385-.Ltext0
 9392 163d 0100     		.2byte	0x1
 9393 163f 54       		.byte	0x54
 9394 1640 00000000 		.4byte	0x0
 9395 1644 00000000 		.4byte	0x0
 9396              	.LLST179:
 9397 1648 A4090000 		.4byte	.LVL390-.Ltext0
 9398 164c A8090000 		.4byte	.LVL391-.Ltext0
 9399 1650 0100     		.2byte	0x1
 9400 1652 54       		.byte	0x54
 9401 1653 A8090000 		.4byte	.LVL391-.Ltext0
 9402 1657 B4090000 		.4byte	.LVL394-.Ltext0
 9403 165b 0100     		.2byte	0x1
 9404 165d 50       		.byte	0x50
 9405 165e 480A0000 		.4byte	.LVL407-.Ltext0
 9406 1662 4C0A0000 		.4byte	.LVL408-.Ltext0
 9407 1666 0100     		.2byte	0x1
 9408 1668 54       		.byte	0x54
 9409 1669 00000000 		.4byte	0x0
 9410 166d 00000000 		.4byte	0x0
 9411              	.LLST180:
 9412 1671 A0090000 		.4byte	.LVL389-.Ltext0
 9413 1675 A4090000 		.4byte	.LVL390-.Ltext0
 9414 1679 0100     		.2byte	0x1
 9415 167b 54       		.byte	0x54
 9416 167c A4090000 		.4byte	.LVL390-.Ltext0
 9417 1680 B4090000 		.4byte	.LVL394-.Ltext0
 9418 1684 0100     		.2byte	0x1
 9419 1686 51       		.byte	0x51
 9420 1687 3C0A0000 		.4byte	.LVL404-.Ltext0
 9421 168b 400A0000 		.4byte	.LVL405-.Ltext0
 9422 168f 0100     		.2byte	0x1
 9423 1691 54       		.byte	0x54
 9424 1692 00000000 		.4byte	0x0
 9425 1696 00000000 		.4byte	0x0
 9426              	.LLST181:
 9427 169a AC0A0000 		.4byte	.LVL419-.Ltext0
 9428 169e 180C0000 		.4byte	.LVL448-.Ltext0
 9429 16a2 0100     		.2byte	0x1
 9430 16a4 54       		.byte	0x54
 9431 16a5 280C0000 		.4byte	.LVL450-.Ltext0
 9432 16a9 400C0000 		.4byte	.LVL452-.Ltext0
ARM GAS  /cygdrive/c/DOCUME~1/mkwapisz/LOCALS~1/Temp/cc1OEM1Z.s 			page 183


 9433 16ad 0100     		.2byte	0x1
 9434 16af 54       		.byte	0x54
 9435 16b0 00000000 		.4byte	0x0
 9436 16b4 00000000 		.4byte	0x0
 9437              	.LLST182:
 9438 16b8 A40A0000 		.4byte	.LVL416-.Ltext0
 9439 16bc AC0A0000 		.4byte	.LVL419-.Ltext0
 9440 16c0 0100     		.2byte	0x1
 9441 16c2 54       		.byte	0x54
 9442 16c3 AC0A0000 		.4byte	.LVL419-.Ltext0
 9443 16c7 B80A0000 		.4byte	.LVL421-.Ltext0
 9444 16cb 0100     		.2byte	0x1
 9445 16cd 51       		.byte	0x51
 9446 16ce 180C0000 		.4byte	.LVL448-.Ltext0
 9447 16d2 280C0000 		.4byte	.LVL450-.Ltext0
 9448 16d6 0100     		.2byte	0x1
 9449 16d8 54       		.byte	0x54
 9450 16d9 00000000 		.4byte	0x0
 9451 16dd 00000000 		.4byte	0x0
 9452              	.LLST183:
 9453 16e1 5C0C0000 		.4byte	.LVL455-.Ltext0
 9454 16e5 600C0000 		.4byte	.LVL456-.Ltext0
 9455 16e9 0100     		.2byte	0x1
 9456 16eb 54       		.byte	0x54
 9457 16ec 600C0000 		.4byte	.LVL456-.Ltext0
 9458 16f0 680C0000 		.4byte	.LVL457-.Ltext0
 9459 16f4 0100     		.2byte	0x1
 9460 16f6 50       		.byte	0x50
 9461 16f7 780C0000 		.4byte	.LVL460-.Ltext0
 9462 16fb 780C0000 		.4byte	.LVL460-.Ltext0
 9463 16ff 0100     		.2byte	0x1
 9464 1701 54       		.byte	0x54
 9465 1702 00000000 		.4byte	0x0
 9466 1706 00000000 		.4byte	0x0
 9467              	.LLST184:
 9468 170a 540C0000 		.4byte	.LVL453-.Ltext0
 9469 170e 5C0C0000 		.4byte	.LVL455-.Ltext0
 9470 1712 0100     		.2byte	0x1
 9471 1714 54       		.byte	0x54
 9472 1715 5C0C0000 		.4byte	.LVL455-.Ltext0
 9473 1719 680C0000 		.4byte	.LVL457-.Ltext0
 9474 171d 0100     		.2byte	0x1
 9475 171f 51       		.byte	0x51
 9476 1720 00000000 		.4byte	0x0
 9477 1724 00000000 		.4byte	0x0
 9478              	.LLST185:
 9479 1728 740C0000 		.4byte	.LVL459-.Ltext0
 9480 172c 780C0000 		.4byte	.LVL460-.Ltext0
 9481 1730 0100     		.2byte	0x1
 9482 1732 54       		.byte	0x54
 9483 1733 780C0000 		.4byte	.LVL460-.Ltext0
 9484 1737 800C0000 		.4byte	.LVL462-.Ltext0
 9485 173b 0100     		.2byte	0x1
 9486 173d 50       		.byte	0x50
 9487 173e 840C0000 		.4byte	.LVL463-.Ltext0
 9488 1742 880C0000 		.4byte	.LVL465-.Ltext0
 9489 1746 0100     		.2byte	0x1
ARM GAS  /cygdrive/c/DOCUME~1/mkwapisz/LOCALS~1/Temp/cc1OEM1Z.s 			page 184


 9490 1748 54       		.byte	0x54
 9491 1749 00000000 		.4byte	0x0
 9492 174d 00000000 		.4byte	0x0
 9493              	.LLST186:
 9494 1751 6C0C0000 		.4byte	.LVL458-.Ltext0
 9495 1755 740C0000 		.4byte	.LVL459-.Ltext0
 9496 1759 0100     		.2byte	0x1
 9497 175b 54       		.byte	0x54
 9498 175c 740C0000 		.4byte	.LVL459-.Ltext0
 9499 1760 800C0000 		.4byte	.LVL462-.Ltext0
 9500 1764 0100     		.2byte	0x1
 9501 1766 51       		.byte	0x51
 9502 1767 800C0000 		.4byte	.LVL462-.Ltext0
 9503 176b 840C0000 		.4byte	.LVL463-.Ltext0
 9504 176f 0100     		.2byte	0x1
 9505 1771 54       		.byte	0x54
 9506 1772 00000000 		.4byte	0x0
 9507 1776 00000000 		.4byte	0x0
 9508              	.LLST187:
 9509 177a 9C0C0000 		.4byte	.LVL468-.Ltext0
 9510 177e A40C0000 		.4byte	.LVL469-.Ltext0
 9511 1782 0100     		.2byte	0x1
 9512 1784 54       		.byte	0x54
 9513 1785 AC0C0000 		.4byte	.LVL470-.Ltext0
 9514 1789 CC0C0000 		.4byte	.LVL472-.Ltext0
 9515 178d 0100     		.2byte	0x1
 9516 178f 54       		.byte	0x54
 9517 1790 00000000 		.4byte	0x0
 9518 1794 00000000 		.4byte	0x0
 9519              	.LLST188:
 9520 1798 940C0000 		.4byte	.LVL467-.Ltext0
 9521 179c 9C0C0000 		.4byte	.LVL468-.Ltext0
 9522 17a0 0100     		.2byte	0x1
 9523 17a2 54       		.byte	0x54
 9524 17a3 9C0C0000 		.4byte	.LVL468-.Ltext0
 9525 17a7 A40C0000 		.4byte	.LVL469-.Ltext0
 9526 17ab 0100     		.2byte	0x1
 9527 17ad 51       		.byte	0x51
 9528 17ae A40C0000 		.4byte	.LVL469-.Ltext0
 9529 17b2 AC0C0000 		.4byte	.LVL470-.Ltext0
 9530 17b6 0100     		.2byte	0x1
 9531 17b8 54       		.byte	0x54
 9532 17b9 00000000 		.4byte	0x0
 9533 17bd 00000000 		.4byte	0x0
 9534              	.LLST189:
 9535 17c1 D40C0000 		.4byte	.LVL473-.Ltext0
 9536 17c5 E80C0000 		.4byte	.LVL475-.Ltext0
 9537 17c9 0100     		.2byte	0x1
 9538 17cb 54       		.byte	0x54
 9539 17cc F80C0000 		.4byte	.LVL478-.Ltext0
 9540 17d0 FC0C0000 		.4byte	.LVL479-.Ltext0
 9541 17d4 0100     		.2byte	0x1
 9542 17d6 54       		.byte	0x54
 9543 17d7 00000000 		.4byte	0x0
 9544 17db 00000000 		.4byte	0x0
 9545              	.LLST190:
 9546 17df CC0C0000 		.4byte	.LVL472-.Ltext0
ARM GAS  /cygdrive/c/DOCUME~1/mkwapisz/LOCALS~1/Temp/cc1OEM1Z.s 			page 185


 9547 17e3 D40C0000 		.4byte	.LVL473-.Ltext0
 9548 17e7 0100     		.2byte	0x1
 9549 17e9 54       		.byte	0x54
 9550 17ea D40C0000 		.4byte	.LVL473-.Ltext0
 9551 17ee DC0C0000 		.4byte	.LVL474-.Ltext0
 9552 17f2 0100     		.2byte	0x1
 9553 17f4 51       		.byte	0x51
 9554 17f5 E80C0000 		.4byte	.LVL475-.Ltext0
 9555 17f9 EC0C0000 		.4byte	.LVL476-.Ltext0
 9556 17fd 0100     		.2byte	0x1
 9557 17ff 54       		.byte	0x54
 9558 1800 00000000 		.4byte	0x0
 9559 1804 00000000 		.4byte	0x0
 9560              	.LLST191:
 9561 1808 F40C0000 		.4byte	.LVL477-.Ltext0
 9562 180c F80C0000 		.4byte	.LVL478-.Ltext0
 9563 1810 0100     		.2byte	0x1
 9564 1812 54       		.byte	0x54
 9565 1813 F80C0000 		.4byte	.LVL478-.Ltext0
 9566 1817 040D0000 		.4byte	.LVL481-.Ltext0
 9567 181b 0100     		.2byte	0x1
 9568 181d 50       		.byte	0x50
 9569 181e 0C0D0000 		.4byte	.LVL482-.Ltext0
 9570 1822 100D0000 		.4byte	.LVL483-.Ltext0
 9571 1826 0100     		.2byte	0x1
 9572 1828 54       		.byte	0x54
 9573 1829 00000000 		.4byte	0x0
 9574 182d 00000000 		.4byte	0x0
 9575              	.LLST192:
 9576 1831 EC0C0000 		.4byte	.LVL476-.Ltext0
 9577 1835 F40C0000 		.4byte	.LVL477-.Ltext0
 9578 1839 0100     		.2byte	0x1
 9579 183b 54       		.byte	0x54
 9580 183c F40C0000 		.4byte	.LVL477-.Ltext0
 9581 1840 040D0000 		.4byte	.LVL481-.Ltext0
 9582 1844 0100     		.2byte	0x1
 9583 1846 51       		.byte	0x51
 9584 1847 040D0000 		.4byte	.LVL481-.Ltext0
 9585 184b 0C0D0000 		.4byte	.LVL482-.Ltext0
 9586 184f 0100     		.2byte	0x1
 9587 1851 54       		.byte	0x54
 9588 1852 00000000 		.4byte	0x0
 9589 1856 00000000 		.4byte	0x0
 9590              	.LLST193:
 9591 185a 300D0000 		.4byte	.LVL486-.Ltext0
 9592 185e 380D0000 		.4byte	.LVL488-.Ltext0
 9593 1862 0100     		.2byte	0x1
 9594 1864 54       		.byte	0x54
 9595 1865 380D0000 		.4byte	.LVL488-.Ltext0
 9596 1869 400D0000 		.4byte	.LVL490-.Ltext0
 9597 186d 0100     		.2byte	0x1
 9598 186f 50       		.byte	0x50
 9599 1870 5C0D0000 		.4byte	.LVL494-.Ltext0
 9600 1874 600D0000 		.4byte	.LVL495-.Ltext0
 9601 1878 0100     		.2byte	0x1
 9602 187a 54       		.byte	0x54
 9603 187b 00000000 		.4byte	0x0
ARM GAS  /cygdrive/c/DOCUME~1/mkwapisz/LOCALS~1/Temp/cc1OEM1Z.s 			page 186


 9604 187f 00000000 		.4byte	0x0
 9605              	.LLST194:
 9606 1883 280D0000 		.4byte	.LVL485-.Ltext0
 9607 1887 300D0000 		.4byte	.LVL486-.Ltext0
 9608 188b 0100     		.2byte	0x1
 9609 188d 54       		.byte	0x54
 9610 188e 300D0000 		.4byte	.LVL486-.Ltext0
 9611 1892 400D0000 		.4byte	.LVL490-.Ltext0
 9612 1896 0100     		.2byte	0x1
 9613 1898 51       		.byte	0x51
 9614 1899 480D0000 		.4byte	.LVL491-.Ltext0
 9615 189d 500D0000 		.4byte	.LVL492-.Ltext0
 9616 18a1 0100     		.2byte	0x1
 9617 18a3 54       		.byte	0x54
 9618 18a4 00000000 		.4byte	0x0
 9619 18a8 00000000 		.4byte	0x0
 9620              	.LLST195:
 9621 18ac 580D0000 		.4byte	.LVL493-.Ltext0
 9622 18b0 5C0D0000 		.4byte	.LVL494-.Ltext0
 9623 18b4 0100     		.2byte	0x1
 9624 18b6 54       		.byte	0x54
 9625 18b7 5C0D0000 		.4byte	.LVL494-.Ltext0
 9626 18bb 680D0000 		.4byte	.LVL497-.Ltext0
 9627 18bf 0100     		.2byte	0x1
 9628 18c1 50       		.byte	0x50
 9629 18c2 700D0000 		.4byte	.LVL498-.Ltext0
 9630 18c6 740D0000 		.4byte	.LVL499-.Ltext0
 9631 18ca 0100     		.2byte	0x1
 9632 18cc 54       		.byte	0x54
 9633 18cd 00000000 		.4byte	0x0
 9634 18d1 00000000 		.4byte	0x0
 9635              	.LLST196:
 9636 18d5 500D0000 		.4byte	.LVL492-.Ltext0
 9637 18d9 580D0000 		.4byte	.LVL493-.Ltext0
 9638 18dd 0100     		.2byte	0x1
 9639 18df 54       		.byte	0x54
 9640 18e0 580D0000 		.4byte	.LVL493-.Ltext0
 9641 18e4 680D0000 		.4byte	.LVL497-.Ltext0
 9642 18e8 0100     		.2byte	0x1
 9643 18ea 51       		.byte	0x51
 9644 18eb 680D0000 		.4byte	.LVL497-.Ltext0
 9645 18ef 700D0000 		.4byte	.LVL498-.Ltext0
 9646 18f3 0100     		.2byte	0x1
 9647 18f5 54       		.byte	0x54
 9648 18f6 00000000 		.4byte	0x0
 9649 18fa 00000000 		.4byte	0x0
 9650              	.LLST197:
 9651 18fe 940D0000 		.4byte	.LVL502-.Ltext0
 9652 1902 980D0000 		.4byte	.LVL503-.Ltext0
 9653 1906 0100     		.2byte	0x1
 9654 1908 54       		.byte	0x54
 9655 1909 980D0000 		.4byte	.LVL503-.Ltext0
 9656 190d A40D0000 		.4byte	.LVL506-.Ltext0
 9657 1911 0100     		.2byte	0x1
 9658 1913 50       		.byte	0x50
 9659 1914 C00D0000 		.4byte	.LVL510-.Ltext0
 9660 1918 C40D0000 		.4byte	.LVL511-.Ltext0
ARM GAS  /cygdrive/c/DOCUME~1/mkwapisz/LOCALS~1/Temp/cc1OEM1Z.s 			page 187


 9661 191c 0100     		.2byte	0x1
 9662 191e 54       		.byte	0x54
 9663 191f 00000000 		.4byte	0x0
 9664 1923 00000000 		.4byte	0x0
 9665              	.LLST198:
 9666 1927 8C0D0000 		.4byte	.LVL501-.Ltext0
 9667 192b 940D0000 		.4byte	.LVL502-.Ltext0
 9668 192f 0100     		.2byte	0x1
 9669 1931 54       		.byte	0x54
 9670 1932 940D0000 		.4byte	.LVL502-.Ltext0
 9671 1936 A40D0000 		.4byte	.LVL506-.Ltext0
 9672 193a 0100     		.2byte	0x1
 9673 193c 51       		.byte	0x51
 9674 193d AC0D0000 		.4byte	.LVL507-.Ltext0
 9675 1941 B40D0000 		.4byte	.LVL508-.Ltext0
 9676 1945 0100     		.2byte	0x1
 9677 1947 54       		.byte	0x54
 9678 1948 00000000 		.4byte	0x0
 9679 194c 00000000 		.4byte	0x0
 9680              	.LLST199:
 9681 1950 B40D0000 		.4byte	.LVL508-.Ltext0
 9682 1954 B80D0000 		.4byte	.LVL509-.Ltext0
 9683 1958 0100     		.2byte	0x1
 9684 195a 54       		.byte	0x54
 9685 195b B80D0000 		.4byte	.LVL509-.Ltext0
 9686 195f CC0D0000 		.4byte	.LVL513-.Ltext0
 9687 1963 0100     		.2byte	0x1
 9688 1965 50       		.byte	0x50
 9689 1966 D40D0000 		.4byte	.LVL514-.Ltext0
 9690 196a D80D0000 		.4byte	.LVL515-.Ltext0
 9691 196e 0100     		.2byte	0x1
 9692 1970 54       		.byte	0x54
 9693 1971 00000000 		.4byte	0x0
 9694 1975 00000000 		.4byte	0x0
 9695              	.LLST200:
 9696 1979 B80D0000 		.4byte	.LVL509-.Ltext0
 9697 197d C00D0000 		.4byte	.LVL510-.Ltext0
 9698 1981 0100     		.2byte	0x1
 9699 1983 54       		.byte	0x54
 9700 1984 C00D0000 		.4byte	.LVL510-.Ltext0
 9701 1988 CC0D0000 		.4byte	.LVL513-.Ltext0
 9702 198c 0100     		.2byte	0x1
 9703 198e 51       		.byte	0x51
 9704 198f CC0D0000 		.4byte	.LVL513-.Ltext0
 9705 1993 D40D0000 		.4byte	.LVL514-.Ltext0
 9706 1997 0100     		.2byte	0x1
 9707 1999 54       		.byte	0x54
 9708 199a 00000000 		.4byte	0x0
 9709 199e 00000000 		.4byte	0x0
 9710              	.LLST201:
 9711 19a2 000E0000 		.4byte	.LVL518-.Ltext0
 9712 19a6 080E0000 		.4byte	.LVL520-.Ltext0
 9713 19aa 0100     		.2byte	0x1
 9714 19ac 54       		.byte	0x54
 9715 19ad 080E0000 		.4byte	.LVL520-.Ltext0
 9716 19b1 140E0000 		.4byte	.LVL524-.Ltext0
 9717 19b5 0100     		.2byte	0x1
ARM GAS  /cygdrive/c/DOCUME~1/mkwapisz/LOCALS~1/Temp/cc1OEM1Z.s 			page 188


 9718 19b7 50       		.byte	0x50
 9719 19b8 240E0000 		.4byte	.LVL527-.Ltext0
 9720 19bc 280E0000 		.4byte	.LVL529-.Ltext0
 9721 19c0 0100     		.2byte	0x1
 9722 19c2 54       		.byte	0x54
 9723 19c3 00000000 		.4byte	0x0
 9724 19c7 00000000 		.4byte	0x0
 9725              	.LLST202:
 9726 19cb F80D0000 		.4byte	.LVL517-.Ltext0
 9727 19cf 0C0E0000 		.4byte	.LVL522-.Ltext0
 9728 19d3 0100     		.2byte	0x1
 9729 19d5 55       		.byte	0x55
 9730 19d6 0C0E0000 		.4byte	.LVL522-.Ltext0
 9731 19da 140E0000 		.4byte	.LVL524-.Ltext0
 9732 19de 0100     		.2byte	0x1
 9733 19e0 51       		.byte	0x51
 9734 19e1 1C0E0000 		.4byte	.LVL525-.Ltext0
 9735 19e5 200E0000 		.4byte	.LVL526-.Ltext0
 9736 19e9 0100     		.2byte	0x1
 9737 19eb 55       		.byte	0x55
 9738 19ec 00000000 		.4byte	0x0
 9739 19f0 00000000 		.4byte	0x0
 9740              	.LLST203:
 9741 19f4 300E0000 		.4byte	.LVL530-.Ltext0
 9742 19f8 340E0000 		.4byte	.LVL531-.Ltext0
 9743 19fc 0100     		.2byte	0x1
 9744 19fe 54       		.byte	0x54
 9745 19ff 340E0000 		.4byte	.LVL531-.Ltext0
 9746 1a03 400E0000 		.4byte	.LVL533-.Ltext0
 9747 1a07 0100     		.2byte	0x1
 9748 1a09 50       		.byte	0x50
 9749 1a0a 00000000 		.4byte	0x0
 9750 1a0e 00000000 		.4byte	0x0
 9751              	.LLST204:
 9752 1a12 280E0000 		.4byte	.LVL529-.Ltext0
 9753 1a16 300E0000 		.4byte	.LVL530-.Ltext0
 9754 1a1a 0100     		.2byte	0x1
 9755 1a1c 54       		.byte	0x54
 9756 1a1d 300E0000 		.4byte	.LVL530-.Ltext0
 9757 1a21 400E0000 		.4byte	.LVL533-.Ltext0
 9758 1a25 0100     		.2byte	0x1
 9759 1a27 51       		.byte	0x51
 9760 1a28 00000000 		.4byte	0x0
 9761 1a2c 00000000 		.4byte	0x0
 9762              	.LLST205:
 9763 1a30 640E0000 		.4byte	.LVL537-.Ltext0
 9764 1a34 6C0E0000 		.4byte	.LVL538-.Ltext0
 9765 1a38 0100     		.2byte	0x1
 9766 1a3a 54       		.byte	0x54
 9767 1a3b 700E0000 		.4byte	.LVL539-.Ltext0
 9768 1a3f 780E0000 		.4byte	.LVL541-.Ltext0
 9769 1a43 0100     		.2byte	0x1
 9770 1a45 54       		.byte	0x54
 9771 1a46 00000000 		.4byte	0x0
 9772 1a4a 00000000 		.4byte	0x0
 9773              	.LLST206:
 9774 1a4e 5C0E0000 		.4byte	.LVL536-.Ltext0
ARM GAS  /cygdrive/c/DOCUME~1/mkwapisz/LOCALS~1/Temp/cc1OEM1Z.s 			page 189


 9775 1a52 640E0000 		.4byte	.LVL537-.Ltext0
 9776 1a56 0100     		.2byte	0x1
 9777 1a58 54       		.byte	0x54
 9778 1a59 640E0000 		.4byte	.LVL537-.Ltext0
 9779 1a5d 6C0E0000 		.4byte	.LVL538-.Ltext0
 9780 1a61 0100     		.2byte	0x1
 9781 1a63 51       		.byte	0x51
 9782 1a64 6C0E0000 		.4byte	.LVL538-.Ltext0
 9783 1a68 700E0000 		.4byte	.LVL539-.Ltext0
 9784 1a6c 0100     		.2byte	0x1
 9785 1a6e 54       		.byte	0x54
 9786 1a6f 00000000 		.4byte	0x0
 9787 1a73 00000000 		.4byte	0x0
 9788              	.LLST207:
 9789 1a77 880E0000 		.4byte	.LVL543-.Ltext0
 9790 1a7b 900E0000 		.4byte	.LVL544-.Ltext0
 9791 1a7f 0100     		.2byte	0x1
 9792 1a81 54       		.byte	0x54
 9793 1a82 940E0000 		.4byte	.LVL545-.Ltext0
 9794 1a86 B00E0000 		.4byte	.LVL547-.Ltext0
 9795 1a8a 0100     		.2byte	0x1
 9796 1a8c 54       		.byte	0x54
 9797 1a8d 00000000 		.4byte	0x0
 9798 1a91 00000000 		.4byte	0x0
 9799              	.LLST208:
 9800 1a95 7C0E0000 		.4byte	.LVL542-.Ltext0
 9801 1a99 880E0000 		.4byte	.LVL543-.Ltext0
 9802 1a9d 0100     		.2byte	0x1
 9803 1a9f 54       		.byte	0x54
 9804 1aa0 880E0000 		.4byte	.LVL543-.Ltext0
 9805 1aa4 900E0000 		.4byte	.LVL544-.Ltext0
 9806 1aa8 0100     		.2byte	0x1
 9807 1aaa 51       		.byte	0x51
 9808 1aab 900E0000 		.4byte	.LVL544-.Ltext0
 9809 1aaf 940E0000 		.4byte	.LVL545-.Ltext0
 9810 1ab3 0100     		.2byte	0x1
 9811 1ab5 54       		.byte	0x54
 9812 1ab6 00000000 		.4byte	0x0
 9813 1aba 00000000 		.4byte	0x0
 9814              	.LLST209:
 9815 1abe B80E0000 		.4byte	.LVL548-.Ltext0
 9816 1ac2 CC0E0000 		.4byte	.LVL551-.Ltext0
 9817 1ac6 0100     		.2byte	0x1
 9818 1ac8 54       		.byte	0x54
 9819 1ac9 DC0E0000 		.4byte	.LVL554-.Ltext0
 9820 1acd E00E0000 		.4byte	.LVL555-.Ltext0
 9821 1ad1 0100     		.2byte	0x1
 9822 1ad3 54       		.byte	0x54
 9823 1ad4 00000000 		.4byte	0x0
 9824 1ad8 00000000 		.4byte	0x0
 9825              	.LLST210:
 9826 1adc B00E0000 		.4byte	.LVL547-.Ltext0
 9827 1ae0 B80E0000 		.4byte	.LVL548-.Ltext0
 9828 1ae4 0100     		.2byte	0x1
 9829 1ae6 54       		.byte	0x54
 9830 1ae7 B80E0000 		.4byte	.LVL548-.Ltext0
 9831 1aeb C00E0000 		.4byte	.LVL549-.Ltext0
ARM GAS  /cygdrive/c/DOCUME~1/mkwapisz/LOCALS~1/Temp/cc1OEM1Z.s 			page 190


 9832 1aef 0100     		.2byte	0x1
 9833 1af1 51       		.byte	0x51
 9834 1af2 CC0E0000 		.4byte	.LVL551-.Ltext0
 9835 1af6 D00E0000 		.4byte	.LVL552-.Ltext0
 9836 1afa 0100     		.2byte	0x1
 9837 1afc 54       		.byte	0x54
 9838 1afd 00000000 		.4byte	0x0
 9839 1b01 00000000 		.4byte	0x0
 9840              	.LLST211:
 9841 1b05 D80E0000 		.4byte	.LVL553-.Ltext0
 9842 1b09 DC0E0000 		.4byte	.LVL554-.Ltext0
 9843 1b0d 0100     		.2byte	0x1
 9844 1b0f 54       		.byte	0x54
 9845 1b10 DC0E0000 		.4byte	.LVL554-.Ltext0
 9846 1b14 E80E0000 		.4byte	.LVL557-.Ltext0
 9847 1b18 0100     		.2byte	0x1
 9848 1b1a 50       		.byte	0x50
 9849 1b1b F00E0000 		.4byte	.LVL558-.Ltext0
 9850 1b1f F40E0000 		.4byte	.LVL559-.Ltext0
 9851 1b23 0100     		.2byte	0x1
 9852 1b25 54       		.byte	0x54
 9853 1b26 00000000 		.4byte	0x0
 9854 1b2a 00000000 		.4byte	0x0
 9855              	.LLST212:
 9856 1b2e D00E0000 		.4byte	.LVL552-.Ltext0
 9857 1b32 D80E0000 		.4byte	.LVL553-.Ltext0
 9858 1b36 0100     		.2byte	0x1
 9859 1b38 54       		.byte	0x54
 9860 1b39 D80E0000 		.4byte	.LVL553-.Ltext0
 9861 1b3d E80E0000 		.4byte	.LVL557-.Ltext0
 9862 1b41 0100     		.2byte	0x1
 9863 1b43 51       		.byte	0x51
 9864 1b44 E80E0000 		.4byte	.LVL557-.Ltext0
 9865 1b48 F00E0000 		.4byte	.LVL558-.Ltext0
 9866 1b4c 0100     		.2byte	0x1
 9867 1b4e 54       		.byte	0x54
 9868 1b4f 00000000 		.4byte	0x0
 9869 1b53 00000000 		.4byte	0x0
 9870              	.LLST213:
 9871 1b57 200F0000 		.4byte	.LVL564-.Ltext0
 9872 1b5b 340F0000 		.4byte	.LVL567-.Ltext0
 9873 1b5f 0100     		.2byte	0x1
 9874 1b61 54       		.byte	0x54
 9875 1b62 380F0000 		.4byte	.LVL568-.Ltext0
 9876 1b66 400F0000 		.4byte	.LVL569-.Ltext0
 9877 1b6a 0100     		.2byte	0x1
 9878 1b6c 54       		.byte	0x54
 9879 1b6d 00000000 		.4byte	0x0
 9880 1b71 00000000 		.4byte	0x0
 9881              	.LLST214:
 9882 1b75 180F0000 		.4byte	.LVL563-.Ltext0
 9883 1b79 200F0000 		.4byte	.LVL564-.Ltext0
 9884 1b7d 0100     		.2byte	0x1
 9885 1b7f 54       		.byte	0x54
 9886 1b80 200F0000 		.4byte	.LVL564-.Ltext0
 9887 1b84 2C0F0000 		.4byte	.LVL566-.Ltext0
 9888 1b88 0100     		.2byte	0x1
ARM GAS  /cygdrive/c/DOCUME~1/mkwapisz/LOCALS~1/Temp/cc1OEM1Z.s 			page 191


 9889 1b8a 51       		.byte	0x51
 9890 1b8b 340F0000 		.4byte	.LVL567-.Ltext0
 9891 1b8f 380F0000 		.4byte	.LVL568-.Ltext0
 9892 1b93 0100     		.2byte	0x1
 9893 1b95 54       		.byte	0x54
 9894 1b96 00000000 		.4byte	0x0
 9895 1b9a 00000000 		.4byte	0x0
 9896              	.LLST215:
 9897 1b9e 4C0F0000 		.4byte	.LVL571-.Ltext0
 9898 1ba2 700F0000 		.4byte	.LVL575-.Ltext0
 9899 1ba6 0100     		.2byte	0x1
 9900 1ba8 54       		.byte	0x54
 9901 1ba9 00000000 		.4byte	0x0
 9902 1bad 00000000 		.4byte	0x0
 9903              	.LLST216:
 9904 1bb1 440F0000 		.4byte	.LVL570-.Ltext0
 9905 1bb5 640F0000 		.4byte	.LVL573-.Ltext0
 9906 1bb9 0100     		.2byte	0x1
 9907 1bbb 55       		.byte	0x55
 9908 1bbc 00000000 		.4byte	0x0
 9909 1bc0 00000000 		.4byte	0x0
 9910              	.LLST217:
 9911 1bc4 740F0000 		.4byte	.LVL576-.Ltext0
 9912 1bc8 780F0000 		.4byte	.LVL577-.Ltext0
 9913 1bcc 0100     		.2byte	0x1
 9914 1bce 54       		.byte	0x54
 9915 1bcf 780F0000 		.4byte	.LVL577-.Ltext0
 9916 1bd3 840F0000 		.4byte	.LVL579-.Ltext0
 9917 1bd7 0100     		.2byte	0x1
 9918 1bd9 50       		.byte	0x50
 9919 1bda 00000000 		.4byte	0x0
 9920 1bde 00000000 		.4byte	0x0
 9921              	.LLST218:
 9922 1be2 700F0000 		.4byte	.LVL575-.Ltext0
 9923 1be6 740F0000 		.4byte	.LVL576-.Ltext0
 9924 1bea 0100     		.2byte	0x1
 9925 1bec 54       		.byte	0x54
 9926 1bed 740F0000 		.4byte	.LVL576-.Ltext0
 9927 1bf1 840F0000 		.4byte	.LVL579-.Ltext0
 9928 1bf5 0100     		.2byte	0x1
 9929 1bf7 51       		.byte	0x51
 9930 1bf8 00000000 		.4byte	0x0
 9931 1bfc 00000000 		.4byte	0x0
 9932              	.LLST219:
 9933 1c00 AC0F0000 		.4byte	.LVL584-.Ltext0
 9934 1c04 B40F0000 		.4byte	.LVL585-.Ltext0
 9935 1c08 0100     		.2byte	0x1
 9936 1c0a 54       		.byte	0x54
 9937 1c0b BC0F0000 		.4byte	.LVL586-.Ltext0
 9938 1c0f CC0F0000 		.4byte	.LVL588-.Ltext0
 9939 1c13 0100     		.2byte	0x1
 9940 1c15 54       		.byte	0x54
 9941 1c16 00000000 		.4byte	0x0
 9942 1c1a 00000000 		.4byte	0x0
 9943              	.LLST220:
 9944 1c1e A40F0000 		.4byte	.LVL583-.Ltext0
 9945 1c22 AC0F0000 		.4byte	.LVL584-.Ltext0
ARM GAS  /cygdrive/c/DOCUME~1/mkwapisz/LOCALS~1/Temp/cc1OEM1Z.s 			page 192


 9946 1c26 0100     		.2byte	0x1
 9947 1c28 54       		.byte	0x54
 9948 1c29 AC0F0000 		.4byte	.LVL584-.Ltext0
 9949 1c2d B40F0000 		.4byte	.LVL585-.Ltext0
 9950 1c31 0100     		.2byte	0x1
 9951 1c33 51       		.byte	0x51
 9952 1c34 B40F0000 		.4byte	.LVL585-.Ltext0
 9953 1c38 BC0F0000 		.4byte	.LVL586-.Ltext0
 9954 1c3c 0100     		.2byte	0x1
 9955 1c3e 54       		.byte	0x54
 9956 1c3f 00000000 		.4byte	0x0
 9957 1c43 00000000 		.4byte	0x0
 9958              	.LLST221:
 9959 1c47 D80F0000 		.4byte	.LVL589-.Ltext0
 9960 1c4b E00F0000 		.4byte	.LVL590-.Ltext0
 9961 1c4f 0100     		.2byte	0x1
 9962 1c51 54       		.byte	0x54
 9963 1c52 E40F0000 		.4byte	.LVL591-.Ltext0
 9964 1c56 00100000 		.4byte	.LVL594-.Ltext0
 9965 1c5a 0100     		.2byte	0x1
 9966 1c5c 54       		.byte	0x54
 9967 1c5d 00000000 		.4byte	0x0
 9968 1c61 00000000 		.4byte	0x0
 9969              	.LLST222:
 9970 1c65 CC0F0000 		.4byte	.LVL588-.Ltext0
 9971 1c69 D80F0000 		.4byte	.LVL589-.Ltext0
 9972 1c6d 0100     		.2byte	0x1
 9973 1c6f 54       		.byte	0x54
 9974 1c70 D80F0000 		.4byte	.LVL589-.Ltext0
 9975 1c74 E00F0000 		.4byte	.LVL590-.Ltext0
 9976 1c78 0100     		.2byte	0x1
 9977 1c7a 51       		.byte	0x51
 9978 1c7b E00F0000 		.4byte	.LVL590-.Ltext0
 9979 1c7f E40F0000 		.4byte	.LVL591-.Ltext0
 9980 1c83 0100     		.2byte	0x1
 9981 1c85 54       		.byte	0x54
 9982 1c86 00000000 		.4byte	0x0
 9983 1c8a 00000000 		.4byte	0x0
 9984              	.LLST223:
 9985 1c8e 08100000 		.4byte	.LVL595-.Ltext0
 9986 1c92 14100000 		.4byte	.LVL597-.Ltext0
 9987 1c96 0100     		.2byte	0x1
 9988 1c98 54       		.byte	0x54
 9989 1c99 18100000 		.4byte	.LVL598-.Ltext0
 9990 1c9d 24100000 		.4byte	.LVL600-.Ltext0
 9991 1ca1 0100     		.2byte	0x1
 9992 1ca3 54       		.byte	0x54
 9993 1ca4 00000000 		.4byte	0x0
 9994 1ca8 00000000 		.4byte	0x0
 9995              	.LLST224:
 9996 1cac 00100000 		.4byte	.LVL594-.Ltext0
 9997 1cb0 08100000 		.4byte	.LVL595-.Ltext0
 9998 1cb4 0100     		.2byte	0x1
 9999 1cb6 54       		.byte	0x54
 10000 1cb7 08100000 		.4byte	.LVL595-.Ltext0
 10001 1cbb 10100000 		.4byte	.LVL596-.Ltext0
 10002 1cbf 0100     		.2byte	0x1
ARM GAS  /cygdrive/c/DOCUME~1/mkwapisz/LOCALS~1/Temp/cc1OEM1Z.s 			page 193


 10003 1cc1 51       		.byte	0x51
 10004 1cc2 14100000 		.4byte	.LVL597-.Ltext0
 10005 1cc6 18100000 		.4byte	.LVL598-.Ltext0
 10006 1cca 0100     		.2byte	0x1
 10007 1ccc 54       		.byte	0x54
 10008 1ccd 00000000 		.4byte	0x0
 10009 1cd1 00000000 		.4byte	0x0
 10010              	.LLST225:
 10011 1cd5 34100000 		.4byte	.LVL602-.Ltext0
 10012 1cd9 3C100000 		.4byte	.LVL603-.Ltext0
 10013 1cdd 0100     		.2byte	0x1
 10014 1cdf 54       		.byte	0x54
 10015 1ce0 40100000 		.4byte	.LVL604-.Ltext0
 10016 1ce4 68100000 		.4byte	.LVL608-.Ltext0
 10017 1ce8 0100     		.2byte	0x1
 10018 1cea 54       		.byte	0x54
 10019 1ceb 00000000 		.4byte	0x0
 10020 1cef 00000000 		.4byte	0x0
 10021              	.LLST226:
 10022 1cf3 28100000 		.4byte	.LVL601-.Ltext0
 10023 1cf7 34100000 		.4byte	.LVL602-.Ltext0
 10024 1cfb 0100     		.2byte	0x1
 10025 1cfd 54       		.byte	0x54
 10026 1cfe 34100000 		.4byte	.LVL602-.Ltext0
 10027 1d02 3C100000 		.4byte	.LVL603-.Ltext0
 10028 1d06 0100     		.2byte	0x1
 10029 1d08 51       		.byte	0x51
 10030 1d09 3C100000 		.4byte	.LVL603-.Ltext0
 10031 1d0d 40100000 		.4byte	.LVL604-.Ltext0
 10032 1d11 0100     		.2byte	0x1
 10033 1d13 54       		.byte	0x54
 10034 1d14 00000000 		.4byte	0x0
 10035 1d18 00000000 		.4byte	0x0
 10036              	.LLST227:
 10037 1d1c 68100000 		.4byte	.LVL608-.Ltext0
 10038 1d20 78100000 		.4byte	.LVL609-.Ltext0
 10039 1d24 0100     		.2byte	0x1
 10040 1d26 54       		.byte	0x54
 10041 1d27 94100000 		.4byte	.LVL614-.Ltext0
 10042 1d2b 98100000 		.4byte	.LVL616-.Ltext0
 10043 1d2f 0100     		.2byte	0x1
 10044 1d31 54       		.byte	0x54
 10045 1d32 00000000 		.4byte	0x0
 10046 1d36 00000000 		.4byte	0x0
 10047              	.LLST228:
 10048 1d3a 58100000 		.4byte	.LVL607-.Ltext0
 10049 1d3e 84100000 		.4byte	.LVL610-.Ltext0
 10050 1d42 0100     		.2byte	0x1
 10051 1d44 56       		.byte	0x56
 10052 1d45 00000000 		.4byte	0x0
 10053 1d49 00000000 		.4byte	0x0
 10054              	.LLST229:
 10055 1d4d 78100000 		.4byte	.LVL609-.Ltext0
 10056 1d51 94100000 		.4byte	.LVL614-.Ltext0
 10057 1d55 0100     		.2byte	0x1
 10058 1d57 54       		.byte	0x54
 10059 1d58 98100000 		.4byte	.LVL616-.Ltext0
ARM GAS  /cygdrive/c/DOCUME~1/mkwapisz/LOCALS~1/Temp/cc1OEM1Z.s 			page 194


 10060 1d5c B8100000 		.4byte	.LVL620-.Ltext0
 10061 1d60 0100     		.2byte	0x1
 10062 1d62 54       		.byte	0x54
 10063 1d63 00000000 		.4byte	0x0
 10064 1d67 00000000 		.4byte	0x0
 10065              	.LLST230:
 10066 1d6b 84100000 		.4byte	.LVL611-.Ltext0
 10067 1d6f 90100000 		.4byte	.LVL612-.Ltext0
 10068 1d73 0100     		.2byte	0x1
 10069 1d75 55       		.byte	0x55
 10070 1d76 90100000 		.4byte	.LVL612-.Ltext0
 10071 1d7a 94100000 		.4byte	.LVL613-.Ltext0
 10072 1d7e 0100     		.2byte	0x1
 10073 1d80 51       		.byte	0x51
 10074 1d81 00000000 		.4byte	0x0
 10075 1d85 00000000 		.4byte	0x0
 10076              	.LLST231:
 10077 1d89 C4100000 		.4byte	.LVL622-.Ltext0
 10078 1d8d DC100000 		.4byte	.LVL624-.Ltext0
 10079 1d91 0100     		.2byte	0x1
 10080 1d93 54       		.byte	0x54
 10081 1d94 E8100000 		.4byte	.LVL627-.Ltext0
 10082 1d98 F0100000 		.4byte	.LVL628-.Ltext0
 10083 1d9c 0100     		.2byte	0x1
 10084 1d9e 54       		.byte	0x54
 10085 1d9f 00000000 		.4byte	0x0
 10086 1da3 00000000 		.4byte	0x0
 10087              	.LLST232:
 10088 1da7 BC100000 		.4byte	.LVL621-.Ltext0
 10089 1dab C4100000 		.4byte	.LVL622-.Ltext0
 10090 1daf 0100     		.2byte	0x1
 10091 1db1 54       		.byte	0x54
 10092 1db2 C4100000 		.4byte	.LVL622-.Ltext0
 10093 1db6 CC100000 		.4byte	.LVL623-.Ltext0
 10094 1dba 0100     		.2byte	0x1
 10095 1dbc 51       		.byte	0x51
 10096 1dbd E0100000 		.4byte	.LVL626-.Ltext0
 10097 1dc1 E8100000 		.4byte	.LVL627-.Ltext0
 10098 1dc5 0100     		.2byte	0x1
 10099 1dc7 54       		.byte	0x54
 10100 1dc8 00000000 		.4byte	0x0
 10101 1dcc 00000000 		.4byte	0x0
 10102              	.LLST233:
 10103 1dd0 F8100000 		.4byte	.LVL629-.Ltext0
 10104 1dd4 FC100000 		.4byte	.LVL630-.Ltext0
 10105 1dd8 0100     		.2byte	0x1
 10106 1dda 54       		.byte	0x54
 10107 1ddb FC100000 		.4byte	.LVL630-.Ltext0
 10108 1ddf 04110000 		.4byte	.LVL632-.Ltext0
 10109 1de3 0100     		.2byte	0x1
 10110 1de5 50       		.byte	0x50
 10111 1de6 08110000 		.4byte	.LVL633-.Ltext0
 10112 1dea 24110000 		.4byte	.LVL636-.Ltext0
 10113 1dee 0100     		.2byte	0x1
 10114 1df0 54       		.byte	0x54
 10115 1df1 00000000 		.4byte	0x0
 10116 1df5 00000000 		.4byte	0x0
ARM GAS  /cygdrive/c/DOCUME~1/mkwapisz/LOCALS~1/Temp/cc1OEM1Z.s 			page 195


 10117              	.LLST234:
 10118 1df9 F0100000 		.4byte	.LVL628-.Ltext0
 10119 1dfd F8100000 		.4byte	.LVL629-.Ltext0
 10120 1e01 0100     		.2byte	0x1
 10121 1e03 54       		.byte	0x54
 10122 1e04 F8100000 		.4byte	.LVL629-.Ltext0
 10123 1e08 04110000 		.4byte	.LVL632-.Ltext0
 10124 1e0c 0100     		.2byte	0x1
 10125 1e0e 51       		.byte	0x51
 10126 1e0f 04110000 		.4byte	.LVL632-.Ltext0
 10127 1e13 08110000 		.4byte	.LVL633-.Ltext0
 10128 1e17 0100     		.2byte	0x1
 10129 1e19 54       		.byte	0x54
 10130 1e1a 00000000 		.4byte	0x0
 10131 1e1e 00000000 		.4byte	0x0
 10132              	.LLST235:
 10133 1e22 3C110000 		.4byte	.LVL639-.Ltext0
 10134 1e26 44110000 		.4byte	.LVL640-.Ltext0
 10135 1e2a 0100     		.2byte	0x1
 10136 1e2c 54       		.byte	0x54
 10137 1e2d 48110000 		.4byte	.LVL641-.Ltext0
 10138 1e31 5C110000 		.4byte	.LVL644-.Ltext0
 10139 1e35 0100     		.2byte	0x1
 10140 1e37 54       		.byte	0x54
 10141 1e38 00000000 		.4byte	0x0
 10142 1e3c 00000000 		.4byte	0x0
 10143              	.LLST236:
 10144 1e40 28110000 		.4byte	.LVL637-.Ltext0
 10145 1e44 34110000 		.4byte	.LVL638-.Ltext0
 10146 1e48 0100     		.2byte	0x1
 10147 1e4a 54       		.byte	0x54
 10148 1e4b 34110000 		.4byte	.LVL638-.Ltext0
 10149 1e4f 44110000 		.4byte	.LVL640-.Ltext0
 10150 1e53 0100     		.2byte	0x1
 10151 1e55 51       		.byte	0x51
 10152 1e56 44110000 		.4byte	.LVL640-.Ltext0
 10153 1e5a 48110000 		.4byte	.LVL641-.Ltext0
 10154 1e5e 0100     		.2byte	0x1
 10155 1e60 54       		.byte	0x54
 10156 1e61 00000000 		.4byte	0x0
 10157 1e65 00000000 		.4byte	0x0
 10158              	.LLST237:
 10159 1e69 70110000 		.4byte	.LVL647-.Ltext0
 10160 1e6d 7C110000 		.4byte	.LVL649-.Ltext0
 10161 1e71 0100     		.2byte	0x1
 10162 1e73 54       		.byte	0x54
 10163 1e74 80110000 		.4byte	.LVL650-.Ltext0
 10164 1e78 90110000 		.4byte	.LVL651-.Ltext0
 10165 1e7c 0100     		.2byte	0x1
 10166 1e7e 54       		.byte	0x54
 10167 1e7f 00000000 		.4byte	0x0
 10168 1e83 00000000 		.4byte	0x0
 10169              	.LLST238:
 10170 1e87 68110000 		.4byte	.LVL646-.Ltext0
 10171 1e8b 70110000 		.4byte	.LVL647-.Ltext0
 10172 1e8f 0100     		.2byte	0x1
 10173 1e91 54       		.byte	0x54
ARM GAS  /cygdrive/c/DOCUME~1/mkwapisz/LOCALS~1/Temp/cc1OEM1Z.s 			page 196


 10174 1e92 70110000 		.4byte	.LVL647-.Ltext0
 10175 1e96 78110000 		.4byte	.LVL648-.Ltext0
 10176 1e9a 0100     		.2byte	0x1
 10177 1e9c 51       		.byte	0x51
 10178 1e9d 7C110000 		.4byte	.LVL649-.Ltext0
 10179 1ea1 80110000 		.4byte	.LVL650-.Ltext0
 10180 1ea5 0100     		.2byte	0x1
 10181 1ea7 54       		.byte	0x54
 10182 1ea8 00000000 		.4byte	0x0
 10183 1eac 00000000 		.4byte	0x0
 10184              	.LLST239:
 10185 1eb0 A4110000 		.4byte	.LVL655-.Ltext0
 10186 1eb4 B0110000 		.4byte	.LVL657-.Ltext0
 10187 1eb8 0100     		.2byte	0x1
 10188 1eba 54       		.byte	0x54
 10189 1ebb B4110000 		.4byte	.LVL658-.Ltext0
 10190 1ebf C8110000 		.4byte	.LVL660-.Ltext0
 10191 1ec3 0100     		.2byte	0x1
 10192 1ec5 54       		.byte	0x54
 10193 1ec6 00000000 		.4byte	0x0
 10194 1eca 00000000 		.4byte	0x0
 10195              	.LLST240:
 10196 1ece 98110000 		.4byte	.LVL653-.Ltext0
 10197 1ed2 9C110000 		.4byte	.LVL654-.Ltext0
 10198 1ed6 0100     		.2byte	0x1
 10199 1ed8 54       		.byte	0x54
 10200 1ed9 9C110000 		.4byte	.LVL654-.Ltext0
 10201 1edd AC110000 		.4byte	.LVL656-.Ltext0
 10202 1ee1 0100     		.2byte	0x1
 10203 1ee3 51       		.byte	0x51
 10204 1ee4 B0110000 		.4byte	.LVL657-.Ltext0
 10205 1ee8 B4110000 		.4byte	.LVL658-.Ltext0
 10206 1eec 0100     		.2byte	0x1
 10207 1eee 54       		.byte	0x54
 10208 1eef 00000000 		.4byte	0x0
 10209 1ef3 00000000 		.4byte	0x0
 10210              	.LLST241:
 10211 1ef7 5C120000 		.4byte	.LVL663-.Ltext0
 10212 1efb 68120000 		.4byte	.LVL665-.Ltext0
 10213 1eff 0100     		.2byte	0x1
 10214 1f01 54       		.byte	0x54
 10215 1f02 6C120000 		.4byte	.LVL666-.Ltext0
 10216 1f06 7C120000 		.4byte	.LVL667-.Ltext0
 10217 1f0a 0100     		.2byte	0x1
 10218 1f0c 54       		.byte	0x54
 10219 1f0d 00000000 		.4byte	0x0
 10220 1f11 00000000 		.4byte	0x0
 10221              	.LLST242:
 10222 1f15 54120000 		.4byte	.LVL662-.Ltext0
 10223 1f19 5C120000 		.4byte	.LVL663-.Ltext0
 10224 1f1d 0100     		.2byte	0x1
 10225 1f1f 54       		.byte	0x54
 10226 1f20 5C120000 		.4byte	.LVL663-.Ltext0
 10227 1f24 64120000 		.4byte	.LVL664-.Ltext0
 10228 1f28 0100     		.2byte	0x1
 10229 1f2a 51       		.byte	0x51
 10230 1f2b 68120000 		.4byte	.LVL665-.Ltext0
ARM GAS  /cygdrive/c/DOCUME~1/mkwapisz/LOCALS~1/Temp/cc1OEM1Z.s 			page 197


 10231 1f2f 6C120000 		.4byte	.LVL666-.Ltext0
 10232 1f33 0100     		.2byte	0x1
 10233 1f35 54       		.byte	0x54
 10234 1f36 00000000 		.4byte	0x0
 10235 1f3a 00000000 		.4byte	0x0
 10236              	.LLST243:
 10237 1f3e 88120000 		.4byte	.LVL669-.Ltext0
 10238 1f42 8C120000 		.4byte	.LVL670-.Ltext0
 10239 1f46 0100     		.2byte	0x1
 10240 1f48 54       		.byte	0x54
 10241 1f49 8C120000 		.4byte	.LVL670-.Ltext0
 10242 1f4d 98120000 		.4byte	.LVL671-.Ltext0
 10243 1f51 0100     		.2byte	0x1
 10244 1f53 50       		.byte	0x50
 10245 1f54 9C120000 		.4byte	.LVL672-.Ltext0
 10246 1f58 AC120000 		.4byte	.LVL674-.Ltext0
 10247 1f5c 0100     		.2byte	0x1
 10248 1f5e 54       		.byte	0x54
 10249 1f5f 00000000 		.4byte	0x0
 10250 1f63 00000000 		.4byte	0x0
 10251              	.LLST244:
 10252 1f67 8C120000 		.4byte	.LVL670-.Ltext0
 10253 1f6b 9C120000 		.4byte	.LVL672-.Ltext0
 10254 1f6f 0100     		.2byte	0x1
 10255 1f71 54       		.byte	0x54
 10256 1f72 00000000 		.4byte	0x0
 10257 1f76 00000000 		.4byte	0x0
 10258              	.LLST245:
 10259 1f7a C0120000 		.4byte	.LFB7-.Ltext0
 10260 1f7e C4120000 		.4byte	.LCFI5-.Ltext0
 10261 1f82 0100     		.2byte	0x1
 10262 1f84 5D       		.byte	0x5d
 10263 1f85 C4120000 		.4byte	.LCFI5-.Ltext0
 10264 1f89 C8120000 		.4byte	.LCFI6-.Ltext0
 10265 1f8d 0200     		.2byte	0x2
 10266 1f8f 7D       		.byte	0x7d
 10267 1f90 24       		.sleb128 36
 10268 1f91 C8120000 		.4byte	.LCFI6-.Ltext0
 10269 1f95 A81D0000 		.4byte	.LFE7-.Ltext0
 10270 1f99 0300     		.2byte	0x3
 10271 1f9b 7D       		.byte	0x7d
 10272 1f9c C003     		.sleb128 448
 10273 1f9e 00000000 		.4byte	0x0
 10274 1fa2 00000000 		.4byte	0x0
 10275              	.LLST246:
 10276 1fa6 C0120000 		.4byte	.LVL676-.Ltext0
 10277 1faa EC120000 		.4byte	.LVL679-.Ltext0
 10278 1fae 0100     		.2byte	0x1
 10279 1fb0 50       		.byte	0x50
 10280 1fb1 EC120000 		.4byte	.LVL679-.Ltext0
 10281 1fb5 A81D0000 		.4byte	.LFE7-.Ltext0
 10282 1fb9 0300     		.2byte	0x3
 10283 1fbb 91       		.byte	0x91
 10284 1fbc FC7D     		.sleb128 -260
 10285 1fbe 00000000 		.4byte	0x0
 10286 1fc2 00000000 		.4byte	0x0
 10287              	.LLST247:
ARM GAS  /cygdrive/c/DOCUME~1/mkwapisz/LOCALS~1/Temp/cc1OEM1Z.s 			page 198


 10288 1fc6 C0120000 		.4byte	.LVL676-.Ltext0
 10289 1fca EC120000 		.4byte	.LVL679-.Ltext0
 10290 1fce 0100     		.2byte	0x1
 10291 1fd0 51       		.byte	0x51
 10292 1fd1 EC120000 		.4byte	.LVL679-.Ltext0
 10293 1fd5 A81D0000 		.4byte	.LFE7-.Ltext0
 10294 1fd9 0300     		.2byte	0x3
 10295 1fdb 91       		.byte	0x91
 10296 1fdc F87D     		.sleb128 -264
 10297 1fde 00000000 		.4byte	0x0
 10298 1fe2 00000000 		.4byte	0x0
 10299              	.LLST248:
 10300 1fe6 C0120000 		.4byte	.LVL676-.Ltext0
 10301 1fea EC120000 		.4byte	.LVL679-.Ltext0
 10302 1fee 0100     		.2byte	0x1
 10303 1ff0 52       		.byte	0x52
 10304 1ff1 EC120000 		.4byte	.LVL679-.Ltext0
 10305 1ff5 A81D0000 		.4byte	.LFE7-.Ltext0
 10306 1ff9 0300     		.2byte	0x3
 10307 1ffb 91       		.byte	0x91
 10308 1ffc F47D     		.sleb128 -268
 10309 1ffe 00000000 		.4byte	0x0
 10310 2002 00000000 		.4byte	0x0
 10311              	.LLST249:
 10312 2006 C0120000 		.4byte	.LVL676-.Ltext0
 10313 200a D0120000 		.4byte	.LVL677-.Ltext0
 10314 200e 0100     		.2byte	0x1
 10315 2010 53       		.byte	0x53
 10316 2011 D0120000 		.4byte	.LVL677-.Ltext0
 10317 2015 A81D0000 		.4byte	.LFE7-.Ltext0
 10318 2019 0300     		.2byte	0x3
 10319 201b 91       		.byte	0x91
 10320 201c F07D     		.sleb128 -272
 10321 201e 00000000 		.4byte	0x0
 10322 2022 00000000 		.4byte	0x0
 10323              	.LLST250:
 10324 2026 5C160000 		.4byte	.LVL819-.Ltext0
 10325 202a 3C190000 		.4byte	.LVL880-.Ltext0
 10326 202e 0300     		.2byte	0x3
 10327 2030 91       		.byte	0x91
 10328 2031 C87E     		.sleb128 -184
 10329 2033 3C190000 		.4byte	.LVL880-.Ltext0
 10330 2037 44190000 		.4byte	.LVL882-.Ltext0
 10331 203b 0100     		.2byte	0x1
 10332 203d 50       		.byte	0x50
 10333 203e 00000000 		.4byte	0x0
 10334 2042 00000000 		.4byte	0x0
 10335              	.LLST251:
 10336 2046 7C170000 		.4byte	.LVL823-.Ltext0
 10337 204a A4170000 		.4byte	.LVL826-.Ltext0
 10338 204e 0100     		.2byte	0x1
 10339 2050 54       		.byte	0x54
 10340 2051 80180000 		.4byte	.LVL854-.Ltext0
 10341 2055 84180000 		.4byte	.LVL855-.Ltext0
 10342 2059 0100     		.2byte	0x1
 10343 205b 54       		.byte	0x54
 10344 205c 98180000 		.4byte	.LVL857-.Ltext0
ARM GAS  /cygdrive/c/DOCUME~1/mkwapisz/LOCALS~1/Temp/cc1OEM1Z.s 			page 199


 10345 2060 9C180000 		.4byte	.LVL858-.Ltext0
 10346 2064 0100     		.2byte	0x1
 10347 2066 54       		.byte	0x54
 10348 2067 B0180000 		.4byte	.LVL861-.Ltext0
 10349 206b B4180000 		.4byte	.LVL862-.Ltext0
 10350 206f 0100     		.2byte	0x1
 10351 2071 54       		.byte	0x54
 10352 2072 C8180000 		.4byte	.LVL865-.Ltext0
 10353 2076 CC180000 		.4byte	.LVL866-.Ltext0
 10354 207a 0100     		.2byte	0x1
 10355 207c 54       		.byte	0x54
 10356 207d E0180000 		.4byte	.LVL869-.Ltext0
 10357 2081 E4180000 		.4byte	.LVL870-.Ltext0
 10358 2085 0100     		.2byte	0x1
 10359 2087 54       		.byte	0x54
 10360 2088 F8180000 		.4byte	.LVL873-.Ltext0
 10361 208c FC180000 		.4byte	.LVL874-.Ltext0
 10362 2090 0100     		.2byte	0x1
 10363 2092 54       		.byte	0x54
 10364 2093 0C190000 		.4byte	.LVL877-.Ltext0
 10365 2097 14190000 		.4byte	.LVL878-.Ltext0
 10366 209b 0100     		.2byte	0x1
 10367 209d 54       		.byte	0x54
 10368 209e 5C190000 		.4byte	.LVL885-.Ltext0
 10369 20a2 70190000 		.4byte	.LVL886-.Ltext0
 10370 20a6 0100     		.2byte	0x1
 10371 20a8 54       		.byte	0x54
 10372 20a9 00000000 		.4byte	0x0
 10373 20ad 00000000 		.4byte	0x0
 10374              	.LLST252:
 10375 20b1 A0170000 		.4byte	.LVL825-.Ltext0
 10376 20b5 50190000 		.4byte	.LVL883-.Ltext0
 10377 20b9 0100     		.2byte	0x1
 10378 20bb 55       		.byte	0x55
 10379 20bc 00000000 		.4byte	0x0
 10380 20c0 00000000 		.4byte	0x0
 10381              	.LLST253:
 10382 20c4 5C160000 		.4byte	.LVL819-.Ltext0
 10383 20c8 781C0000 		.4byte	.LVL1016-.Ltext0
 10384 20cc 0300     		.2byte	0x3
 10385 20ce 91       		.byte	0x91
 10386 20cf BC7E     		.sleb128 -196
 10387 20d1 781C0000 		.4byte	.LVL1016-.Ltext0
 10388 20d5 481D0000 		.4byte	.LVL1048-.Ltext0
 10389 20d9 0100     		.2byte	0x1
 10390 20db 55       		.byte	0x55
 10391 20dc 00000000 		.4byte	0x0
 10392 20e0 00000000 		.4byte	0x0
 10393              	.LLST254:
 10394 20e4 5C160000 		.4byte	.LVL819-.Ltext0
 10395 20e8 A4190000 		.4byte	.LVL895-.Ltext0
 10396 20ec 0100     		.2byte	0x1
 10397 20ee 5A       		.byte	0x5a
 10398 20ef 0C1A0000 		.4byte	.LVL914-.Ltext0
 10399 20f3 381A0000 		.4byte	.LVL922-.Ltext0
 10400 20f7 0100     		.2byte	0x1
 10401 20f9 5A       		.byte	0x5a
ARM GAS  /cygdrive/c/DOCUME~1/mkwapisz/LOCALS~1/Temp/cc1OEM1Z.s 			page 200


 10402 20fa B41A0000 		.4byte	.LVL944-.Ltext0
 10403 20fe A81D0000 		.4byte	.LFE7-.Ltext0
 10404 2102 0100     		.2byte	0x1
 10405 2104 5A       		.byte	0x5a
 10406 2105 00000000 		.4byte	0x0
 10407 2109 00000000 		.4byte	0x0
 10408              	.LLST255:
 10409 210d 5C160000 		.4byte	.LVL819-.Ltext0
 10410 2111 5C160000 		.4byte	.LVL819-.Ltext0
 10411 2115 0100     		.2byte	0x1
 10412 2117 59       		.byte	0x59
 10413 2118 5C160000 		.4byte	.LVL819-.Ltext0
 10414 211c 78180000 		.4byte	.LVL853-.Ltext0
 10415 2120 0100     		.2byte	0x1
 10416 2122 5B       		.byte	0x5b
 10417 2123 70190000 		.4byte	.LVL886-.Ltext0
 10418 2127 78190000 		.4byte	.LVL887-.Ltext0
 10419 212b 0100     		.2byte	0x1
 10420 212d 54       		.byte	0x54
 10421 212e 88190000 		.4byte	.LVL890-.Ltext0
 10422 2132 8C190000 		.4byte	.LVL891-.Ltext0
 10423 2136 0100     		.2byte	0x1
 10424 2138 54       		.byte	0x54
 10425 2139 9C190000 		.4byte	.LVL893-.Ltext0
 10426 213d A0190000 		.4byte	.LVL894-.Ltext0
 10427 2141 0100     		.2byte	0x1
 10428 2143 54       		.byte	0x54
 10429 2144 B4190000 		.4byte	.LVL897-.Ltext0
 10430 2148 B8190000 		.4byte	.LVL898-.Ltext0
 10431 214c 0100     		.2byte	0x1
 10432 214e 54       		.byte	0x54
 10433 214f C8190000 		.4byte	.LVL901-.Ltext0
 10434 2153 CC190000 		.4byte	.LVL902-.Ltext0
 10435 2157 0100     		.2byte	0x1
 10436 2159 54       		.byte	0x54
 10437 215a DC190000 		.4byte	.LVL905-.Ltext0
 10438 215e E0190000 		.4byte	.LVL906-.Ltext0
 10439 2162 0100     		.2byte	0x1
 10440 2164 54       		.byte	0x54
 10441 2165 F0190000 		.4byte	.LVL908-.Ltext0
 10442 2169 F4190000 		.4byte	.LVL909-.Ltext0
 10443 216d 0100     		.2byte	0x1
 10444 216f 54       		.byte	0x54
 10445 2170 041A0000 		.4byte	.LVL912-.Ltext0
 10446 2174 081A0000 		.4byte	.LVL913-.Ltext0
 10447 2178 0100     		.2byte	0x1
 10448 217a 54       		.byte	0x54
 10449 217b 101A0000 		.4byte	.LVL915-.Ltext0
 10450 217f 201A0000 		.4byte	.LVL917-.Ltext0
 10451 2183 0100     		.2byte	0x1
 10452 2185 54       		.byte	0x54
 10453 2186 301A0000 		.4byte	.LVL920-.Ltext0
 10454 218a 341A0000 		.4byte	.LVL921-.Ltext0
 10455 218e 0100     		.2byte	0x1
 10456 2190 54       		.byte	0x54
 10457 2191 481A0000 		.4byte	.LVL924-.Ltext0
 10458 2195 4C1A0000 		.4byte	.LVL925-.Ltext0
ARM GAS  /cygdrive/c/DOCUME~1/mkwapisz/LOCALS~1/Temp/cc1OEM1Z.s 			page 201


 10459 2199 0100     		.2byte	0x1
 10460 219b 54       		.byte	0x54
 10461 219c 5C1A0000 		.4byte	.LVL928-.Ltext0
 10462 21a0 601A0000 		.4byte	.LVL929-.Ltext0
 10463 21a4 0100     		.2byte	0x1
 10464 21a6 54       		.byte	0x54
 10465 21a7 701A0000 		.4byte	.LVL931-.Ltext0
 10466 21ab 741A0000 		.4byte	.LVL932-.Ltext0
 10467 21af 0100     		.2byte	0x1
 10468 21b1 54       		.byte	0x54
 10469 21b2 841A0000 		.4byte	.LVL935-.Ltext0
 10470 21b6 881A0000 		.4byte	.LVL936-.Ltext0
 10471 21ba 0100     		.2byte	0x1
 10472 21bc 54       		.byte	0x54
 10473 21bd 941A0000 		.4byte	.LVL939-.Ltext0
 10474 21c1 9C1A0000 		.4byte	.LVL940-.Ltext0
 10475 21c5 0100     		.2byte	0x1
 10476 21c7 54       		.byte	0x54
 10477 21c8 DC1A0000 		.4byte	.LVL947-.Ltext0
 10478 21cc E81A0000 		.4byte	.LVL948-.Ltext0
 10479 21d0 0100     		.2byte	0x1
 10480 21d2 54       		.byte	0x54
 10481 21d3 FC1A0000 		.4byte	.LVL952-.Ltext0
 10482 21d7 001B0000 		.4byte	.LVL953-.Ltext0
 10483 21db 0100     		.2byte	0x1
 10484 21dd 54       		.byte	0x54
 10485 21de 101B0000 		.4byte	.LVL955-.Ltext0
 10486 21e2 141B0000 		.4byte	.LVL956-.Ltext0
 10487 21e6 0100     		.2byte	0x1
 10488 21e8 54       		.byte	0x54
 10489 21e9 241B0000 		.4byte	.LVL959-.Ltext0
 10490 21ed 281B0000 		.4byte	.LVL960-.Ltext0
 10491 21f1 0100     		.2byte	0x1
 10492 21f3 54       		.byte	0x54
 10493 21f4 381B0000 		.4byte	.LVL963-.Ltext0
 10494 21f8 3C1B0000 		.4byte	.LVL964-.Ltext0
 10495 21fc 0100     		.2byte	0x1
 10496 21fe 54       		.byte	0x54
 10497 21ff 4C1B0000 		.4byte	.LVL967-.Ltext0
 10498 2203 501B0000 		.4byte	.LVL968-.Ltext0
 10499 2207 0100     		.2byte	0x1
 10500 2209 54       		.byte	0x54
 10501 220a 601B0000 		.4byte	.LVL971-.Ltext0
 10502 220e 641B0000 		.4byte	.LVL972-.Ltext0
 10503 2212 0100     		.2byte	0x1
 10504 2214 54       		.byte	0x54
 10505 2215 741B0000 		.4byte	.LVL975-.Ltext0
 10506 2219 781B0000 		.4byte	.LVL976-.Ltext0
 10507 221d 0100     		.2byte	0x1
 10508 221f 54       		.byte	0x54
 10509 2220 801B0000 		.4byte	.LVL977-.Ltext0
 10510 2224 901B0000 		.4byte	.LVL980-.Ltext0
 10511 2228 0100     		.2byte	0x1
 10512 222a 54       		.byte	0x54
 10513 222b A41B0000 		.4byte	.LVL984-.Ltext0
 10514 222f A81B0000 		.4byte	.LVL985-.Ltext0
 10515 2233 0100     		.2byte	0x1
ARM GAS  /cygdrive/c/DOCUME~1/mkwapisz/LOCALS~1/Temp/cc1OEM1Z.s 			page 202


 10516 2235 54       		.byte	0x54
 10517 2236 B81B0000 		.4byte	.LVL989-.Ltext0
 10518 223a BC1B0000 		.4byte	.LVL990-.Ltext0
 10519 223e 0100     		.2byte	0x1
 10520 2240 54       		.byte	0x54
 10521 2241 CC1B0000 		.4byte	.LVL993-.Ltext0
 10522 2245 D01B0000 		.4byte	.LVL994-.Ltext0
 10523 2249 0100     		.2byte	0x1
 10524 224b 54       		.byte	0x54
 10525 224c E01B0000 		.4byte	.LVL996-.Ltext0
 10526 2250 E41B0000 		.4byte	.LVL997-.Ltext0
 10527 2254 0100     		.2byte	0x1
 10528 2256 54       		.byte	0x54
 10529 2257 F41B0000 		.4byte	.LVL1000-.Ltext0
 10530 225b F81B0000 		.4byte	.LVL1001-.Ltext0
 10531 225f 0100     		.2byte	0x1
 10532 2261 54       		.byte	0x54
 10533 2262 081C0000 		.4byte	.LVL1005-.Ltext0
 10534 2266 0C1C0000 		.4byte	.LVL1006-.Ltext0
 10535 226a 0100     		.2byte	0x1
 10536 226c 54       		.byte	0x54
 10537 226d 1C1C0000 		.4byte	.LVL1009-.Ltext0
 10538 2271 201C0000 		.4byte	.LVL1010-.Ltext0
 10539 2275 0100     		.2byte	0x1
 10540 2277 54       		.byte	0x54
 10541 2278 701C0000 		.4byte	.LVL1014-.Ltext0
 10542 227c 701C0000 		.4byte	.LVL1015-.Ltext0
 10543 2280 0100     		.2byte	0x1
 10544 2282 54       		.byte	0x54
 10545 2283 841C0000 		.4byte	.LVL1019-.Ltext0
 10546 2287 881C0000 		.4byte	.LVL1020-.Ltext0
 10547 228b 0100     		.2byte	0x1
 10548 228d 54       		.byte	0x54
 10549 228e 981C0000 		.4byte	.LVL1023-.Ltext0
 10550 2292 9C1C0000 		.4byte	.LVL1024-.Ltext0
 10551 2296 0100     		.2byte	0x1
 10552 2298 54       		.byte	0x54
 10553 2299 AC1C0000 		.4byte	.LVL1027-.Ltext0
 10554 229d B01C0000 		.4byte	.LVL1028-.Ltext0
 10555 22a1 0100     		.2byte	0x1
 10556 22a3 54       		.byte	0x54
 10557 22a4 C01C0000 		.4byte	.LVL1031-.Ltext0
 10558 22a8 C41C0000 		.4byte	.LVL1032-.Ltext0
 10559 22ac 0100     		.2byte	0x1
 10560 22ae 54       		.byte	0x54
 10561 22af D41C0000 		.4byte	.LVL1035-.Ltext0
 10562 22b3 D81C0000 		.4byte	.LVL1036-.Ltext0
 10563 22b7 0100     		.2byte	0x1
 10564 22b9 54       		.byte	0x54
 10565 22ba E81C0000 		.4byte	.LVL1039-.Ltext0
 10566 22be EC1C0000 		.4byte	.LVL1040-.Ltext0
 10567 22c2 0100     		.2byte	0x1
 10568 22c4 54       		.byte	0x54
 10569 22c5 FC1C0000 		.4byte	.LVL1043-.Ltext0
 10570 22c9 041D0000 		.4byte	.LVL1044-.Ltext0
 10571 22cd 0100     		.2byte	0x1
 10572 22cf 54       		.byte	0x54
ARM GAS  /cygdrive/c/DOCUME~1/mkwapisz/LOCALS~1/Temp/cc1OEM1Z.s 			page 203


 10573 22d0 441D0000 		.4byte	.LVL1047-.Ltext0
 10574 22d4 A81D0000 		.4byte	.LFE7-.Ltext0
 10575 22d8 0100     		.2byte	0x1
 10576 22da 59       		.byte	0x59
 10577 22db 00000000 		.4byte	0x0
 10578 22df 00000000 		.4byte	0x0
 10579              	.LLST256:
 10580 22e3 FC120000 		.4byte	.LVL683-.Ltext0
 10581 22e7 1C130000 		.4byte	.LVL685-.Ltext0
 10582 22eb 0300     		.2byte	0x3
 10583 22ed 91       		.byte	0x91
 10584 22ee C07E     		.sleb128 -192
 10585 22f0 1C130000 		.4byte	.LVL685-.Ltext0
 10586 22f4 68130000 		.4byte	.LVL700-.Ltext0
 10587 22f8 0300     		.2byte	0x3
 10588 22fa 91       		.byte	0x91
 10589 22fb D87E     		.sleb128 -168
 10590 22fd 68130000 		.4byte	.LVL700-.Ltext0
 10591 2301 6C130000 		.4byte	.LVL701-.Ltext0
 10592 2305 0300     		.2byte	0x3
 10593 2307 91       		.byte	0x91
 10594 2308 807F     		.sleb128 -128
 10595 230a 6C130000 		.4byte	.LVL701-.Ltext0
 10596 230e 7C130000 		.4byte	.LVL706-.Ltext0
 10597 2312 0300     		.2byte	0x3
 10598 2314 91       		.byte	0x91
 10599 2315 FC7E     		.sleb128 -132
 10600 2317 7C130000 		.4byte	.LVL706-.Ltext0
 10601 231b 9C130000 		.4byte	.LVL712-.Ltext0
 10602 231f 0300     		.2byte	0x3
 10603 2321 91       		.byte	0x91
 10604 2322 DC7C     		.sleb128 -420
 10605 2324 9C130000 		.4byte	.LVL712-.Ltext0
 10606 2328 A4130000 		.4byte	.LVL713-.Ltext0
 10607 232c 0100     		.2byte	0x1
 10608 232e 52       		.byte	0x52
 10609 232f A4130000 		.4byte	.LVL713-.Ltext0
 10610 2333 AC130000 		.4byte	.LVL714-.Ltext0
 10611 2337 0300     		.2byte	0x3
 10612 2339 91       		.byte	0x91
 10613 233a 847F     		.sleb128 -124
 10614 233c AC130000 		.4byte	.LVL714-.Ltext0
 10615 2340 B4130000 		.4byte	.LVL715-.Ltext0
 10616 2344 0300     		.2byte	0x3
 10617 2346 91       		.byte	0x91
 10618 2347 887F     		.sleb128 -120
 10619 2349 B4130000 		.4byte	.LVL715-.Ltext0
 10620 234d BC130000 		.4byte	.LVL716-.Ltext0
 10621 2351 0300     		.2byte	0x3
 10622 2353 91       		.byte	0x91
 10623 2354 DC7E     		.sleb128 -164
 10624 2356 BC130000 		.4byte	.LVL716-.Ltext0
 10625 235a C8130000 		.4byte	.LVL717-.Ltext0
 10626 235e 0300     		.2byte	0x3
 10627 2360 91       		.byte	0x91
 10628 2361 E07E     		.sleb128 -160
 10629 2363 C8130000 		.4byte	.LVL717-.Ltext0
ARM GAS  /cygdrive/c/DOCUME~1/mkwapisz/LOCALS~1/Temp/cc1OEM1Z.s 			page 204


 10630 2367 D8130000 		.4byte	.LVL718-.Ltext0
 10631 236b 0300     		.2byte	0x3
 10632 236d 91       		.byte	0x91
 10633 236e 8C7F     		.sleb128 -116
 10634 2370 D8130000 		.4byte	.LVL718-.Ltext0
 10635 2374 D8130000 		.4byte	.LVL718-.Ltext0
 10636 2378 0100     		.2byte	0x1
 10637 237a 52       		.byte	0x52
 10638 237b E8130000 		.4byte	.LVL720-.Ltext0
 10639 237f EC130000 		.4byte	.LVL721-.Ltext0
 10640 2383 0300     		.2byte	0x3
 10641 2385 91       		.byte	0x91
 10642 2386 E47E     		.sleb128 -156
 10643 2388 EC130000 		.4byte	.LVL721-.Ltext0
 10644 238c F0130000 		.4byte	.LVL722-.Ltext0
 10645 2390 0100     		.2byte	0x1
 10646 2392 53       		.byte	0x53
 10647 2393 F0130000 		.4byte	.LVL722-.Ltext0
 10648 2397 F0130000 		.4byte	.LVL722-.Ltext0
 10649 239b 0100     		.2byte	0x1
 10650 239d 52       		.byte	0x52
 10651 239e 08140000 		.4byte	.LVL723-.Ltext0
 10652 23a2 18140000 		.4byte	.LVL724-.Ltext0
 10653 23a6 0300     		.2byte	0x3
 10654 23a8 91       		.byte	0x91
 10655 23a9 E87E     		.sleb128 -152
 10656 23ab 18140000 		.4byte	.LVL724-.Ltext0
 10657 23af 30140000 		.4byte	.LVL728-.Ltext0
 10658 23b3 0300     		.2byte	0x3
 10659 23b5 91       		.byte	0x91
 10660 23b6 EC7E     		.sleb128 -148
 10661 23b8 48140000 		.4byte	.LVL730-.Ltext0
 10662 23bc 4C140000 		.4byte	.LVL731-.Ltext0
 10663 23c0 0300     		.2byte	0x3
 10664 23c2 91       		.byte	0x91
 10665 23c3 907F     		.sleb128 -112
 10666 23c5 4C140000 		.4byte	.LVL731-.Ltext0
 10667 23c9 50140000 		.4byte	.LVL732-.Ltext0
 10668 23cd 0300     		.2byte	0x3
 10669 23cf 91       		.byte	0x91
 10670 23d0 947F     		.sleb128 -108
 10671 23d2 50140000 		.4byte	.LVL732-.Ltext0
 10672 23d6 74140000 		.4byte	.LVL736-.Ltext0
 10673 23da 0300     		.2byte	0x3
 10674 23dc 91       		.byte	0x91
 10675 23dd DC7C     		.sleb128 -420
 10676 23df 74140000 		.4byte	.LVL736-.Ltext0
 10677 23e3 88140000 		.4byte	.LVL739-.Ltext0
 10678 23e7 0300     		.2byte	0x3
 10679 23e9 91       		.byte	0x91
 10680 23ea F07E     		.sleb128 -144
 10681 23ec 88140000 		.4byte	.LVL739-.Ltext0
 10682 23f0 B8140000 		.4byte	.LVL747-.Ltext0
 10683 23f4 0100     		.2byte	0x1
 10684 23f6 59       		.byte	0x59
 10685 23f7 B8140000 		.4byte	.LVL747-.Ltext0
 10686 23fb BC140000 		.4byte	.LVL749-.Ltext0
ARM GAS  /cygdrive/c/DOCUME~1/mkwapisz/LOCALS~1/Temp/cc1OEM1Z.s 			page 205


 10687 23ff 0300     		.2byte	0x3
 10688 2401 91       		.byte	0x91
 10689 2402 987F     		.sleb128 -104
 10690 2404 BC140000 		.4byte	.LVL749-.Ltext0
 10691 2408 C8140000 		.4byte	.LVL751-.Ltext0
 10692 240c 0100     		.2byte	0x1
 10693 240e 58       		.byte	0x58
 10694 240f C8140000 		.4byte	.LVL751-.Ltext0
 10695 2413 C8140000 		.4byte	.LVL751-.Ltext0
 10696 2417 0100     		.2byte	0x1
 10697 2419 52       		.byte	0x52
 10698 241a CC140000 		.4byte	.LVL752-.Ltext0
 10699 241e CC140000 		.4byte	.LVL752-.Ltext0
 10700 2422 0100     		.2byte	0x1
 10701 2424 58       		.byte	0x58
 10702 2425 D0140000 		.4byte	.LVL753-.Ltext0
 10703 2429 D0140000 		.4byte	.LVL753-.Ltext0
 10704 242d 0100     		.2byte	0x1
 10705 242f 59       		.byte	0x59
 10706 2430 E0140000 		.4byte	.LVL754-.Ltext0
 10707 2434 E8140000 		.4byte	.LVL755-.Ltext0
 10708 2438 0300     		.2byte	0x3
 10709 243a 91       		.byte	0x91
 10710 243b F47E     		.sleb128 -140
 10711 243d E8140000 		.4byte	.LVL755-.Ltext0
 10712 2441 F0140000 		.4byte	.LVL757-.Ltext0
 10713 2445 0100     		.2byte	0x1
 10714 2447 5A       		.byte	0x5a
 10715 2448 F0140000 		.4byte	.LVL757-.Ltext0
 10716 244c 00150000 		.4byte	.LVL758-.Ltext0
 10717 2450 0100     		.2byte	0x1
 10718 2452 52       		.byte	0x52
 10719 2453 00150000 		.4byte	.LVL758-.Ltext0
 10720 2457 1C150000 		.4byte	.LVL762-.Ltext0
 10721 245b 0100     		.2byte	0x1
 10722 245d 51       		.byte	0x51
 10723 245e 1C150000 		.4byte	.LVL762-.Ltext0
 10724 2462 30150000 		.4byte	.LVL764-.Ltext0
 10725 2466 0300     		.2byte	0x3
 10726 2468 91       		.byte	0x91
 10727 2469 DC7C     		.sleb128 -420
 10728 246b 30150000 		.4byte	.LVL764-.Ltext0
 10729 246f 34150000 		.4byte	.LVL765-.Ltext0
 10730 2473 0100     		.2byte	0x1
 10731 2475 5A       		.byte	0x5a
 10732 2476 34150000 		.4byte	.LVL765-.Ltext0
 10733 247a 34150000 		.4byte	.LVL765-.Ltext0
 10734 247e 0100     		.2byte	0x1
 10735 2480 58       		.byte	0x58
 10736 2481 60150000 		.4byte	.LVL770-.Ltext0
 10737 2485 78150000 		.4byte	.LVL775-.Ltext0
 10738 2489 0300     		.2byte	0x3
 10739 248b 91       		.byte	0x91
 10740 248c F87E     		.sleb128 -136
 10741 248e 78150000 		.4byte	.LVL775-.Ltext0
 10742 2492 7C150000 		.4byte	.LVL776-.Ltext0
 10743 2496 0100     		.2byte	0x1
ARM GAS  /cygdrive/c/DOCUME~1/mkwapisz/LOCALS~1/Temp/cc1OEM1Z.s 			page 206


 10744 2498 50       		.byte	0x50
 10745 2499 7C150000 		.4byte	.LVL776-.Ltext0
 10746 249d AC150000 		.4byte	.LVL782-.Ltext0
 10747 24a1 0100     		.2byte	0x1
 10748 24a3 53       		.byte	0x53
 10749 24a4 AC150000 		.4byte	.LVL782-.Ltext0
 10750 24a8 AC150000 		.4byte	.LVL782-.Ltext0
 10751 24ac 0100     		.2byte	0x1
 10752 24ae 5A       		.byte	0x5a
 10753 24af BC150000 		.4byte	.LVL785-.Ltext0
 10754 24b3 C4150000 		.4byte	.LVL786-.Ltext0
 10755 24b7 0300     		.2byte	0x3
 10756 24b9 91       		.byte	0x91
 10757 24ba DC7C     		.sleb128 -420
 10758 24bc C4150000 		.4byte	.LVL786-.Ltext0
 10759 24c0 C4150000 		.4byte	.LVL786-.Ltext0
 10760 24c4 0100     		.2byte	0x1
 10761 24c6 52       		.byte	0x52
 10762 24c7 CC150000 		.4byte	.LVL787-.Ltext0
 10763 24cb CC150000 		.4byte	.LVL787-.Ltext0
 10764 24cf 0100     		.2byte	0x1
 10765 24d1 52       		.byte	0x52
 10766 24d2 D0150000 		.4byte	.LVL788-.Ltext0
 10767 24d6 DC150000 		.4byte	.LVL789-.Ltext0
 10768 24da 0100     		.2byte	0x1
 10769 24dc 58       		.byte	0x58
 10770 24dd DC150000 		.4byte	.LVL789-.Ltext0
 10771 24e1 DC150000 		.4byte	.LVL789-.Ltext0
 10772 24e5 0100     		.2byte	0x1
 10773 24e7 50       		.byte	0x50
 10774 24e8 E0150000 		.4byte	.LVL790-.Ltext0
 10775 24ec E0150000 		.4byte	.LVL790-.Ltext0
 10776 24f0 0100     		.2byte	0x1
 10777 24f2 59       		.byte	0x59
 10778 24f3 E4150000 		.4byte	.LVL791-.Ltext0
 10779 24f7 E4150000 		.4byte	.LVL791-.Ltext0
 10780 24fb 0100     		.2byte	0x1
 10781 24fd 51       		.byte	0x51
 10782 24fe EC150000 		.4byte	.LVL792-.Ltext0
 10783 2502 10160000 		.4byte	.LVL803-.Ltext0
 10784 2506 0100     		.2byte	0x1
 10785 2508 5B       		.byte	0x5b
 10786 2509 10160000 		.4byte	.LVL803-.Ltext0
 10787 250d 10160000 		.4byte	.LVL803-.Ltext0
 10788 2511 0100     		.2byte	0x1
 10789 2513 5A       		.byte	0x5a
 10790 2514 14160000 		.4byte	.LVL805-.Ltext0
 10791 2518 14160000 		.4byte	.LVL805-.Ltext0
 10792 251c 0100     		.2byte	0x1
 10793 251e 50       		.byte	0x50
 10794 251f 18160000 		.4byte	.LVL806-.Ltext0
 10795 2523 18160000 		.4byte	.LVL806-.Ltext0
 10796 2527 0100     		.2byte	0x1
 10797 2529 59       		.byte	0x59
 10798 252a 1C160000 		.4byte	.LVL807-.Ltext0
 10799 252e 1C160000 		.4byte	.LVL807-.Ltext0
 10800 2532 0100     		.2byte	0x1
ARM GAS  /cygdrive/c/DOCUME~1/mkwapisz/LOCALS~1/Temp/cc1OEM1Z.s 			page 207


 10801 2534 51       		.byte	0x51
 10802 2535 20160000 		.4byte	.LVL808-.Ltext0
 10803 2539 20160000 		.4byte	.LVL808-.Ltext0
 10804 253d 0100     		.2byte	0x1
 10805 253f 52       		.byte	0x52
 10806 2540 24160000 		.4byte	.LVL809-.Ltext0
 10807 2544 28160000 		.4byte	.LVL810-.Ltext0
 10808 2548 0100     		.2byte	0x1
 10809 254a 53       		.byte	0x53
 10810 254b 441D0000 		.4byte	.LVL1047-.Ltext0
 10811 254f 841D0000 		.4byte	.LVL1049-.Ltext0
 10812 2553 0100     		.2byte	0x1
 10813 2555 5A       		.byte	0x5a
 10814 2556 841D0000 		.4byte	.LVL1049-.Ltext0
 10815 255a 841D0000 		.4byte	.LVL1049-.Ltext0
 10816 255e 0100     		.2byte	0x1
 10817 2560 5B       		.byte	0x5b
 10818 2561 841D0000 		.4byte	.LVL1049-.Ltext0
 10819 2565 841D0000 		.4byte	.LVL1049-.Ltext0
 10820 2569 0100     		.2byte	0x1
 10821 256b 59       		.byte	0x59
 10822 256c 841D0000 		.4byte	.LVL1049-.Ltext0
 10823 2570 8C1D0000 		.4byte	.LVL1050-.Ltext0
 10824 2574 0100     		.2byte	0x1
 10825 2576 53       		.byte	0x53
 10826 2577 00000000 		.4byte	0x0
 10827 257b 00000000 		.4byte	0x0
 10828              	.LLST257:
 10829 257f 48160000 		.4byte	.LVL814-.Ltext0
 10830 2583 4C160000 		.4byte	.LVL815-.Ltext0
 10831 2587 0300     		.2byte	0x3
 10832 2589 91       		.byte	0x91
 10833 258a C47E     		.sleb128 -188
 10834 258c 4C160000 		.4byte	.LVL815-.Ltext0
 10835 2590 50160000 		.4byte	.LVL816-.Ltext0
 10836 2594 0300     		.2byte	0x3
 10837 2596 91       		.byte	0x91
 10838 2597 D07E     		.sleb128 -176
 10839 2599 50160000 		.4byte	.LVL816-.Ltext0
 10840 259d 54160000 		.4byte	.LVL817-.Ltext0
 10841 25a1 0300     		.2byte	0x3
 10842 25a3 91       		.byte	0x91
 10843 25a4 D47E     		.sleb128 -172
 10844 25a6 54160000 		.4byte	.LVL817-.Ltext0
 10845 25aa A81D0000 		.4byte	.LFE7-.Ltext0
 10846 25ae 0300     		.2byte	0x3
 10847 25b0 91       		.byte	0x91
 10848 25b1 CC7E     		.sleb128 -180
 10849 25b3 00000000 		.4byte	0x0
 10850 25b7 00000000 		.4byte	0x0
 10851              	.LLST258:
 10852 25bb 08130000 		.4byte	.LVL684-.Ltext0
 10853 25bf 30130000 		.4byte	.LVL689-.Ltext0
 10854 25c3 0100     		.2byte	0x1
 10855 25c5 50       		.byte	0x50
 10856 25c6 D8170000 		.4byte	.LVL833-.Ltext0
 10857 25ca EC170000 		.4byte	.LVL835-.Ltext0
ARM GAS  /cygdrive/c/DOCUME~1/mkwapisz/LOCALS~1/Temp/cc1OEM1Z.s 			page 208


 10858 25ce 0100     		.2byte	0x1
 10859 25d0 54       		.byte	0x54
 10860 25d1 00000000 		.4byte	0x0
 10861 25d5 00000000 		.4byte	0x0
 10862              	.LLST259:
 10863 25d9 F0120000 		.4byte	.LVL681-.Ltext0
 10864 25dd F4120000 		.4byte	.LVL682-.Ltext0
 10865 25e1 0100     		.2byte	0x1
 10866 25e3 50       		.byte	0x50
 10867 25e4 D4170000 		.4byte	.LVL832-.Ltext0
 10868 25e8 D8170000 		.4byte	.LVL833-.Ltext0
 10869 25ec 0100     		.2byte	0x1
 10870 25ee 54       		.byte	0x54
 10871 25ef D8170000 		.4byte	.LVL833-.Ltext0
 10872 25f3 E0170000 		.4byte	.LVL834-.Ltext0
 10873 25f7 0100     		.2byte	0x1
 10874 25f9 51       		.byte	0x51
 10875 25fa 00000000 		.4byte	0x0
 10876 25fe 00000000 		.4byte	0x0
 10877              	.LLST260:
 10878 2602 C0170000 		.4byte	.LVL830-.Ltext0
 10879 2606 D4170000 		.4byte	.LVL832-.Ltext0
 10880 260a 0100     		.2byte	0x1
 10881 260c 54       		.byte	0x54
 10882 260d 00000000 		.4byte	0x0
 10883 2611 00000000 		.4byte	0x0
 10884              	.LLST261:
 10885 2615 BC170000 		.4byte	.LVL829-.Ltext0
 10886 2619 C0170000 		.4byte	.LVL830-.Ltext0
 10887 261d 0100     		.2byte	0x1
 10888 261f 54       		.byte	0x54
 10889 2620 C0170000 		.4byte	.LVL830-.Ltext0
 10890 2624 C8170000 		.4byte	.LVL831-.Ltext0
 10891 2628 0100     		.2byte	0x1
 10892 262a 51       		.byte	0x51
 10893 262b 00000000 		.4byte	0x0
 10894 262f 00000000 		.4byte	0x0
 10895              	.LLST262:
 10896 2633 A8140000 		.4byte	.LVL745-.Ltext0
 10897 2637 A8140000 		.4byte	.LVL745-.Ltext0
 10898 263b 0100     		.2byte	0x1
 10899 263d 50       		.byte	0x50
 10900 263e 9C180000 		.4byte	.LVL858-.Ltext0
 10901 2642 A8180000 		.4byte	.LVL860-.Ltext0
 10902 2646 0100     		.2byte	0x1
 10903 2648 54       		.byte	0x54
 10904 2649 00000000 		.4byte	0x0
 10905 264d 00000000 		.4byte	0x0
 10906              	.LLST263:
 10907 2651 94140000 		.4byte	.LVL742-.Ltext0
 10908 2655 98140000 		.4byte	.LVL743-.Ltext0
 10909 2659 0100     		.2byte	0x1
 10910 265b 54       		.byte	0x54
 10911 265c 90180000 		.4byte	.LVL856-.Ltext0
 10912 2660 98180000 		.4byte	.LVL857-.Ltext0
 10913 2664 0100     		.2byte	0x1
 10914 2666 54       		.byte	0x54
ARM GAS  /cygdrive/c/DOCUME~1/mkwapisz/LOCALS~1/Temp/cc1OEM1Z.s 			page 209


 10915 2667 98180000 		.4byte	.LVL857-.Ltext0
 10916 266b A4180000 		.4byte	.LVL859-.Ltext0
 10917 266f 0100     		.2byte	0x1
 10918 2671 51       		.byte	0x51
 10919 2672 00000000 		.4byte	0x0
 10920 2676 00000000 		.4byte	0x0
 10921              	.LLST264:
 10922 267a DC130000 		.4byte	.LVL719-.Ltext0
 10923 267e 1C140000 		.4byte	.LVL725-.Ltext0
 10924 2682 0100     		.2byte	0x1
 10925 2684 54       		.byte	0x54
 10926 2685 38180000 		.4byte	.LVL845-.Ltext0
 10927 2689 4C180000 		.4byte	.LVL847-.Ltext0
 10928 268d 0100     		.2byte	0x1
 10929 268f 54       		.byte	0x54
 10930 2690 00000000 		.4byte	0x0
 10931 2694 00000000 		.4byte	0x0
 10932              	.LLST265:
 10933 2698 84130000 		.4byte	.LVL709-.Ltext0
 10934 269c 88130000 		.4byte	.LVL710-.Ltext0
 10935 26a0 0100     		.2byte	0x1
 10936 26a2 50       		.byte	0x50
 10937 26a3 34180000 		.4byte	.LVL844-.Ltext0
 10938 26a7 38180000 		.4byte	.LVL845-.Ltext0
 10939 26ab 0100     		.2byte	0x1
 10940 26ad 54       		.byte	0x54
 10941 26ae 38180000 		.4byte	.LVL845-.Ltext0
 10942 26b2 40180000 		.4byte	.LVL846-.Ltext0
 10943 26b6 0100     		.2byte	0x1
 10944 26b8 51       		.byte	0x51
 10945 26b9 00000000 		.4byte	0x0
 10946 26bd 00000000 		.4byte	0x0
 10947              	.LLST266:
 10948 26c1 50180000 		.4byte	.LVL848-.Ltext0
 10949 26c5 60180000 		.4byte	.LVL850-.Ltext0
 10950 26c9 0100     		.2byte	0x1
 10951 26cb 54       		.byte	0x54
 10952 26cc 00000000 		.4byte	0x0
 10953 26d0 00000000 		.4byte	0x0
 10954              	.LLST267:
 10955 26d4 4C180000 		.4byte	.LVL847-.Ltext0
 10956 26d8 50180000 		.4byte	.LVL848-.Ltext0
 10957 26dc 0100     		.2byte	0x1
 10958 26de 54       		.byte	0x54
 10959 26df 50180000 		.4byte	.LVL848-.Ltext0
 10960 26e3 58180000 		.4byte	.LVL849-.Ltext0
 10961 26e7 0100     		.2byte	0x1
 10962 26e9 51       		.byte	0x51
 10963 26ea 00000000 		.4byte	0x0
 10964 26ee 00000000 		.4byte	0x0
 10965              	.LLST268:
 10966 26f2 60130000 		.4byte	.LVL699-.Ltext0
 10967 26f6 60130000 		.4byte	.LVL699-.Ltext0
 10968 26fa 0100     		.2byte	0x1
 10969 26fc 50       		.byte	0x50
 10970 26fd 08180000 		.4byte	.LVL839-.Ltext0
 10971 2701 1C180000 		.4byte	.LVL841-.Ltext0
ARM GAS  /cygdrive/c/DOCUME~1/mkwapisz/LOCALS~1/Temp/cc1OEM1Z.s 			page 210


 10972 2705 0100     		.2byte	0x1
 10973 2707 54       		.byte	0x54
 10974 2708 00000000 		.4byte	0x0
 10975 270c 00000000 		.4byte	0x0
 10976              	.LLST269:
 10977 2710 5C130000 		.4byte	.LVL698-.Ltext0
 10978 2714 90130000 		.4byte	.LVL711-.Ltext0
 10979 2718 0100     		.2byte	0x1
 10980 271a 54       		.byte	0x54
 10981 271b 04180000 		.4byte	.LVL838-.Ltext0
 10982 271f 08180000 		.4byte	.LVL839-.Ltext0
 10983 2723 0100     		.2byte	0x1
 10984 2725 54       		.byte	0x54
 10985 2726 08180000 		.4byte	.LVL839-.Ltext0
 10986 272a 10180000 		.4byte	.LVL840-.Ltext0
 10987 272e 0100     		.2byte	0x1
 10988 2730 51       		.byte	0x51
 10989 2731 00000000 		.4byte	0x0
 10990 2735 00000000 		.4byte	0x0
 10991              	.LLST270:
 10992 2739 20180000 		.4byte	.LVL842-.Ltext0
 10993 273d 34180000 		.4byte	.LVL844-.Ltext0
 10994 2741 0100     		.2byte	0x1
 10995 2743 54       		.byte	0x54
 10996 2744 00000000 		.4byte	0x0
 10997 2748 00000000 		.4byte	0x0
 10998              	.LLST271:
 10999 274c 1C180000 		.4byte	.LVL841-.Ltext0
 11000 2750 20180000 		.4byte	.LVL842-.Ltext0
 11001 2754 0100     		.2byte	0x1
 11002 2756 54       		.byte	0x54
 11003 2757 20180000 		.4byte	.LVL842-.Ltext0
 11004 275b 28180000 		.4byte	.LVL843-.Ltext0
 11005 275f 0100     		.2byte	0x1
 11006 2761 51       		.byte	0x51
 11007 2762 00000000 		.4byte	0x0
 11008 2766 00000000 		.4byte	0x0
 11009              	.LLST272:
 11010 276a F0170000 		.4byte	.LVL836-.Ltext0
 11011 276e 04180000 		.4byte	.LVL838-.Ltext0
 11012 2772 0100     		.2byte	0x1
 11013 2774 54       		.byte	0x54
 11014 2775 00000000 		.4byte	0x0
 11015 2779 00000000 		.4byte	0x0
 11016              	.LLST273:
 11017 277d EC170000 		.4byte	.LVL835-.Ltext0
 11018 2781 F0170000 		.4byte	.LVL836-.Ltext0
 11019 2785 0100     		.2byte	0x1
 11020 2787 54       		.byte	0x54
 11021 2788 F0170000 		.4byte	.LVL836-.Ltext0
 11022 278c F8170000 		.4byte	.LVL837-.Ltext0
 11023 2790 0100     		.2byte	0x1
 11024 2792 51       		.byte	0x51
 11025 2793 00000000 		.4byte	0x0
 11026 2797 00000000 		.4byte	0x0
 11027              	.LLST274:
 11028 279b 60140000 		.4byte	.LVL734-.Ltext0
ARM GAS  /cygdrive/c/DOCUME~1/mkwapisz/LOCALS~1/Temp/cc1OEM1Z.s 			page 211


 11029 279f 64140000 		.4byte	.LVL735-.Ltext0
 11030 27a3 0100     		.2byte	0x1
 11031 27a5 54       		.byte	0x54
 11032 27a6 84180000 		.4byte	.LVL855-.Ltext0
 11033 27aa 90180000 		.4byte	.LVL856-.Ltext0
 11034 27ae 0100     		.2byte	0x1
 11035 27b0 54       		.byte	0x54
 11036 27b1 00000000 		.4byte	0x0
 11037 27b5 00000000 		.4byte	0x0
 11038              	.LLST275:
 11039 27b9 30140000 		.4byte	.LVL729-.Ltext0
 11040 27bd 60140000 		.4byte	.LVL733-.Ltext0
 11041 27c1 0100     		.2byte	0x1
 11042 27c3 58       		.byte	0x58
 11043 27c4 78180000 		.4byte	.LVL853-.Ltext0
 11044 27c8 90190000 		.4byte	.LVL892-.Ltext0
 11045 27cc 0100     		.2byte	0x1
 11046 27ce 59       		.byte	0x59
 11047 27cf 00000000 		.4byte	0x0
 11048 27d3 00000000 		.4byte	0x0
 11049              	.LLST276:
 11050 27d7 B4180000 		.4byte	.LVL862-.Ltext0
 11051 27db C0180000 		.4byte	.LVL864-.Ltext0
 11052 27df 0100     		.2byte	0x1
 11053 27e1 54       		.byte	0x54
 11054 27e2 00000000 		.4byte	0x0
 11055 27e6 00000000 		.4byte	0x0
 11056              	.LLST277:
 11057 27ea A8180000 		.4byte	.LVL860-.Ltext0
 11058 27ee B0180000 		.4byte	.LVL861-.Ltext0
 11059 27f2 0100     		.2byte	0x1
 11060 27f4 54       		.byte	0x54
 11061 27f5 B0180000 		.4byte	.LVL861-.Ltext0
 11062 27f9 BC180000 		.4byte	.LVL863-.Ltext0
 11063 27fd 0100     		.2byte	0x1
 11064 27ff 51       		.byte	0x51
 11065 2800 00000000 		.4byte	0x0
 11066 2804 00000000 		.4byte	0x0
 11067              	.LLST278:
 11068 2808 38150000 		.4byte	.LVL766-.Ltext0
 11069 280c 5C150000 		.4byte	.LVL769-.Ltext0
 11070 2810 0100     		.2byte	0x1
 11071 2812 54       		.byte	0x54
 11072 2813 CC180000 		.4byte	.LVL866-.Ltext0
 11073 2817 D8180000 		.4byte	.LVL868-.Ltext0
 11074 281b 0100     		.2byte	0x1
 11075 281d 54       		.byte	0x54
 11076 281e 00000000 		.4byte	0x0
 11077 2822 00000000 		.4byte	0x0
 11078              	.LLST279:
 11079 2826 14150000 		.4byte	.LVL761-.Ltext0
 11080 282a 1C150000 		.4byte	.LVL763-.Ltext0
 11081 282e 0100     		.2byte	0x1
 11082 2830 50       		.byte	0x50
 11083 2831 C0180000 		.4byte	.LVL864-.Ltext0
 11084 2835 C8180000 		.4byte	.LVL865-.Ltext0
 11085 2839 0100     		.2byte	0x1
ARM GAS  /cygdrive/c/DOCUME~1/mkwapisz/LOCALS~1/Temp/cc1OEM1Z.s 			page 212


 11086 283b 54       		.byte	0x54
 11087 283c C8180000 		.4byte	.LVL865-.Ltext0
 11088 2840 D4180000 		.4byte	.LVL867-.Ltext0
 11089 2844 0100     		.2byte	0x1
 11090 2846 51       		.byte	0x51
 11091 2847 00000000 		.4byte	0x0
 11092 284b 00000000 		.4byte	0x0
 11093              	.LLST280:
 11094 284f E4180000 		.4byte	.LVL870-.Ltext0
 11095 2853 F0180000 		.4byte	.LVL872-.Ltext0
 11096 2857 0100     		.2byte	0x1
 11097 2859 54       		.byte	0x54
 11098 285a 00000000 		.4byte	0x0
 11099 285e 00000000 		.4byte	0x0
 11100              	.LLST281:
 11101 2862 D8180000 		.4byte	.LVL868-.Ltext0
 11102 2866 E0180000 		.4byte	.LVL869-.Ltext0
 11103 286a 0100     		.2byte	0x1
 11104 286c 54       		.byte	0x54
 11105 286d E0180000 		.4byte	.LVL869-.Ltext0
 11106 2871 EC180000 		.4byte	.LVL871-.Ltext0
 11107 2875 0100     		.2byte	0x1
 11108 2877 51       		.byte	0x51
 11109 2878 00000000 		.4byte	0x0
 11110 287c 00000000 		.4byte	0x0
 11111              	.LLST282:
 11112 2880 F0150000 		.4byte	.LVL795-.Ltext0
 11113 2884 F0150000 		.4byte	.LVL795-.Ltext0
 11114 2888 0100     		.2byte	0x1
 11115 288a 5E       		.byte	0x5e
 11116 288b FC180000 		.4byte	.LVL874-.Ltext0
 11117 288f 08190000 		.4byte	.LVL876-.Ltext0
 11118 2893 0100     		.2byte	0x1
 11119 2895 54       		.byte	0x54
 11120 2896 00000000 		.4byte	0x0
 11121 289a 00000000 		.4byte	0x0
 11122              	.LLST283:
 11123 289e 94150000 		.4byte	.LVL781-.Ltext0
 11124 28a2 B0150000 		.4byte	.LVL783-.Ltext0
 11125 28a6 0100     		.2byte	0x1
 11126 28a8 54       		.byte	0x54
 11127 28a9 F0180000 		.4byte	.LVL872-.Ltext0
 11128 28ad F8180000 		.4byte	.LVL873-.Ltext0
 11129 28b1 0100     		.2byte	0x1
 11130 28b3 54       		.byte	0x54
 11131 28b4 F8180000 		.4byte	.LVL873-.Ltext0
 11132 28b8 04190000 		.4byte	.LVL875-.Ltext0
 11133 28bc 0100     		.2byte	0x1
 11134 28be 51       		.byte	0x51
 11135 28bf 00000000 		.4byte	0x0
 11136 28c3 00000000 		.4byte	0x0
 11137              	.LLST284:
 11138 28c7 14190000 		.4byte	.LVL878-.Ltext0
 11139 28cb 5C190000 		.4byte	.LVL885-.Ltext0
 11140 28cf 0100     		.2byte	0x1
 11141 28d1 54       		.byte	0x54
 11142 28d2 00000000 		.4byte	0x0
ARM GAS  /cygdrive/c/DOCUME~1/mkwapisz/LOCALS~1/Temp/cc1OEM1Z.s 			page 213


 11143 28d6 00000000 		.4byte	0x0
 11144              	.LLST285:
 11145 28da 08190000 		.4byte	.LVL876-.Ltext0
 11146 28de 0C190000 		.4byte	.LVL877-.Ltext0
 11147 28e2 0100     		.2byte	0x1
 11148 28e4 54       		.byte	0x54
 11149 28e5 0C190000 		.4byte	.LVL877-.Ltext0
 11150 28e9 1C190000 		.4byte	.LVL879-.Ltext0
 11151 28ed 0100     		.2byte	0x1
 11152 28ef 51       		.byte	0x51
 11153 28f0 00000000 		.4byte	0x0
 11154 28f4 00000000 		.4byte	0x0
 11155              	.LLST286:
 11156 28f8 F4120000 		.4byte	.LVL682-.Ltext0
 11157 28fc F4120000 		.4byte	.LVL682-.Ltext0
 11158 2900 0100     		.2byte	0x1
 11159 2902 50       		.byte	0x50
 11160 2903 A8170000 		.4byte	.LVL827-.Ltext0
 11161 2907 BC170000 		.4byte	.LVL829-.Ltext0
 11162 290b 0100     		.2byte	0x1
 11163 290d 54       		.byte	0x54
 11164 290e 00000000 		.4byte	0x0
 11165 2912 00000000 		.4byte	0x0
 11166              	.LLST287:
 11167 2916 EC120000 		.4byte	.LVL680-.Ltext0
 11168 291a 2C130000 		.4byte	.LVL688-.Ltext0
 11169 291e 0100     		.2byte	0x1
 11170 2920 54       		.byte	0x54
 11171 2921 A4170000 		.4byte	.LVL826-.Ltext0
 11172 2925 A8170000 		.4byte	.LVL827-.Ltext0
 11173 2929 0100     		.2byte	0x1
 11174 292b 54       		.byte	0x54
 11175 292c A8170000 		.4byte	.LVL827-.Ltext0
 11176 2930 B0170000 		.4byte	.LVL828-.Ltext0
 11177 2934 0100     		.2byte	0x1
 11178 2936 51       		.byte	0x51
 11179 2937 00000000 		.4byte	0x0
 11180 293b 00000000 		.4byte	0x0
 11181              	.LLST288:
 11182 293f 64140000 		.4byte	.LVL735-.Ltext0
 11183 2943 64140000 		.4byte	.LVL735-.Ltext0
 11184 2947 0100     		.2byte	0x1
 11185 2949 54       		.byte	0x54
 11186 294a 68180000 		.4byte	.LVL851-.Ltext0
 11187 294e 80180000 		.4byte	.LVL854-.Ltext0
 11188 2952 0100     		.2byte	0x1
 11189 2954 54       		.byte	0x54
 11190 2955 00000000 		.4byte	0x0
 11191 2959 00000000 		.4byte	0x0
 11192              	.LLST289:
 11193 295d 1C140000 		.4byte	.LVL725-.Ltext0
 11194 2961 20140000 		.4byte	.LVL726-.Ltext0
 11195 2965 0100     		.2byte	0x1
 11196 2967 54       		.byte	0x54
 11197 2968 60180000 		.4byte	.LVL850-.Ltext0
 11198 296c 68180000 		.4byte	.LVL851-.Ltext0
 11199 2970 0100     		.2byte	0x1
ARM GAS  /cygdrive/c/DOCUME~1/mkwapisz/LOCALS~1/Temp/cc1OEM1Z.s 			page 214


 11200 2972 54       		.byte	0x54
 11201 2973 68180000 		.4byte	.LVL851-.Ltext0
 11202 2977 74180000 		.4byte	.LVL852-.Ltext0
 11203 297b 0100     		.2byte	0x1
 11204 297d 51       		.byte	0x51
 11205 297e 00000000 		.4byte	0x0
 11206 2982 00000000 		.4byte	0x0
 11207              	.LLST290:
 11208 2986 7C190000 		.4byte	.LVL888-.Ltext0
 11209 298a 88190000 		.4byte	.LVL890-.Ltext0
 11210 298e 0100     		.2byte	0x1
 11211 2990 54       		.byte	0x54
 11212 2991 00000000 		.4byte	0x0
 11213 2995 00000000 		.4byte	0x0
 11214              	.LLST291:
 11215 2999 78190000 		.4byte	.LVL887-.Ltext0
 11216 299d 7C190000 		.4byte	.LVL888-.Ltext0
 11217 29a1 0100     		.2byte	0x1
 11218 29a3 54       		.byte	0x54
 11219 29a4 7C190000 		.4byte	.LVL888-.Ltext0
 11220 29a8 84190000 		.4byte	.LVL889-.Ltext0
 11221 29ac 0100     		.2byte	0x1
 11222 29ae 51       		.byte	0x51
 11223 29af 00000000 		.4byte	0x0
 11224 29b3 00000000 		.4byte	0x0
 11225              	.LLST292:
 11226 29b7 30130000 		.4byte	.LVL689-.Ltext0
 11227 29bb 4C130000 		.4byte	.LVL696-.Ltext0
 11228 29bf 0100     		.2byte	0x1
 11229 29c1 50       		.byte	0x50
 11230 29c2 8C190000 		.4byte	.LVL891-.Ltext0
 11231 29c6 9C190000 		.4byte	.LVL893-.Ltext0
 11232 29ca 0100     		.2byte	0x1
 11233 29cc 54       		.byte	0x54
 11234 29cd 00000000 		.4byte	0x0
 11235 29d1 00000000 		.4byte	0x0
 11236              	.LLST293:
 11237 29d5 1C130000 		.4byte	.LVL686-.Ltext0
 11238 29d9 20130000 		.4byte	.LVL687-.Ltext0
 11239 29dd 0100     		.2byte	0x1
 11240 29df 59       		.byte	0x59
 11241 29e0 5C160000 		.4byte	.LVL819-.Ltext0
 11242 29e4 C0160000 		.4byte	.LVL821-.Ltext0
 11243 29e8 0100     		.2byte	0x1
 11244 29ea 59       		.byte	0x59
 11245 29eb 6C170000 		.4byte	.LVL822-.Ltext0
 11246 29ef 98170000 		.4byte	.LVL824-.Ltext0
 11247 29f3 0100     		.2byte	0x1
 11248 29f5 59       		.byte	0x59
 11249 29f6 90190000 		.4byte	.LVL892-.Ltext0
 11250 29fa A81D0000 		.4byte	.LFE7-.Ltext0
 11251 29fe 0100     		.2byte	0x1
 11252 2a00 59       		.byte	0x59
 11253 2a01 00000000 		.4byte	0x0
 11254 2a05 00000000 		.4byte	0x0
 11255              	.LLST294:
 11256 2a09 3C130000 		.4byte	.LVL694-.Ltext0
ARM GAS  /cygdrive/c/DOCUME~1/mkwapisz/LOCALS~1/Temp/cc1OEM1Z.s 			page 215


 11257 2a0d 40130000 		.4byte	.LVL695-.Ltext0
 11258 2a11 0100     		.2byte	0x1
 11259 2a13 51       		.byte	0x51
 11260 2a14 A0190000 		.4byte	.LVL894-.Ltext0
 11261 2a18 AC190000 		.4byte	.LVL896-.Ltext0
 11262 2a1c 0100     		.2byte	0x1
 11263 2a1e 54       		.byte	0x54
 11264 2a1f 00000000 		.4byte	0x0
 11265 2a23 00000000 		.4byte	0x0
 11266              	.LLST295:
 11267 2a27 34130000 		.4byte	.LVL690-.Ltext0
 11268 2a2b 38130000 		.4byte	.LVL691-.Ltext0
 11269 2a2f 0100     		.2byte	0x1
 11270 2a31 5A       		.byte	0x5a
 11271 2a32 A4190000 		.4byte	.LVL895-.Ltext0
 11272 2a36 0C1A0000 		.4byte	.LVL914-.Ltext0
 11273 2a3a 0100     		.2byte	0x1
 11274 2a3c 5A       		.byte	0x5a
 11275 2a3d 00000000 		.4byte	0x0
 11276 2a41 00000000 		.4byte	0x0
 11277              	.LLST296:
 11278 2a45 2C130000 		.4byte	.LVL688-.Ltext0
 11279 2a49 2C130000 		.4byte	.LVL688-.Ltext0
 11280 2a4d 0100     		.2byte	0x1
 11281 2a4f 51       		.byte	0x51
 11282 2a50 B8190000 		.4byte	.LVL898-.Ltext0
 11283 2a54 C0190000 		.4byte	.LVL900-.Ltext0
 11284 2a58 0100     		.2byte	0x1
 11285 2a5a 54       		.byte	0x54
 11286 2a5b 00000000 		.4byte	0x0
 11287 2a5f 00000000 		.4byte	0x0
 11288              	.LLST297:
 11289 2a63 AC190000 		.4byte	.LVL896-.Ltext0
 11290 2a67 B4190000 		.4byte	.LVL897-.Ltext0
 11291 2a6b 0100     		.2byte	0x1
 11292 2a6d 54       		.byte	0x54
 11293 2a6e B4190000 		.4byte	.LVL897-.Ltext0
 11294 2a72 C0190000 		.4byte	.LVL899-.Ltext0
 11295 2a76 0100     		.2byte	0x1
 11296 2a78 51       		.byte	0x51
 11297 2a79 00000000 		.4byte	0x0
 11298 2a7d 00000000 		.4byte	0x0
 11299              	.LLST298:
 11300 2a81 CC190000 		.4byte	.LVL902-.Ltext0
 11301 2a85 DC190000 		.4byte	.LVL905-.Ltext0
 11302 2a89 0100     		.2byte	0x1
 11303 2a8b 54       		.byte	0x54
 11304 2a8c 00000000 		.4byte	0x0
 11305 2a90 00000000 		.4byte	0x0
 11306              	.LLST299:
 11307 2a94 C0190000 		.4byte	.LVL900-.Ltext0
 11308 2a98 C8190000 		.4byte	.LVL901-.Ltext0
 11309 2a9c 0100     		.2byte	0x1
 11310 2a9e 54       		.byte	0x54
 11311 2a9f C8190000 		.4byte	.LVL901-.Ltext0
 11312 2aa3 D4190000 		.4byte	.LVL903-.Ltext0
 11313 2aa7 0100     		.2byte	0x1
ARM GAS  /cygdrive/c/DOCUME~1/mkwapisz/LOCALS~1/Temp/cc1OEM1Z.s 			page 216


 11314 2aa9 51       		.byte	0x51
 11315 2aaa 00000000 		.4byte	0x0
 11316 2aae 00000000 		.4byte	0x0
 11317              	.LLST300:
 11318 2ab2 7C130000 		.4byte	.LVL707-.Ltext0
 11319 2ab6 80130000 		.4byte	.LVL708-.Ltext0
 11320 2aba 0100     		.2byte	0x1
 11321 2abc 50       		.byte	0x50
 11322 2abd E0190000 		.4byte	.LVL906-.Ltext0
 11323 2ac1 E8190000 		.4byte	.LVL907-.Ltext0
 11324 2ac5 0100     		.2byte	0x1
 11325 2ac7 54       		.byte	0x54
 11326 2ac8 00000000 		.4byte	0x0
 11327 2acc 00000000 		.4byte	0x0
 11328              	.LLST301:
 11329 2ad0 70130000 		.4byte	.LVL702-.Ltext0
 11330 2ad4 74130000 		.4byte	.LVL703-.Ltext0
 11331 2ad8 0100     		.2byte	0x1
 11332 2ada 55       		.byte	0x55
 11333 2adb D4190000 		.4byte	.LVL904-.Ltext0
 11334 2adf 541A0000 		.4byte	.LVL927-.Ltext0
 11335 2ae3 0100     		.2byte	0x1
 11336 2ae5 55       		.byte	0x55
 11337 2ae6 00000000 		.4byte	0x0
 11338 2aea 00000000 		.4byte	0x0
 11339              	.LLST302:
 11340 2aee F4190000 		.4byte	.LVL909-.Ltext0
 11341 2af2 001A0000 		.4byte	.LVL911-.Ltext0
 11342 2af6 0100     		.2byte	0x1
 11343 2af8 54       		.byte	0x54
 11344 2af9 00000000 		.4byte	0x0
 11345 2afd 00000000 		.4byte	0x0
 11346              	.LLST303:
 11347 2b01 E8190000 		.4byte	.LVL907-.Ltext0
 11348 2b05 F0190000 		.4byte	.LVL908-.Ltext0
 11349 2b09 0100     		.2byte	0x1
 11350 2b0b 54       		.byte	0x54
 11351 2b0c F0190000 		.4byte	.LVL908-.Ltext0
 11352 2b10 FC190000 		.4byte	.LVL910-.Ltext0
 11353 2b14 0100     		.2byte	0x1
 11354 2b16 51       		.byte	0x51
 11355 2b17 00000000 		.4byte	0x0
 11356 2b1b 00000000 		.4byte	0x0
 11357              	.LLST304:
 11358 2b1f 081A0000 		.4byte	.LVL913-.Ltext0
 11359 2b23 101A0000 		.4byte	.LVL915-.Ltext0
 11360 2b27 0100     		.2byte	0x1
 11361 2b29 54       		.byte	0x54
 11362 2b2a 101A0000 		.4byte	.LVL915-.Ltext0
 11363 2b2e 181A0000 		.4byte	.LVL916-.Ltext0
 11364 2b32 0100     		.2byte	0x1
 11365 2b34 50       		.byte	0x50
 11366 2b35 00000000 		.4byte	0x0
 11367 2b39 00000000 		.4byte	0x0
 11368              	.LLST305:
 11369 2b3d 001A0000 		.4byte	.LVL911-.Ltext0
 11370 2b41 041A0000 		.4byte	.LVL912-.Ltext0
ARM GAS  /cygdrive/c/DOCUME~1/mkwapisz/LOCALS~1/Temp/cc1OEM1Z.s 			page 217


 11371 2b45 0100     		.2byte	0x1
 11372 2b47 54       		.byte	0x54
 11373 2b48 041A0000 		.4byte	.LVL912-.Ltext0
 11374 2b4c 181A0000 		.4byte	.LVL916-.Ltext0
 11375 2b50 0100     		.2byte	0x1
 11376 2b52 51       		.byte	0x51
 11377 2b53 00000000 		.4byte	0x0
 11378 2b57 00000000 		.4byte	0x0
 11379              	.LLST306:
 11380 2b5b 80140000 		.4byte	.LVL738-.Ltext0
 11381 2b5f 8C140000 		.4byte	.LVL741-.Ltext0
 11382 2b63 0100     		.2byte	0x1
 11383 2b65 54       		.byte	0x54
 11384 2b66 241A0000 		.4byte	.LVL918-.Ltext0
 11385 2b6a 301A0000 		.4byte	.LVL920-.Ltext0
 11386 2b6e 0100     		.2byte	0x1
 11387 2b70 54       		.byte	0x54
 11388 2b71 00000000 		.4byte	0x0
 11389 2b75 00000000 		.4byte	0x0
 11390              	.LLST307:
 11391 2b79 20140000 		.4byte	.LVL727-.Ltext0
 11392 2b7d 60140000 		.4byte	.LVL734-.Ltext0
 11393 2b81 0100     		.2byte	0x1
 11394 2b83 54       		.byte	0x54
 11395 2b84 201A0000 		.4byte	.LVL917-.Ltext0
 11396 2b88 241A0000 		.4byte	.LVL918-.Ltext0
 11397 2b8c 0100     		.2byte	0x1
 11398 2b8e 54       		.byte	0x54
 11399 2b8f 241A0000 		.4byte	.LVL918-.Ltext0
 11400 2b93 2C1A0000 		.4byte	.LVL919-.Ltext0
 11401 2b97 0100     		.2byte	0x1
 11402 2b99 51       		.byte	0x51
 11403 2b9a 00000000 		.4byte	0x0
 11404 2b9e 00000000 		.4byte	0x0
 11405              	.LLST308:
 11406 2ba2 7C140000 		.4byte	.LVL737-.Ltext0
 11407 2ba6 80140000 		.4byte	.LVL738-.Ltext0
 11408 2baa 0100     		.2byte	0x1
 11409 2bac 54       		.byte	0x54
 11410 2bad 341A0000 		.4byte	.LVL921-.Ltext0
 11411 2bb1 401A0000 		.4byte	.LVL923-.Ltext0
 11412 2bb5 0100     		.2byte	0x1
 11413 2bb7 54       		.byte	0x54
 11414 2bb8 00000000 		.4byte	0x0
 11415 2bbc 00000000 		.4byte	0x0
 11416              	.LLST309:
 11417 2bc0 381A0000 		.4byte	.LVL922-.Ltext0
 11418 2bc4 B41A0000 		.4byte	.LVL944-.Ltext0
 11419 2bc8 0100     		.2byte	0x1
 11420 2bca 5A       		.byte	0x5a
 11421 2bcb 00000000 		.4byte	0x0
 11422 2bcf 00000000 		.4byte	0x0
 11423              	.LLST310:
 11424 2bd3 E8140000 		.4byte	.LVL756-.Ltext0
 11425 2bd7 14150000 		.4byte	.LVL761-.Ltext0
 11426 2bdb 0100     		.2byte	0x1
 11427 2bdd 50       		.byte	0x50
ARM GAS  /cygdrive/c/DOCUME~1/mkwapisz/LOCALS~1/Temp/cc1OEM1Z.s 			page 218


 11428 2bde 4C1A0000 		.4byte	.LVL925-.Ltext0
 11429 2be2 5C1A0000 		.4byte	.LVL928-.Ltext0
 11430 2be6 0100     		.2byte	0x1
 11431 2be8 54       		.byte	0x54
 11432 2be9 00000000 		.4byte	0x0
 11433 2bed 00000000 		.4byte	0x0
 11434              	.LLST311:
 11435 2bf1 A0140000 		.4byte	.LVL744-.Ltext0
 11436 2bf5 A8140000 		.4byte	.LVL745-.Ltext0
 11437 2bf9 0100     		.2byte	0x1
 11438 2bfb 50       		.byte	0x50
 11439 2bfc 401A0000 		.4byte	.LVL923-.Ltext0
 11440 2c00 481A0000 		.4byte	.LVL924-.Ltext0
 11441 2c04 0100     		.2byte	0x1
 11442 2c06 54       		.byte	0x54
 11443 2c07 481A0000 		.4byte	.LVL924-.Ltext0
 11444 2c0b 541A0000 		.4byte	.LVL926-.Ltext0
 11445 2c0f 0100     		.2byte	0x1
 11446 2c11 51       		.byte	0x51
 11447 2c12 00000000 		.4byte	0x0
 11448 2c16 00000000 		.4byte	0x0
 11449              	.LLST312:
 11450 2c1a 1C150000 		.4byte	.LVL763-.Ltext0
 11451 2c1e 40150000 		.4byte	.LVL768-.Ltext0
 11452 2c22 0100     		.2byte	0x1
 11453 2c24 50       		.byte	0x50
 11454 2c25 601A0000 		.4byte	.LVL929-.Ltext0
 11455 2c29 681A0000 		.4byte	.LVL930-.Ltext0
 11456 2c2d 0100     		.2byte	0x1
 11457 2c2f 54       		.byte	0x54
 11458 2c30 00000000 		.4byte	0x0
 11459 2c34 00000000 		.4byte	0x0
 11460              	.LLST313:
 11461 2c38 10150000 		.4byte	.LVL759-.Ltext0
 11462 2c3c 14150000 		.4byte	.LVL760-.Ltext0
 11463 2c40 0100     		.2byte	0x1
 11464 2c42 55       		.byte	0x55
 11465 2c43 541A0000 		.4byte	.LVL927-.Ltext0
 11466 2c47 AC1A0000 		.4byte	.LVL943-.Ltext0
 11467 2c4b 0100     		.2byte	0x1
 11468 2c4d 55       		.byte	0x55
 11469 2c4e 00000000 		.4byte	0x0
 11470 2c52 00000000 		.4byte	0x0
 11471              	.LLST314:
 11472 2c56 741A0000 		.4byte	.LVL932-.Ltext0
 11473 2c5a 7C1A0000 		.4byte	.LVL934-.Ltext0
 11474 2c5e 0100     		.2byte	0x1
 11475 2c60 54       		.byte	0x54
 11476 2c61 00000000 		.4byte	0x0
 11477 2c65 00000000 		.4byte	0x0
 11478              	.LLST315:
 11479 2c69 681A0000 		.4byte	.LVL930-.Ltext0
 11480 2c6d 701A0000 		.4byte	.LVL931-.Ltext0
 11481 2c71 0100     		.2byte	0x1
 11482 2c73 54       		.byte	0x54
 11483 2c74 701A0000 		.4byte	.LVL931-.Ltext0
 11484 2c78 7C1A0000 		.4byte	.LVL933-.Ltext0
ARM GAS  /cygdrive/c/DOCUME~1/mkwapisz/LOCALS~1/Temp/cc1OEM1Z.s 			page 219


 11485 2c7c 0100     		.2byte	0x1
 11486 2c7e 51       		.byte	0x51
 11487 2c7f 00000000 		.4byte	0x0
 11488 2c83 00000000 		.4byte	0x0
 11489              	.LLST316:
 11490 2c87 80150000 		.4byte	.LVL777-.Ltext0
 11491 2c8b 80150000 		.4byte	.LVL777-.Ltext0
 11492 2c8f 0100     		.2byte	0x1
 11493 2c91 54       		.byte	0x54
 11494 2c92 881A0000 		.4byte	.LVL936-.Ltext0
 11495 2c96 901A0000 		.4byte	.LVL938-.Ltext0
 11496 2c9a 0100     		.2byte	0x1
 11497 2c9c 54       		.byte	0x54
 11498 2c9d 00000000 		.4byte	0x0
 11499 2ca1 00000000 		.4byte	0x0
 11500              	.LLST317:
 11501 2ca5 7C1A0000 		.4byte	.LVL934-.Ltext0
 11502 2ca9 841A0000 		.4byte	.LVL935-.Ltext0
 11503 2cad 0100     		.2byte	0x1
 11504 2caf 54       		.byte	0x54
 11505 2cb0 841A0000 		.4byte	.LVL935-.Ltext0
 11506 2cb4 901A0000 		.4byte	.LVL937-.Ltext0
 11507 2cb8 0100     		.2byte	0x1
 11508 2cba 51       		.byte	0x51
 11509 2cbb 00000000 		.4byte	0x0
 11510 2cbf 00000000 		.4byte	0x0
 11511              	.LLST318:
 11512 2cc3 9C1A0000 		.4byte	.LVL940-.Ltext0
 11513 2cc7 A41A0000 		.4byte	.LVL942-.Ltext0
 11514 2ccb 0100     		.2byte	0x1
 11515 2ccd 54       		.byte	0x54
 11516 2cce 00000000 		.4byte	0x0
 11517 2cd2 00000000 		.4byte	0x0
 11518              	.LLST319:
 11519 2cd6 901A0000 		.4byte	.LVL938-.Ltext0
 11520 2cda 941A0000 		.4byte	.LVL939-.Ltext0
 11521 2cde 0100     		.2byte	0x1
 11522 2ce0 54       		.byte	0x54
 11523 2ce1 941A0000 		.4byte	.LVL939-.Ltext0
 11524 2ce5 A41A0000 		.4byte	.LVL941-.Ltext0
 11525 2ce9 0100     		.2byte	0x1
 11526 2ceb 51       		.byte	0x51
 11527 2cec 00000000 		.4byte	0x0
 11528 2cf0 00000000 		.4byte	0x0
 11529              	.LLST320:
 11530 2cf4 00160000 		.4byte	.LVL800-.Ltext0
 11531 2cf8 04160000 		.4byte	.LVL801-.Ltext0
 11532 2cfc 0100     		.2byte	0x1
 11533 2cfe 5C       		.byte	0x5c
 11534 2cff A41A0000 		.4byte	.LVL942-.Ltext0
 11535 2d03 AC1A0000 		.4byte	.LVL943-.Ltext0
 11536 2d07 0100     		.2byte	0x1
 11537 2d09 54       		.byte	0x54
 11538 2d0a AC1A0000 		.4byte	.LVL943-.Ltext0
 11539 2d0e BC1A0000 		.4byte	.LVL945-.Ltext0
 11540 2d12 0100     		.2byte	0x1
 11541 2d14 50       		.byte	0x50
ARM GAS  /cygdrive/c/DOCUME~1/mkwapisz/LOCALS~1/Temp/cc1OEM1Z.s 			page 220


 11542 2d15 00000000 		.4byte	0x0
 11543 2d19 00000000 		.4byte	0x0
 11544              	.LLST321:
 11545 2d1d EC150000 		.4byte	.LVL793-.Ltext0
 11546 2d21 F0150000 		.4byte	.LVL794-.Ltext0
 11547 2d25 0100     		.2byte	0x1
 11548 2d27 55       		.byte	0x55
 11549 2d28 AC1A0000 		.4byte	.LVL943-.Ltext0
 11550 2d2c C41A0000 		.4byte	.LVL946-.Ltext0
 11551 2d30 0100     		.2byte	0x1
 11552 2d32 55       		.byte	0x55
 11553 2d33 00000000 		.4byte	0x0
 11554 2d37 00000000 		.4byte	0x0
 11555              	.LLST322:
 11556 2d3b EC1A0000 		.4byte	.LVL949-.Ltext0
 11557 2d3f FC1A0000 		.4byte	.LVL952-.Ltext0
 11558 2d43 0100     		.2byte	0x1
 11559 2d45 54       		.byte	0x54
 11560 2d46 00000000 		.4byte	0x0
 11561 2d4a 00000000 		.4byte	0x0
 11562              	.LLST323:
 11563 2d4e E81A0000 		.4byte	.LVL948-.Ltext0
 11564 2d52 EC1A0000 		.4byte	.LVL949-.Ltext0
 11565 2d56 0100     		.2byte	0x1
 11566 2d58 54       		.byte	0x54
 11567 2d59 EC1A0000 		.4byte	.LVL949-.Ltext0
 11568 2d5d F41A0000 		.4byte	.LVL950-.Ltext0
 11569 2d61 0100     		.2byte	0x1
 11570 2d63 51       		.byte	0x51
 11571 2d64 00000000 		.4byte	0x0
 11572 2d68 00000000 		.4byte	0x0
 11573              	.LLST324:
 11574 2d6c 40130000 		.4byte	.LVL695-.Ltext0
 11575 2d70 5C130000 		.4byte	.LVL697-.Ltext0
 11576 2d74 0100     		.2byte	0x1
 11577 2d76 51       		.byte	0x51
 11578 2d77 001B0000 		.4byte	.LVL953-.Ltext0
 11579 2d7b 081B0000 		.4byte	.LVL954-.Ltext0
 11580 2d7f 0100     		.2byte	0x1
 11581 2d81 54       		.byte	0x54
 11582 2d82 00000000 		.4byte	0x0
 11583 2d86 00000000 		.4byte	0x0
 11584              	.LLST325:
 11585 2d8a 38130000 		.4byte	.LVL692-.Ltext0
 11586 2d8e 3C130000 		.4byte	.LVL693-.Ltext0
 11587 2d92 0100     		.2byte	0x1
 11588 2d94 58       		.byte	0x58
 11589 2d95 F41A0000 		.4byte	.LVL951-.Ltext0
 11590 2d99 301C0000 		.4byte	.LVL1011-.Ltext0
 11591 2d9d 0100     		.2byte	0x1
 11592 2d9f 58       		.byte	0x58
 11593 2da0 00000000 		.4byte	0x0
 11594 2da4 00000000 		.4byte	0x0
 11595              	.LLST326:
 11596 2da8 141B0000 		.4byte	.LVL956-.Ltext0
 11597 2dac 1C1B0000 		.4byte	.LVL958-.Ltext0
 11598 2db0 0100     		.2byte	0x1
ARM GAS  /cygdrive/c/DOCUME~1/mkwapisz/LOCALS~1/Temp/cc1OEM1Z.s 			page 221


 11599 2db2 54       		.byte	0x54
 11600 2db3 00000000 		.4byte	0x0
 11601 2db7 00000000 		.4byte	0x0
 11602              	.LLST327:
 11603 2dbb 081B0000 		.4byte	.LVL954-.Ltext0
 11604 2dbf 101B0000 		.4byte	.LVL955-.Ltext0
 11605 2dc3 0100     		.2byte	0x1
 11606 2dc5 54       		.byte	0x54
 11607 2dc6 101B0000 		.4byte	.LVL955-.Ltext0
 11608 2dca 1C1B0000 		.4byte	.LVL957-.Ltext0
 11609 2dce 0100     		.2byte	0x1
 11610 2dd0 51       		.byte	0x51
 11611 2dd1 00000000 		.4byte	0x0
 11612 2dd5 00000000 		.4byte	0x0
 11613              	.LLST328:
 11614 2dd9 281B0000 		.4byte	.LVL960-.Ltext0
 11615 2ddd 381B0000 		.4byte	.LVL963-.Ltext0
 11616 2de1 0100     		.2byte	0x1
 11617 2de3 54       		.byte	0x54
 11618 2de4 00000000 		.4byte	0x0
 11619 2de8 00000000 		.4byte	0x0
 11620              	.LLST329:
 11621 2dec 1C1B0000 		.4byte	.LVL958-.Ltext0
 11622 2df0 241B0000 		.4byte	.LVL959-.Ltext0
 11623 2df4 0100     		.2byte	0x1
 11624 2df6 54       		.byte	0x54
 11625 2df7 241B0000 		.4byte	.LVL959-.Ltext0
 11626 2dfb 301B0000 		.4byte	.LVL961-.Ltext0
 11627 2dff 0100     		.2byte	0x1
 11628 2e01 51       		.byte	0x51
 11629 2e02 00000000 		.4byte	0x0
 11630 2e06 00000000 		.4byte	0x0
 11631              	.LLST330:
 11632 2e0a 3C1B0000 		.4byte	.LVL964-.Ltext0
 11633 2e0e 4C1B0000 		.4byte	.LVL967-.Ltext0
 11634 2e12 0100     		.2byte	0x1
 11635 2e14 54       		.byte	0x54
 11636 2e15 00000000 		.4byte	0x0
 11637 2e19 00000000 		.4byte	0x0
 11638              	.LLST331:
 11639 2e1d 301B0000 		.4byte	.LVL962-.Ltext0
 11640 2e21 881B0000 		.4byte	.LVL979-.Ltext0
 11641 2e25 0100     		.2byte	0x1
 11642 2e27 56       		.byte	0x56
 11643 2e28 00000000 		.4byte	0x0
 11644 2e2c 00000000 		.4byte	0x0
 11645              	.LLST332:
 11646 2e30 80130000 		.4byte	.LVL708-.Ltext0
 11647 2e34 84130000 		.4byte	.LVL709-.Ltext0
 11648 2e38 0100     		.2byte	0x1
 11649 2e3a 50       		.byte	0x50
 11650 2e3b 501B0000 		.4byte	.LVL968-.Ltext0
 11651 2e3f 581B0000 		.4byte	.LVL970-.Ltext0
 11652 2e43 0100     		.2byte	0x1
 11653 2e45 54       		.byte	0x54
 11654 2e46 00000000 		.4byte	0x0
 11655 2e4a 00000000 		.4byte	0x0
ARM GAS  /cygdrive/c/DOCUME~1/mkwapisz/LOCALS~1/Temp/cc1OEM1Z.s 			page 222


 11656              	.LLST333:
 11657 2e4e 74130000 		.4byte	.LVL704-.Ltext0
 11658 2e52 78130000 		.4byte	.LVL705-.Ltext0
 11659 2e56 0100     		.2byte	0x1
 11660 2e58 57       		.byte	0x57
 11661 2e59 441B0000 		.4byte	.LVL965-.Ltext0
 11662 2e5d 481B0000 		.4byte	.LVL966-.Ltext0
 11663 2e61 0100     		.2byte	0x1
 11664 2e63 57       		.byte	0x57
 11665 2e64 481B0000 		.4byte	.LVL966-.Ltext0
 11666 2e68 581B0000 		.4byte	.LVL969-.Ltext0
 11667 2e6c 0100     		.2byte	0x1
 11668 2e6e 51       		.byte	0x51
 11669 2e6f 00000000 		.4byte	0x0
 11670 2e73 00000000 		.4byte	0x0
 11671              	.LLST334:
 11672 2e77 641B0000 		.4byte	.LVL972-.Ltext0
 11673 2e7b 701B0000 		.4byte	.LVL974-.Ltext0
 11674 2e7f 0100     		.2byte	0x1
 11675 2e81 54       		.byte	0x54
 11676 2e82 00000000 		.4byte	0x0
 11677 2e86 00000000 		.4byte	0x0
 11678              	.LLST335:
 11679 2e8a 581B0000 		.4byte	.LVL970-.Ltext0
 11680 2e8e 601B0000 		.4byte	.LVL971-.Ltext0
 11681 2e92 0100     		.2byte	0x1
 11682 2e94 54       		.byte	0x54
 11683 2e95 601B0000 		.4byte	.LVL971-.Ltext0
 11684 2e99 6C1B0000 		.4byte	.LVL973-.Ltext0
 11685 2e9d 0100     		.2byte	0x1
 11686 2e9f 51       		.byte	0x51
 11687 2ea0 00000000 		.4byte	0x0
 11688 2ea4 00000000 		.4byte	0x0
 11689              	.LLST336:
 11690 2ea8 781B0000 		.4byte	.LVL976-.Ltext0
 11691 2eac 801B0000 		.4byte	.LVL977-.Ltext0
 11692 2eb0 0100     		.2byte	0x1
 11693 2eb2 54       		.byte	0x54
 11694 2eb3 801B0000 		.4byte	.LVL977-.Ltext0
 11695 2eb7 881B0000 		.4byte	.LVL978-.Ltext0
 11696 2ebb 0100     		.2byte	0x1
 11697 2ebd 50       		.byte	0x50
 11698 2ebe 00000000 		.4byte	0x0
 11699 2ec2 00000000 		.4byte	0x0
 11700              	.LLST337:
 11701 2ec6 701B0000 		.4byte	.LVL974-.Ltext0
 11702 2eca 741B0000 		.4byte	.LVL975-.Ltext0
 11703 2ece 0100     		.2byte	0x1
 11704 2ed0 54       		.byte	0x54
 11705 2ed1 741B0000 		.4byte	.LVL975-.Ltext0
 11706 2ed5 881B0000 		.4byte	.LVL978-.Ltext0
 11707 2ed9 0100     		.2byte	0x1
 11708 2edb 51       		.byte	0x51
 11709 2edc 00000000 		.4byte	0x0
 11710 2ee0 00000000 		.4byte	0x0
 11711              	.LLST338:
 11712 2ee4 941B0000 		.4byte	.LVL981-.Ltext0
ARM GAS  /cygdrive/c/DOCUME~1/mkwapisz/LOCALS~1/Temp/cc1OEM1Z.s 			page 223


 11713 2ee8 A01B0000 		.4byte	.LVL983-.Ltext0
 11714 2eec 0100     		.2byte	0x1
 11715 2eee 54       		.byte	0x54
 11716 2eef 00000000 		.4byte	0x0
 11717 2ef3 00000000 		.4byte	0x0
 11718              	.LLST339:
 11719 2ef7 901B0000 		.4byte	.LVL980-.Ltext0
 11720 2efb 941B0000 		.4byte	.LVL981-.Ltext0
 11721 2eff 0100     		.2byte	0x1
 11722 2f01 54       		.byte	0x54
 11723 2f02 941B0000 		.4byte	.LVL981-.Ltext0
 11724 2f06 9C1B0000 		.4byte	.LVL982-.Ltext0
 11725 2f0a 0100     		.2byte	0x1
 11726 2f0c 51       		.byte	0x51
 11727 2f0d 00000000 		.4byte	0x0
 11728 2f11 00000000 		.4byte	0x0
 11729              	.LLST340:
 11730 2f15 88140000 		.4byte	.LVL740-.Ltext0
 11731 2f19 88140000 		.4byte	.LVL740-.Ltext0
 11732 2f1d 0100     		.2byte	0x1
 11733 2f1f 5E       		.byte	0x5e
 11734 2f20 A81B0000 		.4byte	.LVL985-.Ltext0
 11735 2f24 B81B0000 		.4byte	.LVL989-.Ltext0
 11736 2f28 0100     		.2byte	0x1
 11737 2f2a 54       		.byte	0x54
 11738 2f2b 00000000 		.4byte	0x0
 11739 2f2f 00000000 		.4byte	0x0
 11740              	.LLST341:
 11741 2f33 A01B0000 		.4byte	.LVL983-.Ltext0
 11742 2f37 A41B0000 		.4byte	.LVL984-.Ltext0
 11743 2f3b 0100     		.2byte	0x1
 11744 2f3d 54       		.byte	0x54
 11745 2f3e A41B0000 		.4byte	.LVL984-.Ltext0
 11746 2f42 B01B0000 		.4byte	.LVL986-.Ltext0
 11747 2f46 0100     		.2byte	0x1
 11748 2f48 51       		.byte	0x51
 11749 2f49 00000000 		.4byte	0x0
 11750 2f4d 00000000 		.4byte	0x0
 11751              	.LLST342:
 11752 2f51 70150000 		.4byte	.LVL773-.Ltext0
 11753 2f55 74150000 		.4byte	.LVL774-.Ltext0
 11754 2f59 0100     		.2byte	0x1
 11755 2f5b 50       		.byte	0x50
 11756 2f5c BC1B0000 		.4byte	.LVL990-.Ltext0
 11757 2f60 CC1B0000 		.4byte	.LVL993-.Ltext0
 11758 2f64 0100     		.2byte	0x1
 11759 2f66 54       		.byte	0x54
 11760 2f67 00000000 		.4byte	0x0
 11761 2f6b 00000000 		.4byte	0x0
 11762              	.LLST343:
 11763 2f6f 64150000 		.4byte	.LVL771-.Ltext0
 11764 2f73 68150000 		.4byte	.LVL772-.Ltext0
 11765 2f77 0100     		.2byte	0x1
 11766 2f79 56       		.byte	0x56
 11767 2f7a B01B0000 		.4byte	.LVL987-.Ltext0
 11768 2f7e B41B0000 		.4byte	.LVL988-.Ltext0
 11769 2f82 0100     		.2byte	0x1
ARM GAS  /cygdrive/c/DOCUME~1/mkwapisz/LOCALS~1/Temp/cc1OEM1Z.s 			page 224


 11770 2f84 56       		.byte	0x56
 11771 2f85 B41B0000 		.4byte	.LVL988-.Ltext0
 11772 2f89 C41B0000 		.4byte	.LVL991-.Ltext0
 11773 2f8d 0100     		.2byte	0x1
 11774 2f8f 51       		.byte	0x51
 11775 2f90 00000000 		.4byte	0x0
 11776 2f94 00000000 		.4byte	0x0
 11777              	.LLST344:
 11778 2f98 40150000 		.4byte	.LVL768-.Ltext0
 11779 2f9c 70150000 		.4byte	.LVL773-.Ltext0
 11780 2fa0 0100     		.2byte	0x1
 11781 2fa2 50       		.byte	0x50
 11782 2fa3 D01B0000 		.4byte	.LVL994-.Ltext0
 11783 2fa7 DC1B0000 		.4byte	.LVL995-.Ltext0
 11784 2fab 0100     		.2byte	0x1
 11785 2fad 54       		.byte	0x54
 11786 2fae 00000000 		.4byte	0x0
 11787 2fb2 00000000 		.4byte	0x0
 11788              	.LLST345:
 11789 2fb6 3C150000 		.4byte	.LVL767-.Ltext0
 11790 2fba 40150000 		.4byte	.LVL768-.Ltext0
 11791 2fbe 0100     		.2byte	0x1
 11792 2fc0 57       		.byte	0x57
 11793 2fc1 C41B0000 		.4byte	.LVL992-.Ltext0
 11794 2fc5 181C0000 		.4byte	.LVL1008-.Ltext0
 11795 2fc9 0100     		.2byte	0x1
 11796 2fcb 57       		.byte	0x57
 11797 2fcc 00000000 		.4byte	0x0
 11798 2fd0 00000000 		.4byte	0x0
 11799              	.LLST346:
 11800 2fd4 84150000 		.4byte	.LVL778-.Ltext0
 11801 2fd8 88150000 		.4byte	.LVL779-.Ltext0
 11802 2fdc 0100     		.2byte	0x1
 11803 2fde 54       		.byte	0x54
 11804 2fdf E41B0000 		.4byte	.LVL997-.Ltext0
 11805 2fe3 F01B0000 		.4byte	.LVL999-.Ltext0
 11806 2fe7 0100     		.2byte	0x1
 11807 2fe9 54       		.byte	0x54
 11808 2fea 00000000 		.4byte	0x0
 11809 2fee 00000000 		.4byte	0x0
 11810              	.LLST347:
 11811 2ff2 DC1B0000 		.4byte	.LVL995-.Ltext0
 11812 2ff6 E01B0000 		.4byte	.LVL996-.Ltext0
 11813 2ffa 0100     		.2byte	0x1
 11814 2ffc 54       		.byte	0x54
 11815 2ffd E01B0000 		.4byte	.LVL996-.Ltext0
 11816 3001 EC1B0000 		.4byte	.LVL998-.Ltext0
 11817 3005 0100     		.2byte	0x1
 11818 3007 51       		.byte	0x51
 11819 3008 00000000 		.4byte	0x0
 11820 300c 00000000 		.4byte	0x0
 11821              	.LLST348:
 11822 3010 F81B0000 		.4byte	.LVL1001-.Ltext0
 11823 3014 081C0000 		.4byte	.LVL1005-.Ltext0
 11824 3018 0100     		.2byte	0x1
 11825 301a 54       		.byte	0x54
 11826 301b 00000000 		.4byte	0x0
ARM GAS  /cygdrive/c/DOCUME~1/mkwapisz/LOCALS~1/Temp/cc1OEM1Z.s 			page 225


 11827 301f 00000000 		.4byte	0x0
 11828              	.LLST349:
 11829 3023 F01B0000 		.4byte	.LVL999-.Ltext0
 11830 3027 F41B0000 		.4byte	.LVL1000-.Ltext0
 11831 302b 0100     		.2byte	0x1
 11832 302d 54       		.byte	0x54
 11833 302e F41B0000 		.4byte	.LVL1000-.Ltext0
 11834 3032 001C0000 		.4byte	.LVL1002-.Ltext0
 11835 3036 0100     		.2byte	0x1
 11836 3038 51       		.byte	0x51
 11837 3039 00000000 		.4byte	0x0
 11838 303d 00000000 		.4byte	0x0
 11839              	.LLST350:
 11840 3041 04160000 		.4byte	.LVL801-.Ltext0
 11841 3045 08160000 		.4byte	.LVL802-.Ltext0
 11842 3049 0100     		.2byte	0x1
 11843 304b 5C       		.byte	0x5c
 11844 304c 0C1C0000 		.4byte	.LVL1006-.Ltext0
 11845 3050 1C1C0000 		.4byte	.LVL1009-.Ltext0
 11846 3054 0100     		.2byte	0x1
 11847 3056 54       		.byte	0x54
 11848 3057 00000000 		.4byte	0x0
 11849 305b 00000000 		.4byte	0x0
 11850              	.LLST351:
 11851 305f F4150000 		.4byte	.LVL796-.Ltext0
 11852 3063 F8150000 		.4byte	.LVL797-.Ltext0
 11853 3067 0100     		.2byte	0x1
 11854 3069 56       		.byte	0x56
 11855 306a 001C0000 		.4byte	.LVL1003-.Ltext0
 11856 306e 041C0000 		.4byte	.LVL1004-.Ltext0
 11857 3072 0100     		.2byte	0x1
 11858 3074 56       		.byte	0x56
 11859 3075 041C0000 		.4byte	.LVL1004-.Ltext0
 11860 3079 141C0000 		.4byte	.LVL1007-.Ltext0
 11861 307d 0100     		.2byte	0x1
 11862 307f 51       		.byte	0x51
 11863 3080 00000000 		.4byte	0x0
 11864 3084 00000000 		.4byte	0x0
 11865              	.LLST352:
 11866 3088 08160000 		.4byte	.LVL802-.Ltext0
 11867 308c 10160000 		.4byte	.LVL804-.Ltext0
 11868 3090 0100     		.2byte	0x1
 11869 3092 5C       		.byte	0x5c
 11870 3093 201C0000 		.4byte	.LVL1010-.Ltext0
 11871 3097 641C0000 		.4byte	.LVL1013-.Ltext0
 11872 309b 0100     		.2byte	0x1
 11873 309d 54       		.byte	0x54
 11874 309e 00000000 		.4byte	0x0
 11875 30a2 00000000 		.4byte	0x0
 11876              	.LLST353:
 11877 30a6 F8150000 		.4byte	.LVL798-.Ltext0
 11878 30aa FC150000 		.4byte	.LVL799-.Ltext0
 11879 30ae 0100     		.2byte	0x1
 11880 30b0 57       		.byte	0x57
 11881 30b1 181C0000 		.4byte	.LVL1008-.Ltext0
 11882 30b5 441C0000 		.4byte	.LVL1012-.Ltext0
 11883 30b9 0100     		.2byte	0x1
ARM GAS  /cygdrive/c/DOCUME~1/mkwapisz/LOCALS~1/Temp/cc1OEM1Z.s 			page 226


 11884 30bb 57       		.byte	0x57
 11885 30bc 00000000 		.4byte	0x0
 11886 30c0 00000000 		.4byte	0x0
 11887              	.LLST354:
 11888 30c4 B8140000 		.4byte	.LVL748-.Ltext0
 11889 30c8 C4140000 		.4byte	.LVL750-.Ltext0
 11890 30cc 0100     		.2byte	0x1
 11891 30ce 54       		.byte	0x54
 11892 30cf 701C0000 		.4byte	.LVL1015-.Ltext0
 11893 30d3 801C0000 		.4byte	.LVL1018-.Ltext0
 11894 30d7 0100     		.2byte	0x1
 11895 30d9 54       		.byte	0x54
 11896 30da 00000000 		.4byte	0x0
 11897 30de 00000000 		.4byte	0x0
 11898              	.LLST355:
 11899 30e2 5C160000 		.4byte	.LVL819-.Ltext0
 11900 30e6 40190000 		.4byte	.LVL881-.Ltext0
 11901 30ea 0100     		.2byte	0x1
 11902 30ec 58       		.byte	0x58
 11903 30ed 781C0000 		.4byte	.LVL1017-.Ltext0
 11904 30f1 A81D0000 		.4byte	.LFE7-.Ltext0
 11905 30f5 0100     		.2byte	0x1
 11906 30f7 58       		.byte	0x58
 11907 30f8 00000000 		.4byte	0x0
 11908 30fc 00000000 		.4byte	0x0
 11909              	.LLST356:
 11910 3100 98140000 		.4byte	.LVL743-.Ltext0
 11911 3104 AC140000 		.4byte	.LVL746-.Ltext0
 11912 3108 0100     		.2byte	0x1
 11913 310a 54       		.byte	0x54
 11914 310b 881C0000 		.4byte	.LVL1020-.Ltext0
 11915 310f 941C0000 		.4byte	.LVL1022-.Ltext0
 11916 3113 0100     		.2byte	0x1
 11917 3115 54       		.byte	0x54
 11918 3116 00000000 		.4byte	0x0
 11919 311a 00000000 		.4byte	0x0
 11920              	.LLST357:
 11921 311e 801C0000 		.4byte	.LVL1018-.Ltext0
 11922 3122 841C0000 		.4byte	.LVL1019-.Ltext0
 11923 3126 0100     		.2byte	0x1
 11924 3128 54       		.byte	0x54
 11925 3129 841C0000 		.4byte	.LVL1019-.Ltext0
 11926 312d 941C0000 		.4byte	.LVL1021-.Ltext0
 11927 3131 0100     		.2byte	0x1
 11928 3133 51       		.byte	0x51
 11929 3134 00000000 		.4byte	0x0
 11930 3138 00000000 		.4byte	0x0
 11931              	.LLST358:
 11932 313c 9C1C0000 		.4byte	.LVL1024-.Ltext0
 11933 3140 A81C0000 		.4byte	.LVL1026-.Ltext0
 11934 3144 0100     		.2byte	0x1
 11935 3146 54       		.byte	0x54
 11936 3147 00000000 		.4byte	0x0
 11937 314b 00000000 		.4byte	0x0
 11938              	.LLST359:
 11939 314f 941C0000 		.4byte	.LVL1022-.Ltext0
 11940 3153 981C0000 		.4byte	.LVL1023-.Ltext0
ARM GAS  /cygdrive/c/DOCUME~1/mkwapisz/LOCALS~1/Temp/cc1OEM1Z.s 			page 227


 11941 3157 0100     		.2byte	0x1
 11942 3159 54       		.byte	0x54
 11943 315a 981C0000 		.4byte	.LVL1023-.Ltext0
 11944 315e A81C0000 		.4byte	.LVL1025-.Ltext0
 11945 3162 0100     		.2byte	0x1
 11946 3164 51       		.byte	0x51
 11947 3165 00000000 		.4byte	0x0
 11948 3169 00000000 		.4byte	0x0
 11949              	.LLST360:
 11950 316d B01C0000 		.4byte	.LVL1028-.Ltext0
 11951 3171 BC1C0000 		.4byte	.LVL1030-.Ltext0
 11952 3175 0100     		.2byte	0x1
 11953 3177 54       		.byte	0x54
 11954 3178 00000000 		.4byte	0x0
 11955 317c 00000000 		.4byte	0x0
 11956              	.LLST361:
 11957 3180 A81C0000 		.4byte	.LVL1026-.Ltext0
 11958 3184 AC1C0000 		.4byte	.LVL1027-.Ltext0
 11959 3188 0100     		.2byte	0x1
 11960 318a 54       		.byte	0x54
 11961 318b AC1C0000 		.4byte	.LVL1027-.Ltext0
 11962 318f BC1C0000 		.4byte	.LVL1029-.Ltext0
 11963 3193 0100     		.2byte	0x1
 11964 3195 51       		.byte	0x51
 11965 3196 00000000 		.4byte	0x0
 11966 319a 00000000 		.4byte	0x0
 11967              	.LLST362:
 11968 319e C41C0000 		.4byte	.LVL1032-.Ltext0
 11969 31a2 D01C0000 		.4byte	.LVL1034-.Ltext0
 11970 31a6 0100     		.2byte	0x1
 11971 31a8 54       		.byte	0x54
 11972 31a9 00000000 		.4byte	0x0
 11973 31ad 00000000 		.4byte	0x0
 11974              	.LLST363:
 11975 31b1 BC1C0000 		.4byte	.LVL1030-.Ltext0
 11976 31b5 C01C0000 		.4byte	.LVL1031-.Ltext0
 11977 31b9 0100     		.2byte	0x1
 11978 31bb 54       		.byte	0x54
 11979 31bc C01C0000 		.4byte	.LVL1031-.Ltext0
 11980 31c0 D01C0000 		.4byte	.LVL1033-.Ltext0
 11981 31c4 0100     		.2byte	0x1
 11982 31c6 51       		.byte	0x51
 11983 31c7 00000000 		.4byte	0x0
 11984 31cb 00000000 		.4byte	0x0
 11985              	.LLST364:
 11986 31cf D81C0000 		.4byte	.LVL1036-.Ltext0
 11987 31d3 E41C0000 		.4byte	.LVL1038-.Ltext0
 11988 31d7 0100     		.2byte	0x1
 11989 31d9 54       		.byte	0x54
 11990 31da 00000000 		.4byte	0x0
 11991 31de 00000000 		.4byte	0x0
 11992              	.LLST365:
 11993 31e2 D01C0000 		.4byte	.LVL1034-.Ltext0
 11994 31e6 D41C0000 		.4byte	.LVL1035-.Ltext0
 11995 31ea 0100     		.2byte	0x1
 11996 31ec 54       		.byte	0x54
 11997 31ed D41C0000 		.4byte	.LVL1035-.Ltext0
ARM GAS  /cygdrive/c/DOCUME~1/mkwapisz/LOCALS~1/Temp/cc1OEM1Z.s 			page 228


 11998 31f1 E41C0000 		.4byte	.LVL1037-.Ltext0
 11999 31f5 0100     		.2byte	0x1
 12000 31f7 51       		.byte	0x51
 12001 31f8 00000000 		.4byte	0x0
 12002 31fc 00000000 		.4byte	0x0
 12003              	.LLST366:
 12004 3200 90150000 		.4byte	.LVL780-.Ltext0
 12005 3204 90150000 		.4byte	.LVL780-.Ltext0
 12006 3208 0100     		.2byte	0x1
 12007 320a 54       		.byte	0x54
 12008 320b EC1C0000 		.4byte	.LVL1040-.Ltext0
 12009 320f F81C0000 		.4byte	.LVL1042-.Ltext0
 12010 3213 0100     		.2byte	0x1
 12011 3215 54       		.byte	0x54
 12012 3216 00000000 		.4byte	0x0
 12013 321a 00000000 		.4byte	0x0
 12014              	.LLST367:
 12015 321e E41C0000 		.4byte	.LVL1038-.Ltext0
 12016 3222 E81C0000 		.4byte	.LVL1039-.Ltext0
 12017 3226 0100     		.2byte	0x1
 12018 3228 54       		.byte	0x54
 12019 3229 E81C0000 		.4byte	.LVL1039-.Ltext0
 12020 322d F81C0000 		.4byte	.LVL1041-.Ltext0
 12021 3231 0100     		.2byte	0x1
 12022 3233 51       		.byte	0x51
 12023 3234 00000000 		.4byte	0x0
 12024 3238 00000000 		.4byte	0x0
 12025              	.LLST368:
 12026 323c 041D0000 		.4byte	.LVL1044-.Ltext0
 12027 3240 281D0000 		.4byte	.LVL1046-.Ltext0
 12028 3244 0100     		.2byte	0x1
 12029 3246 54       		.byte	0x54
 12030 3247 00000000 		.4byte	0x0
 12031 324b 00000000 		.4byte	0x0
 12032              	.LLST369:
 12033 324f F81C0000 		.4byte	.LVL1042-.Ltext0
 12034 3253 FC1C0000 		.4byte	.LVL1043-.Ltext0
 12035 3257 0100     		.2byte	0x1
 12036 3259 54       		.byte	0x54
 12037 325a FC1C0000 		.4byte	.LVL1043-.Ltext0
 12038 325e 0C1D0000 		.4byte	.LVL1045-.Ltext0
 12039 3262 0100     		.2byte	0x1
 12040 3264 51       		.byte	0x51
 12041 3265 00000000 		.4byte	0x0
 12042 3269 00000000 		.4byte	0x0
 12043              	.LLST370:
 12044 326d A81D0000 		.4byte	.LFB6-.Ltext0
 12045 3271 AC1D0000 		.4byte	.LCFI7-.Ltext0
 12046 3275 0100     		.2byte	0x1
 12047 3277 5D       		.byte	0x5d
 12048 3278 AC1D0000 		.4byte	.LCFI7-.Ltext0
 12049 327c B01D0000 		.4byte	.LCFI8-.Ltext0
 12050 3280 0200     		.2byte	0x2
 12051 3282 7D       		.byte	0x7d
 12052 3283 24       		.sleb128 36
 12053 3284 B01D0000 		.4byte	.LCFI8-.Ltext0
 12054 3288 90280000 		.4byte	.LFE6-.Ltext0
ARM GAS  /cygdrive/c/DOCUME~1/mkwapisz/LOCALS~1/Temp/cc1OEM1Z.s 			page 229


 12055 328c 0300     		.2byte	0x3
 12056 328e 7D       		.byte	0x7d
 12057 328f 8004     		.sleb128 512
 12058 3291 00000000 		.4byte	0x0
 12059 3295 00000000 		.4byte	0x0
 12060              	.LLST371:
 12061 3299 A81D0000 		.4byte	.LVL1052-.Ltext0
 12062 329d D41D0000 		.4byte	.LVL1055-.Ltext0
 12063 32a1 0100     		.2byte	0x1
 12064 32a3 50       		.byte	0x50
 12065 32a4 D41D0000 		.4byte	.LVL1055-.Ltext0
 12066 32a8 90280000 		.4byte	.LFE6-.Ltext0
 12067 32ac 0300     		.2byte	0x3
 12068 32ae 91       		.byte	0x91
 12069 32af BC7D     		.sleb128 -324
 12070 32b1 00000000 		.4byte	0x0
 12071 32b5 00000000 		.4byte	0x0
 12072              	.LLST372:
 12073 32b9 A81D0000 		.4byte	.LVL1052-.Ltext0
 12074 32bd D41D0000 		.4byte	.LVL1055-.Ltext0
 12075 32c1 0100     		.2byte	0x1
 12076 32c3 51       		.byte	0x51
 12077 32c4 D41D0000 		.4byte	.LVL1055-.Ltext0
 12078 32c8 90280000 		.4byte	.LFE6-.Ltext0
 12079 32cc 0300     		.2byte	0x3
 12080 32ce 91       		.byte	0x91
 12081 32cf B87D     		.sleb128 -328
 12082 32d1 00000000 		.4byte	0x0
 12083 32d5 00000000 		.4byte	0x0
 12084              	.LLST373:
 12085 32d9 A81D0000 		.4byte	.LVL1052-.Ltext0
 12086 32dd D41D0000 		.4byte	.LVL1055-.Ltext0
 12087 32e1 0100     		.2byte	0x1
 12088 32e3 52       		.byte	0x52
 12089 32e4 D41D0000 		.4byte	.LVL1055-.Ltext0
 12090 32e8 90280000 		.4byte	.LFE6-.Ltext0
 12091 32ec 0300     		.2byte	0x3
 12092 32ee 91       		.byte	0x91
 12093 32ef B47D     		.sleb128 -332
 12094 32f1 00000000 		.4byte	0x0
 12095 32f5 00000000 		.4byte	0x0
 12096              	.LLST374:
 12097 32f9 A81D0000 		.4byte	.LVL1052-.Ltext0
 12098 32fd B81D0000 		.4byte	.LVL1053-.Ltext0
 12099 3301 0100     		.2byte	0x1
 12100 3303 53       		.byte	0x53
 12101 3304 B81D0000 		.4byte	.LVL1053-.Ltext0
 12102 3308 90280000 		.4byte	.LFE6-.Ltext0
 12103 330c 0300     		.2byte	0x3
 12104 330e 91       		.byte	0x91
 12105 330f B07D     		.sleb128 -336
 12106 3311 00000000 		.4byte	0x0
 12107 3315 00000000 		.4byte	0x0
 12108              	.LLST375:
 12109 3319 44210000 		.4byte	.LVL1195-.Ltext0
 12110 331d 24240000 		.4byte	.LVL1256-.Ltext0
 12111 3321 0300     		.2byte	0x3
ARM GAS  /cygdrive/c/DOCUME~1/mkwapisz/LOCALS~1/Temp/cc1OEM1Z.s 			page 230


 12112 3323 91       		.byte	0x91
 12113 3324 F07E     		.sleb128 -144
 12114 3326 24240000 		.4byte	.LVL1256-.Ltext0
 12115 332a 2C240000 		.4byte	.LVL1258-.Ltext0
 12116 332e 0100     		.2byte	0x1
 12117 3330 50       		.byte	0x50
 12118 3331 00000000 		.4byte	0x0
 12119 3335 00000000 		.4byte	0x0
 12120              	.LLST376:
 12121 3339 64220000 		.4byte	.LVL1199-.Ltext0
 12122 333d 8C220000 		.4byte	.LVL1202-.Ltext0
 12123 3341 0100     		.2byte	0x1
 12124 3343 54       		.byte	0x54
 12125 3344 68230000 		.4byte	.LVL1230-.Ltext0
 12126 3348 6C230000 		.4byte	.LVL1231-.Ltext0
 12127 334c 0100     		.2byte	0x1
 12128 334e 54       		.byte	0x54
 12129 334f 80230000 		.4byte	.LVL1233-.Ltext0
 12130 3353 84230000 		.4byte	.LVL1234-.Ltext0
 12131 3357 0100     		.2byte	0x1
 12132 3359 54       		.byte	0x54
 12133 335a 98230000 		.4byte	.LVL1237-.Ltext0
 12134 335e 9C230000 		.4byte	.LVL1238-.Ltext0
 12135 3362 0100     		.2byte	0x1
 12136 3364 54       		.byte	0x54
 12137 3365 B0230000 		.4byte	.LVL1241-.Ltext0
 12138 3369 B4230000 		.4byte	.LVL1242-.Ltext0
 12139 336d 0100     		.2byte	0x1
 12140 336f 54       		.byte	0x54
 12141 3370 C8230000 		.4byte	.LVL1245-.Ltext0
 12142 3374 CC230000 		.4byte	.LVL1246-.Ltext0
 12143 3378 0100     		.2byte	0x1
 12144 337a 54       		.byte	0x54
 12145 337b E0230000 		.4byte	.LVL1249-.Ltext0
 12146 337f E4230000 		.4byte	.LVL1250-.Ltext0
 12147 3383 0100     		.2byte	0x1
 12148 3385 54       		.byte	0x54
 12149 3386 F4230000 		.4byte	.LVL1253-.Ltext0
 12150 338a FC230000 		.4byte	.LVL1254-.Ltext0
 12151 338e 0100     		.2byte	0x1
 12152 3390 54       		.byte	0x54
 12153 3391 44240000 		.4byte	.LVL1261-.Ltext0
 12154 3395 58240000 		.4byte	.LVL1262-.Ltext0
 12155 3399 0100     		.2byte	0x1
 12156 339b 54       		.byte	0x54
 12157 339c 00000000 		.4byte	0x0
 12158 33a0 00000000 		.4byte	0x0
 12159              	.LLST377:
 12160 33a4 88220000 		.4byte	.LVL1201-.Ltext0
 12161 33a8 38240000 		.4byte	.LVL1259-.Ltext0
 12162 33ac 0100     		.2byte	0x1
 12163 33ae 55       		.byte	0x55
 12164 33af 00000000 		.4byte	0x0
 12165 33b3 00000000 		.4byte	0x0
 12166              	.LLST378:
 12167 33b7 44210000 		.4byte	.LVL1195-.Ltext0
 12168 33bb 60270000 		.4byte	.LVL1392-.Ltext0
ARM GAS  /cygdrive/c/DOCUME~1/mkwapisz/LOCALS~1/Temp/cc1OEM1Z.s 			page 231


 12169 33bf 0300     		.2byte	0x3
 12170 33c1 91       		.byte	0x91
 12171 33c2 F47E     		.sleb128 -140
 12172 33c4 60270000 		.4byte	.LVL1392-.Ltext0
 12173 33c8 30280000 		.4byte	.LVL1424-.Ltext0
 12174 33cc 0100     		.2byte	0x1
 12175 33ce 55       		.byte	0x55
 12176 33cf 00000000 		.4byte	0x0
 12177 33d3 00000000 		.4byte	0x0
 12178              	.LLST379:
 12179 33d7 44210000 		.4byte	.LVL1195-.Ltext0
 12180 33db 8C240000 		.4byte	.LVL1271-.Ltext0
 12181 33df 0100     		.2byte	0x1
 12182 33e1 5A       		.byte	0x5a
 12183 33e2 F4240000 		.4byte	.LVL1290-.Ltext0
 12184 33e6 20250000 		.4byte	.LVL1298-.Ltext0
 12185 33ea 0100     		.2byte	0x1
 12186 33ec 5A       		.byte	0x5a
 12187 33ed 9C250000 		.4byte	.LVL1320-.Ltext0
 12188 33f1 90280000 		.4byte	.LFE6-.Ltext0
 12189 33f5 0100     		.2byte	0x1
 12190 33f7 5A       		.byte	0x5a
 12191 33f8 00000000 		.4byte	0x0
 12192 33fc 00000000 		.4byte	0x0
 12193              	.LLST380:
 12194 3400 44210000 		.4byte	.LVL1195-.Ltext0
 12195 3404 44210000 		.4byte	.LVL1195-.Ltext0
 12196 3408 0100     		.2byte	0x1
 12197 340a 59       		.byte	0x59
 12198 340b 44210000 		.4byte	.LVL1195-.Ltext0
 12199 340f 60230000 		.4byte	.LVL1229-.Ltext0
 12200 3413 0100     		.2byte	0x1
 12201 3415 5B       		.byte	0x5b
 12202 3416 58240000 		.4byte	.LVL1262-.Ltext0
 12203 341a 60240000 		.4byte	.LVL1263-.Ltext0
 12204 341e 0100     		.2byte	0x1
 12205 3420 54       		.byte	0x54
 12206 3421 70240000 		.4byte	.LVL1266-.Ltext0
 12207 3425 74240000 		.4byte	.LVL1267-.Ltext0
 12208 3429 0100     		.2byte	0x1
 12209 342b 54       		.byte	0x54
 12210 342c 84240000 		.4byte	.LVL1269-.Ltext0
 12211 3430 88240000 		.4byte	.LVL1270-.Ltext0
 12212 3434 0100     		.2byte	0x1
 12213 3436 54       		.byte	0x54
 12214 3437 9C240000 		.4byte	.LVL1273-.Ltext0
 12215 343b A0240000 		.4byte	.LVL1274-.Ltext0
 12216 343f 0100     		.2byte	0x1
 12217 3441 54       		.byte	0x54
 12218 3442 B0240000 		.4byte	.LVL1277-.Ltext0
 12219 3446 B4240000 		.4byte	.LVL1278-.Ltext0
 12220 344a 0100     		.2byte	0x1
 12221 344c 54       		.byte	0x54
 12222 344d C4240000 		.4byte	.LVL1281-.Ltext0
 12223 3451 C8240000 		.4byte	.LVL1282-.Ltext0
 12224 3455 0100     		.2byte	0x1
 12225 3457 54       		.byte	0x54
ARM GAS  /cygdrive/c/DOCUME~1/mkwapisz/LOCALS~1/Temp/cc1OEM1Z.s 			page 232


 12226 3458 D8240000 		.4byte	.LVL1284-.Ltext0
 12227 345c DC240000 		.4byte	.LVL1285-.Ltext0
 12228 3460 0100     		.2byte	0x1
 12229 3462 54       		.byte	0x54
 12230 3463 EC240000 		.4byte	.LVL1288-.Ltext0
 12231 3467 F0240000 		.4byte	.LVL1289-.Ltext0
 12232 346b 0100     		.2byte	0x1
 12233 346d 54       		.byte	0x54
 12234 346e F8240000 		.4byte	.LVL1291-.Ltext0
 12235 3472 08250000 		.4byte	.LVL1293-.Ltext0
 12236 3476 0100     		.2byte	0x1
 12237 3478 54       		.byte	0x54
 12238 3479 18250000 		.4byte	.LVL1296-.Ltext0
 12239 347d 1C250000 		.4byte	.LVL1297-.Ltext0
 12240 3481 0100     		.2byte	0x1
 12241 3483 54       		.byte	0x54
 12242 3484 30250000 		.4byte	.LVL1300-.Ltext0
 12243 3488 34250000 		.4byte	.LVL1301-.Ltext0
 12244 348c 0100     		.2byte	0x1
 12245 348e 54       		.byte	0x54
 12246 348f 44250000 		.4byte	.LVL1304-.Ltext0
 12247 3493 48250000 		.4byte	.LVL1305-.Ltext0
 12248 3497 0100     		.2byte	0x1
 12249 3499 54       		.byte	0x54
 12250 349a 58250000 		.4byte	.LVL1307-.Ltext0
 12251 349e 5C250000 		.4byte	.LVL1308-.Ltext0
 12252 34a2 0100     		.2byte	0x1
 12253 34a4 54       		.byte	0x54
 12254 34a5 6C250000 		.4byte	.LVL1311-.Ltext0
 12255 34a9 70250000 		.4byte	.LVL1312-.Ltext0
 12256 34ad 0100     		.2byte	0x1
 12257 34af 54       		.byte	0x54
 12258 34b0 7C250000 		.4byte	.LVL1315-.Ltext0
 12259 34b4 84250000 		.4byte	.LVL1316-.Ltext0
 12260 34b8 0100     		.2byte	0x1
 12261 34ba 54       		.byte	0x54
 12262 34bb C4250000 		.4byte	.LVL1323-.Ltext0
 12263 34bf D0250000 		.4byte	.LVL1324-.Ltext0
 12264 34c3 0100     		.2byte	0x1
 12265 34c5 54       		.byte	0x54
 12266 34c6 E4250000 		.4byte	.LVL1328-.Ltext0
 12267 34ca E8250000 		.4byte	.LVL1329-.Ltext0
 12268 34ce 0100     		.2byte	0x1
 12269 34d0 54       		.byte	0x54
 12270 34d1 F8250000 		.4byte	.LVL1331-.Ltext0
 12271 34d5 FC250000 		.4byte	.LVL1332-.Ltext0
 12272 34d9 0100     		.2byte	0x1
 12273 34db 54       		.byte	0x54
 12274 34dc 0C260000 		.4byte	.LVL1335-.Ltext0
 12275 34e0 10260000 		.4byte	.LVL1336-.Ltext0
 12276 34e4 0100     		.2byte	0x1
 12277 34e6 54       		.byte	0x54
 12278 34e7 20260000 		.4byte	.LVL1339-.Ltext0
 12279 34eb 24260000 		.4byte	.LVL1340-.Ltext0
 12280 34ef 0100     		.2byte	0x1
 12281 34f1 54       		.byte	0x54
 12282 34f2 34260000 		.4byte	.LVL1343-.Ltext0
ARM GAS  /cygdrive/c/DOCUME~1/mkwapisz/LOCALS~1/Temp/cc1OEM1Z.s 			page 233


 12283 34f6 38260000 		.4byte	.LVL1344-.Ltext0
 12284 34fa 0100     		.2byte	0x1
 12285 34fc 54       		.byte	0x54
 12286 34fd 48260000 		.4byte	.LVL1347-.Ltext0
 12287 3501 4C260000 		.4byte	.LVL1348-.Ltext0
 12288 3505 0100     		.2byte	0x1
 12289 3507 54       		.byte	0x54
 12290 3508 5C260000 		.4byte	.LVL1351-.Ltext0
 12291 350c 60260000 		.4byte	.LVL1352-.Ltext0
 12292 3510 0100     		.2byte	0x1
 12293 3512 54       		.byte	0x54
 12294 3513 68260000 		.4byte	.LVL1353-.Ltext0
 12295 3517 78260000 		.4byte	.LVL1356-.Ltext0
 12296 351b 0100     		.2byte	0x1
 12297 351d 54       		.byte	0x54
 12298 351e 8C260000 		.4byte	.LVL1360-.Ltext0
 12299 3522 90260000 		.4byte	.LVL1361-.Ltext0
 12300 3526 0100     		.2byte	0x1
 12301 3528 54       		.byte	0x54
 12302 3529 A0260000 		.4byte	.LVL1365-.Ltext0
 12303 352d A4260000 		.4byte	.LVL1366-.Ltext0
 12304 3531 0100     		.2byte	0x1
 12305 3533 54       		.byte	0x54
 12306 3534 B4260000 		.4byte	.LVL1369-.Ltext0
 12307 3538 B8260000 		.4byte	.LVL1370-.Ltext0
 12308 353c 0100     		.2byte	0x1
 12309 353e 54       		.byte	0x54
 12310 353f C8260000 		.4byte	.LVL1372-.Ltext0
 12311 3543 CC260000 		.4byte	.LVL1373-.Ltext0
 12312 3547 0100     		.2byte	0x1
 12313 3549 54       		.byte	0x54
 12314 354a DC260000 		.4byte	.LVL1376-.Ltext0
 12315 354e E0260000 		.4byte	.LVL1377-.Ltext0
 12316 3552 0100     		.2byte	0x1
 12317 3554 54       		.byte	0x54
 12318 3555 F0260000 		.4byte	.LVL1381-.Ltext0
 12319 3559 F4260000 		.4byte	.LVL1382-.Ltext0
 12320 355d 0100     		.2byte	0x1
 12321 355f 54       		.byte	0x54
 12322 3560 04270000 		.4byte	.LVL1385-.Ltext0
 12323 3564 08270000 		.4byte	.LVL1386-.Ltext0
 12324 3568 0100     		.2byte	0x1
 12325 356a 54       		.byte	0x54
 12326 356b 58270000 		.4byte	.LVL1390-.Ltext0
 12327 356f 58270000 		.4byte	.LVL1391-.Ltext0
 12328 3573 0100     		.2byte	0x1
 12329 3575 54       		.byte	0x54
 12330 3576 6C270000 		.4byte	.LVL1395-.Ltext0
 12331 357a 70270000 		.4byte	.LVL1396-.Ltext0
 12332 357e 0100     		.2byte	0x1
 12333 3580 54       		.byte	0x54
 12334 3581 80270000 		.4byte	.LVL1399-.Ltext0
 12335 3585 84270000 		.4byte	.LVL1400-.Ltext0
 12336 3589 0100     		.2byte	0x1
 12337 358b 54       		.byte	0x54
 12338 358c 94270000 		.4byte	.LVL1403-.Ltext0
 12339 3590 98270000 		.4byte	.LVL1404-.Ltext0
ARM GAS  /cygdrive/c/DOCUME~1/mkwapisz/LOCALS~1/Temp/cc1OEM1Z.s 			page 234


 12340 3594 0100     		.2byte	0x1
 12341 3596 54       		.byte	0x54
 12342 3597 A8270000 		.4byte	.LVL1407-.Ltext0
 12343 359b AC270000 		.4byte	.LVL1408-.Ltext0
 12344 359f 0100     		.2byte	0x1
 12345 35a1 54       		.byte	0x54
 12346 35a2 BC270000 		.4byte	.LVL1411-.Ltext0
 12347 35a6 C0270000 		.4byte	.LVL1412-.Ltext0
 12348 35aa 0100     		.2byte	0x1
 12349 35ac 54       		.byte	0x54
 12350 35ad D0270000 		.4byte	.LVL1415-.Ltext0
 12351 35b1 D4270000 		.4byte	.LVL1416-.Ltext0
 12352 35b5 0100     		.2byte	0x1
 12353 35b7 54       		.byte	0x54
 12354 35b8 E4270000 		.4byte	.LVL1419-.Ltext0
 12355 35bc EC270000 		.4byte	.LVL1420-.Ltext0
 12356 35c0 0100     		.2byte	0x1
 12357 35c2 54       		.byte	0x54
 12358 35c3 2C280000 		.4byte	.LVL1423-.Ltext0
 12359 35c7 90280000 		.4byte	.LFE6-.Ltext0
 12360 35cb 0100     		.2byte	0x1
 12361 35cd 59       		.byte	0x59
 12362 35ce 00000000 		.4byte	0x0
 12363 35d2 00000000 		.4byte	0x0
 12364              	.LLST381:
 12365 35d6 E41D0000 		.4byte	.LVL1059-.Ltext0
 12366 35da 041E0000 		.4byte	.LVL1061-.Ltext0
 12367 35de 0300     		.2byte	0x3
 12368 35e0 91       		.byte	0x91
 12369 35e1 FC7D     		.sleb128 -260
 12370 35e3 041E0000 		.4byte	.LVL1061-.Ltext0
 12371 35e7 501E0000 		.4byte	.LVL1076-.Ltext0
 12372 35eb 0300     		.2byte	0x3
 12373 35ed 91       		.byte	0x91
 12374 35ee 907E     		.sleb128 -240
 12375 35f0 501E0000 		.4byte	.LVL1076-.Ltext0
 12376 35f4 541E0000 		.4byte	.LVL1077-.Ltext0
 12377 35f8 0300     		.2byte	0x3
 12378 35fa 91       		.byte	0x91
 12379 35fb B87E     		.sleb128 -200
 12380 35fd 541E0000 		.4byte	.LVL1077-.Ltext0
 12381 3601 641E0000 		.4byte	.LVL1082-.Ltext0
 12382 3605 0300     		.2byte	0x3
 12383 3607 91       		.byte	0x91
 12384 3608 B47E     		.sleb128 -204
 12385 360a 641E0000 		.4byte	.LVL1082-.Ltext0
 12386 360e 841E0000 		.4byte	.LVL1088-.Ltext0
 12387 3612 0300     		.2byte	0x3
 12388 3614 91       		.byte	0x91
 12389 3615 9C7C     		.sleb128 -484
 12390 3617 841E0000 		.4byte	.LVL1088-.Ltext0
 12391 361b 8C1E0000 		.4byte	.LVL1089-.Ltext0
 12392 361f 0100     		.2byte	0x1
 12393 3621 52       		.byte	0x52
 12394 3622 8C1E0000 		.4byte	.LVL1089-.Ltext0
 12395 3626 941E0000 		.4byte	.LVL1090-.Ltext0
 12396 362a 0300     		.2byte	0x3
ARM GAS  /cygdrive/c/DOCUME~1/mkwapisz/LOCALS~1/Temp/cc1OEM1Z.s 			page 235


 12397 362c 91       		.byte	0x91
 12398 362d BC7E     		.sleb128 -196
 12399 362f 941E0000 		.4byte	.LVL1090-.Ltext0
 12400 3633 9C1E0000 		.4byte	.LVL1091-.Ltext0
 12401 3637 0300     		.2byte	0x3
 12402 3639 91       		.byte	0x91
 12403 363a C07E     		.sleb128 -192
 12404 363c 9C1E0000 		.4byte	.LVL1091-.Ltext0
 12405 3640 A41E0000 		.4byte	.LVL1092-.Ltext0
 12406 3644 0300     		.2byte	0x3
 12407 3646 91       		.byte	0x91
 12408 3647 947E     		.sleb128 -236
 12409 3649 A41E0000 		.4byte	.LVL1092-.Ltext0
 12410 364d B01E0000 		.4byte	.LVL1093-.Ltext0
 12411 3651 0300     		.2byte	0x3
 12412 3653 91       		.byte	0x91
 12413 3654 987E     		.sleb128 -232
 12414 3656 B01E0000 		.4byte	.LVL1093-.Ltext0
 12415 365a C01E0000 		.4byte	.LVL1094-.Ltext0
 12416 365e 0300     		.2byte	0x3
 12417 3660 91       		.byte	0x91
 12418 3661 C47E     		.sleb128 -188
 12419 3663 C01E0000 		.4byte	.LVL1094-.Ltext0
 12420 3667 C01E0000 		.4byte	.LVL1094-.Ltext0
 12421 366b 0100     		.2byte	0x1
 12422 366d 52       		.byte	0x52
 12423 366e D01E0000 		.4byte	.LVL1096-.Ltext0
 12424 3672 D41E0000 		.4byte	.LVL1097-.Ltext0
 12425 3676 0300     		.2byte	0x3
 12426 3678 91       		.byte	0x91
 12427 3679 9C7E     		.sleb128 -228
 12428 367b D41E0000 		.4byte	.LVL1097-.Ltext0
 12429 367f D81E0000 		.4byte	.LVL1098-.Ltext0
 12430 3683 0100     		.2byte	0x1
 12431 3685 53       		.byte	0x53
 12432 3686 D81E0000 		.4byte	.LVL1098-.Ltext0
 12433 368a D81E0000 		.4byte	.LVL1098-.Ltext0
 12434 368e 0100     		.2byte	0x1
 12435 3690 52       		.byte	0x52
 12436 3691 F01E0000 		.4byte	.LVL1099-.Ltext0
 12437 3695 001F0000 		.4byte	.LVL1100-.Ltext0
 12438 3699 0300     		.2byte	0x3
 12439 369b 91       		.byte	0x91
 12440 369c A07E     		.sleb128 -224
 12441 369e 001F0000 		.4byte	.LVL1100-.Ltext0
 12442 36a2 181F0000 		.4byte	.LVL1104-.Ltext0
 12443 36a6 0300     		.2byte	0x3
 12444 36a8 91       		.byte	0x91
 12445 36a9 A47E     		.sleb128 -220
 12446 36ab 301F0000 		.4byte	.LVL1106-.Ltext0
 12447 36af 341F0000 		.4byte	.LVL1107-.Ltext0
 12448 36b3 0300     		.2byte	0x3
 12449 36b5 91       		.byte	0x91
 12450 36b6 C87E     		.sleb128 -184
 12451 36b8 341F0000 		.4byte	.LVL1107-.Ltext0
 12452 36bc 381F0000 		.4byte	.LVL1108-.Ltext0
 12453 36c0 0300     		.2byte	0x3
ARM GAS  /cygdrive/c/DOCUME~1/mkwapisz/LOCALS~1/Temp/cc1OEM1Z.s 			page 236


 12454 36c2 91       		.byte	0x91
 12455 36c3 CC7E     		.sleb128 -180
 12456 36c5 381F0000 		.4byte	.LVL1108-.Ltext0
 12457 36c9 5C1F0000 		.4byte	.LVL1112-.Ltext0
 12458 36cd 0300     		.2byte	0x3
 12459 36cf 91       		.byte	0x91
 12460 36d0 9C7C     		.sleb128 -484
 12461 36d2 5C1F0000 		.4byte	.LVL1112-.Ltext0
 12462 36d6 701F0000 		.4byte	.LVL1115-.Ltext0
 12463 36da 0300     		.2byte	0x3
 12464 36dc 91       		.byte	0x91
 12465 36dd A87E     		.sleb128 -216
 12466 36df 701F0000 		.4byte	.LVL1115-.Ltext0
 12467 36e3 A01F0000 		.4byte	.LVL1123-.Ltext0
 12468 36e7 0100     		.2byte	0x1
 12469 36e9 59       		.byte	0x59
 12470 36ea A01F0000 		.4byte	.LVL1123-.Ltext0
 12471 36ee A41F0000 		.4byte	.LVL1125-.Ltext0
 12472 36f2 0300     		.2byte	0x3
 12473 36f4 91       		.byte	0x91
 12474 36f5 D07E     		.sleb128 -176
 12475 36f7 A41F0000 		.4byte	.LVL1125-.Ltext0
 12476 36fb B01F0000 		.4byte	.LVL1127-.Ltext0
 12477 36ff 0100     		.2byte	0x1
 12478 3701 58       		.byte	0x58
 12479 3702 B01F0000 		.4byte	.LVL1127-.Ltext0
 12480 3706 B01F0000 		.4byte	.LVL1127-.Ltext0
 12481 370a 0100     		.2byte	0x1
 12482 370c 52       		.byte	0x52
 12483 370d B41F0000 		.4byte	.LVL1128-.Ltext0
 12484 3711 B41F0000 		.4byte	.LVL1128-.Ltext0
 12485 3715 0100     		.2byte	0x1
 12486 3717 58       		.byte	0x58
 12487 3718 B81F0000 		.4byte	.LVL1129-.Ltext0
 12488 371c B81F0000 		.4byte	.LVL1129-.Ltext0
 12489 3720 0100     		.2byte	0x1
 12490 3722 59       		.byte	0x59
 12491 3723 C81F0000 		.4byte	.LVL1130-.Ltext0
 12492 3727 D01F0000 		.4byte	.LVL1131-.Ltext0
 12493 372b 0300     		.2byte	0x3
 12494 372d 91       		.byte	0x91
 12495 372e AC7E     		.sleb128 -212
 12496 3730 D01F0000 		.4byte	.LVL1131-.Ltext0
 12497 3734 D81F0000 		.4byte	.LVL1133-.Ltext0
 12498 3738 0100     		.2byte	0x1
 12499 373a 5A       		.byte	0x5a
 12500 373b D81F0000 		.4byte	.LVL1133-.Ltext0
 12501 373f D81F0000 		.4byte	.LVL1133-.Ltext0
 12502 3743 0100     		.2byte	0x1
 12503 3745 52       		.byte	0x52
 12504 3746 E81F0000 		.4byte	.LVL1134-.Ltext0
 12505 374a 04200000 		.4byte	.LVL1138-.Ltext0
 12506 374e 0100     		.2byte	0x1
 12507 3750 51       		.byte	0x51
 12508 3751 04200000 		.4byte	.LVL1138-.Ltext0
 12509 3755 18200000 		.4byte	.LVL1140-.Ltext0
 12510 3759 0300     		.2byte	0x3
ARM GAS  /cygdrive/c/DOCUME~1/mkwapisz/LOCALS~1/Temp/cc1OEM1Z.s 			page 237


 12511 375b 91       		.byte	0x91
 12512 375c 9C7C     		.sleb128 -484
 12513 375e 18200000 		.4byte	.LVL1140-.Ltext0
 12514 3762 18200000 		.4byte	.LVL1140-.Ltext0
 12515 3766 0100     		.2byte	0x1
 12516 3768 5A       		.byte	0x5a
 12517 3769 1C200000 		.4byte	.LVL1141-.Ltext0
 12518 376d 1C200000 		.4byte	.LVL1141-.Ltext0
 12519 3771 0100     		.2byte	0x1
 12520 3773 58       		.byte	0x58
 12521 3774 48200000 		.4byte	.LVL1146-.Ltext0
 12522 3778 60200000 		.4byte	.LVL1151-.Ltext0
 12523 377c 0300     		.2byte	0x3
 12524 377e 91       		.byte	0x91
 12525 377f B07E     		.sleb128 -208
 12526 3781 60200000 		.4byte	.LVL1151-.Ltext0
 12527 3785 64200000 		.4byte	.LVL1152-.Ltext0
 12528 3789 0100     		.2byte	0x1
 12529 378b 50       		.byte	0x50
 12530 378c 64200000 		.4byte	.LVL1152-.Ltext0
 12531 3790 94200000 		.4byte	.LVL1158-.Ltext0
 12532 3794 0100     		.2byte	0x1
 12533 3796 53       		.byte	0x53
 12534 3797 94200000 		.4byte	.LVL1158-.Ltext0
 12535 379b 94200000 		.4byte	.LVL1158-.Ltext0
 12536 379f 0100     		.2byte	0x1
 12537 37a1 5A       		.byte	0x5a
 12538 37a2 A4200000 		.4byte	.LVL1161-.Ltext0
 12539 37a6 AC200000 		.4byte	.LVL1162-.Ltext0
 12540 37aa 0300     		.2byte	0x3
 12541 37ac 91       		.byte	0x91
 12542 37ad 9C7C     		.sleb128 -484
 12543 37af AC200000 		.4byte	.LVL1162-.Ltext0
 12544 37b3 AC200000 		.4byte	.LVL1162-.Ltext0
 12545 37b7 0100     		.2byte	0x1
 12546 37b9 52       		.byte	0x52
 12547 37ba B4200000 		.4byte	.LVL1163-.Ltext0
 12548 37be B8200000 		.4byte	.LVL1164-.Ltext0
 12549 37c2 0100     		.2byte	0x1
 12550 37c4 52       		.byte	0x52
 12551 37c5 B8200000 		.4byte	.LVL1164-.Ltext0
 12552 37c9 B8200000 		.4byte	.LVL1164-.Ltext0
 12553 37cd 0100     		.2byte	0x1
 12554 37cf 58       		.byte	0x58
 12555 37d0 C4200000 		.4byte	.LVL1165-.Ltext0
 12556 37d4 C4200000 		.4byte	.LVL1165-.Ltext0
 12557 37d8 0100     		.2byte	0x1
 12558 37da 50       		.byte	0x50
 12559 37db C8200000 		.4byte	.LVL1166-.Ltext0
 12560 37df C8200000 		.4byte	.LVL1166-.Ltext0
 12561 37e3 0100     		.2byte	0x1
 12562 37e5 59       		.byte	0x59
 12563 37e6 CC200000 		.4byte	.LVL1167-.Ltext0
 12564 37ea CC200000 		.4byte	.LVL1167-.Ltext0
 12565 37ee 0100     		.2byte	0x1
 12566 37f0 51       		.byte	0x51
 12567 37f1 D4200000 		.4byte	.LVL1168-.Ltext0
ARM GAS  /cygdrive/c/DOCUME~1/mkwapisz/LOCALS~1/Temp/cc1OEM1Z.s 			page 238


 12568 37f5 F8200000 		.4byte	.LVL1179-.Ltext0
 12569 37f9 0100     		.2byte	0x1
 12570 37fb 5B       		.byte	0x5b
 12571 37fc F8200000 		.4byte	.LVL1179-.Ltext0
 12572 3800 FC200000 		.4byte	.LVL1181-.Ltext0
 12573 3804 0100     		.2byte	0x1
 12574 3806 5A       		.byte	0x5a
 12575 3807 FC200000 		.4byte	.LVL1181-.Ltext0
 12576 380b 00210000 		.4byte	.LVL1182-.Ltext0
 12577 380f 0100     		.2byte	0x1
 12578 3811 50       		.byte	0x50
 12579 3812 00210000 		.4byte	.LVL1182-.Ltext0
 12580 3816 04210000 		.4byte	.LVL1183-.Ltext0
 12581 381a 0100     		.2byte	0x1
 12582 381c 59       		.byte	0x59
 12583 381d 04210000 		.4byte	.LVL1183-.Ltext0
 12584 3821 04210000 		.4byte	.LVL1183-.Ltext0
 12585 3825 0100     		.2byte	0x1
 12586 3827 51       		.byte	0x51
 12587 3828 08210000 		.4byte	.LVL1184-.Ltext0
 12588 382c 08210000 		.4byte	.LVL1184-.Ltext0
 12589 3830 0100     		.2byte	0x1
 12590 3832 52       		.byte	0x52
 12591 3833 0C210000 		.4byte	.LVL1185-.Ltext0
 12592 3837 10210000 		.4byte	.LVL1186-.Ltext0
 12593 383b 0100     		.2byte	0x1
 12594 383d 53       		.byte	0x53
 12595 383e 2C280000 		.4byte	.LVL1423-.Ltext0
 12596 3842 6C280000 		.4byte	.LVL1425-.Ltext0
 12597 3846 0100     		.2byte	0x1
 12598 3848 5A       		.byte	0x5a
 12599 3849 6C280000 		.4byte	.LVL1425-.Ltext0
 12600 384d 6C280000 		.4byte	.LVL1425-.Ltext0
 12601 3851 0100     		.2byte	0x1
 12602 3853 59       		.byte	0x59
 12603 3854 6C280000 		.4byte	.LVL1425-.Ltext0
 12604 3858 6C280000 		.4byte	.LVL1425-.Ltext0
 12605 385c 0100     		.2byte	0x1
 12606 385e 53       		.byte	0x53
 12607 385f 6C280000 		.4byte	.LVL1425-.Ltext0
 12608 3863 74280000 		.4byte	.LVL1426-.Ltext0
 12609 3867 0100     		.2byte	0x1
 12610 3869 5B       		.byte	0x5b
 12611 386a 00000000 		.4byte	0x0
 12612 386e 00000000 		.4byte	0x0
 12613              	.LLST382:
 12614 3872 30210000 		.4byte	.LVL1190-.Ltext0
 12615 3876 34210000 		.4byte	.LVL1191-.Ltext0
 12616 387a 0300     		.2byte	0x3
 12617 387c 91       		.byte	0x91
 12618 387d 807E     		.sleb128 -256
 12619 387f 34210000 		.4byte	.LVL1191-.Ltext0
 12620 3883 38210000 		.4byte	.LVL1192-.Ltext0
 12621 3887 0300     		.2byte	0x3
 12622 3889 91       		.byte	0x91
 12623 388a 887E     		.sleb128 -248
 12624 388c 38210000 		.4byte	.LVL1192-.Ltext0
ARM GAS  /cygdrive/c/DOCUME~1/mkwapisz/LOCALS~1/Temp/cc1OEM1Z.s 			page 239


 12625 3890 3C210000 		.4byte	.LVL1193-.Ltext0
 12626 3894 0300     		.2byte	0x3
 12627 3896 91       		.byte	0x91
 12628 3897 8C7E     		.sleb128 -244
 12629 3899 3C210000 		.4byte	.LVL1193-.Ltext0
 12630 389d 90280000 		.4byte	.LFE6-.Ltext0
 12631 38a1 0300     		.2byte	0x3
 12632 38a3 91       		.byte	0x91
 12633 38a4 847E     		.sleb128 -252
 12634 38a6 00000000 		.4byte	0x0
 12635 38aa 00000000 		.4byte	0x0
 12636              	.LLST383:
 12637 38ae F01D0000 		.4byte	.LVL1060-.Ltext0
 12638 38b2 181E0000 		.4byte	.LVL1065-.Ltext0
 12639 38b6 0100     		.2byte	0x1
 12640 38b8 50       		.byte	0x50
 12641 38b9 C0220000 		.4byte	.LVL1209-.Ltext0
 12642 38bd D4220000 		.4byte	.LVL1211-.Ltext0
 12643 38c1 0100     		.2byte	0x1
 12644 38c3 54       		.byte	0x54
 12645 38c4 00000000 		.4byte	0x0
 12646 38c8 00000000 		.4byte	0x0
 12647              	.LLST384:
 12648 38cc D81D0000 		.4byte	.LVL1057-.Ltext0
 12649 38d0 DC1D0000 		.4byte	.LVL1058-.Ltext0
 12650 38d4 0100     		.2byte	0x1
 12651 38d6 50       		.byte	0x50
 12652 38d7 BC220000 		.4byte	.LVL1208-.Ltext0
 12653 38db C0220000 		.4byte	.LVL1209-.Ltext0
 12654 38df 0100     		.2byte	0x1
 12655 38e1 54       		.byte	0x54
 12656 38e2 C0220000 		.4byte	.LVL1209-.Ltext0
 12657 38e6 C8220000 		.4byte	.LVL1210-.Ltext0
 12658 38ea 0100     		.2byte	0x1
 12659 38ec 51       		.byte	0x51
 12660 38ed 00000000 		.4byte	0x0
 12661 38f1 00000000 		.4byte	0x0
 12662              	.LLST385:
 12663 38f5 A8220000 		.4byte	.LVL1206-.Ltext0
 12664 38f9 BC220000 		.4byte	.LVL1208-.Ltext0
 12665 38fd 0100     		.2byte	0x1
 12666 38ff 54       		.byte	0x54
 12667 3900 00000000 		.4byte	0x0
 12668 3904 00000000 		.4byte	0x0
 12669              	.LLST386:
 12670 3908 A4220000 		.4byte	.LVL1205-.Ltext0
 12671 390c A8220000 		.4byte	.LVL1206-.Ltext0
 12672 3910 0100     		.2byte	0x1
 12673 3912 54       		.byte	0x54
 12674 3913 A8220000 		.4byte	.LVL1206-.Ltext0
 12675 3917 B0220000 		.4byte	.LVL1207-.Ltext0
 12676 391b 0100     		.2byte	0x1
 12677 391d 51       		.byte	0x51
 12678 391e 00000000 		.4byte	0x0
 12679 3922 00000000 		.4byte	0x0
 12680              	.LLST387:
 12681 3926 901F0000 		.4byte	.LVL1121-.Ltext0
ARM GAS  /cygdrive/c/DOCUME~1/mkwapisz/LOCALS~1/Temp/cc1OEM1Z.s 			page 240


 12682 392a 901F0000 		.4byte	.LVL1121-.Ltext0
 12683 392e 0100     		.2byte	0x1
 12684 3930 50       		.byte	0x50
 12685 3931 84230000 		.4byte	.LVL1234-.Ltext0
 12686 3935 90230000 		.4byte	.LVL1236-.Ltext0
 12687 3939 0100     		.2byte	0x1
 12688 393b 54       		.byte	0x54
 12689 393c 00000000 		.4byte	0x0
 12690 3940 00000000 		.4byte	0x0
 12691              	.LLST388:
 12692 3944 7C1F0000 		.4byte	.LVL1118-.Ltext0
 12693 3948 801F0000 		.4byte	.LVL1119-.Ltext0
 12694 394c 0100     		.2byte	0x1
 12695 394e 54       		.byte	0x54
 12696 394f 78230000 		.4byte	.LVL1232-.Ltext0
 12697 3953 80230000 		.4byte	.LVL1233-.Ltext0
 12698 3957 0100     		.2byte	0x1
 12699 3959 54       		.byte	0x54
 12700 395a 80230000 		.4byte	.LVL1233-.Ltext0
 12701 395e 8C230000 		.4byte	.LVL1235-.Ltext0
 12702 3962 0100     		.2byte	0x1
 12703 3964 51       		.byte	0x51
 12704 3965 00000000 		.4byte	0x0
 12705 3969 00000000 		.4byte	0x0
 12706              	.LLST389:
 12707 396d C41E0000 		.4byte	.LVL1095-.Ltext0
 12708 3971 041F0000 		.4byte	.LVL1101-.Ltext0
 12709 3975 0100     		.2byte	0x1
 12710 3977 54       		.byte	0x54
 12711 3978 20230000 		.4byte	.LVL1221-.Ltext0
 12712 397c 34230000 		.4byte	.LVL1223-.Ltext0
 12713 3980 0100     		.2byte	0x1
 12714 3982 54       		.byte	0x54
 12715 3983 00000000 		.4byte	0x0
 12716 3987 00000000 		.4byte	0x0
 12717              	.LLST390:
 12718 398b 6C1E0000 		.4byte	.LVL1085-.Ltext0
 12719 398f 701E0000 		.4byte	.LVL1086-.Ltext0
 12720 3993 0100     		.2byte	0x1
 12721 3995 50       		.byte	0x50
 12722 3996 1C230000 		.4byte	.LVL1220-.Ltext0
 12723 399a 20230000 		.4byte	.LVL1221-.Ltext0
 12724 399e 0100     		.2byte	0x1
 12725 39a0 54       		.byte	0x54
 12726 39a1 20230000 		.4byte	.LVL1221-.Ltext0
 12727 39a5 28230000 		.4byte	.LVL1222-.Ltext0
 12728 39a9 0100     		.2byte	0x1
 12729 39ab 51       		.byte	0x51
 12730 39ac 00000000 		.4byte	0x0
 12731 39b0 00000000 		.4byte	0x0
 12732              	.LLST391:
 12733 39b4 38230000 		.4byte	.LVL1224-.Ltext0
 12734 39b8 48230000 		.4byte	.LVL1226-.Ltext0
 12735 39bc 0100     		.2byte	0x1
 12736 39be 54       		.byte	0x54
 12737 39bf 00000000 		.4byte	0x0
 12738 39c3 00000000 		.4byte	0x0
ARM GAS  /cygdrive/c/DOCUME~1/mkwapisz/LOCALS~1/Temp/cc1OEM1Z.s 			page 241


 12739              	.LLST392:
 12740 39c7 34230000 		.4byte	.LVL1223-.Ltext0
 12741 39cb 38230000 		.4byte	.LVL1224-.Ltext0
 12742 39cf 0100     		.2byte	0x1
 12743 39d1 54       		.byte	0x54
 12744 39d2 38230000 		.4byte	.LVL1224-.Ltext0
 12745 39d6 40230000 		.4byte	.LVL1225-.Ltext0
 12746 39da 0100     		.2byte	0x1
 12747 39dc 51       		.byte	0x51
 12748 39dd 00000000 		.4byte	0x0
 12749 39e1 00000000 		.4byte	0x0
 12750              	.LLST393:
 12751 39e5 481E0000 		.4byte	.LVL1075-.Ltext0
 12752 39e9 481E0000 		.4byte	.LVL1075-.Ltext0
 12753 39ed 0100     		.2byte	0x1
 12754 39ef 50       		.byte	0x50
 12755 39f0 F0220000 		.4byte	.LVL1215-.Ltext0
 12756 39f4 04230000 		.4byte	.LVL1217-.Ltext0
 12757 39f8 0100     		.2byte	0x1
 12758 39fa 54       		.byte	0x54
 12759 39fb 00000000 		.4byte	0x0
 12760 39ff 00000000 		.4byte	0x0
 12761              	.LLST394:
 12762 3a03 441E0000 		.4byte	.LVL1074-.Ltext0
 12763 3a07 781E0000 		.4byte	.LVL1087-.Ltext0
 12764 3a0b 0100     		.2byte	0x1
 12765 3a0d 54       		.byte	0x54
 12766 3a0e EC220000 		.4byte	.LVL1214-.Ltext0
 12767 3a12 F0220000 		.4byte	.LVL1215-.Ltext0
 12768 3a16 0100     		.2byte	0x1
 12769 3a18 54       		.byte	0x54
 12770 3a19 F0220000 		.4byte	.LVL1215-.Ltext0
 12771 3a1d F8220000 		.4byte	.LVL1216-.Ltext0
 12772 3a21 0100     		.2byte	0x1
 12773 3a23 51       		.byte	0x51
 12774 3a24 00000000 		.4byte	0x0
 12775 3a28 00000000 		.4byte	0x0
 12776              	.LLST395:
 12777 3a2c 08230000 		.4byte	.LVL1218-.Ltext0
 12778 3a30 1C230000 		.4byte	.LVL1220-.Ltext0
 12779 3a34 0100     		.2byte	0x1
 12780 3a36 54       		.byte	0x54
 12781 3a37 00000000 		.4byte	0x0
 12782 3a3b 00000000 		.4byte	0x0
 12783              	.LLST396:
 12784 3a3f 04230000 		.4byte	.LVL1217-.Ltext0
 12785 3a43 08230000 		.4byte	.LVL1218-.Ltext0
 12786 3a47 0100     		.2byte	0x1
 12787 3a49 54       		.byte	0x54
 12788 3a4a 08230000 		.4byte	.LVL1218-.Ltext0
 12789 3a4e 10230000 		.4byte	.LVL1219-.Ltext0
 12790 3a52 0100     		.2byte	0x1
 12791 3a54 51       		.byte	0x51
 12792 3a55 00000000 		.4byte	0x0
 12793 3a59 00000000 		.4byte	0x0
 12794              	.LLST397:
 12795 3a5d D8220000 		.4byte	.LVL1212-.Ltext0
ARM GAS  /cygdrive/c/DOCUME~1/mkwapisz/LOCALS~1/Temp/cc1OEM1Z.s 			page 242


 12796 3a61 EC220000 		.4byte	.LVL1214-.Ltext0
 12797 3a65 0100     		.2byte	0x1
 12798 3a67 54       		.byte	0x54
 12799 3a68 00000000 		.4byte	0x0
 12800 3a6c 00000000 		.4byte	0x0
 12801              	.LLST398:
 12802 3a70 D4220000 		.4byte	.LVL1211-.Ltext0
 12803 3a74 D8220000 		.4byte	.LVL1212-.Ltext0
 12804 3a78 0100     		.2byte	0x1
 12805 3a7a 54       		.byte	0x54
 12806 3a7b D8220000 		.4byte	.LVL1212-.Ltext0
 12807 3a7f E0220000 		.4byte	.LVL1213-.Ltext0
 12808 3a83 0100     		.2byte	0x1
 12809 3a85 51       		.byte	0x51
 12810 3a86 00000000 		.4byte	0x0
 12811 3a8a 00000000 		.4byte	0x0
 12812              	.LLST399:
 12813 3a8e 481F0000 		.4byte	.LVL1110-.Ltext0
 12814 3a92 4C1F0000 		.4byte	.LVL1111-.Ltext0
 12815 3a96 0100     		.2byte	0x1
 12816 3a98 54       		.byte	0x54
 12817 3a99 6C230000 		.4byte	.LVL1231-.Ltext0
 12818 3a9d 78230000 		.4byte	.LVL1232-.Ltext0
 12819 3aa1 0100     		.2byte	0x1
 12820 3aa3 54       		.byte	0x54
 12821 3aa4 00000000 		.4byte	0x0
 12822 3aa8 00000000 		.4byte	0x0
 12823              	.LLST400:
 12824 3aac 181F0000 		.4byte	.LVL1105-.Ltext0
 12825 3ab0 481F0000 		.4byte	.LVL1109-.Ltext0
 12826 3ab4 0100     		.2byte	0x1
 12827 3ab6 58       		.byte	0x58
 12828 3ab7 60230000 		.4byte	.LVL1229-.Ltext0
 12829 3abb 78240000 		.4byte	.LVL1268-.Ltext0
 12830 3abf 0100     		.2byte	0x1
 12831 3ac1 59       		.byte	0x59
 12832 3ac2 00000000 		.4byte	0x0
 12833 3ac6 00000000 		.4byte	0x0
 12834              	.LLST401:
 12835 3aca 9C230000 		.4byte	.LVL1238-.Ltext0
 12836 3ace A8230000 		.4byte	.LVL1240-.Ltext0
 12837 3ad2 0100     		.2byte	0x1
 12838 3ad4 54       		.byte	0x54
 12839 3ad5 00000000 		.4byte	0x0
 12840 3ad9 00000000 		.4byte	0x0
 12841              	.LLST402:
 12842 3add 90230000 		.4byte	.LVL1236-.Ltext0
 12843 3ae1 98230000 		.4byte	.LVL1237-.Ltext0
 12844 3ae5 0100     		.2byte	0x1
 12845 3ae7 54       		.byte	0x54
 12846 3ae8 98230000 		.4byte	.LVL1237-.Ltext0
 12847 3aec A4230000 		.4byte	.LVL1239-.Ltext0
 12848 3af0 0100     		.2byte	0x1
 12849 3af2 51       		.byte	0x51
 12850 3af3 00000000 		.4byte	0x0
 12851 3af7 00000000 		.4byte	0x0
 12852              	.LLST403:
ARM GAS  /cygdrive/c/DOCUME~1/mkwapisz/LOCALS~1/Temp/cc1OEM1Z.s 			page 243


 12853 3afb 20200000 		.4byte	.LVL1142-.Ltext0
 12854 3aff 44200000 		.4byte	.LVL1145-.Ltext0
 12855 3b03 0100     		.2byte	0x1
 12856 3b05 54       		.byte	0x54
 12857 3b06 B4230000 		.4byte	.LVL1242-.Ltext0
 12858 3b0a C0230000 		.4byte	.LVL1244-.Ltext0
 12859 3b0e 0100     		.2byte	0x1
 12860 3b10 54       		.byte	0x54
 12861 3b11 00000000 		.4byte	0x0
 12862 3b15 00000000 		.4byte	0x0
 12863              	.LLST404:
 12864 3b19 FC1F0000 		.4byte	.LVL1137-.Ltext0
 12865 3b1d 04200000 		.4byte	.LVL1139-.Ltext0
 12866 3b21 0100     		.2byte	0x1
 12867 3b23 50       		.byte	0x50
 12868 3b24 A8230000 		.4byte	.LVL1240-.Ltext0
 12869 3b28 B0230000 		.4byte	.LVL1241-.Ltext0
 12870 3b2c 0100     		.2byte	0x1
 12871 3b2e 54       		.byte	0x54
 12872 3b2f B0230000 		.4byte	.LVL1241-.Ltext0
 12873 3b33 BC230000 		.4byte	.LVL1243-.Ltext0
 12874 3b37 0100     		.2byte	0x1
 12875 3b39 51       		.byte	0x51
 12876 3b3a 00000000 		.4byte	0x0
 12877 3b3e 00000000 		.4byte	0x0
 12878              	.LLST405:
 12879 3b42 CC230000 		.4byte	.LVL1246-.Ltext0
 12880 3b46 D8230000 		.4byte	.LVL1248-.Ltext0
 12881 3b4a 0100     		.2byte	0x1
 12882 3b4c 54       		.byte	0x54
 12883 3b4d 00000000 		.4byte	0x0
 12884 3b51 00000000 		.4byte	0x0
 12885              	.LLST406:
 12886 3b55 C0230000 		.4byte	.LVL1244-.Ltext0
 12887 3b59 C8230000 		.4byte	.LVL1245-.Ltext0
 12888 3b5d 0100     		.2byte	0x1
 12889 3b5f 54       		.byte	0x54
 12890 3b60 C8230000 		.4byte	.LVL1245-.Ltext0
 12891 3b64 D4230000 		.4byte	.LVL1247-.Ltext0
 12892 3b68 0100     		.2byte	0x1
 12893 3b6a 51       		.byte	0x51
 12894 3b6b 00000000 		.4byte	0x0
 12895 3b6f 00000000 		.4byte	0x0
 12896              	.LLST407:
 12897 3b73 D8200000 		.4byte	.LVL1171-.Ltext0
 12898 3b77 D8200000 		.4byte	.LVL1171-.Ltext0
 12899 3b7b 0100     		.2byte	0x1
 12900 3b7d 5E       		.byte	0x5e
 12901 3b7e E4230000 		.4byte	.LVL1250-.Ltext0
 12902 3b82 F0230000 		.4byte	.LVL1252-.Ltext0
 12903 3b86 0100     		.2byte	0x1
 12904 3b88 54       		.byte	0x54
 12905 3b89 00000000 		.4byte	0x0
 12906 3b8d 00000000 		.4byte	0x0
 12907              	.LLST408:
 12908 3b91 7C200000 		.4byte	.LVL1157-.Ltext0
 12909 3b95 98200000 		.4byte	.LVL1159-.Ltext0
ARM GAS  /cygdrive/c/DOCUME~1/mkwapisz/LOCALS~1/Temp/cc1OEM1Z.s 			page 244


 12910 3b99 0100     		.2byte	0x1
 12911 3b9b 54       		.byte	0x54
 12912 3b9c D8230000 		.4byte	.LVL1248-.Ltext0
 12913 3ba0 E0230000 		.4byte	.LVL1249-.Ltext0
 12914 3ba4 0100     		.2byte	0x1
 12915 3ba6 54       		.byte	0x54
 12916 3ba7 E0230000 		.4byte	.LVL1249-.Ltext0
 12917 3bab EC230000 		.4byte	.LVL1251-.Ltext0
 12918 3baf 0100     		.2byte	0x1
 12919 3bb1 51       		.byte	0x51
 12920 3bb2 00000000 		.4byte	0x0
 12921 3bb6 00000000 		.4byte	0x0
 12922              	.LLST409:
 12923 3bba FC230000 		.4byte	.LVL1254-.Ltext0
 12924 3bbe 44240000 		.4byte	.LVL1261-.Ltext0
 12925 3bc2 0100     		.2byte	0x1
 12926 3bc4 54       		.byte	0x54
 12927 3bc5 00000000 		.4byte	0x0
 12928 3bc9 00000000 		.4byte	0x0
 12929              	.LLST410:
 12930 3bcd F0230000 		.4byte	.LVL1252-.Ltext0
 12931 3bd1 F4230000 		.4byte	.LVL1253-.Ltext0
 12932 3bd5 0100     		.2byte	0x1
 12933 3bd7 54       		.byte	0x54
 12934 3bd8 F4230000 		.4byte	.LVL1253-.Ltext0
 12935 3bdc 04240000 		.4byte	.LVL1255-.Ltext0
 12936 3be0 0100     		.2byte	0x1
 12937 3be2 51       		.byte	0x51
 12938 3be3 00000000 		.4byte	0x0
 12939 3be7 00000000 		.4byte	0x0
 12940              	.LLST411:
 12941 3beb DC1D0000 		.4byte	.LVL1058-.Ltext0
 12942 3bef DC1D0000 		.4byte	.LVL1058-.Ltext0
 12943 3bf3 0100     		.2byte	0x1
 12944 3bf5 50       		.byte	0x50
 12945 3bf6 90220000 		.4byte	.LVL1203-.Ltext0
 12946 3bfa A4220000 		.4byte	.LVL1205-.Ltext0
 12947 3bfe 0100     		.2byte	0x1
 12948 3c00 54       		.byte	0x54
 12949 3c01 00000000 		.4byte	0x0
 12950 3c05 00000000 		.4byte	0x0
 12951              	.LLST412:
 12952 3c09 D41D0000 		.4byte	.LVL1056-.Ltext0
 12953 3c0d 141E0000 		.4byte	.LVL1064-.Ltext0
 12954 3c11 0100     		.2byte	0x1
 12955 3c13 54       		.byte	0x54
 12956 3c14 8C220000 		.4byte	.LVL1202-.Ltext0
 12957 3c18 90220000 		.4byte	.LVL1203-.Ltext0
 12958 3c1c 0100     		.2byte	0x1
 12959 3c1e 54       		.byte	0x54
 12960 3c1f 90220000 		.4byte	.LVL1203-.Ltext0
 12961 3c23 98220000 		.4byte	.LVL1204-.Ltext0
 12962 3c27 0100     		.2byte	0x1
 12963 3c29 51       		.byte	0x51
 12964 3c2a 00000000 		.4byte	0x0
 12965 3c2e 00000000 		.4byte	0x0
 12966              	.LLST413:
ARM GAS  /cygdrive/c/DOCUME~1/mkwapisz/LOCALS~1/Temp/cc1OEM1Z.s 			page 245


 12967 3c32 4C1F0000 		.4byte	.LVL1111-.Ltext0
 12968 3c36 4C1F0000 		.4byte	.LVL1111-.Ltext0
 12969 3c3a 0100     		.2byte	0x1
 12970 3c3c 54       		.byte	0x54
 12971 3c3d 50230000 		.4byte	.LVL1227-.Ltext0
 12972 3c41 68230000 		.4byte	.LVL1230-.Ltext0
 12973 3c45 0100     		.2byte	0x1
 12974 3c47 54       		.byte	0x54
 12975 3c48 00000000 		.4byte	0x0
 12976 3c4c 00000000 		.4byte	0x0
 12977              	.LLST414:
 12978 3c50 041F0000 		.4byte	.LVL1101-.Ltext0
 12979 3c54 081F0000 		.4byte	.LVL1102-.Ltext0
 12980 3c58 0100     		.2byte	0x1
 12981 3c5a 54       		.byte	0x54
 12982 3c5b 48230000 		.4byte	.LVL1226-.Ltext0
 12983 3c5f 50230000 		.4byte	.LVL1227-.Ltext0
 12984 3c63 0100     		.2byte	0x1
 12985 3c65 54       		.byte	0x54
 12986 3c66 50230000 		.4byte	.LVL1227-.Ltext0
 12987 3c6a 5C230000 		.4byte	.LVL1228-.Ltext0
 12988 3c6e 0100     		.2byte	0x1
 12989 3c70 51       		.byte	0x51
 12990 3c71 00000000 		.4byte	0x0
 12991 3c75 00000000 		.4byte	0x0
 12992              	.LLST415:
 12993 3c79 64240000 		.4byte	.LVL1264-.Ltext0
 12994 3c7d 70240000 		.4byte	.LVL1266-.Ltext0
 12995 3c81 0100     		.2byte	0x1
 12996 3c83 54       		.byte	0x54
 12997 3c84 00000000 		.4byte	0x0
 12998 3c88 00000000 		.4byte	0x0
 12999              	.LLST416:
 13000 3c8c 60240000 		.4byte	.LVL1263-.Ltext0
 13001 3c90 64240000 		.4byte	.LVL1264-.Ltext0
 13002 3c94 0100     		.2byte	0x1
 13003 3c96 54       		.byte	0x54
 13004 3c97 64240000 		.4byte	.LVL1264-.Ltext0
 13005 3c9b 6C240000 		.4byte	.LVL1265-.Ltext0
 13006 3c9f 0100     		.2byte	0x1
 13007 3ca1 51       		.byte	0x51
 13008 3ca2 00000000 		.4byte	0x0
 13009 3ca6 00000000 		.4byte	0x0
 13010              	.LLST417:
 13011 3caa 181E0000 		.4byte	.LVL1065-.Ltext0
 13012 3cae 341E0000 		.4byte	.LVL1072-.Ltext0
 13013 3cb2 0100     		.2byte	0x1
 13014 3cb4 50       		.byte	0x50
 13015 3cb5 74240000 		.4byte	.LVL1267-.Ltext0
 13016 3cb9 84240000 		.4byte	.LVL1269-.Ltext0
 13017 3cbd 0100     		.2byte	0x1
 13018 3cbf 54       		.byte	0x54
 13019 3cc0 00000000 		.4byte	0x0
 13020 3cc4 00000000 		.4byte	0x0
 13021              	.LLST418:
 13022 3cc8 041E0000 		.4byte	.LVL1062-.Ltext0
 13023 3ccc 081E0000 		.4byte	.LVL1063-.Ltext0
ARM GAS  /cygdrive/c/DOCUME~1/mkwapisz/LOCALS~1/Temp/cc1OEM1Z.s 			page 246


 13024 3cd0 0100     		.2byte	0x1
 13025 3cd2 59       		.byte	0x59
 13026 3cd3 44210000 		.4byte	.LVL1195-.Ltext0
 13027 3cd7 A8210000 		.4byte	.LVL1197-.Ltext0
 13028 3cdb 0100     		.2byte	0x1
 13029 3cdd 59       		.byte	0x59
 13030 3cde 54220000 		.4byte	.LVL1198-.Ltext0
 13031 3ce2 80220000 		.4byte	.LVL1200-.Ltext0
 13032 3ce6 0100     		.2byte	0x1
 13033 3ce8 59       		.byte	0x59
 13034 3ce9 78240000 		.4byte	.LVL1268-.Ltext0
 13035 3ced 90280000 		.4byte	.LFE6-.Ltext0
 13036 3cf1 0100     		.2byte	0x1
 13037 3cf3 59       		.byte	0x59
 13038 3cf4 00000000 		.4byte	0x0
 13039 3cf8 00000000 		.4byte	0x0
 13040              	.LLST419:
 13041 3cfc 241E0000 		.4byte	.LVL1070-.Ltext0
 13042 3d00 281E0000 		.4byte	.LVL1071-.Ltext0
 13043 3d04 0100     		.2byte	0x1
 13044 3d06 51       		.byte	0x51
 13045 3d07 88240000 		.4byte	.LVL1270-.Ltext0
 13046 3d0b 94240000 		.4byte	.LVL1272-.Ltext0
 13047 3d0f 0100     		.2byte	0x1
 13048 3d11 54       		.byte	0x54
 13049 3d12 00000000 		.4byte	0x0
 13050 3d16 00000000 		.4byte	0x0
 13051              	.LLST420:
 13052 3d1a 1C1E0000 		.4byte	.LVL1066-.Ltext0
 13053 3d1e 201E0000 		.4byte	.LVL1067-.Ltext0
 13054 3d22 0100     		.2byte	0x1
 13055 3d24 5A       		.byte	0x5a
 13056 3d25 8C240000 		.4byte	.LVL1271-.Ltext0
 13057 3d29 F4240000 		.4byte	.LVL1290-.Ltext0
 13058 3d2d 0100     		.2byte	0x1
 13059 3d2f 5A       		.byte	0x5a
 13060 3d30 00000000 		.4byte	0x0
 13061 3d34 00000000 		.4byte	0x0
 13062              	.LLST421:
 13063 3d38 141E0000 		.4byte	.LVL1064-.Ltext0
 13064 3d3c 141E0000 		.4byte	.LVL1064-.Ltext0
 13065 3d40 0100     		.2byte	0x1
 13066 3d42 51       		.byte	0x51
 13067 3d43 A0240000 		.4byte	.LVL1274-.Ltext0
 13068 3d47 A8240000 		.4byte	.LVL1276-.Ltext0
 13069 3d4b 0100     		.2byte	0x1
 13070 3d4d 54       		.byte	0x54
 13071 3d4e 00000000 		.4byte	0x0
 13072 3d52 00000000 		.4byte	0x0
 13073              	.LLST422:
 13074 3d56 94240000 		.4byte	.LVL1272-.Ltext0
 13075 3d5a 9C240000 		.4byte	.LVL1273-.Ltext0
 13076 3d5e 0100     		.2byte	0x1
 13077 3d60 54       		.byte	0x54
 13078 3d61 9C240000 		.4byte	.LVL1273-.Ltext0
 13079 3d65 A8240000 		.4byte	.LVL1275-.Ltext0
 13080 3d69 0100     		.2byte	0x1
ARM GAS  /cygdrive/c/DOCUME~1/mkwapisz/LOCALS~1/Temp/cc1OEM1Z.s 			page 247


 13081 3d6b 51       		.byte	0x51
 13082 3d6c 00000000 		.4byte	0x0
 13083 3d70 00000000 		.4byte	0x0
 13084              	.LLST423:
 13085 3d74 B4240000 		.4byte	.LVL1278-.Ltext0
 13086 3d78 C4240000 		.4byte	.LVL1281-.Ltext0
 13087 3d7c 0100     		.2byte	0x1
 13088 3d7e 54       		.byte	0x54
 13089 3d7f 00000000 		.4byte	0x0
 13090 3d83 00000000 		.4byte	0x0
 13091              	.LLST424:
 13092 3d87 A8240000 		.4byte	.LVL1276-.Ltext0
 13093 3d8b B0240000 		.4byte	.LVL1277-.Ltext0
 13094 3d8f 0100     		.2byte	0x1
 13095 3d91 54       		.byte	0x54
 13096 3d92 B0240000 		.4byte	.LVL1277-.Ltext0
 13097 3d96 BC240000 		.4byte	.LVL1279-.Ltext0
 13098 3d9a 0100     		.2byte	0x1
 13099 3d9c 51       		.byte	0x51
 13100 3d9d 00000000 		.4byte	0x0
 13101 3da1 00000000 		.4byte	0x0
 13102              	.LLST425:
 13103 3da5 641E0000 		.4byte	.LVL1083-.Ltext0
 13104 3da9 681E0000 		.4byte	.LVL1084-.Ltext0
 13105 3dad 0100     		.2byte	0x1
 13106 3daf 50       		.byte	0x50
 13107 3db0 C8240000 		.4byte	.LVL1282-.Ltext0
 13108 3db4 D0240000 		.4byte	.LVL1283-.Ltext0
 13109 3db8 0100     		.2byte	0x1
 13110 3dba 54       		.byte	0x54
 13111 3dbb 00000000 		.4byte	0x0
 13112 3dbf 00000000 		.4byte	0x0
 13113              	.LLST426:
 13114 3dc3 581E0000 		.4byte	.LVL1078-.Ltext0
 13115 3dc7 5C1E0000 		.4byte	.LVL1079-.Ltext0
 13116 3dcb 0100     		.2byte	0x1
 13117 3dcd 55       		.byte	0x55
 13118 3dce BC240000 		.4byte	.LVL1280-.Ltext0
 13119 3dd2 3C250000 		.4byte	.LVL1303-.Ltext0
 13120 3dd6 0100     		.2byte	0x1
 13121 3dd8 55       		.byte	0x55
 13122 3dd9 00000000 		.4byte	0x0
 13123 3ddd 00000000 		.4byte	0x0
 13124              	.LLST427:
 13125 3de1 DC240000 		.4byte	.LVL1285-.Ltext0
 13126 3de5 E8240000 		.4byte	.LVL1287-.Ltext0
 13127 3de9 0100     		.2byte	0x1
 13128 3deb 54       		.byte	0x54
 13129 3dec 00000000 		.4byte	0x0
 13130 3df0 00000000 		.4byte	0x0
 13131              	.LLST428:
 13132 3df4 D0240000 		.4byte	.LVL1283-.Ltext0
 13133 3df8 D8240000 		.4byte	.LVL1284-.Ltext0
 13134 3dfc 0100     		.2byte	0x1
 13135 3dfe 54       		.byte	0x54
 13136 3dff D8240000 		.4byte	.LVL1284-.Ltext0
 13137 3e03 E4240000 		.4byte	.LVL1286-.Ltext0
ARM GAS  /cygdrive/c/DOCUME~1/mkwapisz/LOCALS~1/Temp/cc1OEM1Z.s 			page 248


 13138 3e07 0100     		.2byte	0x1
 13139 3e09 51       		.byte	0x51
 13140 3e0a 00000000 		.4byte	0x0
 13141 3e0e 00000000 		.4byte	0x0
 13142              	.LLST429:
 13143 3e12 F0240000 		.4byte	.LVL1289-.Ltext0
 13144 3e16 F8240000 		.4byte	.LVL1291-.Ltext0
 13145 3e1a 0100     		.2byte	0x1
 13146 3e1c 54       		.byte	0x54
 13147 3e1d F8240000 		.4byte	.LVL1291-.Ltext0
 13148 3e21 00250000 		.4byte	.LVL1292-.Ltext0
 13149 3e25 0100     		.2byte	0x1
 13150 3e27 50       		.byte	0x50
 13151 3e28 00000000 		.4byte	0x0
 13152 3e2c 00000000 		.4byte	0x0
 13153              	.LLST430:
 13154 3e30 E8240000 		.4byte	.LVL1287-.Ltext0
 13155 3e34 EC240000 		.4byte	.LVL1288-.Ltext0
 13156 3e38 0100     		.2byte	0x1
 13157 3e3a 54       		.byte	0x54
 13158 3e3b EC240000 		.4byte	.LVL1288-.Ltext0
 13159 3e3f 00250000 		.4byte	.LVL1292-.Ltext0
 13160 3e43 0100     		.2byte	0x1
 13161 3e45 51       		.byte	0x51
 13162 3e46 00000000 		.4byte	0x0
 13163 3e4a 00000000 		.4byte	0x0
 13164              	.LLST431:
 13165 3e4e 681F0000 		.4byte	.LVL1114-.Ltext0
 13166 3e52 741F0000 		.4byte	.LVL1117-.Ltext0
 13167 3e56 0100     		.2byte	0x1
 13168 3e58 54       		.byte	0x54
 13169 3e59 0C250000 		.4byte	.LVL1294-.Ltext0
 13170 3e5d 18250000 		.4byte	.LVL1296-.Ltext0
 13171 3e61 0100     		.2byte	0x1
 13172 3e63 54       		.byte	0x54
 13173 3e64 00000000 		.4byte	0x0
 13174 3e68 00000000 		.4byte	0x0
 13175              	.LLST432:
 13176 3e6c 081F0000 		.4byte	.LVL1103-.Ltext0
 13177 3e70 481F0000 		.4byte	.LVL1110-.Ltext0
 13178 3e74 0100     		.2byte	0x1
 13179 3e76 54       		.byte	0x54
 13180 3e77 08250000 		.4byte	.LVL1293-.Ltext0
 13181 3e7b 0C250000 		.4byte	.LVL1294-.Ltext0
 13182 3e7f 0100     		.2byte	0x1
 13183 3e81 54       		.byte	0x54
 13184 3e82 0C250000 		.4byte	.LVL1294-.Ltext0
 13185 3e86 14250000 		.4byte	.LVL1295-.Ltext0
 13186 3e8a 0100     		.2byte	0x1
 13187 3e8c 51       		.byte	0x51
 13188 3e8d 00000000 		.4byte	0x0
 13189 3e91 00000000 		.4byte	0x0
 13190              	.LLST433:
 13191 3e95 641F0000 		.4byte	.LVL1113-.Ltext0
 13192 3e99 681F0000 		.4byte	.LVL1114-.Ltext0
 13193 3e9d 0100     		.2byte	0x1
 13194 3e9f 54       		.byte	0x54
ARM GAS  /cygdrive/c/DOCUME~1/mkwapisz/LOCALS~1/Temp/cc1OEM1Z.s 			page 249


 13195 3ea0 1C250000 		.4byte	.LVL1297-.Ltext0
 13196 3ea4 28250000 		.4byte	.LVL1299-.Ltext0
 13197 3ea8 0100     		.2byte	0x1
 13198 3eaa 54       		.byte	0x54
 13199 3eab 00000000 		.4byte	0x0
 13200 3eaf 00000000 		.4byte	0x0
 13201              	.LLST434:
 13202 3eb3 20250000 		.4byte	.LVL1298-.Ltext0
 13203 3eb7 9C250000 		.4byte	.LVL1320-.Ltext0
 13204 3ebb 0100     		.2byte	0x1
 13205 3ebd 5A       		.byte	0x5a
 13206 3ebe 00000000 		.4byte	0x0
 13207 3ec2 00000000 		.4byte	0x0
 13208              	.LLST435:
 13209 3ec6 D01F0000 		.4byte	.LVL1132-.Ltext0
 13210 3eca FC1F0000 		.4byte	.LVL1137-.Ltext0
 13211 3ece 0100     		.2byte	0x1
 13212 3ed0 50       		.byte	0x50
 13213 3ed1 34250000 		.4byte	.LVL1301-.Ltext0
 13214 3ed5 44250000 		.4byte	.LVL1304-.Ltext0
 13215 3ed9 0100     		.2byte	0x1
 13216 3edb 54       		.byte	0x54
 13217 3edc 00000000 		.4byte	0x0
 13218 3ee0 00000000 		.4byte	0x0
 13219              	.LLST436:
 13220 3ee4 881F0000 		.4byte	.LVL1120-.Ltext0
 13221 3ee8 901F0000 		.4byte	.LVL1121-.Ltext0
 13222 3eec 0100     		.2byte	0x1
 13223 3eee 50       		.byte	0x50
 13224 3eef 28250000 		.4byte	.LVL1299-.Ltext0
 13225 3ef3 30250000 		.4byte	.LVL1300-.Ltext0
 13226 3ef7 0100     		.2byte	0x1
 13227 3ef9 54       		.byte	0x54
 13228 3efa 30250000 		.4byte	.LVL1300-.Ltext0
 13229 3efe 3C250000 		.4byte	.LVL1302-.Ltext0
 13230 3f02 0100     		.2byte	0x1
 13231 3f04 51       		.byte	0x51
 13232 3f05 00000000 		.4byte	0x0
 13233 3f09 00000000 		.4byte	0x0
 13234              	.LLST437:
 13235 3f0d 04200000 		.4byte	.LVL1139-.Ltext0
 13236 3f11 28200000 		.4byte	.LVL1144-.Ltext0
 13237 3f15 0100     		.2byte	0x1
 13238 3f17 50       		.byte	0x50
 13239 3f18 48250000 		.4byte	.LVL1305-.Ltext0
 13240 3f1c 50250000 		.4byte	.LVL1306-.Ltext0
 13241 3f20 0100     		.2byte	0x1
 13242 3f22 54       		.byte	0x54
 13243 3f23 00000000 		.4byte	0x0
 13244 3f27 00000000 		.4byte	0x0
 13245              	.LLST438:
 13246 3f2b F81F0000 		.4byte	.LVL1135-.Ltext0
 13247 3f2f FC1F0000 		.4byte	.LVL1136-.Ltext0
 13248 3f33 0100     		.2byte	0x1
 13249 3f35 55       		.byte	0x55
 13250 3f36 3C250000 		.4byte	.LVL1303-.Ltext0
 13251 3f3a 94250000 		.4byte	.LVL1319-.Ltext0
ARM GAS  /cygdrive/c/DOCUME~1/mkwapisz/LOCALS~1/Temp/cc1OEM1Z.s 			page 250


 13252 3f3e 0100     		.2byte	0x1
 13253 3f40 55       		.byte	0x55
 13254 3f41 00000000 		.4byte	0x0
 13255 3f45 00000000 		.4byte	0x0
 13256              	.LLST439:
 13257 3f49 5C250000 		.4byte	.LVL1308-.Ltext0
 13258 3f4d 64250000 		.4byte	.LVL1310-.Ltext0
 13259 3f51 0100     		.2byte	0x1
 13260 3f53 54       		.byte	0x54
 13261 3f54 00000000 		.4byte	0x0
 13262 3f58 00000000 		.4byte	0x0
 13263              	.LLST440:
 13264 3f5c 50250000 		.4byte	.LVL1306-.Ltext0
 13265 3f60 58250000 		.4byte	.LVL1307-.Ltext0
 13266 3f64 0100     		.2byte	0x1
 13267 3f66 54       		.byte	0x54
 13268 3f67 58250000 		.4byte	.LVL1307-.Ltext0
 13269 3f6b 64250000 		.4byte	.LVL1309-.Ltext0
 13270 3f6f 0100     		.2byte	0x1
 13271 3f71 51       		.byte	0x51
 13272 3f72 00000000 		.4byte	0x0
 13273 3f76 00000000 		.4byte	0x0
 13274              	.LLST441:
 13275 3f7a 68200000 		.4byte	.LVL1153-.Ltext0
 13276 3f7e 68200000 		.4byte	.LVL1153-.Ltext0
 13277 3f82 0100     		.2byte	0x1
 13278 3f84 54       		.byte	0x54
 13279 3f85 70250000 		.4byte	.LVL1312-.Ltext0
 13280 3f89 78250000 		.4byte	.LVL1314-.Ltext0
 13281 3f8d 0100     		.2byte	0x1
 13282 3f8f 54       		.byte	0x54
 13283 3f90 00000000 		.4byte	0x0
 13284 3f94 00000000 		.4byte	0x0
 13285              	.LLST442:
 13286 3f98 64250000 		.4byte	.LVL1310-.Ltext0
 13287 3f9c 6C250000 		.4byte	.LVL1311-.Ltext0
 13288 3fa0 0100     		.2byte	0x1
 13289 3fa2 54       		.byte	0x54
 13290 3fa3 6C250000 		.4byte	.LVL1311-.Ltext0
 13291 3fa7 78250000 		.4byte	.LVL1313-.Ltext0
 13292 3fab 0100     		.2byte	0x1
 13293 3fad 51       		.byte	0x51
 13294 3fae 00000000 		.4byte	0x0
 13295 3fb2 00000000 		.4byte	0x0
 13296              	.LLST443:
 13297 3fb6 84250000 		.4byte	.LVL1316-.Ltext0
 13298 3fba 8C250000 		.4byte	.LVL1318-.Ltext0
 13299 3fbe 0100     		.2byte	0x1
 13300 3fc0 54       		.byte	0x54
 13301 3fc1 00000000 		.4byte	0x0
 13302 3fc5 00000000 		.4byte	0x0
 13303              	.LLST444:
 13304 3fc9 78250000 		.4byte	.LVL1314-.Ltext0
 13305 3fcd 7C250000 		.4byte	.LVL1315-.Ltext0
 13306 3fd1 0100     		.2byte	0x1
 13307 3fd3 54       		.byte	0x54
 13308 3fd4 7C250000 		.4byte	.LVL1315-.Ltext0
ARM GAS  /cygdrive/c/DOCUME~1/mkwapisz/LOCALS~1/Temp/cc1OEM1Z.s 			page 251


 13309 3fd8 8C250000 		.4byte	.LVL1317-.Ltext0
 13310 3fdc 0100     		.2byte	0x1
 13311 3fde 51       		.byte	0x51
 13312 3fdf 00000000 		.4byte	0x0
 13313 3fe3 00000000 		.4byte	0x0
 13314              	.LLST445:
 13315 3fe7 E8200000 		.4byte	.LVL1176-.Ltext0
 13316 3feb EC200000 		.4byte	.LVL1177-.Ltext0
 13317 3fef 0100     		.2byte	0x1
 13318 3ff1 5C       		.byte	0x5c
 13319 3ff2 8C250000 		.4byte	.LVL1318-.Ltext0
 13320 3ff6 94250000 		.4byte	.LVL1319-.Ltext0
 13321 3ffa 0100     		.2byte	0x1
 13322 3ffc 54       		.byte	0x54
 13323 3ffd 94250000 		.4byte	.LVL1319-.Ltext0
 13324 4001 A4250000 		.4byte	.LVL1321-.Ltext0
 13325 4005 0100     		.2byte	0x1
 13326 4007 50       		.byte	0x50
 13327 4008 00000000 		.4byte	0x0
 13328 400c 00000000 		.4byte	0x0
 13329              	.LLST446:
 13330 4010 D4200000 		.4byte	.LVL1169-.Ltext0
 13331 4014 D8200000 		.4byte	.LVL1170-.Ltext0
 13332 4018 0100     		.2byte	0x1
 13333 401a 55       		.byte	0x55
 13334 401b 94250000 		.4byte	.LVL1319-.Ltext0
 13335 401f AC250000 		.4byte	.LVL1322-.Ltext0
 13336 4023 0100     		.2byte	0x1
 13337 4025 55       		.byte	0x55
 13338 4026 00000000 		.4byte	0x0
 13339 402a 00000000 		.4byte	0x0
 13340              	.LLST447:
 13341 402e D4250000 		.4byte	.LVL1325-.Ltext0
 13342 4032 E4250000 		.4byte	.LVL1328-.Ltext0
 13343 4036 0100     		.2byte	0x1
 13344 4038 54       		.byte	0x54
 13345 4039 00000000 		.4byte	0x0
 13346 403d 00000000 		.4byte	0x0
 13347              	.LLST448:
 13348 4041 D0250000 		.4byte	.LVL1324-.Ltext0
 13349 4045 D4250000 		.4byte	.LVL1325-.Ltext0
 13350 4049 0100     		.2byte	0x1
 13351 404b 54       		.byte	0x54
 13352 404c D4250000 		.4byte	.LVL1325-.Ltext0
 13353 4050 DC250000 		.4byte	.LVL1326-.Ltext0
 13354 4054 0100     		.2byte	0x1
 13355 4056 51       		.byte	0x51
 13356 4057 00000000 		.4byte	0x0
 13357 405b 00000000 		.4byte	0x0
 13358              	.LLST449:
 13359 405f 281E0000 		.4byte	.LVL1071-.Ltext0
 13360 4063 441E0000 		.4byte	.LVL1073-.Ltext0
 13361 4067 0100     		.2byte	0x1
 13362 4069 51       		.byte	0x51
 13363 406a E8250000 		.4byte	.LVL1329-.Ltext0
 13364 406e F0250000 		.4byte	.LVL1330-.Ltext0
 13365 4072 0100     		.2byte	0x1
ARM GAS  /cygdrive/c/DOCUME~1/mkwapisz/LOCALS~1/Temp/cc1OEM1Z.s 			page 252


 13366 4074 54       		.byte	0x54
 13367 4075 00000000 		.4byte	0x0
 13368 4079 00000000 		.4byte	0x0
 13369              	.LLST450:
 13370 407d 201E0000 		.4byte	.LVL1068-.Ltext0
 13371 4081 241E0000 		.4byte	.LVL1069-.Ltext0
 13372 4085 0100     		.2byte	0x1
 13373 4087 58       		.byte	0x58
 13374 4088 DC250000 		.4byte	.LVL1327-.Ltext0
 13375 408c 18270000 		.4byte	.LVL1387-.Ltext0
 13376 4090 0100     		.2byte	0x1
 13377 4092 58       		.byte	0x58
 13378 4093 00000000 		.4byte	0x0
 13379 4097 00000000 		.4byte	0x0
 13380              	.LLST451:
 13381 409b FC250000 		.4byte	.LVL1332-.Ltext0
 13382 409f 04260000 		.4byte	.LVL1334-.Ltext0
 13383 40a3 0100     		.2byte	0x1
 13384 40a5 54       		.byte	0x54
 13385 40a6 00000000 		.4byte	0x0
 13386 40aa 00000000 		.4byte	0x0
 13387              	.LLST452:
 13388 40ae F0250000 		.4byte	.LVL1330-.Ltext0
 13389 40b2 F8250000 		.4byte	.LVL1331-.Ltext0
 13390 40b6 0100     		.2byte	0x1
 13391 40b8 54       		.byte	0x54
 13392 40b9 F8250000 		.4byte	.LVL1331-.Ltext0
 13393 40bd 04260000 		.4byte	.LVL1333-.Ltext0
 13394 40c1 0100     		.2byte	0x1
 13395 40c3 51       		.byte	0x51
 13396 40c4 00000000 		.4byte	0x0
 13397 40c8 00000000 		.4byte	0x0
 13398              	.LLST453:
 13399 40cc 10260000 		.4byte	.LVL1336-.Ltext0
 13400 40d0 20260000 		.4byte	.LVL1339-.Ltext0
 13401 40d4 0100     		.2byte	0x1
 13402 40d6 54       		.byte	0x54
 13403 40d7 00000000 		.4byte	0x0
 13404 40db 00000000 		.4byte	0x0
 13405              	.LLST454:
 13406 40df 04260000 		.4byte	.LVL1334-.Ltext0
 13407 40e3 0C260000 		.4byte	.LVL1335-.Ltext0
 13408 40e7 0100     		.2byte	0x1
 13409 40e9 54       		.byte	0x54
 13410 40ea 0C260000 		.4byte	.LVL1335-.Ltext0
 13411 40ee 18260000 		.4byte	.LVL1337-.Ltext0
 13412 40f2 0100     		.2byte	0x1
 13413 40f4 51       		.byte	0x51
 13414 40f5 00000000 		.4byte	0x0
 13415 40f9 00000000 		.4byte	0x0
 13416              	.LLST455:
 13417 40fd 24260000 		.4byte	.LVL1340-.Ltext0
 13418 4101 34260000 		.4byte	.LVL1343-.Ltext0
 13419 4105 0100     		.2byte	0x1
 13420 4107 54       		.byte	0x54
 13421 4108 00000000 		.4byte	0x0
 13422 410c 00000000 		.4byte	0x0
ARM GAS  /cygdrive/c/DOCUME~1/mkwapisz/LOCALS~1/Temp/cc1OEM1Z.s 			page 253


 13423              	.LLST456:
 13424 4110 18260000 		.4byte	.LVL1338-.Ltext0
 13425 4114 70260000 		.4byte	.LVL1355-.Ltext0
 13426 4118 0100     		.2byte	0x1
 13427 411a 56       		.byte	0x56
 13428 411b 00000000 		.4byte	0x0
 13429 411f 00000000 		.4byte	0x0
 13430              	.LLST457:
 13431 4123 681E0000 		.4byte	.LVL1084-.Ltext0
 13432 4127 6C1E0000 		.4byte	.LVL1085-.Ltext0
 13433 412b 0100     		.2byte	0x1
 13434 412d 50       		.byte	0x50
 13435 412e 38260000 		.4byte	.LVL1344-.Ltext0
 13436 4132 40260000 		.4byte	.LVL1346-.Ltext0
 13437 4136 0100     		.2byte	0x1
 13438 4138 54       		.byte	0x54
 13439 4139 00000000 		.4byte	0x0
 13440 413d 00000000 		.4byte	0x0
 13441              	.LLST458:
 13442 4141 5C1E0000 		.4byte	.LVL1080-.Ltext0
 13443 4145 601E0000 		.4byte	.LVL1081-.Ltext0
 13444 4149 0100     		.2byte	0x1
 13445 414b 57       		.byte	0x57
 13446 414c 2C260000 		.4byte	.LVL1341-.Ltext0
 13447 4150 30260000 		.4byte	.LVL1342-.Ltext0
 13448 4154 0100     		.2byte	0x1
 13449 4156 57       		.byte	0x57
 13450 4157 30260000 		.4byte	.LVL1342-.Ltext0
 13451 415b 40260000 		.4byte	.LVL1345-.Ltext0
 13452 415f 0100     		.2byte	0x1
 13453 4161 51       		.byte	0x51
 13454 4162 00000000 		.4byte	0x0
 13455 4166 00000000 		.4byte	0x0
 13456              	.LLST459:
 13457 416a 4C260000 		.4byte	.LVL1348-.Ltext0
 13458 416e 58260000 		.4byte	.LVL1350-.Ltext0
 13459 4172 0100     		.2byte	0x1
 13460 4174 54       		.byte	0x54
 13461 4175 00000000 		.4byte	0x0
 13462 4179 00000000 		.4byte	0x0
 13463              	.LLST460:
 13464 417d 40260000 		.4byte	.LVL1346-.Ltext0
 13465 4181 48260000 		.4byte	.LVL1347-.Ltext0
 13466 4185 0100     		.2byte	0x1
 13467 4187 54       		.byte	0x54
 13468 4188 48260000 		.4byte	.LVL1347-.Ltext0
 13469 418c 54260000 		.4byte	.LVL1349-.Ltext0
 13470 4190 0100     		.2byte	0x1
 13471 4192 51       		.byte	0x51
 13472 4193 00000000 		.4byte	0x0
 13473 4197 00000000 		.4byte	0x0
 13474              	.LLST461:
 13475 419b 60260000 		.4byte	.LVL1352-.Ltext0
 13476 419f 68260000 		.4byte	.LVL1353-.Ltext0
 13477 41a3 0100     		.2byte	0x1
 13478 41a5 54       		.byte	0x54
 13479 41a6 68260000 		.4byte	.LVL1353-.Ltext0
ARM GAS  /cygdrive/c/DOCUME~1/mkwapisz/LOCALS~1/Temp/cc1OEM1Z.s 			page 254


 13480 41aa 70260000 		.4byte	.LVL1354-.Ltext0
 13481 41ae 0100     		.2byte	0x1
 13482 41b0 50       		.byte	0x50
 13483 41b1 00000000 		.4byte	0x0
 13484 41b5 00000000 		.4byte	0x0
 13485              	.LLST462:
 13486 41b9 58260000 		.4byte	.LVL1350-.Ltext0
 13487 41bd 5C260000 		.4byte	.LVL1351-.Ltext0
 13488 41c1 0100     		.2byte	0x1
 13489 41c3 54       		.byte	0x54
 13490 41c4 5C260000 		.4byte	.LVL1351-.Ltext0
 13491 41c8 70260000 		.4byte	.LVL1354-.Ltext0
 13492 41cc 0100     		.2byte	0x1
 13493 41ce 51       		.byte	0x51
 13494 41cf 00000000 		.4byte	0x0
 13495 41d3 00000000 		.4byte	0x0
 13496              	.LLST463:
 13497 41d7 7C260000 		.4byte	.LVL1357-.Ltext0
 13498 41db 88260000 		.4byte	.LVL1359-.Ltext0
 13499 41df 0100     		.2byte	0x1
 13500 41e1 54       		.byte	0x54
 13501 41e2 00000000 		.4byte	0x0
 13502 41e6 00000000 		.4byte	0x0
 13503              	.LLST464:
 13504 41ea 78260000 		.4byte	.LVL1356-.Ltext0
 13505 41ee 7C260000 		.4byte	.LVL1357-.Ltext0
 13506 41f2 0100     		.2byte	0x1
 13507 41f4 54       		.byte	0x54
 13508 41f5 7C260000 		.4byte	.LVL1357-.Ltext0
 13509 41f9 84260000 		.4byte	.LVL1358-.Ltext0
 13510 41fd 0100     		.2byte	0x1
 13511 41ff 51       		.byte	0x51
 13512 4200 00000000 		.4byte	0x0
 13513 4204 00000000 		.4byte	0x0
 13514              	.LLST465:
 13515 4208 701F0000 		.4byte	.LVL1116-.Ltext0
 13516 420c 701F0000 		.4byte	.LVL1116-.Ltext0
 13517 4210 0100     		.2byte	0x1
 13518 4212 5E       		.byte	0x5e
 13519 4213 90260000 		.4byte	.LVL1361-.Ltext0
 13520 4217 A0260000 		.4byte	.LVL1365-.Ltext0
 13521 421b 0100     		.2byte	0x1
 13522 421d 54       		.byte	0x54
 13523 421e 00000000 		.4byte	0x0
 13524 4222 00000000 		.4byte	0x0
 13525              	.LLST466:
 13526 4226 88260000 		.4byte	.LVL1359-.Ltext0
 13527 422a 8C260000 		.4byte	.LVL1360-.Ltext0
 13528 422e 0100     		.2byte	0x1
 13529 4230 54       		.byte	0x54
 13530 4231 8C260000 		.4byte	.LVL1360-.Ltext0
 13531 4235 98260000 		.4byte	.LVL1362-.Ltext0
 13532 4239 0100     		.2byte	0x1
 13533 423b 51       		.byte	0x51
 13534 423c 00000000 		.4byte	0x0
 13535 4240 00000000 		.4byte	0x0
 13536              	.LLST467:
ARM GAS  /cygdrive/c/DOCUME~1/mkwapisz/LOCALS~1/Temp/cc1OEM1Z.s 			page 255


 13537 4244 58200000 		.4byte	.LVL1149-.Ltext0
 13538 4248 5C200000 		.4byte	.LVL1150-.Ltext0
 13539 424c 0100     		.2byte	0x1
 13540 424e 50       		.byte	0x50
 13541 424f A4260000 		.4byte	.LVL1366-.Ltext0
 13542 4253 B4260000 		.4byte	.LVL1369-.Ltext0
 13543 4257 0100     		.2byte	0x1
 13544 4259 54       		.byte	0x54
 13545 425a 00000000 		.4byte	0x0
 13546 425e 00000000 		.4byte	0x0
 13547              	.LLST468:
 13548 4262 4C200000 		.4byte	.LVL1147-.Ltext0
 13549 4266 50200000 		.4byte	.LVL1148-.Ltext0
 13550 426a 0100     		.2byte	0x1
 13551 426c 56       		.byte	0x56
 13552 426d 98260000 		.4byte	.LVL1363-.Ltext0
 13553 4271 9C260000 		.4byte	.LVL1364-.Ltext0
 13554 4275 0100     		.2byte	0x1
 13555 4277 56       		.byte	0x56
 13556 4278 9C260000 		.4byte	.LVL1364-.Ltext0
 13557 427c AC260000 		.4byte	.LVL1367-.Ltext0
 13558 4280 0100     		.2byte	0x1
 13559 4282 51       		.byte	0x51
 13560 4283 00000000 		.4byte	0x0
 13561 4287 00000000 		.4byte	0x0
 13562              	.LLST469:
 13563 428b 28200000 		.4byte	.LVL1144-.Ltext0
 13564 428f 58200000 		.4byte	.LVL1149-.Ltext0
 13565 4293 0100     		.2byte	0x1
 13566 4295 50       		.byte	0x50
 13567 4296 B8260000 		.4byte	.LVL1370-.Ltext0
 13568 429a C4260000 		.4byte	.LVL1371-.Ltext0
 13569 429e 0100     		.2byte	0x1
 13570 42a0 54       		.byte	0x54
 13571 42a1 00000000 		.4byte	0x0
 13572 42a5 00000000 		.4byte	0x0
 13573              	.LLST470:
 13574 42a9 24200000 		.4byte	.LVL1143-.Ltext0
 13575 42ad 28200000 		.4byte	.LVL1144-.Ltext0
 13576 42b1 0100     		.2byte	0x1
 13577 42b3 57       		.byte	0x57
 13578 42b4 AC260000 		.4byte	.LVL1368-.Ltext0
 13579 42b8 00270000 		.4byte	.LVL1384-.Ltext0
 13580 42bc 0100     		.2byte	0x1
 13581 42be 57       		.byte	0x57
 13582 42bf 00000000 		.4byte	0x0
 13583 42c3 00000000 		.4byte	0x0
 13584              	.LLST471:
 13585 42c7 6C200000 		.4byte	.LVL1154-.Ltext0
 13586 42cb 70200000 		.4byte	.LVL1155-.Ltext0
 13587 42cf 0100     		.2byte	0x1
 13588 42d1 54       		.byte	0x54
 13589 42d2 CC260000 		.4byte	.LVL1373-.Ltext0
 13590 42d6 D8260000 		.4byte	.LVL1375-.Ltext0
 13591 42da 0100     		.2byte	0x1
 13592 42dc 54       		.byte	0x54
 13593 42dd 00000000 		.4byte	0x0
ARM GAS  /cygdrive/c/DOCUME~1/mkwapisz/LOCALS~1/Temp/cc1OEM1Z.s 			page 256


 13594 42e1 00000000 		.4byte	0x0
 13595              	.LLST472:
 13596 42e5 C4260000 		.4byte	.LVL1371-.Ltext0
 13597 42e9 C8260000 		.4byte	.LVL1372-.Ltext0
 13598 42ed 0100     		.2byte	0x1
 13599 42ef 54       		.byte	0x54
 13600 42f0 C8260000 		.4byte	.LVL1372-.Ltext0
 13601 42f4 D4260000 		.4byte	.LVL1374-.Ltext0
 13602 42f8 0100     		.2byte	0x1
 13603 42fa 51       		.byte	0x51
 13604 42fb 00000000 		.4byte	0x0
 13605 42ff 00000000 		.4byte	0x0
 13606              	.LLST473:
 13607 4303 E0260000 		.4byte	.LVL1377-.Ltext0
 13608 4307 F0260000 		.4byte	.LVL1381-.Ltext0
 13609 430b 0100     		.2byte	0x1
 13610 430d 54       		.byte	0x54
 13611 430e 00000000 		.4byte	0x0
 13612 4312 00000000 		.4byte	0x0
 13613              	.LLST474:
 13614 4316 D8260000 		.4byte	.LVL1375-.Ltext0
 13615 431a DC260000 		.4byte	.LVL1376-.Ltext0
 13616 431e 0100     		.2byte	0x1
 13617 4320 54       		.byte	0x54
 13618 4321 DC260000 		.4byte	.LVL1376-.Ltext0
 13619 4325 E8260000 		.4byte	.LVL1378-.Ltext0
 13620 4329 0100     		.2byte	0x1
 13621 432b 51       		.byte	0x51
 13622 432c 00000000 		.4byte	0x0
 13623 4330 00000000 		.4byte	0x0
 13624              	.LLST475:
 13625 4334 EC200000 		.4byte	.LVL1177-.Ltext0
 13626 4338 F0200000 		.4byte	.LVL1178-.Ltext0
 13627 433c 0100     		.2byte	0x1
 13628 433e 5C       		.byte	0x5c
 13629 433f F4260000 		.4byte	.LVL1382-.Ltext0
 13630 4343 04270000 		.4byte	.LVL1385-.Ltext0
 13631 4347 0100     		.2byte	0x1
 13632 4349 54       		.byte	0x54
 13633 434a 00000000 		.4byte	0x0
 13634 434e 00000000 		.4byte	0x0
 13635              	.LLST476:
 13636 4352 DC200000 		.4byte	.LVL1172-.Ltext0
 13637 4356 E0200000 		.4byte	.LVL1173-.Ltext0
 13638 435a 0100     		.2byte	0x1
 13639 435c 56       		.byte	0x56
 13640 435d E8260000 		.4byte	.LVL1379-.Ltext0
 13641 4361 EC260000 		.4byte	.LVL1380-.Ltext0
 13642 4365 0100     		.2byte	0x1
 13643 4367 56       		.byte	0x56
 13644 4368 EC260000 		.4byte	.LVL1380-.Ltext0
 13645 436c FC260000 		.4byte	.LVL1383-.Ltext0
 13646 4370 0100     		.2byte	0x1
 13647 4372 51       		.byte	0x51
 13648 4373 00000000 		.4byte	0x0
 13649 4377 00000000 		.4byte	0x0
 13650              	.LLST477:
ARM GAS  /cygdrive/c/DOCUME~1/mkwapisz/LOCALS~1/Temp/cc1OEM1Z.s 			page 257


 13651 437b F0200000 		.4byte	.LVL1178-.Ltext0
 13652 437f F8200000 		.4byte	.LVL1180-.Ltext0
 13653 4383 0100     		.2byte	0x1
 13654 4385 5C       		.byte	0x5c
 13655 4386 08270000 		.4byte	.LVL1386-.Ltext0
 13656 438a 4C270000 		.4byte	.LVL1389-.Ltext0
 13657 438e 0100     		.2byte	0x1
 13658 4390 54       		.byte	0x54
 13659 4391 00000000 		.4byte	0x0
 13660 4395 00000000 		.4byte	0x0
 13661              	.LLST478:
 13662 4399 E0200000 		.4byte	.LVL1174-.Ltext0
 13663 439d E4200000 		.4byte	.LVL1175-.Ltext0
 13664 43a1 0100     		.2byte	0x1
 13665 43a3 57       		.byte	0x57
 13666 43a4 00270000 		.4byte	.LVL1384-.Ltext0
 13667 43a8 2C270000 		.4byte	.LVL1388-.Ltext0
 13668 43ac 0100     		.2byte	0x1
 13669 43ae 57       		.byte	0x57
 13670 43af 00000000 		.4byte	0x0
 13671 43b3 00000000 		.4byte	0x0
 13672              	.LLST479:
 13673 43b7 A01F0000 		.4byte	.LVL1124-.Ltext0
 13674 43bb AC1F0000 		.4byte	.LVL1126-.Ltext0
 13675 43bf 0100     		.2byte	0x1
 13676 43c1 54       		.byte	0x54
 13677 43c2 58270000 		.4byte	.LVL1391-.Ltext0
 13678 43c6 68270000 		.4byte	.LVL1394-.Ltext0
 13679 43ca 0100     		.2byte	0x1
 13680 43cc 54       		.byte	0x54
 13681 43cd 00000000 		.4byte	0x0
 13682 43d1 00000000 		.4byte	0x0
 13683              	.LLST480:
 13684 43d5 44210000 		.4byte	.LVL1195-.Ltext0
 13685 43d9 28240000 		.4byte	.LVL1257-.Ltext0
 13686 43dd 0100     		.2byte	0x1
 13687 43df 58       		.byte	0x58
 13688 43e0 60270000 		.4byte	.LVL1393-.Ltext0
 13689 43e4 90280000 		.4byte	.LFE6-.Ltext0
 13690 43e8 0100     		.2byte	0x1
 13691 43ea 58       		.byte	0x58
 13692 43eb 00000000 		.4byte	0x0
 13693 43ef 00000000 		.4byte	0x0
 13694              	.LLST481:
 13695 43f3 801F0000 		.4byte	.LVL1119-.Ltext0
 13696 43f7 941F0000 		.4byte	.LVL1122-.Ltext0
 13697 43fb 0100     		.2byte	0x1
 13698 43fd 54       		.byte	0x54
 13699 43fe 70270000 		.4byte	.LVL1396-.Ltext0
 13700 4402 7C270000 		.4byte	.LVL1398-.Ltext0
 13701 4406 0100     		.2byte	0x1
 13702 4408 54       		.byte	0x54
 13703 4409 00000000 		.4byte	0x0
 13704 440d 00000000 		.4byte	0x0
 13705              	.LLST482:
 13706 4411 68270000 		.4byte	.LVL1394-.Ltext0
 13707 4415 6C270000 		.4byte	.LVL1395-.Ltext0
ARM GAS  /cygdrive/c/DOCUME~1/mkwapisz/LOCALS~1/Temp/cc1OEM1Z.s 			page 258


 13708 4419 0100     		.2byte	0x1
 13709 441b 54       		.byte	0x54
 13710 441c 6C270000 		.4byte	.LVL1395-.Ltext0
 13711 4420 7C270000 		.4byte	.LVL1397-.Ltext0
 13712 4424 0100     		.2byte	0x1
 13713 4426 51       		.byte	0x51
 13714 4427 00000000 		.4byte	0x0
 13715 442b 00000000 		.4byte	0x0
 13716              	.LLST483:
 13717 442f 84270000 		.4byte	.LVL1400-.Ltext0
 13718 4433 90270000 		.4byte	.LVL1402-.Ltext0
 13719 4437 0100     		.2byte	0x1
 13720 4439 54       		.byte	0x54
 13721 443a 00000000 		.4byte	0x0
 13722 443e 00000000 		.4byte	0x0
 13723              	.LLST484:
 13724 4442 7C270000 		.4byte	.LVL1398-.Ltext0
 13725 4446 80270000 		.4byte	.LVL1399-.Ltext0
 13726 444a 0100     		.2byte	0x1
 13727 444c 54       		.byte	0x54
 13728 444d 80270000 		.4byte	.LVL1399-.Ltext0
 13729 4451 90270000 		.4byte	.LVL1401-.Ltext0
 13730 4455 0100     		.2byte	0x1
 13731 4457 51       		.byte	0x51
 13732 4458 00000000 		.4byte	0x0
 13733 445c 00000000 		.4byte	0x0
 13734              	.LLST485:
 13735 4460 98270000 		.4byte	.LVL1404-.Ltext0
 13736 4464 A4270000 		.4byte	.LVL1406-.Ltext0
 13737 4468 0100     		.2byte	0x1
 13738 446a 54       		.byte	0x54
 13739 446b 00000000 		.4byte	0x0
 13740 446f 00000000 		.4byte	0x0
 13741              	.LLST486:
 13742 4473 90270000 		.4byte	.LVL1402-.Ltext0
 13743 4477 94270000 		.4byte	.LVL1403-.Ltext0
 13744 447b 0100     		.2byte	0x1
 13745 447d 54       		.byte	0x54
 13746 447e 94270000 		.4byte	.LVL1403-.Ltext0
 13747 4482 A4270000 		.4byte	.LVL1405-.Ltext0
 13748 4486 0100     		.2byte	0x1
 13749 4488 51       		.byte	0x51
 13750 4489 00000000 		.4byte	0x0
 13751 448d 00000000 		.4byte	0x0
 13752              	.LLST487:
 13753 4491 AC270000 		.4byte	.LVL1408-.Ltext0
 13754 4495 B8270000 		.4byte	.LVL1410-.Ltext0
 13755 4499 0100     		.2byte	0x1
 13756 449b 54       		.byte	0x54
 13757 449c 00000000 		.4byte	0x0
 13758 44a0 00000000 		.4byte	0x0
 13759              	.LLST488:
 13760 44a4 A4270000 		.4byte	.LVL1406-.Ltext0
 13761 44a8 A8270000 		.4byte	.LVL1407-.Ltext0
 13762 44ac 0100     		.2byte	0x1
 13763 44ae 54       		.byte	0x54
 13764 44af A8270000 		.4byte	.LVL1407-.Ltext0
ARM GAS  /cygdrive/c/DOCUME~1/mkwapisz/LOCALS~1/Temp/cc1OEM1Z.s 			page 259


 13765 44b3 B8270000 		.4byte	.LVL1409-.Ltext0
 13766 44b7 0100     		.2byte	0x1
 13767 44b9 51       		.byte	0x51
 13768 44ba 00000000 		.4byte	0x0
 13769 44be 00000000 		.4byte	0x0
 13770              	.LLST489:
 13771 44c2 C0270000 		.4byte	.LVL1412-.Ltext0
 13772 44c6 CC270000 		.4byte	.LVL1414-.Ltext0
 13773 44ca 0100     		.2byte	0x1
 13774 44cc 54       		.byte	0x54
 13775 44cd 00000000 		.4byte	0x0
 13776 44d1 00000000 		.4byte	0x0
 13777              	.LLST490:
 13778 44d5 B8270000 		.4byte	.LVL1410-.Ltext0
 13779 44d9 BC270000 		.4byte	.LVL1411-.Ltext0
 13780 44dd 0100     		.2byte	0x1
 13781 44df 54       		.byte	0x54
 13782 44e0 BC270000 		.4byte	.LVL1411-.Ltext0
 13783 44e4 CC270000 		.4byte	.LVL1413-.Ltext0
 13784 44e8 0100     		.2byte	0x1
 13785 44ea 51       		.byte	0x51
 13786 44eb 00000000 		.4byte	0x0
 13787 44ef 00000000 		.4byte	0x0
 13788              	.LLST491:
 13789 44f3 78200000 		.4byte	.LVL1156-.Ltext0
 13790 44f7 78200000 		.4byte	.LVL1156-.Ltext0
 13791 44fb 0100     		.2byte	0x1
 13792 44fd 54       		.byte	0x54
 13793 44fe D4270000 		.4byte	.LVL1416-.Ltext0
 13794 4502 E0270000 		.4byte	.LVL1418-.Ltext0
 13795 4506 0100     		.2byte	0x1
 13796 4508 54       		.byte	0x54
 13797 4509 00000000 		.4byte	0x0
 13798 450d 00000000 		.4byte	0x0
 13799              	.LLST492:
 13800 4511 CC270000 		.4byte	.LVL1414-.Ltext0
 13801 4515 D0270000 		.4byte	.LVL1415-.Ltext0
 13802 4519 0100     		.2byte	0x1
 13803 451b 54       		.byte	0x54
 13804 451c D0270000 		.4byte	.LVL1415-.Ltext0
 13805 4520 E0270000 		.4byte	.LVL1417-.Ltext0
 13806 4524 0100     		.2byte	0x1
 13807 4526 51       		.byte	0x51
 13808 4527 00000000 		.4byte	0x0
 13809 452b 00000000 		.4byte	0x0
 13810              	.LLST493:
 13811 452f EC270000 		.4byte	.LVL1420-.Ltext0
 13812 4533 10280000 		.4byte	.LVL1422-.Ltext0
 13813 4537 0100     		.2byte	0x1
 13814 4539 54       		.byte	0x54
 13815 453a 00000000 		.4byte	0x0
 13816 453e 00000000 		.4byte	0x0
 13817              	.LLST494:
 13818 4542 E0270000 		.4byte	.LVL1418-.Ltext0
 13819 4546 E4270000 		.4byte	.LVL1419-.Ltext0
 13820 454a 0100     		.2byte	0x1
 13821 454c 54       		.byte	0x54
ARM GAS  /cygdrive/c/DOCUME~1/mkwapisz/LOCALS~1/Temp/cc1OEM1Z.s 			page 260


 13822 454d E4270000 		.4byte	.LVL1419-.Ltext0
 13823 4551 F4270000 		.4byte	.LVL1421-.Ltext0
 13824 4555 0100     		.2byte	0x1
 13825 4557 51       		.byte	0x51
 13826 4558 00000000 		.4byte	0x0
 13827 455c 00000000 		.4byte	0x0
 13828              		.section	.debug_info
 13829 0000 B0330000 		.4byte	0x33b0
 13830 0004 0200     		.2byte	0x2
 13831 0006 00000000 		.4byte	.Ldebug_abbrev0
 13832 000a 04       		.byte	0x4
 13833 000b 01       		.uleb128 0x1
 13834 000c 00000000 		.4byte	.Ldebug_line0
 13835 0010 90280000 		.4byte	.Letext0
 13836 0014 00000000 		.4byte	.Ltext0
 13837 0018 4D040000 		.4byte	.LASF151
 13838 001c 01       		.byte	0x1
 13839 001d D8030000 		.4byte	.LASF152
 13840 0021 4D030000 		.4byte	.LASF153
 13841 0025 02       		.uleb128 0x2
 13842 0026 80000000 		.4byte	.LASF0
 13843 002a 02       		.byte	0x2
 13844 002b 1F       		.byte	0x1f
 13845 002c 30000000 		.4byte	0x30
 13846 0030 03       		.uleb128 0x3
 13847 0031 00000000 		.4byte	.LASF3
 13848 0035 04       		.byte	0x4
 13849 0036 05       		.byte	0x5
 13850 0037 02       		.uleb128 0x2
 13851 0038 58010000 		.4byte	.LASF1
 13852 003c 02       		.byte	0x2
 13853 003d 21       		.byte	0x21
 13854 003e 30000000 		.4byte	0x30
 13855 0042 02       		.uleb128 0x2
 13856 0043 1E000000 		.4byte	.LASF2
 13857 0047 02       		.byte	0x2
 13858 0048 22       		.byte	0x22
 13859 0049 4D000000 		.4byte	0x4d
 13860 004d 03       		.uleb128 0x3
 13861 004e 2F040000 		.4byte	.LASF4
 13862 0052 04       		.byte	0x4
 13863 0053 07       		.byte	0x7
 13864 0054 04       		.uleb128 0x4
 13865 0055 79000000 		.4byte	0x79
 13866 0059 08       		.byte	0x8
 13867 005a 05       		.byte	0x5
 13868 005b 19       		.byte	0x19
 13869 005c 05       		.uleb128 0x5
 13870 005d 00030000 		.4byte	.LASF5
 13871 0061 05       		.byte	0x5
 13872 0062 1A       		.byte	0x1a
 13873 0063 30000000 		.4byte	0x30
 13874 0067 02       		.byte	0x2
 13875 0068 23       		.byte	0x23
 13876 0069 00       		.uleb128 0x0
 13877 006a 05       		.uleb128 0x5
 13878 006b 95010000 		.4byte	.LASF6
ARM GAS  /cygdrive/c/DOCUME~1/mkwapisz/LOCALS~1/Temp/cc1OEM1Z.s 			page 261


 13879 006f 05       		.byte	0x5
 13880 0070 1B       		.byte	0x1b
 13881 0071 4D000000 		.4byte	0x4d
 13882 0075 02       		.byte	0x2
 13883 0076 23       		.byte	0x23
 13884 0077 04       		.uleb128 0x4
 13885 0078 00       		.byte	0x0
 13886 0079 02       		.uleb128 0x2
 13887 007a 7F010000 		.4byte	.LASF7
 13888 007e 05       		.byte	0x5
 13889 007f 1C       		.byte	0x1c
 13890 0080 54000000 		.4byte	0x54
 13891 0084 03       		.uleb128 0x3
 13892 0085 67040000 		.4byte	.LASF8
 13893 0089 01       		.byte	0x1
 13894 008a 08       		.byte	0x8
 13895 008b 03       		.uleb128 0x3
 13896 008c D5040000 		.4byte	.LASF9
 13897 0090 02       		.byte	0x2
 13898 0091 07       		.byte	0x7
 13899 0092 03       		.uleb128 0x3
 13900 0093 2F040000 		.4byte	.LASF4
 13901 0097 04       		.byte	0x4
 13902 0098 07       		.byte	0x7
 13903 0099 06       		.uleb128 0x6
 13904 009a 696E7400 		.ascii	"int\000"
 13905 009e 04       		.byte	0x4
 13906 009f 05       		.byte	0x5
 13907 00a0 03       		.uleb128 0x3
 13908 00a1 8C000000 		.4byte	.LASF10
 13909 00a5 04       		.byte	0x4
 13910 00a6 07       		.byte	0x7
 13911 00a7 07       		.uleb128 0x7
 13912 00a8 C6000000 		.4byte	0xc6
 13913 00ac 8E040000 		.4byte	.LASF14
 13914 00b0 04       		.byte	0x4
 13915 00b1 04       		.byte	0x4
 13916 00b2 1D       		.byte	0x1d
 13917 00b3 08       		.uleb128 0x8
 13918 00b4 C1010000 		.4byte	.LASF11
 13919 00b8 01       		.sleb128 1
 13920 00b9 08       		.uleb128 0x8
 13921 00ba E8040000 		.4byte	.LASF12
 13922 00be 02       		.sleb128 2
 13923 00bf 08       		.uleb128 0x8
 13924 00c0 59040000 		.4byte	.LASF13
 13925 00c4 03       		.sleb128 3
 13926 00c5 00       		.byte	0x0
 13927 00c6 07       		.uleb128 0x7
 13928 00c7 EB000000 		.4byte	0xeb
 13929 00cb DC000000 		.4byte	.LASF15
 13930 00cf 04       		.byte	0x4
 13931 00d0 04       		.byte	0x4
 13932 00d1 23       		.byte	0x23
 13933 00d2 08       		.uleb128 0x8
 13934 00d3 68000000 		.4byte	.LASF16
 13935 00d7 00       		.sleb128 0
ARM GAS  /cygdrive/c/DOCUME~1/mkwapisz/LOCALS~1/Temp/cc1OEM1Z.s 			page 262


 13936 00d8 08       		.uleb128 0x8
 13937 00d9 FB030000 		.4byte	.LASF17
 13938 00dd 01       		.sleb128 1
 13939 00de 08       		.uleb128 0x8
 13940 00df 69020000 		.4byte	.LASF18
 13941 00e3 02       		.sleb128 2
 13942 00e4 08       		.uleb128 0x8
 13943 00e5 52000000 		.4byte	.LASF19
 13944 00e9 03       		.sleb128 3
 13945 00ea 00       		.byte	0x0
 13946 00eb 07       		.uleb128 0x7
 13947 00ec 10010000 		.4byte	0x110
 13948 00f0 4B010000 		.4byte	.LASF20
 13949 00f4 04       		.byte	0x4
 13950 00f5 04       		.byte	0x4
 13951 00f6 2A       		.byte	0x2a
 13952 00f7 08       		.uleb128 0x8
 13953 00f8 C1000000 		.4byte	.LASF21
 13954 00fc 00       		.sleb128 0
 13955 00fd 08       		.uleb128 0x8
 13956 00fe E2010000 		.4byte	.LASF22
 13957 0102 01       		.sleb128 1
 13958 0103 08       		.uleb128 0x8
 13959 0104 28020000 		.4byte	.LASF23
 13960 0108 03       		.sleb128 3
 13961 0109 08       		.uleb128 0x8
 13962 010a A2040000 		.4byte	.LASF24
 13963 010e 02       		.sleb128 2
 13964 010f 00       		.byte	0x0
 13965 0110 09       		.uleb128 0x9
 13966 0111 B7010000 		.4byte	0x1b7
 13967 0115 40020000 		.4byte	.LASF36
 13968 0119 2C       		.byte	0x2c
 13969 011a 04       		.byte	0x4
 13970 011b 31       		.byte	0x31
 13971 011c 05       		.uleb128 0x5
 13972 011d 09000000 		.4byte	.LASF25
 13973 0121 04       		.byte	0x4
 13974 0122 32       		.byte	0x32
 13975 0123 A7000000 		.4byte	0xa7
 13976 0127 02       		.byte	0x2
 13977 0128 23       		.byte	0x23
 13978 0129 00       		.uleb128 0x0
 13979 012a 05       		.uleb128 0x5
 13980 012b DD010000 		.4byte	.LASF26
 13981 012f 04       		.byte	0x4
 13982 0130 33       		.byte	0x33
 13983 0131 C6000000 		.4byte	0xc6
 13984 0135 02       		.byte	0x2
 13985 0136 23       		.byte	0x23
 13986 0137 04       		.uleb128 0x4
 13987 0138 05       		.uleb128 0x5
 13988 0139 75040000 		.4byte	.LASF27
 13989 013d 04       		.byte	0x4
 13990 013e 34       		.byte	0x34
 13991 013f 99000000 		.4byte	0x99
 13992 0143 02       		.byte	0x2
ARM GAS  /cygdrive/c/DOCUME~1/mkwapisz/LOCALS~1/Temp/cc1OEM1Z.s 			page 263


 13993 0144 23       		.byte	0x23
 13994 0145 08       		.uleb128 0x8
 13995 0146 05       		.uleb128 0x5
 13996 0147 D3000000 		.4byte	.LASF28
 13997 014b 04       		.byte	0x4
 13998 014c 35       		.byte	0x35
 13999 014d EB000000 		.4byte	0xeb
 14000 0151 02       		.byte	0x2
 14001 0152 23       		.byte	0x23
 14002 0153 0C       		.uleb128 0xc
 14003 0154 05       		.uleb128 0x5
 14004 0155 3A010000 		.4byte	.LASF29
 14005 0159 04       		.byte	0x4
 14006 015a 37       		.byte	0x37
 14007 015b 4D000000 		.4byte	0x4d
 14008 015f 02       		.byte	0x2
 14009 0160 23       		.byte	0x23
 14010 0161 10       		.uleb128 0x10
 14011 0162 05       		.uleb128 0x5
 14012 0163 DB020000 		.4byte	.LASF30
 14013 0167 04       		.byte	0x4
 14014 0168 38       		.byte	0x38
 14015 0169 A0000000 		.4byte	0xa0
 14016 016d 02       		.byte	0x2
 14017 016e 23       		.byte	0x23
 14018 016f 14       		.uleb128 0x14
 14019 0170 05       		.uleb128 0x5
 14020 0171 CE030000 		.4byte	.LASF31
 14021 0175 04       		.byte	0x4
 14022 0176 3A       		.byte	0x3a
 14023 0177 8B000000 		.4byte	0x8b
 14024 017b 02       		.byte	0x2
 14025 017c 23       		.byte	0x23
 14026 017d 18       		.uleb128 0x18
 14027 017e 05       		.uleb128 0x5
 14028 017f F5040000 		.4byte	.LASF32
 14029 0183 04       		.byte	0x4
 14030 0184 3B       		.byte	0x3b
 14031 0185 8B000000 		.4byte	0x8b
 14032 0189 02       		.byte	0x2
 14033 018a 23       		.byte	0x23
 14034 018b 1A       		.uleb128 0x1a
 14035 018c 05       		.uleb128 0x5
 14036 018d 62000000 		.4byte	.LASF33
 14037 0191 04       		.byte	0x4
 14038 0192 3D       		.byte	0x3d
 14039 0193 99000000 		.4byte	0x99
 14040 0197 02       		.byte	0x2
 14041 0198 23       		.byte	0x23
 14042 0199 1C       		.uleb128 0x1c
 14043 019a 05       		.uleb128 0x5
 14044 019b 16020000 		.4byte	.LASF34
 14045 019f 04       		.byte	0x4
 14046 01a0 3E       		.byte	0x3e
 14047 01a1 99000000 		.4byte	0x99
 14048 01a5 02       		.byte	0x2
 14049 01a6 23       		.byte	0x23
ARM GAS  /cygdrive/c/DOCUME~1/mkwapisz/LOCALS~1/Temp/cc1OEM1Z.s 			page 264


 14050 01a7 20       		.uleb128 0x20
 14051 01a8 05       		.uleb128 0x5
 14052 01a9 42010000 		.4byte	.LASF35
 14053 01ad 04       		.byte	0x4
 14054 01ae 40       		.byte	0x40
 14055 01af 79000000 		.4byte	0x79
 14056 01b3 02       		.byte	0x2
 14057 01b4 23       		.byte	0x23
 14058 01b5 24       		.uleb128 0x24
 14059 01b6 00       		.byte	0x0
 14060 01b7 0A       		.uleb128 0xa
 14061 01b8 FE010000 		.4byte	0x1fe
 14062 01bc 16040000 		.4byte	.LASF37
 14063 01c0 3424     		.2byte	0x2434
 14064 01c2 04       		.byte	0x4
 14065 01c3 43       		.byte	0x43
 14066 01c4 05       		.uleb128 0x5
 14067 01c5 12030000 		.4byte	.LASF38
 14068 01c9 04       		.byte	0x4
 14069 01ca 44       		.byte	0x44
 14070 01cb 10010000 		.4byte	0x110
 14071 01cf 02       		.byte	0x2
 14072 01d0 23       		.byte	0x23
 14073 01d1 00       		.uleb128 0x0
 14074 01d2 05       		.uleb128 0x5
 14075 01d3 B8030000 		.4byte	.LASF39
 14076 01d7 04       		.byte	0x4
 14077 01d8 46       		.byte	0x46
 14078 01d9 99000000 		.4byte	0x99
 14079 01dd 02       		.byte	0x2
 14080 01de 23       		.byte	0x23
 14081 01df 2C       		.uleb128 0x2c
 14082 01e0 05       		.uleb128 0x5
 14083 01e1 09010000 		.4byte	.LASF40
 14084 01e5 04       		.byte	0x4
 14085 01e6 48       		.byte	0x48
 14086 01e7 FE010000 		.4byte	0x1fe
 14087 01eb 02       		.byte	0x2
 14088 01ec 23       		.byte	0x23
 14089 01ed 30       		.uleb128 0x30
 14090 01ee 05       		.uleb128 0x5
 14091 01ef B0030000 		.4byte	.LASF41
 14092 01f3 04       		.byte	0x4
 14093 01f4 49       		.byte	0x49
 14094 01f5 36020000 		.4byte	0x236
 14095 01f9 03       		.byte	0x3
 14096 01fa 23       		.byte	0x23
 14097 01fb B048     		.uleb128 0x2430
 14098 01fd 00       		.byte	0x0
 14099 01fe 0B       		.uleb128 0xb
 14100 01ff 1A020000 		.4byte	0x21a
 14101 0203 25000000 		.4byte	0x25
 14102 0207 0C       		.uleb128 0xc
 14103 0208 92000000 		.4byte	0x92
 14104 020c 01       		.byte	0x1
 14105 020d 0C       		.uleb128 0xc
 14106 020e 92000000 		.4byte	0x92
ARM GAS  /cygdrive/c/DOCUME~1/mkwapisz/LOCALS~1/Temp/cc1OEM1Z.s 			page 265


 14107 0212 23       		.byte	0x23
 14108 0213 0C       		.uleb128 0xc
 14109 0214 92000000 		.4byte	0x92
 14110 0218 1F       		.byte	0x1f
 14111 0219 00       		.byte	0x0
 14112 021a 0B       		.uleb128 0xb
 14113 021b 36020000 		.4byte	0x236
 14114 021f 25000000 		.4byte	0x25
 14115 0223 0C       		.uleb128 0xc
 14116 0224 92000000 		.4byte	0x92
 14117 0228 01       		.byte	0x1
 14118 0229 0C       		.uleb128 0xc
 14119 022a 92000000 		.4byte	0x92
 14120 022e 1F       		.byte	0x1f
 14121 022f 0C       		.uleb128 0xc
 14122 0230 92000000 		.4byte	0x92
 14123 0234 11       		.byte	0x11
 14124 0235 00       		.byte	0x0
 14125 0236 0D       		.uleb128 0xd
 14126 0237 04       		.byte	0x4
 14127 0238 1A020000 		.4byte	0x21a
 14128 023c 03       		.uleb128 0x3
 14129 023d 5F020000 		.4byte	.LASF42
 14130 0241 01       		.byte	0x1
 14131 0242 08       		.byte	0x8
 14132 0243 03       		.uleb128 0x3
 14133 0244 C3040000 		.4byte	.LASF43
 14134 0248 01       		.byte	0x1
 14135 0249 06       		.byte	0x6
 14136 024a 03       		.uleb128 0x3
 14137 024b A6030000 		.4byte	.LASF44
 14138 024f 02       		.byte	0x2
 14139 0250 05       		.byte	0x5
 14140 0251 09       		.uleb128 0x9
 14141 0252 88020000 		.4byte	0x288
 14142 0256 0A050000 		.4byte	.LASF45
 14143 025a 08       		.byte	0x8
 14144 025b 03       		.byte	0x3
 14145 025c 1E       		.byte	0x1e
 14146 025d 05       		.uleb128 0x5
 14147 025e DB020000 		.4byte	.LASF30
 14148 0262 03       		.byte	0x3
 14149 0263 1F       		.byte	0x1f
 14150 0264 A0000000 		.4byte	0xa0
 14151 0268 02       		.byte	0x2
 14152 0269 23       		.byte	0x23
 14153 026a 00       		.uleb128 0x0
 14154 026b 05       		.uleb128 0x5
 14155 026c E6020000 		.4byte	.LASF46
 14156 0270 03       		.byte	0x3
 14157 0271 20       		.byte	0x20
 14158 0272 8B000000 		.4byte	0x8b
 14159 0276 02       		.byte	0x2
 14160 0277 23       		.byte	0x23
 14161 0278 04       		.uleb128 0x4
 14162 0279 05       		.uleb128 0x5
 14163 027a C0030000 		.4byte	.LASF47
ARM GAS  /cygdrive/c/DOCUME~1/mkwapisz/LOCALS~1/Temp/cc1OEM1Z.s 			page 266


 14164 027e 03       		.byte	0x3
 14165 027f 21       		.byte	0x21
 14166 0280 8B000000 		.4byte	0x8b
 14167 0284 02       		.byte	0x2
 14168 0285 23       		.byte	0x23
 14169 0286 06       		.uleb128 0x6
 14170 0287 00       		.byte	0x0
 14171 0288 0A       		.uleb128 0xa
 14172 0289 C2020000 		.4byte	0x2c2
 14173 028d 98040000 		.4byte	.LASF48
 14174 0291 0C10     		.2byte	0x100c
 14175 0293 03       		.byte	0x3
 14176 0294 24       		.byte	0x24
 14177 0295 05       		.uleb128 0x5
 14178 0296 C7030000 		.4byte	.LASF49
 14179 029a 03       		.byte	0x3
 14180 029b 25       		.byte	0x25
 14181 029c C2020000 		.4byte	0x2c2
 14182 02a0 02       		.byte	0x2
 14183 02a1 23       		.byte	0x23
 14184 02a2 00       		.uleb128 0x0
 14185 02a3 05       		.uleb128 0x5
 14186 02a4 47000000 		.4byte	.LASF50
 14187 02a8 03       		.byte	0x3
 14188 02a9 28       		.byte	0x28
 14189 02aa A0000000 		.4byte	0xa0
 14190 02ae 03       		.byte	0x3
 14191 02af 23       		.byte	0x23
 14192 02b0 8020     		.uleb128 0x1000
 14193 02b2 0E       		.uleb128 0xe
 14194 02b3 70636D00 		.ascii	"pcm\000"
 14195 02b7 03       		.byte	0x3
 14196 02b8 29       		.byte	0x29
 14197 02b9 51020000 		.4byte	0x251
 14198 02bd 03       		.byte	0x3
 14199 02be 23       		.byte	0x23
 14200 02bf 8420     		.uleb128 0x1004
 14201 02c1 00       		.byte	0x0
 14202 02c2 0B       		.uleb128 0xb
 14203 02c3 EA020000 		.4byte	0x2ea
 14204 02c7 25000000 		.4byte	0x25
 14205 02cb 0C       		.uleb128 0xc
 14206 02cc 92000000 		.4byte	0x92
 14207 02d0 01       		.byte	0x1
 14208 02d1 0C       		.uleb128 0xc
 14209 02d2 92000000 		.4byte	0x92
 14210 02d6 01       		.byte	0x1
 14211 02d7 0C       		.uleb128 0xc
 14212 02d8 92000000 		.4byte	0x92
 14213 02dc 01       		.byte	0x1
 14214 02dd 0C       		.uleb128 0xc
 14215 02de 92000000 		.4byte	0x92
 14216 02e2 0F       		.byte	0xf
 14217 02e3 0C       		.uleb128 0xc
 14218 02e4 92000000 		.4byte	0x92
 14219 02e8 07       		.byte	0x7
 14220 02e9 00       		.byte	0x0
ARM GAS  /cygdrive/c/DOCUME~1/mkwapisz/LOCALS~1/Temp/cc1OEM1Z.s 			page 267


 14221 02ea 03       		.uleb128 0x3
 14222 02eb BE020000 		.4byte	.LASF51
 14223 02ef 08       		.byte	0x8
 14224 02f0 05       		.byte	0x5
 14225 02f1 03       		.uleb128 0x3
 14226 02f2 68010000 		.4byte	.LASF52
 14227 02f6 08       		.byte	0x8
 14228 02f7 07       		.byte	0x7
 14229 02f8 0F       		.uleb128 0xf
 14230 02f9 22030000 		.4byte	0x322
 14231 02fd EF020000 		.4byte	.LASF60
 14232 0301 01       		.byte	0x1
 14233 0302 31       		.byte	0x31
 14234 0303 01       		.byte	0x1
 14235 0304 99000000 		.4byte	0x99
 14236 0308 00000000 		.4byte	.LFB2
 14237 030c 20000000 		.4byte	.LFE2
 14238 0310 01       		.byte	0x1
 14239 0311 5D       		.byte	0x5d
 14240 0312 10       		.uleb128 0x10
 14241 0313 46040000 		.4byte	.LASF53
 14242 0317 01       		.byte	0x1
 14243 0318 30       		.byte	0x30
 14244 0319 25000000 		.4byte	0x25
 14245 031d 00000000 		.4byte	.LLST1
 14246 0321 00       		.byte	0x0
 14247 0322 11       		.uleb128 0x11
 14248 0323 6B030000 		.4byte	0x36b
 14249 0327 01       		.byte	0x1
 14250 0328 CC020000 		.4byte	.LASF55
 14251 032c 01       		.byte	0x1
 14252 032d 52       		.byte	0x52
 14253 032e 01       		.byte	0x1
 14254 032f 20000000 		.4byte	.LFB4
 14255 0333 94000000 		.4byte	.LFE4
 14256 0337 1E000000 		.4byte	.LLST2
 14257 033b 12       		.uleb128 0x12
 14258 033c CF040000 		.4byte	.LASF54
 14259 0340 01       		.byte	0x1
 14260 0341 51       		.byte	0x51
 14261 0342 6B030000 		.4byte	0x36b
 14262 0346 01       		.byte	0x1
 14263 0347 50       		.byte	0x50
 14264 0348 13       		.uleb128 0x13
 14265 0349 636800   		.ascii	"ch\000"
 14266 034c 01       		.byte	0x1
 14267 034d 53       		.byte	0x53
 14268 034e A0000000 		.4byte	0xa0
 14269 0352 01       		.byte	0x1
 14270 0353 5E       		.byte	0x5e
 14271 0354 13       		.uleb128 0x13
 14272 0355 7300     		.ascii	"s\000"
 14273 0357 01       		.byte	0x1
 14274 0358 53       		.byte	0x53
 14275 0359 A0000000 		.4byte	0xa0
 14276 035d 01       		.byte	0x1
 14277 035e 5C       		.byte	0x5c
ARM GAS  /cygdrive/c/DOCUME~1/mkwapisz/LOCALS~1/Temp/cc1OEM1Z.s 			page 268


 14278 035f 13       		.uleb128 0x13
 14279 0360 7600     		.ascii	"v\000"
 14280 0362 01       		.byte	0x1
 14281 0363 53       		.byte	0x53
 14282 0364 A0000000 		.4byte	0xa0
 14283 0368 01       		.byte	0x1
 14284 0369 51       		.byte	0x51
 14285 036a 00       		.byte	0x0
 14286 036b 0D       		.uleb128 0xd
 14287 036c 04       		.byte	0x4
 14288 036d 88020000 		.4byte	0x288
 14289 0371 11       		.uleb128 0x11
 14290 0372 9A030000 		.4byte	0x39a
 14291 0376 01       		.byte	0x1
 14292 0377 E7030000 		.4byte	.LASF56
 14293 037b 01       		.byte	0x1
 14294 037c 43       		.byte	0x43
 14295 037d 01       		.byte	0x1
 14296 037e 94000000 		.4byte	.LFB3
 14297 0382 D0000000 		.4byte	.LFE3
 14298 0386 3D000000 		.4byte	.LLST3
 14299 038a 10       		.uleb128 0x10
 14300 038b CF040000 		.4byte	.LASF54
 14301 038f 01       		.byte	0x1
 14302 0390 42       		.byte	0x42
 14303 0391 6B030000 		.4byte	0x36b
 14304 0395 5C000000 		.4byte	.LLST4
 14305 0399 00       		.byte	0x0
 14306 039a 14       		.uleb128 0x14
 14307 039b 00040000 		.4byte	0x400
 14308 039f 01       		.byte	0x1
 14309 03a0 CD010000 		.4byte	.LASF57
 14310 03a4 01       		.byte	0x1
 14311 03a5 9203     		.2byte	0x392
 14312 03a7 01       		.byte	0x1
 14313 03a8 D0000000 		.4byte	.LFB8
 14314 03ac B0010000 		.4byte	.LFE8
 14315 03b0 7A000000 		.4byte	.LLST5
 14316 03b4 15       		.uleb128 0x15
 14317 03b5 CF040000 		.4byte	.LASF54
 14318 03b9 01       		.byte	0x1
 14319 03ba 9103     		.2byte	0x391
 14320 03bc 6B030000 		.4byte	0x36b
 14321 03c0 99000000 		.4byte	.LLST6
 14322 03c4 15       		.uleb128 0x15
 14323 03c5 B8040000 		.4byte	.LASF58
 14324 03c9 01       		.byte	0x1
 14325 03ca 9103     		.2byte	0x391
 14326 03cc 00040000 		.4byte	0x400
 14327 03d0 B7000000 		.4byte	.LLST7
 14328 03d4 16       		.uleb128 0x16
 14329 03d5 6E636800 		.ascii	"nch\000"
 14330 03d9 01       		.byte	0x1
 14331 03da 9303     		.2byte	0x393
 14332 03dc A0000000 		.4byte	0xa0
 14333 03e0 01       		.byte	0x1
 14334 03e1 58       		.byte	0x58
ARM GAS  /cygdrive/c/DOCUME~1/mkwapisz/LOCALS~1/Temp/cc1OEM1Z.s 			page 269


 14335 03e2 16       		.uleb128 0x16
 14336 03e3 6E7300   		.ascii	"ns\000"
 14337 03e6 01       		.byte	0x1
 14338 03e7 9303     		.2byte	0x393
 14339 03e9 A0000000 		.4byte	0xa0
 14340 03ed 01       		.byte	0x1
 14341 03ee 57       		.byte	0x57
 14342 03ef 17       		.uleb128 0x17
 14343 03f0 94030000 		.4byte	.LASF59
 14344 03f4 01       		.byte	0x1
 14345 03f5 9403     		.2byte	0x394
 14346 03f7 26040000 		.4byte	0x426
 14347 03fb D5000000 		.4byte	.LLST8
 14348 03ff 00       		.byte	0x0
 14349 0400 0D       		.uleb128 0xd
 14350 0401 04       		.byte	0x4
 14351 0402 06040000 		.4byte	0x406
 14352 0406 18       		.uleb128 0x18
 14353 0407 B7010000 		.4byte	0x1b7
 14354 040b 19       		.uleb128 0x19
 14355 040c 26040000 		.4byte	0x426
 14356 0410 01       		.byte	0x1
 14357 0411 1A       		.uleb128 0x1a
 14358 0412 6B030000 		.4byte	0x36b
 14359 0416 1A       		.uleb128 0x1a
 14360 0417 00040000 		.4byte	0x400
 14361 041b 1A       		.uleb128 0x1a
 14362 041c A0000000 		.4byte	0xa0
 14363 0420 1A       		.uleb128 0x1a
 14364 0421 A0000000 		.4byte	0xa0
 14365 0425 00       		.byte	0x0
 14366 0426 0D       		.uleb128 0xd
 14367 0427 04       		.byte	0x4
 14368 0428 0B040000 		.4byte	0x40b
 14369 042c 1B       		.uleb128 0x1b
 14370 042d 831C0000 		.4byte	0x1c83
 14371 0431 84030000 		.4byte	.LASF61
 14372 0435 01       		.byte	0x1
 14373 0436 9B       		.byte	0x9b
 14374 0437 01       		.byte	0x1
 14375 0438 B0010000 		.4byte	.LFB5
 14376 043c C0120000 		.4byte	.LFE5
 14377 0440 F3000000 		.4byte	.LLST9
 14378 0444 1C       		.uleb128 0x1c
 14379 0445 696E00   		.ascii	"in\000"
 14380 0448 01       		.byte	0x1
 14381 0449 99       		.byte	0x99
 14382 044a 831C0000 		.4byte	0x1c83
 14383 044e 1F010000 		.4byte	.LLST10
 14384 0452 10       		.uleb128 0x10
 14385 0453 4D000000 		.4byte	.LASF62
 14386 0457 01       		.byte	0x1
 14387 0458 99       		.byte	0x99
 14388 0459 A0000000 		.4byte	0xa0
 14389 045d D7010000 		.4byte	.LLST11
 14390 0461 1C       		.uleb128 0x1c
 14391 0462 6C6F00   		.ascii	"lo\000"
ARM GAS  /cygdrive/c/DOCUME~1/mkwapisz/LOCALS~1/Temp/cc1OEM1Z.s 			page 270


 14392 0465 01       		.byte	0x1
 14393 0466 9A       		.byte	0x9a
 14394 0467 9E1C0000 		.4byte	0x1c9e
 14395 046b F7010000 		.4byte	.LLST12
 14396 046f 1C       		.uleb128 0x1c
 14397 0470 686900   		.ascii	"hi\000"
 14398 0473 01       		.byte	0x1
 14399 0474 9A       		.byte	0x9a
 14400 0475 9E1C0000 		.4byte	0x1c9e
 14401 0479 17020000 		.4byte	.LLST13
 14402 047d 13       		.uleb128 0x13
 14403 047e 743000   		.ascii	"t0\000"
 14404 0481 01       		.byte	0x1
 14405 0482 FA       		.byte	0xfa
 14406 0483 891C0000 		.4byte	0x1c89
 14407 0487 03       		.byte	0x3
 14408 0488 91       		.byte	0x91
 14409 0489 E47C     		.sleb128 -412
 14410 048b 1D       		.uleb128 0x1d
 14411 048c 74313600 		.ascii	"t16\000"
 14412 0490 01       		.byte	0x1
 14413 0491 FA       		.byte	0xfa
 14414 0492 891C0000 		.4byte	0x1c89
 14415 0496 37020000 		.4byte	.LLST14
 14416 049a 13       		.uleb128 0x13
 14417 049b 743100   		.ascii	"t1\000"
 14418 049e 01       		.byte	0x1
 14419 049f FB       		.byte	0xfb
 14420 04a0 891C0000 		.4byte	0x1c89
 14421 04a4 03       		.byte	0x3
 14422 04a5 91       		.byte	0x91
 14423 04a6 E87C     		.sleb128 -408
 14424 04a8 1D       		.uleb128 0x1d
 14425 04a9 74313700 		.ascii	"t17\000"
 14426 04ad 01       		.byte	0x1
 14427 04ae FB       		.byte	0xfb
 14428 04af 891C0000 		.4byte	0x1c89
 14429 04b3 55020000 		.4byte	.LLST15
 14430 04b7 13       		.uleb128 0x13
 14431 04b8 74343100 		.ascii	"t41\000"
 14432 04bc 01       		.byte	0x1
 14433 04bd FD       		.byte	0xfd
 14434 04be 891C0000 		.4byte	0x1c89
 14435 04c2 03       		.byte	0x3
 14436 04c3 91       		.byte	0x91
 14437 04c4 EC7C     		.sleb128 -404
 14438 04c6 13       		.uleb128 0x13
 14439 04c7 74353900 		.ascii	"t59\000"
 14440 04cb 01       		.byte	0x1
 14441 04cc FE       		.byte	0xfe
 14442 04cd 891C0000 		.4byte	0x1c89
 14443 04d1 03       		.byte	0x3
 14444 04d2 91       		.byte	0x91
 14445 04d3 F07C     		.sleb128 -400
 14446 04d5 13       		.uleb128 0x13
 14447 04d6 74333300 		.ascii	"t33\000"
 14448 04da 01       		.byte	0x1
ARM GAS  /cygdrive/c/DOCUME~1/mkwapisz/LOCALS~1/Temp/cc1OEM1Z.s 			page 271


 14449 04db FF       		.byte	0xff
 14450 04dc 891C0000 		.4byte	0x1c89
 14451 04e0 03       		.byte	0x3
 14452 04e1 91       		.byte	0x91
 14453 04e2 F47C     		.sleb128 -396
 14454 04e4 16       		.uleb128 0x16
 14455 04e5 74353000 		.ascii	"t50\000"
 14456 04e9 01       		.byte	0x1
 14457 04ea 0001     		.2byte	0x100
 14458 04ec 891C0000 		.4byte	0x1c89
 14459 04f0 03       		.byte	0x3
 14460 04f1 91       		.byte	0x91
 14461 04f2 F87C     		.sleb128 -392
 14462 04f4 16       		.uleb128 0x16
 14463 04f5 743200   		.ascii	"t2\000"
 14464 04f8 01       		.byte	0x1
 14465 04f9 0201     		.2byte	0x102
 14466 04fb 891C0000 		.4byte	0x1c89
 14467 04ff 03       		.byte	0x3
 14468 0500 91       		.byte	0x91
 14469 0501 FC7C     		.sleb128 -388
 14470 0503 1E       		.uleb128 0x1e
 14471 0504 74313800 		.ascii	"t18\000"
 14472 0508 01       		.byte	0x1
 14473 0509 0201     		.2byte	0x102
 14474 050b 891C0000 		.4byte	0x1c89
 14475 050f 73020000 		.4byte	.LLST16
 14476 0513 1E       		.uleb128 0x1e
 14477 0514 743300   		.ascii	"t3\000"
 14478 0517 01       		.byte	0x1
 14479 0518 0301     		.2byte	0x103
 14480 051a 891C0000 		.4byte	0x1c89
 14481 051e 91020000 		.4byte	.LLST17
 14482 0522 1E       		.uleb128 0x1e
 14483 0523 74313900 		.ascii	"t19\000"
 14484 0527 01       		.byte	0x1
 14485 0528 0301     		.2byte	0x103
 14486 052a 891C0000 		.4byte	0x1c89
 14487 052e A4020000 		.4byte	.LLST18
 14488 0532 16       		.uleb128 0x16
 14489 0533 74343200 		.ascii	"t42\000"
 14490 0537 01       		.byte	0x1
 14491 0538 0501     		.2byte	0x105
 14492 053a 891C0000 		.4byte	0x1c89
 14493 053e 03       		.byte	0x3
 14494 053f 91       		.byte	0x91
 14495 0540 807D     		.sleb128 -384
 14496 0542 16       		.uleb128 0x16
 14497 0543 74363000 		.ascii	"t60\000"
 14498 0547 01       		.byte	0x1
 14499 0548 0601     		.2byte	0x106
 14500 054a 891C0000 		.4byte	0x1c89
 14501 054e 03       		.byte	0x3
 14502 054f 91       		.byte	0x91
 14503 0550 847D     		.sleb128 -380
 14504 0552 16       		.uleb128 0x16
 14505 0553 74333400 		.ascii	"t34\000"
ARM GAS  /cygdrive/c/DOCUME~1/mkwapisz/LOCALS~1/Temp/cc1OEM1Z.s 			page 272


 14506 0557 01       		.byte	0x1
 14507 0558 0701     		.2byte	0x107
 14508 055a 891C0000 		.4byte	0x1c89
 14509 055e 03       		.byte	0x3
 14510 055f 91       		.byte	0x91
 14511 0560 887D     		.sleb128 -376
 14512 0562 16       		.uleb128 0x16
 14513 0563 74353100 		.ascii	"t51\000"
 14514 0567 01       		.byte	0x1
 14515 0568 0801     		.2byte	0x108
 14516 056a 891C0000 		.4byte	0x1c89
 14517 056e 03       		.byte	0x3
 14518 056f 91       		.byte	0x91
 14519 0570 8C7D     		.sleb128 -372
 14520 0572 16       		.uleb128 0x16
 14521 0573 743400   		.ascii	"t4\000"
 14522 0576 01       		.byte	0x1
 14523 0577 0A01     		.2byte	0x10a
 14524 0579 891C0000 		.4byte	0x1c89
 14525 057d 03       		.byte	0x3
 14526 057e 91       		.byte	0x91
 14527 057f 907D     		.sleb128 -368
 14528 0581 1E       		.uleb128 0x1e
 14529 0582 74323000 		.ascii	"t20\000"
 14530 0586 01       		.byte	0x1
 14531 0587 0A01     		.2byte	0x10a
 14532 0589 891C0000 		.4byte	0x1c89
 14533 058d C2020000 		.4byte	.LLST19
 14534 0591 16       		.uleb128 0x16
 14535 0592 743500   		.ascii	"t5\000"
 14536 0595 01       		.byte	0x1
 14537 0596 0B01     		.2byte	0x10b
 14538 0598 891C0000 		.4byte	0x1c89
 14539 059c 03       		.byte	0x3
 14540 059d 91       		.byte	0x91
 14541 059e 947D     		.sleb128 -364
 14542 05a0 1E       		.uleb128 0x1e
 14543 05a1 74323100 		.ascii	"t21\000"
 14544 05a5 01       		.byte	0x1
 14545 05a6 0B01     		.2byte	0x10b
 14546 05a8 891C0000 		.4byte	0x1c89
 14547 05ac E0020000 		.4byte	.LLST20
 14548 05b0 16       		.uleb128 0x16
 14549 05b1 74343300 		.ascii	"t43\000"
 14550 05b5 01       		.byte	0x1
 14551 05b6 0D01     		.2byte	0x10d
 14552 05b8 891C0000 		.4byte	0x1c89
 14553 05bc 03       		.byte	0x3
 14554 05bd 91       		.byte	0x91
 14555 05be 987D     		.sleb128 -360
 14556 05c0 16       		.uleb128 0x16
 14557 05c1 74363100 		.ascii	"t61\000"
 14558 05c5 01       		.byte	0x1
 14559 05c6 0E01     		.2byte	0x10e
 14560 05c8 891C0000 		.4byte	0x1c89
 14561 05cc 03       		.byte	0x3
 14562 05cd 91       		.byte	0x91
ARM GAS  /cygdrive/c/DOCUME~1/mkwapisz/LOCALS~1/Temp/cc1OEM1Z.s 			page 273


 14563 05ce 9C7D     		.sleb128 -356
 14564 05d0 16       		.uleb128 0x16
 14565 05d1 74333500 		.ascii	"t35\000"
 14566 05d5 01       		.byte	0x1
 14567 05d6 0F01     		.2byte	0x10f
 14568 05d8 891C0000 		.4byte	0x1c89
 14569 05dc 03       		.byte	0x3
 14570 05dd 91       		.byte	0x91
 14571 05de A07D     		.sleb128 -352
 14572 05e0 16       		.uleb128 0x16
 14573 05e1 74353200 		.ascii	"t52\000"
 14574 05e5 01       		.byte	0x1
 14575 05e6 1001     		.2byte	0x110
 14576 05e8 891C0000 		.4byte	0x1c89
 14577 05ec 03       		.byte	0x3
 14578 05ed 91       		.byte	0x91
 14579 05ee A47D     		.sleb128 -348
 14580 05f0 16       		.uleb128 0x16
 14581 05f1 743600   		.ascii	"t6\000"
 14582 05f4 01       		.byte	0x1
 14583 05f5 1201     		.2byte	0x112
 14584 05f7 891C0000 		.4byte	0x1c89
 14585 05fb 03       		.byte	0x3
 14586 05fc 91       		.byte	0x91
 14587 05fd A87D     		.sleb128 -344
 14588 05ff 1E       		.uleb128 0x1e
 14589 0600 74323200 		.ascii	"t22\000"
 14590 0604 01       		.byte	0x1
 14591 0605 1201     		.2byte	0x112
 14592 0607 891C0000 		.4byte	0x1c89
 14593 060b FE020000 		.4byte	.LLST21
 14594 060f 16       		.uleb128 0x16
 14595 0610 743700   		.ascii	"t7\000"
 14596 0613 01       		.byte	0x1
 14597 0614 1301     		.2byte	0x113
 14598 0616 891C0000 		.4byte	0x1c89
 14599 061a 03       		.byte	0x3
 14600 061b 91       		.byte	0x91
 14601 061c AC7D     		.sleb128 -340
 14602 061e 1E       		.uleb128 0x1e
 14603 061f 74323300 		.ascii	"t23\000"
 14604 0623 01       		.byte	0x1
 14605 0624 1301     		.2byte	0x113
 14606 0626 891C0000 		.4byte	0x1c89
 14607 062a 1C030000 		.4byte	.LLST22
 14608 062e 16       		.uleb128 0x16
 14609 062f 74343400 		.ascii	"t44\000"
 14610 0633 01       		.byte	0x1
 14611 0634 1501     		.2byte	0x115
 14612 0636 891C0000 		.4byte	0x1c89
 14613 063a 03       		.byte	0x3
 14614 063b 91       		.byte	0x91
 14615 063c B07D     		.sleb128 -336
 14616 063e 16       		.uleb128 0x16
 14617 063f 74363200 		.ascii	"t62\000"
 14618 0643 01       		.byte	0x1
 14619 0644 1601     		.2byte	0x116
ARM GAS  /cygdrive/c/DOCUME~1/mkwapisz/LOCALS~1/Temp/cc1OEM1Z.s 			page 274


 14620 0646 891C0000 		.4byte	0x1c89
 14621 064a 03       		.byte	0x3
 14622 064b 91       		.byte	0x91
 14623 064c B47D     		.sleb128 -332
 14624 064e 16       		.uleb128 0x16
 14625 064f 74333600 		.ascii	"t36\000"
 14626 0653 01       		.byte	0x1
 14627 0654 1701     		.2byte	0x117
 14628 0656 891C0000 		.4byte	0x1c89
 14629 065a 03       		.byte	0x3
 14630 065b 91       		.byte	0x91
 14631 065c B87D     		.sleb128 -328
 14632 065e 16       		.uleb128 0x16
 14633 065f 74353300 		.ascii	"t53\000"
 14634 0663 01       		.byte	0x1
 14635 0664 1801     		.2byte	0x118
 14636 0666 891C0000 		.4byte	0x1c89
 14637 066a 03       		.byte	0x3
 14638 066b 91       		.byte	0x91
 14639 066c BC7D     		.sleb128 -324
 14640 066e 16       		.uleb128 0x16
 14641 066f 743800   		.ascii	"t8\000"
 14642 0672 01       		.byte	0x1
 14643 0673 1A01     		.2byte	0x11a
 14644 0675 891C0000 		.4byte	0x1c89
 14645 0679 03       		.byte	0x3
 14646 067a 91       		.byte	0x91
 14647 067b C07D     		.sleb128 -320
 14648 067d 1E       		.uleb128 0x1e
 14649 067e 74323400 		.ascii	"t24\000"
 14650 0682 01       		.byte	0x1
 14651 0683 1A01     		.2byte	0x11a
 14652 0685 891C0000 		.4byte	0x1c89
 14653 0689 3A030000 		.4byte	.LLST23
 14654 068d 16       		.uleb128 0x16
 14655 068e 743900   		.ascii	"t9\000"
 14656 0691 01       		.byte	0x1
 14657 0692 1B01     		.2byte	0x11b
 14658 0694 891C0000 		.4byte	0x1c89
 14659 0698 03       		.byte	0x3
 14660 0699 91       		.byte	0x91
 14661 069a C47D     		.sleb128 -316
 14662 069c 1E       		.uleb128 0x1e
 14663 069d 74323500 		.ascii	"t25\000"
 14664 06a1 01       		.byte	0x1
 14665 06a2 1B01     		.2byte	0x11b
 14666 06a4 891C0000 		.4byte	0x1c89
 14667 06a8 58030000 		.4byte	.LLST24
 14668 06ac 16       		.uleb128 0x16
 14669 06ad 74343500 		.ascii	"t45\000"
 14670 06b1 01       		.byte	0x1
 14671 06b2 1D01     		.2byte	0x11d
 14672 06b4 891C0000 		.4byte	0x1c89
 14673 06b8 03       		.byte	0x3
 14674 06b9 91       		.byte	0x91
 14675 06ba C87D     		.sleb128 -312
 14676 06bc 16       		.uleb128 0x16
ARM GAS  /cygdrive/c/DOCUME~1/mkwapisz/LOCALS~1/Temp/cc1OEM1Z.s 			page 275


 14677 06bd 74363300 		.ascii	"t63\000"
 14678 06c1 01       		.byte	0x1
 14679 06c2 1E01     		.2byte	0x11e
 14680 06c4 891C0000 		.4byte	0x1c89
 14681 06c8 03       		.byte	0x3
 14682 06c9 91       		.byte	0x91
 14683 06ca CC7D     		.sleb128 -308
 14684 06cc 16       		.uleb128 0x16
 14685 06cd 74333700 		.ascii	"t37\000"
 14686 06d1 01       		.byte	0x1
 14687 06d2 1F01     		.2byte	0x11f
 14688 06d4 891C0000 		.4byte	0x1c89
 14689 06d8 03       		.byte	0x3
 14690 06d9 91       		.byte	0x91
 14691 06da D07D     		.sleb128 -304
 14692 06dc 16       		.uleb128 0x16
 14693 06dd 74353400 		.ascii	"t54\000"
 14694 06e1 01       		.byte	0x1
 14695 06e2 2001     		.2byte	0x120
 14696 06e4 891C0000 		.4byte	0x1c89
 14697 06e8 03       		.byte	0x3
 14698 06e9 91       		.byte	0x91
 14699 06ea D47D     		.sleb128 -300
 14700 06ec 1E       		.uleb128 0x1e
 14701 06ed 74313000 		.ascii	"t10\000"
 14702 06f1 01       		.byte	0x1
 14703 06f2 2201     		.2byte	0x122
 14704 06f4 891C0000 		.4byte	0x1c89
 14705 06f8 76030000 		.4byte	.LLST25
 14706 06fc 16       		.uleb128 0x16
 14707 06fd 74323600 		.ascii	"t26\000"
 14708 0701 01       		.byte	0x1
 14709 0702 2201     		.2byte	0x122
 14710 0704 891C0000 		.4byte	0x1c89
 14711 0708 03       		.byte	0x3
 14712 0709 91       		.byte	0x91
 14713 070a D87D     		.sleb128 -296
 14714 070c 16       		.uleb128 0x16
 14715 070d 74313100 		.ascii	"t11\000"
 14716 0711 01       		.byte	0x1
 14717 0712 2301     		.2byte	0x123
 14718 0714 891C0000 		.4byte	0x1c89
 14719 0718 03       		.byte	0x3
 14720 0719 91       		.byte	0x91
 14721 071a DC7D     		.sleb128 -292
 14722 071c 1E       		.uleb128 0x1e
 14723 071d 74323700 		.ascii	"t27\000"
 14724 0721 01       		.byte	0x1
 14725 0722 2301     		.2byte	0x123
 14726 0724 891C0000 		.4byte	0x1c89
 14727 0728 89030000 		.4byte	.LLST26
 14728 072c 16       		.uleb128 0x16
 14729 072d 74343600 		.ascii	"t46\000"
 14730 0731 01       		.byte	0x1
 14731 0732 2501     		.2byte	0x125
 14732 0734 891C0000 		.4byte	0x1c89
 14733 0738 03       		.byte	0x3
ARM GAS  /cygdrive/c/DOCUME~1/mkwapisz/LOCALS~1/Temp/cc1OEM1Z.s 			page 276


 14734 0739 91       		.byte	0x91
 14735 073a E07D     		.sleb128 -288
 14736 073c 16       		.uleb128 0x16
 14737 073d 74363400 		.ascii	"t64\000"
 14738 0741 01       		.byte	0x1
 14739 0742 2601     		.2byte	0x126
 14740 0744 891C0000 		.4byte	0x1c89
 14741 0748 03       		.byte	0x3
 14742 0749 91       		.byte	0x91
 14743 074a E47D     		.sleb128 -284
 14744 074c 1E       		.uleb128 0x1e
 14745 074d 74333800 		.ascii	"t38\000"
 14746 0751 01       		.byte	0x1
 14747 0752 2701     		.2byte	0x127
 14748 0754 891C0000 		.4byte	0x1c89
 14749 0758 9C030000 		.4byte	.LLST27
 14750 075c 16       		.uleb128 0x16
 14751 075d 74353500 		.ascii	"t55\000"
 14752 0761 01       		.byte	0x1
 14753 0762 2801     		.2byte	0x128
 14754 0764 891C0000 		.4byte	0x1c89
 14755 0768 03       		.byte	0x3
 14756 0769 91       		.byte	0x91
 14757 076a E87D     		.sleb128 -280
 14758 076c 16       		.uleb128 0x16
 14759 076d 74313200 		.ascii	"t12\000"
 14760 0771 01       		.byte	0x1
 14761 0772 2A01     		.2byte	0x12a
 14762 0774 891C0000 		.4byte	0x1c89
 14763 0778 03       		.byte	0x3
 14764 0779 91       		.byte	0x91
 14765 077a EC7D     		.sleb128 -276
 14766 077c 1E       		.uleb128 0x1e
 14767 077d 74323800 		.ascii	"t28\000"
 14768 0781 01       		.byte	0x1
 14769 0782 2A01     		.2byte	0x12a
 14770 0784 891C0000 		.4byte	0x1c89
 14771 0788 AF030000 		.4byte	.LLST28
 14772 078c 1E       		.uleb128 0x1e
 14773 078d 74313300 		.ascii	"t13\000"
 14774 0791 01       		.byte	0x1
 14775 0792 2B01     		.2byte	0x12b
 14776 0794 891C0000 		.4byte	0x1c89
 14777 0798 CD030000 		.4byte	.LLST29
 14778 079c 1E       		.uleb128 0x1e
 14779 079d 74323900 		.ascii	"t29\000"
 14780 07a1 01       		.byte	0x1
 14781 07a2 2B01     		.2byte	0x12b
 14782 07a4 891C0000 		.4byte	0x1c89
 14783 07a8 E0030000 		.4byte	.LLST30
 14784 07ac 16       		.uleb128 0x16
 14785 07ad 74343700 		.ascii	"t47\000"
 14786 07b1 01       		.byte	0x1
 14787 07b2 2D01     		.2byte	0x12d
 14788 07b4 891C0000 		.4byte	0x1c89
 14789 07b8 03       		.byte	0x3
 14790 07b9 91       		.byte	0x91
ARM GAS  /cygdrive/c/DOCUME~1/mkwapisz/LOCALS~1/Temp/cc1OEM1Z.s 			page 277


 14791 07ba F07D     		.sleb128 -272
 14792 07bc 16       		.uleb128 0x16
 14793 07bd 74363500 		.ascii	"t65\000"
 14794 07c1 01       		.byte	0x1
 14795 07c2 2E01     		.2byte	0x12e
 14796 07c4 891C0000 		.4byte	0x1c89
 14797 07c8 03       		.byte	0x3
 14798 07c9 91       		.byte	0x91
 14799 07ca F47D     		.sleb128 -268
 14800 07cc 1E       		.uleb128 0x1e
 14801 07cd 74333900 		.ascii	"t39\000"
 14802 07d1 01       		.byte	0x1
 14803 07d2 2F01     		.2byte	0x12f
 14804 07d4 891C0000 		.4byte	0x1c89
 14805 07d8 FE030000 		.4byte	.LLST31
 14806 07dc 16       		.uleb128 0x16
 14807 07dd 74353600 		.ascii	"t56\000"
 14808 07e1 01       		.byte	0x1
 14809 07e2 3001     		.2byte	0x130
 14810 07e4 891C0000 		.4byte	0x1c89
 14811 07e8 03       		.byte	0x3
 14812 07e9 91       		.byte	0x91
 14813 07ea F87D     		.sleb128 -264
 14814 07ec 1E       		.uleb128 0x1e
 14815 07ed 74313400 		.ascii	"t14\000"
 14816 07f1 01       		.byte	0x1
 14817 07f2 3201     		.2byte	0x132
 14818 07f4 891C0000 		.4byte	0x1c89
 14819 07f8 11040000 		.4byte	.LLST32
 14820 07fc 1E       		.uleb128 0x1e
 14821 07fd 74333000 		.ascii	"t30\000"
 14822 0801 01       		.byte	0x1
 14823 0802 3201     		.2byte	0x132
 14824 0804 891C0000 		.4byte	0x1c89
 14825 0808 24040000 		.4byte	.LLST33
 14826 080c 1E       		.uleb128 0x1e
 14827 080d 74313500 		.ascii	"t15\000"
 14828 0811 01       		.byte	0x1
 14829 0812 3301     		.2byte	0x133
 14830 0814 891C0000 		.4byte	0x1c89
 14831 0818 37040000 		.4byte	.LLST34
 14832 081c 1E       		.uleb128 0x1e
 14833 081d 74333100 		.ascii	"t31\000"
 14834 0821 01       		.byte	0x1
 14835 0822 3301     		.2byte	0x133
 14836 0824 891C0000 		.4byte	0x1c89
 14837 0828 4A040000 		.4byte	.LLST35
 14838 082c 1E       		.uleb128 0x1e
 14839 082d 74343800 		.ascii	"t48\000"
 14840 0831 01       		.byte	0x1
 14841 0832 3501     		.2byte	0x135
 14842 0834 891C0000 		.4byte	0x1c89
 14843 0838 5D040000 		.4byte	.LLST36
 14844 083c 16       		.uleb128 0x16
 14845 083d 74363600 		.ascii	"t66\000"
 14846 0841 01       		.byte	0x1
 14847 0842 3601     		.2byte	0x136
ARM GAS  /cygdrive/c/DOCUME~1/mkwapisz/LOCALS~1/Temp/cc1OEM1Z.s 			page 278


 14848 0844 891C0000 		.4byte	0x1c89
 14849 0848 03       		.byte	0x3
 14850 0849 91       		.byte	0x91
 14851 084a FC7D     		.sleb128 -260
 14852 084c 1E       		.uleb128 0x1e
 14853 084d 74343000 		.ascii	"t40\000"
 14854 0851 01       		.byte	0x1
 14855 0852 3701     		.2byte	0x137
 14856 0854 891C0000 		.4byte	0x1c89
 14857 0858 70040000 		.4byte	.LLST37
 14858 085c 16       		.uleb128 0x16
 14859 085d 74353700 		.ascii	"t57\000"
 14860 0861 01       		.byte	0x1
 14861 0862 3801     		.2byte	0x138
 14862 0864 891C0000 		.4byte	0x1c89
 14863 0868 03       		.byte	0x3
 14864 0869 91       		.byte	0x91
 14865 086a 807E     		.sleb128 -256
 14866 086c 1E       		.uleb128 0x1e
 14867 086d 74363900 		.ascii	"t69\000"
 14868 0871 01       		.byte	0x1
 14869 0872 3A01     		.2byte	0x13a
 14870 0874 891C0000 		.4byte	0x1c89
 14871 0878 83040000 		.4byte	.LLST38
 14872 087c 16       		.uleb128 0x16
 14873 087d 74383900 		.ascii	"t89\000"
 14874 0881 01       		.byte	0x1
 14875 0882 3A01     		.2byte	0x13a
 14876 0884 891C0000 		.4byte	0x1c89
 14877 0888 03       		.byte	0x3
 14878 0889 91       		.byte	0x91
 14879 088a 847E     		.sleb128 -252
 14880 088c 1E       		.uleb128 0x1e
 14881 088d 74373000 		.ascii	"t70\000"
 14882 0891 01       		.byte	0x1
 14883 0892 3B01     		.2byte	0x13b
 14884 0894 891C0000 		.4byte	0x1c89
 14885 0898 AC040000 		.4byte	.LLST39
 14886 089c 16       		.uleb128 0x16
 14887 089d 74393000 		.ascii	"t90\000"
 14888 08a1 01       		.byte	0x1
 14889 08a2 3B01     		.2byte	0x13b
 14890 08a4 891C0000 		.4byte	0x1c89
 14891 08a8 03       		.byte	0x3
 14892 08a9 91       		.byte	0x91
 14893 08aa 887E     		.sleb128 -248
 14894 08ac 1E       		.uleb128 0x1e
 14895 08ad 74373100 		.ascii	"t71\000"
 14896 08b1 01       		.byte	0x1
 14897 08b2 3C01     		.2byte	0x13c
 14898 08b4 891C0000 		.4byte	0x1c89
 14899 08b8 BF040000 		.4byte	.LLST40
 14900 08bc 16       		.uleb128 0x16
 14901 08bd 74393100 		.ascii	"t91\000"
 14902 08c1 01       		.byte	0x1
 14903 08c2 3C01     		.2byte	0x13c
 14904 08c4 891C0000 		.4byte	0x1c89
ARM GAS  /cygdrive/c/DOCUME~1/mkwapisz/LOCALS~1/Temp/cc1OEM1Z.s 			page 279


 14905 08c8 03       		.byte	0x3
 14906 08c9 91       		.byte	0x91
 14907 08ca 8C7E     		.sleb128 -244
 14908 08cc 1E       		.uleb128 0x1e
 14909 08cd 74373200 		.ascii	"t72\000"
 14910 08d1 01       		.byte	0x1
 14911 08d2 3D01     		.2byte	0x13d
 14912 08d4 891C0000 		.4byte	0x1c89
 14913 08d8 D2040000 		.4byte	.LLST41
 14914 08dc 16       		.uleb128 0x16
 14915 08dd 74393200 		.ascii	"t92\000"
 14916 08e1 01       		.byte	0x1
 14917 08e2 3D01     		.2byte	0x13d
 14918 08e4 891C0000 		.4byte	0x1c89
 14919 08e8 03       		.byte	0x3
 14920 08e9 91       		.byte	0x91
 14921 08ea 907E     		.sleb128 -240
 14922 08ec 16       		.uleb128 0x16
 14923 08ed 74373300 		.ascii	"t73\000"
 14924 08f1 01       		.byte	0x1
 14925 08f2 3E01     		.2byte	0x13e
 14926 08f4 891C0000 		.4byte	0x1c89
 14927 08f8 03       		.byte	0x3
 14928 08f9 91       		.byte	0x91
 14929 08fa 947E     		.sleb128 -236
 14930 08fc 16       		.uleb128 0x16
 14931 08fd 74393400 		.ascii	"t94\000"
 14932 0901 01       		.byte	0x1
 14933 0902 3E01     		.2byte	0x13e
 14934 0904 891C0000 		.4byte	0x1c89
 14935 0908 03       		.byte	0x3
 14936 0909 91       		.byte	0x91
 14937 090a 987E     		.sleb128 -232
 14938 090c 16       		.uleb128 0x16
 14939 090d 74373400 		.ascii	"t74\000"
 14940 0911 01       		.byte	0x1
 14941 0912 3F01     		.2byte	0x13f
 14942 0914 891C0000 		.4byte	0x1c89
 14943 0918 03       		.byte	0x3
 14944 0919 91       		.byte	0x91
 14945 091a 9C7E     		.sleb128 -228
 14946 091c 16       		.uleb128 0x16
 14947 091d 74393500 		.ascii	"t95\000"
 14948 0921 01       		.byte	0x1
 14949 0922 3F01     		.2byte	0x13f
 14950 0924 891C0000 		.4byte	0x1c89
 14951 0928 03       		.byte	0x3
 14952 0929 91       		.byte	0x91
 14953 092a A07E     		.sleb128 -224
 14954 092c 16       		.uleb128 0x16
 14955 092d 74373500 		.ascii	"t75\000"
 14956 0931 01       		.byte	0x1
 14957 0932 4001     		.2byte	0x140
 14958 0934 891C0000 		.4byte	0x1c89
 14959 0938 03       		.byte	0x3
 14960 0939 91       		.byte	0x91
 14961 093a A47E     		.sleb128 -220
ARM GAS  /cygdrive/c/DOCUME~1/mkwapisz/LOCALS~1/Temp/cc1OEM1Z.s 			page 280


 14962 093c 16       		.uleb128 0x16
 14963 093d 74393600 		.ascii	"t96\000"
 14964 0941 01       		.byte	0x1
 14965 0942 4001     		.2byte	0x140
 14966 0944 891C0000 		.4byte	0x1c89
 14967 0948 03       		.byte	0x3
 14968 0949 91       		.byte	0x91
 14969 094a A87E     		.sleb128 -216
 14970 094c 16       		.uleb128 0x16
 14971 094d 74373600 		.ascii	"t76\000"
 14972 0951 01       		.byte	0x1
 14973 0952 4101     		.2byte	0x141
 14974 0954 891C0000 		.4byte	0x1c89
 14975 0958 03       		.byte	0x3
 14976 0959 91       		.byte	0x91
 14977 095a AC7E     		.sleb128 -212
 14978 095c 16       		.uleb128 0x16
 14979 095d 74393700 		.ascii	"t97\000"
 14980 0961 01       		.byte	0x1
 14981 0962 4101     		.2byte	0x141
 14982 0964 891C0000 		.4byte	0x1c89
 14983 0968 03       		.byte	0x3
 14984 0969 91       		.byte	0x91
 14985 096a B07E     		.sleb128 -208
 14986 096c 16       		.uleb128 0x16
 14987 096d 74373800 		.ascii	"t78\000"
 14988 0971 01       		.byte	0x1
 14989 0972 4301     		.2byte	0x143
 14990 0974 891C0000 		.4byte	0x1c89
 14991 0978 03       		.byte	0x3
 14992 0979 91       		.byte	0x91
 14993 097a B47E     		.sleb128 -204
 14994 097c 1F       		.uleb128 0x1f
 14995 097d 14000000 		.4byte	.LASF63
 14996 0981 01       		.byte	0x1
 14997 0982 4301     		.2byte	0x143
 14998 0984 891C0000 		.4byte	0x1c89
 14999 0988 03       		.byte	0x3
 15000 0989 91       		.byte	0x91
 15001 098a B87E     		.sleb128 -200
 15002 098c 16       		.uleb128 0x16
 15003 098d 74373900 		.ascii	"t79\000"
 15004 0991 01       		.byte	0x1
 15005 0992 4401     		.2byte	0x144
 15006 0994 891C0000 		.4byte	0x1c89
 15007 0998 03       		.byte	0x3
 15008 0999 91       		.byte	0x91
 15009 099a BC7E     		.sleb128 -196
 15010 099c 1F       		.uleb128 0x1f
 15011 099d 19000000 		.4byte	.LASF64
 15012 09a1 01       		.byte	0x1
 15013 09a2 4401     		.2byte	0x144
 15014 09a4 891C0000 		.4byte	0x1c89
 15015 09a8 03       		.byte	0x3
 15016 09a9 91       		.byte	0x91
 15017 09aa C07E     		.sleb128 -192
 15018 09ac 16       		.uleb128 0x16
ARM GAS  /cygdrive/c/DOCUME~1/mkwapisz/LOCALS~1/Temp/cc1OEM1Z.s 			page 281


 15019 09ad 74383000 		.ascii	"t80\000"
 15020 09b1 01       		.byte	0x1
 15021 09b2 4501     		.2byte	0x145
 15022 09b4 891C0000 		.4byte	0x1c89
 15023 09b8 03       		.byte	0x3
 15024 09b9 91       		.byte	0x91
 15025 09ba C47E     		.sleb128 -188
 15026 09bc 1F       		.uleb128 0x1f
 15027 09bd 12010000 		.4byte	.LASF65
 15028 09c1 01       		.byte	0x1
 15029 09c2 4501     		.2byte	0x145
 15030 09c4 891C0000 		.4byte	0x1c89
 15031 09c8 03       		.byte	0x3
 15032 09c9 91       		.byte	0x91
 15033 09ca C87E     		.sleb128 -184
 15034 09cc 16       		.uleb128 0x16
 15035 09cd 74383100 		.ascii	"t81\000"
 15036 09d1 01       		.byte	0x1
 15037 09d2 4601     		.2byte	0x146
 15038 09d4 891C0000 		.4byte	0x1c89
 15039 09d8 03       		.byte	0x3
 15040 09d9 91       		.byte	0x91
 15041 09da CC7E     		.sleb128 -180
 15042 09dc 1F       		.uleb128 0x1f
 15043 09dd 2E000000 		.4byte	.LASF66
 15044 09e1 01       		.byte	0x1
 15045 09e2 4601     		.2byte	0x146
 15046 09e4 891C0000 		.4byte	0x1c89
 15047 09e8 03       		.byte	0x3
 15048 09e9 91       		.byte	0x91
 15049 09ea D07E     		.sleb128 -176
 15050 09ec 16       		.uleb128 0x16
 15051 09ed 74383300 		.ascii	"t83\000"
 15052 09f1 01       		.byte	0x1
 15053 09f2 4801     		.2byte	0x148
 15054 09f4 891C0000 		.4byte	0x1c89
 15055 09f8 03       		.byte	0x3
 15056 09f9 91       		.byte	0x91
 15057 09fa D47E     		.sleb128 -172
 15058 09fc 1F       		.uleb128 0x1f
 15059 09fd 38000000 		.4byte	.LASF67
 15060 0a01 01       		.byte	0x1
 15061 0a02 4801     		.2byte	0x148
 15062 0a04 891C0000 		.4byte	0x1c89
 15063 0a08 03       		.byte	0x3
 15064 0a09 91       		.byte	0x91
 15065 0a0a D87E     		.sleb128 -168
 15066 0a0c 16       		.uleb128 0x16
 15067 0a0d 74383400 		.ascii	"t84\000"
 15068 0a11 01       		.byte	0x1
 15069 0a12 4901     		.2byte	0x149
 15070 0a14 891C0000 		.4byte	0x1c89
 15071 0a18 03       		.byte	0x3
 15072 0a19 91       		.byte	0x91
 15073 0a1a DC7E     		.sleb128 -164
 15074 0a1c 1F       		.uleb128 0x1f
 15075 0a1d 3D000000 		.4byte	.LASF68
ARM GAS  /cygdrive/c/DOCUME~1/mkwapisz/LOCALS~1/Temp/cc1OEM1Z.s 			page 282


 15076 0a21 01       		.byte	0x1
 15077 0a22 4901     		.2byte	0x149
 15078 0a24 891C0000 		.4byte	0x1c89
 15079 0a28 03       		.byte	0x3
 15080 0a29 91       		.byte	0x91
 15081 0a2a E07E     		.sleb128 -160
 15082 0a2c 16       		.uleb128 0x16
 15083 0a2d 74383500 		.ascii	"t85\000"
 15084 0a31 01       		.byte	0x1
 15085 0a32 4A01     		.2byte	0x14a
 15086 0a34 891C0000 		.4byte	0x1c89
 15087 0a38 03       		.byte	0x3
 15088 0a39 91       		.byte	0x91
 15089 0a3a E47E     		.sleb128 -156
 15090 0a3c 1F       		.uleb128 0x1f
 15091 0a3d 42000000 		.4byte	.LASF69
 15092 0a41 01       		.byte	0x1
 15093 0a42 4A01     		.2byte	0x14a
 15094 0a44 891C0000 		.4byte	0x1c89
 15095 0a48 03       		.byte	0x3
 15096 0a49 91       		.byte	0x91
 15097 0a4a E87E     		.sleb128 -152
 15098 0a4c 16       		.uleb128 0x16
 15099 0a4d 74383600 		.ascii	"t86\000"
 15100 0a51 01       		.byte	0x1
 15101 0a52 4B01     		.2byte	0x14b
 15102 0a54 891C0000 		.4byte	0x1c89
 15103 0a58 03       		.byte	0x3
 15104 0a59 91       		.byte	0x91
 15105 0a5a EC7E     		.sleb128 -148
 15106 0a5c 1F       		.uleb128 0x1f
 15107 0a5d 7F030000 		.4byte	.LASF70
 15108 0a61 01       		.byte	0x1
 15109 0a62 4B01     		.2byte	0x14b
 15110 0a64 891C0000 		.4byte	0x1c89
 15111 0a68 03       		.byte	0x3
 15112 0a69 91       		.byte	0x91
 15113 0a6a F07E     		.sleb128 -144
 15114 0a6c 17       		.uleb128 0x17
 15115 0a6d A8000000 		.4byte	.LASF71
 15116 0a71 01       		.byte	0x1
 15117 0a72 4D01     		.2byte	0x14d
 15118 0a74 891C0000 		.4byte	0x1c89
 15119 0a78 E5040000 		.4byte	.LLST42
 15120 0a7c 17       		.uleb128 0x17
 15121 0a7d AD000000 		.4byte	.LASF72
 15122 0a81 01       		.byte	0x1
 15123 0a82 4E01     		.2byte	0x14e
 15124 0a84 891C0000 		.4byte	0x1c89
 15125 0a88 F8040000 		.4byte	.LLST43
 15126 0a8c 1F       		.uleb128 0x1f
 15127 0a8d 84040000 		.4byte	.LASF73
 15128 0a91 01       		.byte	0x1
 15129 0a92 5301     		.2byte	0x153
 15130 0a94 891C0000 		.4byte	0x1c89
 15131 0a98 03       		.byte	0x3
 15132 0a99 91       		.byte	0x91
ARM GAS  /cygdrive/c/DOCUME~1/mkwapisz/LOCALS~1/Temp/cc1OEM1Z.s 			page 283


 15133 0a9a F47E     		.sleb128 -140
 15134 0a9c 1F       		.uleb128 0x1f
 15135 0a9d B2000000 		.4byte	.LASF74
 15136 0aa1 01       		.byte	0x1
 15137 0aa2 5401     		.2byte	0x154
 15138 0aa4 891C0000 		.4byte	0x1c89
 15139 0aa8 03       		.byte	0x3
 15140 0aa9 91       		.byte	0x91
 15141 0aaa F87E     		.sleb128 -136
 15142 0aac 1E       		.uleb128 0x1e
 15143 0aad 74333200 		.ascii	"t32\000"
 15144 0ab1 01       		.byte	0x1
 15145 0ab2 5601     		.2byte	0x156
 15146 0ab4 891C0000 		.4byte	0x1c89
 15147 0ab8 0B050000 		.4byte	.LLST44
 15148 0abc 1F       		.uleb128 0x1f
 15149 0abd BC000000 		.4byte	.LASF75
 15150 0ac1 01       		.byte	0x1
 15151 0ac2 5A01     		.2byte	0x15a
 15152 0ac4 891C0000 		.4byte	0x1c89
 15153 0ac8 03       		.byte	0x3
 15154 0ac9 91       		.byte	0x91
 15155 0aca FC7E     		.sleb128 -132
 15156 0acc 1F       		.uleb128 0x1f
 15157 0acd 23020000 		.4byte	.LASF76
 15158 0ad1 01       		.byte	0x1
 15159 0ad2 5B01     		.2byte	0x15b
 15160 0ad4 891C0000 		.4byte	0x1c89
 15161 0ad8 03       		.byte	0x3
 15162 0ad9 91       		.byte	0x91
 15163 0ada 807F     		.sleb128 -128
 15164 0adc 1E       		.uleb128 0x1e
 15165 0add 74353800 		.ascii	"t58\000"
 15166 0ae1 01       		.byte	0x1
 15167 0ae2 5D01     		.2byte	0x15d
 15168 0ae4 891C0000 		.4byte	0x1c89
 15169 0ae8 1E050000 		.4byte	.LLST45
 15170 0aec 1F       		.uleb128 0x1f
 15171 0aed EA000000 		.4byte	.LASF77
 15172 0af1 01       		.byte	0x1
 15173 0af2 6101     		.2byte	0x161
 15174 0af4 891C0000 		.4byte	0x1c89
 15175 0af8 03       		.byte	0x3
 15176 0af9 91       		.byte	0x91
 15177 0afa 847F     		.sleb128 -124
 15178 0afc 1F       		.uleb128 0x1f
 15179 0afd 41040000 		.4byte	.LASF78
 15180 0b01 01       		.byte	0x1
 15181 0b02 6201     		.2byte	0x162
 15182 0b04 891C0000 		.4byte	0x1c89
 15183 0b08 03       		.byte	0x3
 15184 0b09 91       		.byte	0x91
 15185 0b0a 887F     		.sleb128 -120
 15186 0b0c 1E       		.uleb128 0x1e
 15187 0b0d 74363700 		.ascii	"t67\000"
 15188 0b11 01       		.byte	0x1
 15189 0b12 6401     		.2byte	0x164
ARM GAS  /cygdrive/c/DOCUME~1/mkwapisz/LOCALS~1/Temp/cc1OEM1Z.s 			page 284


 15190 0b14 891C0000 		.4byte	0x1c89
 15191 0b18 31050000 		.4byte	.LLST46
 15192 0b1c 1E       		.uleb128 0x1e
 15193 0b1d 74343900 		.ascii	"t49\000"
 15194 0b21 01       		.byte	0x1
 15195 0b22 6601     		.2byte	0x166
 15196 0b24 891C0000 		.4byte	0x1c89
 15197 0b28 44050000 		.4byte	.LLST47
 15198 0b2c 1F       		.uleb128 0x1f
 15199 0b2d 9B020000 		.4byte	.LASF79
 15200 0b31 01       		.byte	0x1
 15201 0b32 6A01     		.2byte	0x16a
 15202 0b34 891C0000 		.4byte	0x1c89
 15203 0b38 03       		.byte	0x3
 15204 0b39 91       		.byte	0x91
 15205 0b3a 8C7F     		.sleb128 -116
 15206 0b3c 1F       		.uleb128 0x1f
 15207 0b3d A5020000 		.4byte	.LASF80
 15208 0b41 01       		.byte	0x1
 15209 0b42 6B01     		.2byte	0x16b
 15210 0b44 891C0000 		.4byte	0x1c89
 15211 0b48 03       		.byte	0x3
 15212 0b49 91       		.byte	0x91
 15213 0b4a 907F     		.sleb128 -112
 15214 0b4c 16       		.uleb128 0x16
 15215 0b4d 74393300 		.ascii	"t93\000"
 15216 0b51 01       		.byte	0x1
 15217 0b52 6D01     		.2byte	0x16d
 15218 0b54 891C0000 		.4byte	0x1c89
 15219 0b58 03       		.byte	0x3
 15220 0b59 91       		.byte	0x91
 15221 0b5a 947F     		.sleb128 -108
 15222 0b5c 1F       		.uleb128 0x1f
 15223 0b5d B4020000 		.4byte	.LASF81
 15224 0b61 01       		.byte	0x1
 15225 0b62 7101     		.2byte	0x171
 15226 0b64 891C0000 		.4byte	0x1c89
 15227 0b68 03       		.byte	0x3
 15228 0b69 91       		.byte	0x91
 15229 0b6a 987F     		.sleb128 -104
 15230 0b6c 1F       		.uleb128 0x1f
 15231 0b6d B9020000 		.4byte	.LASF82
 15232 0b71 01       		.byte	0x1
 15233 0b72 7201     		.2byte	0x172
 15234 0b74 891C0000 		.4byte	0x1c89
 15235 0b78 03       		.byte	0x3
 15236 0b79 91       		.byte	0x91
 15237 0b7a 9C7F     		.sleb128 -100
 15238 0b7c 16       		.uleb128 0x16
 15239 0b7d 74393800 		.ascii	"t98\000"
 15240 0b81 01       		.byte	0x1
 15241 0b82 7401     		.2byte	0x174
 15242 0b84 891C0000 		.4byte	0x1c89
 15243 0b88 03       		.byte	0x3
 15244 0b89 91       		.byte	0x91
 15245 0b8a A07F     		.sleb128 -96
 15246 0b8c 1E       		.uleb128 0x1e
ARM GAS  /cygdrive/c/DOCUME~1/mkwapisz/LOCALS~1/Temp/cc1OEM1Z.s 			page 285


 15247 0b8d 74363800 		.ascii	"t68\000"
 15248 0b91 01       		.byte	0x1
 15249 0b92 7601     		.2byte	0x176
 15250 0b94 891C0000 		.4byte	0x1c89
 15251 0b98 57050000 		.4byte	.LLST48
 15252 0b9c 1F       		.uleb128 0x1f
 15253 0b9d 4B020000 		.4byte	.LASF83
 15254 0ba1 01       		.byte	0x1
 15255 0ba2 7A01     		.2byte	0x17a
 15256 0ba4 891C0000 		.4byte	0x1c89
 15257 0ba8 03       		.byte	0x3
 15258 0ba9 91       		.byte	0x91
 15259 0baa A47F     		.sleb128 -92
 15260 0bac 1F       		.uleb128 0x1f
 15261 0bad 1C010000 		.4byte	.LASF84
 15262 0bb1 01       		.byte	0x1
 15263 0bb2 7B01     		.2byte	0x17b
 15264 0bb4 891C0000 		.4byte	0x1c89
 15265 0bb8 03       		.byte	0x3
 15266 0bb9 91       		.byte	0x91
 15267 0bba A87F     		.sleb128 -88
 15268 0bbc 1F       		.uleb128 0x1f
 15269 0bbd 3E030000 		.4byte	.LASF85
 15270 0bc1 01       		.byte	0x1
 15271 0bc2 7D01     		.2byte	0x17d
 15272 0bc4 891C0000 		.4byte	0x1c89
 15273 0bc8 03       		.byte	0x3
 15274 0bc9 91       		.byte	0x91
 15275 0bca AC7F     		.sleb128 -84
 15276 0bcc 1E       		.uleb128 0x1e
 15277 0bcd 74383200 		.ascii	"t82\000"
 15278 0bd1 01       		.byte	0x1
 15279 0bd2 7F01     		.2byte	0x17f
 15280 0bd4 891C0000 		.4byte	0x1c89
 15281 0bd8 6A050000 		.4byte	.LLST49
 15282 0bdc 1F       		.uleb128 0x1f
 15283 0bdd 26010000 		.4byte	.LASF86
 15284 0be1 01       		.byte	0x1
 15285 0be2 8301     		.2byte	0x183
 15286 0be4 891C0000 		.4byte	0x1c89
 15287 0be8 03       		.byte	0x3
 15288 0be9 91       		.byte	0x91
 15289 0bea B07F     		.sleb128 -80
 15290 0bec 1F       		.uleb128 0x1f
 15291 0bed 2B010000 		.4byte	.LASF87
 15292 0bf1 01       		.byte	0x1
 15293 0bf2 8401     		.2byte	0x184
 15294 0bf4 891C0000 		.4byte	0x1c89
 15295 0bf8 03       		.byte	0x3
 15296 0bf9 91       		.byte	0x91
 15297 0bfa B47F     		.sleb128 -76
 15298 0bfc 1F       		.uleb128 0x1f
 15299 0bfd 99000000 		.4byte	.LASF88
 15300 0c01 01       		.byte	0x1
 15301 0c02 8601     		.2byte	0x186
 15302 0c04 891C0000 		.4byte	0x1c89
 15303 0c08 03       		.byte	0x3
ARM GAS  /cygdrive/c/DOCUME~1/mkwapisz/LOCALS~1/Temp/cc1OEM1Z.s 			page 286


 15304 0c09 91       		.byte	0x91
 15305 0c0a B87F     		.sleb128 -72
 15306 0c0c 16       		.uleb128 0x16
 15307 0c0d 74383700 		.ascii	"t87\000"
 15308 0c11 01       		.byte	0x1
 15309 0c12 8801     		.2byte	0x188
 15310 0c14 891C0000 		.4byte	0x1c89
 15311 0c18 03       		.byte	0x3
 15312 0c19 91       		.byte	0x91
 15313 0c1a BC7F     		.sleb128 -68
 15314 0c1c 1E       		.uleb128 0x1e
 15315 0c1d 74373700 		.ascii	"t77\000"
 15316 0c21 01       		.byte	0x1
 15317 0c22 8A01     		.2byte	0x18a
 15318 0c24 891C0000 		.4byte	0x1c89
 15319 0c28 7D050000 		.4byte	.LLST50
 15320 0c2c 17       		.uleb128 0x17
 15321 0c2d F6030000 		.4byte	.LASF89
 15322 0c31 01       		.byte	0x1
 15323 0c32 8E01     		.2byte	0x18e
 15324 0c34 891C0000 		.4byte	0x1c89
 15325 0c38 90050000 		.4byte	.LLST51
 15326 0c3c 17       		.uleb128 0x17
 15327 0c3d A3010000 		.4byte	.LASF90
 15328 0c41 01       		.byte	0x1
 15329 0c42 8F01     		.2byte	0x18f
 15330 0c44 891C0000 		.4byte	0x1c89
 15331 0c48 AE050000 		.4byte	.LLST52
 15332 0c4c 17       		.uleb128 0x17
 15333 0c4d A8010000 		.4byte	.LASF91
 15334 0c51 01       		.byte	0x1
 15335 0c52 9001     		.2byte	0x190
 15336 0c54 891C0000 		.4byte	0x1c89
 15337 0c58 C1050000 		.4byte	.LLST53
 15338 0c5c 1F       		.uleb128 0x1f
 15339 0c5d AD010000 		.4byte	.LASF92
 15340 0c61 01       		.byte	0x1
 15341 0c62 9601     		.2byte	0x196
 15342 0c64 891C0000 		.4byte	0x1c89
 15343 0c68 02       		.byte	0x2
 15344 0c69 91       		.byte	0x91
 15345 0c6a 40       		.sleb128 -64
 15346 0c6b 1F       		.uleb128 0x1f
 15347 0c6c B2010000 		.4byte	.LASF93
 15348 0c70 01       		.byte	0x1
 15349 0c71 9701     		.2byte	0x197
 15350 0c73 891C0000 		.4byte	0x1c89
 15351 0c77 02       		.byte	0x2
 15352 0c78 91       		.byte	0x91
 15353 0c79 44       		.sleb128 -60
 15354 0c7a 1F       		.uleb128 0x1f
 15355 0c7b 11040000 		.4byte	.LASF94
 15356 0c7f 01       		.byte	0x1
 15357 0c80 9801     		.2byte	0x198
 15358 0c82 891C0000 		.4byte	0x1c89
 15359 0c86 02       		.byte	0x2
 15360 0c87 91       		.byte	0x91
ARM GAS  /cygdrive/c/DOCUME~1/mkwapisz/LOCALS~1/Temp/cc1OEM1Z.s 			page 287


 15361 0c88 48       		.sleb128 -56
 15362 0c89 1E       		.uleb128 0x1e
 15363 0c8a 74383800 		.ascii	"t88\000"
 15364 0c8e 01       		.byte	0x1
 15365 0c8f 9A01     		.2byte	0x19a
 15366 0c91 891C0000 		.4byte	0x1c89
 15367 0c95 D4050000 		.4byte	.LLST54
 15368 0c99 1F       		.uleb128 0x1f
 15369 0c9a B7010000 		.4byte	.LASF95
 15370 0c9e 01       		.byte	0x1
 15371 0c9f 9E01     		.2byte	0x19e
 15372 0ca1 891C0000 		.4byte	0x1c89
 15373 0ca5 02       		.byte	0x2
 15374 0ca6 91       		.byte	0x91
 15375 0ca7 4C       		.sleb128 -52
 15376 0ca8 1F       		.uleb128 0x1f
 15377 0ca9 BC010000 		.4byte	.LASF96
 15378 0cad 01       		.byte	0x1
 15379 0cae 9F01     		.2byte	0x19f
 15380 0cb0 891C0000 		.4byte	0x1c89
 15381 0cb4 02       		.byte	0x2
 15382 0cb5 91       		.byte	0x91
 15383 0cb6 50       		.sleb128 -48
 15384 0cb7 1F       		.uleb128 0x1f
 15385 0cb8 F8010000 		.4byte	.LASF97
 15386 0cbc 01       		.byte	0x1
 15387 0cbd A001     		.2byte	0x1a0
 15388 0cbf 891C0000 		.4byte	0x1c89
 15389 0cc3 02       		.byte	0x2
 15390 0cc4 91       		.byte	0x91
 15391 0cc5 54       		.sleb128 -44
 15392 0cc6 17       		.uleb128 0x17
 15393 0cc7 33000000 		.4byte	.LASF98
 15394 0ccb 01       		.byte	0x1
 15395 0ccc A201     		.2byte	0x1a2
 15396 0cce 891C0000 		.4byte	0x1c89
 15397 0cd2 E7050000 		.4byte	.LLST55
 15398 0cd6 1F       		.uleb128 0x1f
 15399 0cd7 BE040000 		.4byte	.LASF99
 15400 0cdb 01       		.byte	0x1
 15401 0cdc A601     		.2byte	0x1a6
 15402 0cde 891C0000 		.4byte	0x1c89
 15403 0ce2 02       		.byte	0x2
 15404 0ce3 91       		.byte	0x91
 15405 0ce4 58       		.sleb128 -40
 15406 0ce5 1F       		.uleb128 0x1f
 15407 0ce6 02020000 		.4byte	.LASF100
 15408 0cea 01       		.byte	0x1
 15409 0ceb A701     		.2byte	0x1a7
 15410 0ced 891C0000 		.4byte	0x1c89
 15411 0cf1 02       		.byte	0x2
 15412 0cf2 91       		.byte	0x91
 15413 0cf3 5C       		.sleb128 -36
 15414 0cf4 1F       		.uleb128 0x1f
 15415 0cf5 07020000 		.4byte	.LASF101
 15416 0cf9 01       		.byte	0x1
 15417 0cfa A801     		.2byte	0x1a8
ARM GAS  /cygdrive/c/DOCUME~1/mkwapisz/LOCALS~1/Temp/cc1OEM1Z.s 			page 288


 15418 0cfc 891C0000 		.4byte	0x1c89
 15419 0d00 02       		.byte	0x2
 15420 0d01 91       		.byte	0x91
 15421 0d02 60       		.sleb128 -32
 15422 0d03 1F       		.uleb128 0x1f
 15423 0d04 9E000000 		.4byte	.LASF102
 15424 0d08 01       		.byte	0x1
 15425 0d09 AA01     		.2byte	0x1aa
 15426 0d0b 891C0000 		.4byte	0x1c89
 15427 0d0f 02       		.byte	0x2
 15428 0d10 91       		.byte	0x91
 15429 0d11 64       		.sleb128 -28
 15430 0d12 1E       		.uleb128 0x1e
 15431 0d13 74393900 		.ascii	"t99\000"
 15432 0d17 01       		.byte	0x1
 15433 0d18 AC01     		.2byte	0x1ac
 15434 0d1a 891C0000 		.4byte	0x1c89
 15435 0d1e FA050000 		.4byte	.LLST56
 15436 0d22 17       		.uleb128 0x17
 15437 0d23 11020000 		.4byte	.LASF103
 15438 0d27 01       		.byte	0x1
 15439 0d28 B001     		.2byte	0x1b0
 15440 0d2a 891C0000 		.4byte	0x1c89
 15441 0d2e 0D060000 		.4byte	.LLST57
 15442 0d32 17       		.uleb128 0x17
 15443 0d33 55020000 		.4byte	.LASF104
 15444 0d37 01       		.byte	0x1
 15445 0d38 B101     		.2byte	0x1b1
 15446 0d3a 891C0000 		.4byte	0x1c89
 15447 0d3e 20060000 		.4byte	.LLST58
 15448 0d42 17       		.uleb128 0x17
 15449 0d43 00050000 		.4byte	.LASF105
 15450 0d47 01       		.byte	0x1
 15451 0d48 B201     		.2byte	0x1b2
 15452 0d4a 891C0000 		.4byte	0x1c89
 15453 0d4e 3E060000 		.4byte	.LLST59
 15454 0d52 17       		.uleb128 0x17
 15455 0d53 F4000000 		.4byte	.LASF106
 15456 0d57 01       		.byte	0x1
 15457 0d58 B401     		.2byte	0x1b4
 15458 0d5a 891C0000 		.4byte	0x1c89
 15459 0d5e 51060000 		.4byte	.LLST60
 15460 0d62 17       		.uleb128 0x17
 15461 0d63 5A020000 		.4byte	.LASF107
 15462 0d67 01       		.byte	0x1
 15463 0d68 B801     		.2byte	0x1b8
 15464 0d6a 891C0000 		.4byte	0x1c89
 15465 0d6e 64060000 		.4byte	.LLST61
 15466 0d72 1F       		.uleb128 0x1f
 15467 0d73 08030000 		.4byte	.LASF108
 15468 0d77 01       		.byte	0x1
 15469 0d78 BE01     		.2byte	0x1be
 15470 0d7a 891C0000 		.4byte	0x1c89
 15471 0d7e 02       		.byte	0x2
 15472 0d7f 91       		.byte	0x91
 15473 0d80 68       		.sleb128 -24
 15474 0d81 1F       		.uleb128 0x1f
ARM GAS  /cygdrive/c/DOCUME~1/mkwapisz/LOCALS~1/Temp/cc1OEM1Z.s 			page 289


 15475 0d82 0D030000 		.4byte	.LASF109
 15476 0d86 01       		.byte	0x1
 15477 0d87 BF01     		.2byte	0x1bf
 15478 0d89 891C0000 		.4byte	0x1c89
 15479 0d8d 02       		.byte	0x2
 15480 0d8e 91       		.byte	0x91
 15481 0d8f 6C       		.sleb128 -20
 15482 0d90 1F       		.uleb128 0x1f
 15483 0d91 64020000 		.4byte	.LASF110
 15484 0d95 01       		.byte	0x1
 15485 0d96 C001     		.2byte	0x1c0
 15486 0d98 891C0000 		.4byte	0x1c89
 15487 0d9c 02       		.byte	0x2
 15488 0d9d 91       		.byte	0x91
 15489 0d9e 70       		.sleb128 -16
 15490 0d9f 17       		.uleb128 0x17
 15491 0da0 05050000 		.4byte	.LASF111
 15492 0da4 01       		.byte	0x1
 15493 0da5 C201     		.2byte	0x1c2
 15494 0da7 891C0000 		.4byte	0x1c89
 15495 0dab 77060000 		.4byte	.LLST62
 15496 0daf 17       		.uleb128 0x17
 15497 0db0 A3000000 		.4byte	.LASF112
 15498 0db4 01       		.byte	0x1
 15499 0db5 C401     		.2byte	0x1c4
 15500 0db7 891C0000 		.4byte	0x1c89
 15501 0dbb 95060000 		.4byte	.LLST63
 15502 0dbf 1F       		.uleb128 0x1f
 15503 0dc0 24030000 		.4byte	.LASF113
 15504 0dc4 01       		.byte	0x1
 15505 0dc5 C801     		.2byte	0x1c8
 15506 0dc7 891C0000 		.4byte	0x1c89
 15507 0dcb 02       		.byte	0x2
 15508 0dcc 91       		.byte	0x91
 15509 0dcd 74       		.sleb128 -12
 15510 0dce 17       		.uleb128 0x17
 15511 0dcf 2E030000 		.4byte	.LASF114
 15512 0dd3 01       		.byte	0x1
 15513 0dd4 CA01     		.2byte	0x1ca
 15514 0dd6 891C0000 		.4byte	0x1c89
 15515 0dda A8060000 		.4byte	.LLST64
 15516 0dde 17       		.uleb128 0x17
 15517 0ddf 33030000 		.4byte	.LASF115
 15518 0de3 01       		.byte	0x1
 15519 0de4 CB01     		.2byte	0x1cb
 15520 0de6 891C0000 		.4byte	0x1c89
 15521 0dea BB060000 		.4byte	.LLST65
 15522 0dee 17       		.uleb128 0x17
 15523 0def 0F000000 		.4byte	.LASF116
 15524 0df3 01       		.byte	0x1
 15525 0df4 CC01     		.2byte	0x1cc
 15526 0df6 891C0000 		.4byte	0x1c89
 15527 0dfa D9060000 		.4byte	.LLST66
 15528 0dfe 17       		.uleb128 0x17
 15529 0dff 21010000 		.4byte	.LASF117
 15530 0e03 01       		.byte	0x1
 15531 0e04 CE01     		.2byte	0x1ce
ARM GAS  /cygdrive/c/DOCUME~1/mkwapisz/LOCALS~1/Temp/cc1OEM1Z.s 			page 290


 15532 0e06 891C0000 		.4byte	0x1c89
 15533 0e0a EC060000 		.4byte	.LLST67
 15534 0e0e 17       		.uleb128 0x17
 15535 0e0f E5000000 		.4byte	.LASF118
 15536 0e13 01       		.byte	0x1
 15537 0e14 D001     		.2byte	0x1d0
 15538 0e16 891C0000 		.4byte	0x1c89
 15539 0e1a FF060000 		.4byte	.LLST68
 15540 0e1e 17       		.uleb128 0x17
 15541 0e1f 48030000 		.4byte	.LASF119
 15542 0e23 01       		.byte	0x1
 15543 0e24 D401     		.2byte	0x1d4
 15544 0e26 891C0000 		.4byte	0x1c89
 15545 0e2a 12070000 		.4byte	.LLST69
 15546 0e2e 17       		.uleb128 0x17
 15547 0e2f 43030000 		.4byte	.LASF120
 15548 0e33 01       		.byte	0x1
 15549 0e34 D801     		.2byte	0x1d8
 15550 0e36 891C0000 		.4byte	0x1c89
 15551 0e3a 25070000 		.4byte	.LLST70
 15552 0e3e 17       		.uleb128 0x17
 15553 0e3f FD010000 		.4byte	.LASF121
 15554 0e43 01       		.byte	0x1
 15555 0e44 DA01     		.2byte	0x1da
 15556 0e46 891C0000 		.4byte	0x1c89
 15557 0e4a 38070000 		.4byte	.LLST71
 15558 0e4e 17       		.uleb128 0x17
 15559 0e4f 96020000 		.4byte	.LASF122
 15560 0e53 01       		.byte	0x1
 15561 0e54 DE01     		.2byte	0x1de
 15562 0e56 891C0000 		.4byte	0x1c89
 15563 0e5a 4B070000 		.4byte	.LLST72
 15564 0e5e 1F       		.uleb128 0x1f
 15565 0e5f 20040000 		.4byte	.LASF123
 15566 0e63 01       		.byte	0x1
 15567 0e64 E501     		.2byte	0x1e5
 15568 0e66 891C0000 		.4byte	0x1c89
 15569 0e6a 01       		.byte	0x1
 15570 0e6b 56       		.byte	0x56
 15571 0e6c 1F       		.uleb128 0x1f
 15572 0e6d 25040000 		.4byte	.LASF124
 15573 0e71 01       		.byte	0x1
 15574 0e72 E601     		.2byte	0x1e6
 15575 0e74 891C0000 		.4byte	0x1c89
 15576 0e78 01       		.byte	0x1
 15577 0e79 55       		.byte	0x55
 15578 0e7a 17       		.uleb128 0x17
 15579 0e7b A0020000 		.4byte	.LASF125
 15580 0e7f 01       		.byte	0x1
 15581 0e80 E701     		.2byte	0x1e7
 15582 0e82 891C0000 		.4byte	0x1c89
 15583 0e86 5E070000 		.4byte	.LLST73
 15584 0e8a 1F       		.uleb128 0x1f
 15585 0e8b 30010000 		.4byte	.LASF126
 15586 0e8f 01       		.byte	0x1
 15587 0e90 E901     		.2byte	0x1e9
 15588 0e92 891C0000 		.4byte	0x1c89
ARM GAS  /cygdrive/c/DOCUME~1/mkwapisz/LOCALS~1/Temp/cc1OEM1Z.s 			page 291


 15589 0e96 01       		.byte	0x1
 15590 0e97 5B       		.byte	0x5b
 15591 0e98 17       		.uleb128 0x17
 15592 0e99 91020000 		.4byte	.LASF127
 15593 0e9d 01       		.byte	0x1
 15594 0e9e EB01     		.2byte	0x1eb
 15595 0ea0 891C0000 		.4byte	0x1c89
 15596 0ea4 71070000 		.4byte	.LLST74
 15597 0ea8 17       		.uleb128 0x17
 15598 0ea9 35010000 		.4byte	.LASF128
 15599 0ead 01       		.byte	0x1
 15600 0eae ED01     		.2byte	0x1ed
 15601 0eb0 891C0000 		.4byte	0x1c89
 15602 0eb4 9A070000 		.4byte	.LLST75
 15603 0eb8 17       		.uleb128 0x17
 15604 0eb9 B7000000 		.4byte	.LASF129
 15605 0ebd 01       		.byte	0x1
 15606 0ebe EF01     		.2byte	0x1ef
 15607 0ec0 891C0000 		.4byte	0x1c89
 15608 0ec4 AD070000 		.4byte	.LLST76
 15609 0ec8 17       		.uleb128 0x17
 15610 0ec9 EF000000 		.4byte	.LASF130
 15611 0ecd 01       		.byte	0x1
 15612 0ece F301     		.2byte	0x1f3
 15613 0ed0 891C0000 		.4byte	0x1c89
 15614 0ed4 C0070000 		.4byte	.LLST77
 15615 0ed8 17       		.uleb128 0x17
 15616 0ed9 17010000 		.4byte	.LASF131
 15617 0edd 01       		.byte	0x1
 15618 0ede F701     		.2byte	0x1f7
 15619 0ee0 891C0000 		.4byte	0x1c89
 15620 0ee4 D3070000 		.4byte	.LLST78
 15621 0ee8 17       		.uleb128 0x17
 15622 0ee9 9E010000 		.4byte	.LASF132
 15623 0eed 01       		.byte	0x1
 15624 0eee FB01     		.2byte	0x1fb
 15625 0ef0 891C0000 		.4byte	0x1c89
 15626 0ef4 E6070000 		.4byte	.LLST79
 15627 0ef8 1F       		.uleb128 0x1f
 15628 0ef9 2A040000 		.4byte	.LASF133
 15629 0efd 01       		.byte	0x1
 15630 0efe FF01     		.2byte	0x1ff
 15631 0f00 891C0000 		.4byte	0x1c89
 15632 0f04 01       		.byte	0x1
 15633 0f05 5A       		.byte	0x5a
 15634 0f06 17       		.uleb128 0x17
 15635 0f07 89040000 		.4byte	.LASF134
 15636 0f0b 01       		.byte	0x1
 15637 0f0c 0102     		.2byte	0x201
 15638 0f0e 891C0000 		.4byte	0x1c89
 15639 0f12 0F080000 		.4byte	.LLST80
 15640 0f16 17       		.uleb128 0x17
 15641 0f17 F9000000 		.4byte	.LASF135
 15642 0f1b 01       		.byte	0x1
 15643 0f1c 0302     		.2byte	0x203
 15644 0f1e 891C0000 		.4byte	0x1c89
 15645 0f22 22080000 		.4byte	.LLST81
ARM GAS  /cygdrive/c/DOCUME~1/mkwapisz/LOCALS~1/Temp/cc1OEM1Z.s 			page 292


 15646 0f26 17       		.uleb128 0x17
 15647 0f27 0C020000 		.4byte	.LASF136
 15648 0f2b 01       		.byte	0x1
 15649 0f2c 0702     		.2byte	0x207
 15650 0f2e 891C0000 		.4byte	0x1c89
 15651 0f32 40080000 		.4byte	.LLST82
 15652 0f36 1F       		.uleb128 0x1f
 15653 0f37 AA020000 		.4byte	.LASF137
 15654 0f3b 01       		.byte	0x1
 15655 0f3c 0B02     		.2byte	0x20b
 15656 0f3e 891C0000 		.4byte	0x1c89
 15657 0f42 01       		.byte	0x1
 15658 0f43 58       		.byte	0x58
 15659 0f44 17       		.uleb128 0x17
 15660 0f45 29030000 		.4byte	.LASF138
 15661 0f49 01       		.byte	0x1
 15662 0f4a 0D02     		.2byte	0x20d
 15663 0f4c 891C0000 		.4byte	0x1c89
 15664 0f50 69080000 		.4byte	.LLST83
 15665 0f54 17       		.uleb128 0x17
 15666 0f55 AF020000 		.4byte	.LASF139
 15667 0f59 01       		.byte	0x1
 15668 0f5a 1102     		.2byte	0x211
 15669 0f5c 891C0000 		.4byte	0x1c89
 15670 0f60 87080000 		.4byte	.LLST84
 15671 0f64 20       		.uleb128 0x20
 15672 0f65 8C0F0000 		.4byte	0xf8c
 15673 0f69 00000000 		.4byte	.Ldebug_ranges0+0x0
 15674 0f6d 21       		.uleb128 0x21
 15675 0f6e 50020000 		.4byte	.LASF140
 15676 0f72 01       		.byte	0x1
 15677 0f73 FA       		.byte	0xfa
 15678 0f74 37000000 		.4byte	0x37
 15679 0f78 A5080000 		.4byte	.LLST85
 15680 0f7c 21       		.uleb128 0x21
 15681 0f7d 8B010000 		.4byte	.LASF141
 15682 0f81 01       		.byte	0x1
 15683 0f82 FA       		.byte	0xfa
 15684 0f83 42000000 		.4byte	0x42
 15685 0f87 B8080000 		.4byte	.LLST86
 15686 0f8b 00       		.byte	0x0
 15687 0f8c 20       		.uleb128 0x20
 15688 0f8d B40F0000 		.4byte	0xfb4
 15689 0f91 30000000 		.4byte	.Ldebug_ranges0+0x30
 15690 0f95 21       		.uleb128 0x21
 15691 0f96 50020000 		.4byte	.LASF140
 15692 0f9a 01       		.byte	0x1
 15693 0f9b FB       		.byte	0xfb
 15694 0f9c 37000000 		.4byte	0x37
 15695 0fa0 D6080000 		.4byte	.LLST87
 15696 0fa4 21       		.uleb128 0x21
 15697 0fa5 8B010000 		.4byte	.LASF141
 15698 0fa9 01       		.byte	0x1
 15699 0faa FB       		.byte	0xfb
 15700 0fab 42000000 		.4byte	0x42
 15701 0faf E9080000 		.4byte	.LLST88
 15702 0fb3 00       		.byte	0x0
ARM GAS  /cygdrive/c/DOCUME~1/mkwapisz/LOCALS~1/Temp/cc1OEM1Z.s 			page 293


 15703 0fb4 20       		.uleb128 0x20
 15704 0fb5 DC0F0000 		.4byte	0xfdc
 15705 0fb9 48000000 		.4byte	.Ldebug_ranges0+0x48
 15706 0fbd 21       		.uleb128 0x21
 15707 0fbe 50020000 		.4byte	.LASF140
 15708 0fc2 01       		.byte	0x1
 15709 0fc3 FE       		.byte	0xfe
 15710 0fc4 37000000 		.4byte	0x37
 15711 0fc8 07090000 		.4byte	.LLST89
 15712 0fcc 21       		.uleb128 0x21
 15713 0fcd 8B010000 		.4byte	.LASF141
 15714 0fd1 01       		.byte	0x1
 15715 0fd2 FE       		.byte	0xfe
 15716 0fd3 42000000 		.4byte	0x42
 15717 0fd7 25090000 		.4byte	.LLST90
 15718 0fdb 00       		.byte	0x0
 15719 0fdc 20       		.uleb128 0x20
 15720 0fdd 06100000 		.4byte	0x1006
 15721 0fe1 78000000 		.4byte	.Ldebug_ranges0+0x78
 15722 0fe5 17       		.uleb128 0x17
 15723 0fe6 50020000 		.4byte	.LASF140
 15724 0fea 01       		.byte	0x1
 15725 0feb 0001     		.2byte	0x100
 15726 0fed 37000000 		.4byte	0x37
 15727 0ff1 4E090000 		.4byte	.LLST91
 15728 0ff5 17       		.uleb128 0x17
 15729 0ff6 8B010000 		.4byte	.LASF141
 15730 0ffa 01       		.byte	0x1
 15731 0ffb 0001     		.2byte	0x100
 15732 0ffd 42000000 		.4byte	0x42
 15733 1001 77090000 		.4byte	.LLST92
 15734 1005 00       		.byte	0x0
 15735 1006 20       		.uleb128 0x20
 15736 1007 30100000 		.4byte	0x1030
 15737 100b A8000000 		.4byte	.Ldebug_ranges0+0xa8
 15738 100f 17       		.uleb128 0x17
 15739 1010 50020000 		.4byte	.LASF140
 15740 1014 01       		.byte	0x1
 15741 1015 0201     		.2byte	0x102
 15742 1017 37000000 		.4byte	0x37
 15743 101b A0090000 		.4byte	.LLST93
 15744 101f 17       		.uleb128 0x17
 15745 1020 8B010000 		.4byte	.LASF141
 15746 1024 01       		.byte	0x1
 15747 1025 0201     		.2byte	0x102
 15748 1027 42000000 		.4byte	0x42
 15749 102b C9090000 		.4byte	.LLST94
 15750 102f 00       		.byte	0x0
 15751 1030 20       		.uleb128 0x20
 15752 1031 5A100000 		.4byte	0x105a
 15753 1035 D8000000 		.4byte	.Ldebug_ranges0+0xd8
 15754 1039 17       		.uleb128 0x17
 15755 103a 50020000 		.4byte	.LASF140
 15756 103e 01       		.byte	0x1
 15757 103f 0301     		.2byte	0x103
 15758 1041 37000000 		.4byte	0x37
 15759 1045 F2090000 		.4byte	.LLST95
ARM GAS  /cygdrive/c/DOCUME~1/mkwapisz/LOCALS~1/Temp/cc1OEM1Z.s 			page 294


 15760 1049 17       		.uleb128 0x17
 15761 104a 8B010000 		.4byte	.LASF141
 15762 104e 01       		.byte	0x1
 15763 104f 0301     		.2byte	0x103
 15764 1051 42000000 		.4byte	0x42
 15765 1055 050A0000 		.4byte	.LLST96
 15766 1059 00       		.byte	0x0
 15767 105a 20       		.uleb128 0x20
 15768 105b 84100000 		.4byte	0x1084
 15769 105f F0000000 		.4byte	.Ldebug_ranges0+0xf0
 15770 1063 17       		.uleb128 0x17
 15771 1064 50020000 		.4byte	.LASF140
 15772 1068 01       		.byte	0x1
 15773 1069 0601     		.2byte	0x106
 15774 106b 37000000 		.4byte	0x37
 15775 106f 230A0000 		.4byte	.LLST97
 15776 1073 17       		.uleb128 0x17
 15777 1074 8B010000 		.4byte	.LASF141
 15778 1078 01       		.byte	0x1
 15779 1079 0601     		.2byte	0x106
 15780 107b 42000000 		.4byte	0x42
 15781 107f 410A0000 		.4byte	.LLST98
 15782 1083 00       		.byte	0x0
 15783 1084 20       		.uleb128 0x20
 15784 1085 AE100000 		.4byte	0x10ae
 15785 1089 20010000 		.4byte	.Ldebug_ranges0+0x120
 15786 108d 17       		.uleb128 0x17
 15787 108e 50020000 		.4byte	.LASF140
 15788 1092 01       		.byte	0x1
 15789 1093 0801     		.2byte	0x108
 15790 1095 37000000 		.4byte	0x37
 15791 1099 6A0A0000 		.4byte	.LLST99
 15792 109d 17       		.uleb128 0x17
 15793 109e 8B010000 		.4byte	.LASF141
 15794 10a2 01       		.byte	0x1
 15795 10a3 0801     		.2byte	0x108
 15796 10a5 42000000 		.4byte	0x42
 15797 10a9 930A0000 		.4byte	.LLST100
 15798 10ad 00       		.byte	0x0
 15799 10ae 20       		.uleb128 0x20
 15800 10af D8100000 		.4byte	0x10d8
 15801 10b3 50010000 		.4byte	.Ldebug_ranges0+0x150
 15802 10b7 17       		.uleb128 0x17
 15803 10b8 50020000 		.4byte	.LASF140
 15804 10bc 01       		.byte	0x1
 15805 10bd 0A01     		.2byte	0x10a
 15806 10bf 37000000 		.4byte	0x37
 15807 10c3 BC0A0000 		.4byte	.LLST101
 15808 10c7 17       		.uleb128 0x17
 15809 10c8 8B010000 		.4byte	.LASF141
 15810 10cc 01       		.byte	0x1
 15811 10cd 0A01     		.2byte	0x10a
 15812 10cf 42000000 		.4byte	0x42
 15813 10d3 E50A0000 		.4byte	.LLST102
 15814 10d7 00       		.byte	0x0
 15815 10d8 20       		.uleb128 0x20
 15816 10d9 02110000 		.4byte	0x1102
ARM GAS  /cygdrive/c/DOCUME~1/mkwapisz/LOCALS~1/Temp/cc1OEM1Z.s 			page 295


 15817 10dd 80010000 		.4byte	.Ldebug_ranges0+0x180
 15818 10e1 17       		.uleb128 0x17
 15819 10e2 50020000 		.4byte	.LASF140
 15820 10e6 01       		.byte	0x1
 15821 10e7 0B01     		.2byte	0x10b
 15822 10e9 37000000 		.4byte	0x37
 15823 10ed 0E0B0000 		.4byte	.LLST103
 15824 10f1 17       		.uleb128 0x17
 15825 10f2 8B010000 		.4byte	.LASF141
 15826 10f6 01       		.byte	0x1
 15827 10f7 0B01     		.2byte	0x10b
 15828 10f9 42000000 		.4byte	0x42
 15829 10fd 210B0000 		.4byte	.LLST104
 15830 1101 00       		.byte	0x0
 15831 1102 20       		.uleb128 0x20
 15832 1103 2C110000 		.4byte	0x112c
 15833 1107 98010000 		.4byte	.Ldebug_ranges0+0x198
 15834 110b 17       		.uleb128 0x17
 15835 110c 50020000 		.4byte	.LASF140
 15836 1110 01       		.byte	0x1
 15837 1111 0E01     		.2byte	0x10e
 15838 1113 37000000 		.4byte	0x37
 15839 1117 3F0B0000 		.4byte	.LLST105
 15840 111b 17       		.uleb128 0x17
 15841 111c 8B010000 		.4byte	.LASF141
 15842 1120 01       		.byte	0x1
 15843 1121 0E01     		.2byte	0x10e
 15844 1123 42000000 		.4byte	0x42
 15845 1127 5D0B0000 		.4byte	.LLST106
 15846 112b 00       		.byte	0x0
 15847 112c 20       		.uleb128 0x20
 15848 112d 56110000 		.4byte	0x1156
 15849 1131 C8010000 		.4byte	.Ldebug_ranges0+0x1c8
 15850 1135 17       		.uleb128 0x17
 15851 1136 50020000 		.4byte	.LASF140
 15852 113a 01       		.byte	0x1
 15853 113b 1001     		.2byte	0x110
 15854 113d 37000000 		.4byte	0x37
 15855 1141 860B0000 		.4byte	.LLST107
 15856 1145 17       		.uleb128 0x17
 15857 1146 8B010000 		.4byte	.LASF141
 15858 114a 01       		.byte	0x1
 15859 114b 1001     		.2byte	0x110
 15860 114d 42000000 		.4byte	0x42
 15861 1151 AF0B0000 		.4byte	.LLST108
 15862 1155 00       		.byte	0x0
 15863 1156 20       		.uleb128 0x20
 15864 1157 80110000 		.4byte	0x1180
 15865 115b F8010000 		.4byte	.Ldebug_ranges0+0x1f8
 15866 115f 17       		.uleb128 0x17
 15867 1160 50020000 		.4byte	.LASF140
 15868 1164 01       		.byte	0x1
 15869 1165 1201     		.2byte	0x112
 15870 1167 37000000 		.4byte	0x37
 15871 116b D80B0000 		.4byte	.LLST109
 15872 116f 17       		.uleb128 0x17
 15873 1170 8B010000 		.4byte	.LASF141
ARM GAS  /cygdrive/c/DOCUME~1/mkwapisz/LOCALS~1/Temp/cc1OEM1Z.s 			page 296


 15874 1174 01       		.byte	0x1
 15875 1175 1201     		.2byte	0x112
 15876 1177 42000000 		.4byte	0x42
 15877 117b 010C0000 		.4byte	.LLST110
 15878 117f 00       		.byte	0x0
 15879 1180 20       		.uleb128 0x20
 15880 1181 AA110000 		.4byte	0x11aa
 15881 1185 28020000 		.4byte	.Ldebug_ranges0+0x228
 15882 1189 17       		.uleb128 0x17
 15883 118a 50020000 		.4byte	.LASF140
 15884 118e 01       		.byte	0x1
 15885 118f 1301     		.2byte	0x113
 15886 1191 37000000 		.4byte	0x37
 15887 1195 2A0C0000 		.4byte	.LLST111
 15888 1199 17       		.uleb128 0x17
 15889 119a 8B010000 		.4byte	.LASF141
 15890 119e 01       		.byte	0x1
 15891 119f 1301     		.2byte	0x113
 15892 11a1 42000000 		.4byte	0x42
 15893 11a5 3D0C0000 		.4byte	.LLST112
 15894 11a9 00       		.byte	0x0
 15895 11aa 20       		.uleb128 0x20
 15896 11ab D4110000 		.4byte	0x11d4
 15897 11af 40020000 		.4byte	.Ldebug_ranges0+0x240
 15898 11b3 17       		.uleb128 0x17
 15899 11b4 50020000 		.4byte	.LASF140
 15900 11b8 01       		.byte	0x1
 15901 11b9 1601     		.2byte	0x116
 15902 11bb 37000000 		.4byte	0x37
 15903 11bf 5B0C0000 		.4byte	.LLST113
 15904 11c3 17       		.uleb128 0x17
 15905 11c4 8B010000 		.4byte	.LASF141
 15906 11c8 01       		.byte	0x1
 15907 11c9 1601     		.2byte	0x116
 15908 11cb 42000000 		.4byte	0x42
 15909 11cf 790C0000 		.4byte	.LLST114
 15910 11d3 00       		.byte	0x0
 15911 11d4 20       		.uleb128 0x20
 15912 11d5 FE110000 		.4byte	0x11fe
 15913 11d9 70020000 		.4byte	.Ldebug_ranges0+0x270
 15914 11dd 17       		.uleb128 0x17
 15915 11de 50020000 		.4byte	.LASF140
 15916 11e2 01       		.byte	0x1
 15917 11e3 1801     		.2byte	0x118
 15918 11e5 37000000 		.4byte	0x37
 15919 11e9 A20C0000 		.4byte	.LLST115
 15920 11ed 17       		.uleb128 0x17
 15921 11ee 8B010000 		.4byte	.LASF141
 15922 11f2 01       		.byte	0x1
 15923 11f3 1801     		.2byte	0x118
 15924 11f5 42000000 		.4byte	0x42
 15925 11f9 CB0C0000 		.4byte	.LLST116
 15926 11fd 00       		.byte	0x0
 15927 11fe 20       		.uleb128 0x20
 15928 11ff 28120000 		.4byte	0x1228
 15929 1203 A0020000 		.4byte	.Ldebug_ranges0+0x2a0
 15930 1207 17       		.uleb128 0x17
ARM GAS  /cygdrive/c/DOCUME~1/mkwapisz/LOCALS~1/Temp/cc1OEM1Z.s 			page 297


 15931 1208 50020000 		.4byte	.LASF140
 15932 120c 01       		.byte	0x1
 15933 120d 1A01     		.2byte	0x11a
 15934 120f 37000000 		.4byte	0x37
 15935 1213 F40C0000 		.4byte	.LLST117
 15936 1217 17       		.uleb128 0x17
 15937 1218 8B010000 		.4byte	.LASF141
 15938 121c 01       		.byte	0x1
 15939 121d 1A01     		.2byte	0x11a
 15940 121f 42000000 		.4byte	0x42
 15941 1223 1D0D0000 		.4byte	.LLST118
 15942 1227 00       		.byte	0x0
 15943 1228 20       		.uleb128 0x20
 15944 1229 52120000 		.4byte	0x1252
 15945 122d D0020000 		.4byte	.Ldebug_ranges0+0x2d0
 15946 1231 17       		.uleb128 0x17
 15947 1232 50020000 		.4byte	.LASF140
 15948 1236 01       		.byte	0x1
 15949 1237 1B01     		.2byte	0x11b
 15950 1239 37000000 		.4byte	0x37
 15951 123d 460D0000 		.4byte	.LLST119
 15952 1241 17       		.uleb128 0x17
 15953 1242 8B010000 		.4byte	.LASF141
 15954 1246 01       		.byte	0x1
 15955 1247 1B01     		.2byte	0x11b
 15956 1249 42000000 		.4byte	0x42
 15957 124d 590D0000 		.4byte	.LLST120
 15958 1251 00       		.byte	0x0
 15959 1252 20       		.uleb128 0x20
 15960 1253 7C120000 		.4byte	0x127c
 15961 1257 E8020000 		.4byte	.Ldebug_ranges0+0x2e8
 15962 125b 17       		.uleb128 0x17
 15963 125c 50020000 		.4byte	.LASF140
 15964 1260 01       		.byte	0x1
 15965 1261 1E01     		.2byte	0x11e
 15966 1263 37000000 		.4byte	0x37
 15967 1267 770D0000 		.4byte	.LLST121
 15968 126b 17       		.uleb128 0x17
 15969 126c 8B010000 		.4byte	.LASF141
 15970 1270 01       		.byte	0x1
 15971 1271 1E01     		.2byte	0x11e
 15972 1273 42000000 		.4byte	0x42
 15973 1277 950D0000 		.4byte	.LLST122
 15974 127b 00       		.byte	0x0
 15975 127c 20       		.uleb128 0x20
 15976 127d A6120000 		.4byte	0x12a6
 15977 1281 18030000 		.4byte	.Ldebug_ranges0+0x318
 15978 1285 17       		.uleb128 0x17
 15979 1286 50020000 		.4byte	.LASF140
 15980 128a 01       		.byte	0x1
 15981 128b 2001     		.2byte	0x120
 15982 128d 37000000 		.4byte	0x37
 15983 1291 BE0D0000 		.4byte	.LLST123
 15984 1295 17       		.uleb128 0x17
 15985 1296 8B010000 		.4byte	.LASF141
 15986 129a 01       		.byte	0x1
 15987 129b 2001     		.2byte	0x120
ARM GAS  /cygdrive/c/DOCUME~1/mkwapisz/LOCALS~1/Temp/cc1OEM1Z.s 			page 298


 15988 129d 42000000 		.4byte	0x42
 15989 12a1 E70D0000 		.4byte	.LLST124
 15990 12a5 00       		.byte	0x0
 15991 12a6 20       		.uleb128 0x20
 15992 12a7 D0120000 		.4byte	0x12d0
 15993 12ab 50030000 		.4byte	.Ldebug_ranges0+0x350
 15994 12af 17       		.uleb128 0x17
 15995 12b0 50020000 		.4byte	.LASF140
 15996 12b4 01       		.byte	0x1
 15997 12b5 2201     		.2byte	0x122
 15998 12b7 37000000 		.4byte	0x37
 15999 12bb 100E0000 		.4byte	.LLST125
 16000 12bf 17       		.uleb128 0x17
 16001 12c0 8B010000 		.4byte	.LASF141
 16002 12c4 01       		.byte	0x1
 16003 12c5 2201     		.2byte	0x122
 16004 12c7 42000000 		.4byte	0x42
 16005 12cb 390E0000 		.4byte	.LLST126
 16006 12cf 00       		.byte	0x0
 16007 12d0 20       		.uleb128 0x20
 16008 12d1 FA120000 		.4byte	0x12fa
 16009 12d5 80030000 		.4byte	.Ldebug_ranges0+0x380
 16010 12d9 17       		.uleb128 0x17
 16011 12da 50020000 		.4byte	.LASF140
 16012 12de 01       		.byte	0x1
 16013 12df 2301     		.2byte	0x123
 16014 12e1 37000000 		.4byte	0x37
 16015 12e5 4C0E0000 		.4byte	.LLST127
 16016 12e9 17       		.uleb128 0x17
 16017 12ea 8B010000 		.4byte	.LASF141
 16018 12ee 01       		.byte	0x1
 16019 12ef 2301     		.2byte	0x123
 16020 12f1 42000000 		.4byte	0x42
 16021 12f5 750E0000 		.4byte	.LLST128
 16022 12f9 00       		.byte	0x0
 16023 12fa 20       		.uleb128 0x20
 16024 12fb 24130000 		.4byte	0x1324
 16025 12ff A8030000 		.4byte	.Ldebug_ranges0+0x3a8
 16026 1303 17       		.uleb128 0x17
 16027 1304 50020000 		.4byte	.LASF140
 16028 1308 01       		.byte	0x1
 16029 1309 2601     		.2byte	0x126
 16030 130b 37000000 		.4byte	0x37
 16031 130f 9E0E0000 		.4byte	.LLST129
 16032 1313 17       		.uleb128 0x17
 16033 1314 8B010000 		.4byte	.LASF141
 16034 1318 01       		.byte	0x1
 16035 1319 2601     		.2byte	0x126
 16036 131b 42000000 		.4byte	0x42
 16037 131f BC0E0000 		.4byte	.LLST130
 16038 1323 00       		.byte	0x0
 16039 1324 20       		.uleb128 0x20
 16040 1325 4E130000 		.4byte	0x134e
 16041 1329 E0030000 		.4byte	.Ldebug_ranges0+0x3e0
 16042 132d 17       		.uleb128 0x17
 16043 132e 50020000 		.4byte	.LASF140
 16044 1332 01       		.byte	0x1
ARM GAS  /cygdrive/c/DOCUME~1/mkwapisz/LOCALS~1/Temp/cc1OEM1Z.s 			page 299


 16045 1333 2801     		.2byte	0x128
 16046 1335 37000000 		.4byte	0x37
 16047 1339 E50E0000 		.4byte	.LLST131
 16048 133d 17       		.uleb128 0x17
 16049 133e 8B010000 		.4byte	.LASF141
 16050 1342 01       		.byte	0x1
 16051 1343 2801     		.2byte	0x128
 16052 1345 42000000 		.4byte	0x42
 16053 1349 0E0F0000 		.4byte	.LLST132
 16054 134d 00       		.byte	0x0
 16055 134e 20       		.uleb128 0x20
 16056 134f 78130000 		.4byte	0x1378
 16057 1353 10040000 		.4byte	.Ldebug_ranges0+0x410
 16058 1357 17       		.uleb128 0x17
 16059 1358 50020000 		.4byte	.LASF140
 16060 135c 01       		.byte	0x1
 16061 135d 2A01     		.2byte	0x12a
 16062 135f 37000000 		.4byte	0x37
 16063 1363 370F0000 		.4byte	.LLST133
 16064 1367 17       		.uleb128 0x17
 16065 1368 8B010000 		.4byte	.LASF141
 16066 136c 01       		.byte	0x1
 16067 136d 2A01     		.2byte	0x12a
 16068 136f 42000000 		.4byte	0x42
 16069 1373 600F0000 		.4byte	.LLST134
 16070 1377 00       		.byte	0x0
 16071 1378 20       		.uleb128 0x20
 16072 1379 A2130000 		.4byte	0x13a2
 16073 137d 40040000 		.4byte	.Ldebug_ranges0+0x440
 16074 1381 17       		.uleb128 0x17
 16075 1382 50020000 		.4byte	.LASF140
 16076 1386 01       		.byte	0x1
 16077 1387 2E01     		.2byte	0x12e
 16078 1389 37000000 		.4byte	0x37
 16079 138d 890F0000 		.4byte	.LLST135
 16080 1391 17       		.uleb128 0x17
 16081 1392 8B010000 		.4byte	.LASF141
 16082 1396 01       		.byte	0x1
 16083 1397 2E01     		.2byte	0x12e
 16084 1399 42000000 		.4byte	0x42
 16085 139d A70F0000 		.4byte	.LLST136
 16086 13a1 00       		.byte	0x0
 16087 13a2 20       		.uleb128 0x20
 16088 13a3 CC130000 		.4byte	0x13cc
 16089 13a7 70040000 		.4byte	.Ldebug_ranges0+0x470
 16090 13ab 17       		.uleb128 0x17
 16091 13ac 50020000 		.4byte	.LASF140
 16092 13b0 01       		.byte	0x1
 16093 13b1 2B01     		.2byte	0x12b
 16094 13b3 37000000 		.4byte	0x37
 16095 13b7 D00F0000 		.4byte	.LLST137
 16096 13bb 17       		.uleb128 0x17
 16097 13bc 8B010000 		.4byte	.LASF141
 16098 13c0 01       		.byte	0x1
 16099 13c1 2B01     		.2byte	0x12b
 16100 13c3 42000000 		.4byte	0x42
 16101 13c7 E30F0000 		.4byte	.LLST138
ARM GAS  /cygdrive/c/DOCUME~1/mkwapisz/LOCALS~1/Temp/cc1OEM1Z.s 			page 300


 16102 13cb 00       		.byte	0x0
 16103 13cc 20       		.uleb128 0x20
 16104 13cd F6130000 		.4byte	0x13f6
 16105 13d1 88040000 		.4byte	.Ldebug_ranges0+0x488
 16106 13d5 17       		.uleb128 0x17
 16107 13d6 50020000 		.4byte	.LASF140
 16108 13da 01       		.byte	0x1
 16109 13db 3001     		.2byte	0x130
 16110 13dd 37000000 		.4byte	0x37
 16111 13e1 01100000 		.4byte	.LLST139
 16112 13e5 17       		.uleb128 0x17
 16113 13e6 8B010000 		.4byte	.LASF141
 16114 13ea 01       		.byte	0x1
 16115 13eb 3001     		.2byte	0x130
 16116 13ed 42000000 		.4byte	0x42
 16117 13f1 2A100000 		.4byte	.LLST140
 16118 13f5 00       		.byte	0x0
 16119 13f6 20       		.uleb128 0x20
 16120 13f7 20140000 		.4byte	0x1420
 16121 13fb C0040000 		.4byte	.Ldebug_ranges0+0x4c0
 16122 13ff 17       		.uleb128 0x17
 16123 1400 50020000 		.4byte	.LASF140
 16124 1404 01       		.byte	0x1
 16125 1405 3201     		.2byte	0x132
 16126 1407 37000000 		.4byte	0x37
 16127 140b 53100000 		.4byte	.LLST141
 16128 140f 17       		.uleb128 0x17
 16129 1410 8B010000 		.4byte	.LASF141
 16130 1414 01       		.byte	0x1
 16131 1415 3201     		.2byte	0x132
 16132 1417 42000000 		.4byte	0x42
 16133 141b 7C100000 		.4byte	.LLST142
 16134 141f 00       		.byte	0x0
 16135 1420 20       		.uleb128 0x20
 16136 1421 4A140000 		.4byte	0x144a
 16137 1425 E8040000 		.4byte	.Ldebug_ranges0+0x4e8
 16138 1429 17       		.uleb128 0x17
 16139 142a 50020000 		.4byte	.LASF140
 16140 142e 01       		.byte	0x1
 16141 142f 3301     		.2byte	0x133
 16142 1431 37000000 		.4byte	0x37
 16143 1435 8F100000 		.4byte	.LLST143
 16144 1439 17       		.uleb128 0x17
 16145 143a 8B010000 		.4byte	.LASF141
 16146 143e 01       		.byte	0x1
 16147 143f 3301     		.2byte	0x133
 16148 1441 42000000 		.4byte	0x42
 16149 1445 B8100000 		.4byte	.LLST144
 16150 1449 00       		.byte	0x0
 16151 144a 20       		.uleb128 0x20
 16152 144b 74140000 		.4byte	0x1474
 16153 144f 08050000 		.4byte	.Ldebug_ranges0+0x508
 16154 1453 17       		.uleb128 0x17
 16155 1454 50020000 		.4byte	.LASF140
 16156 1458 01       		.byte	0x1
 16157 1459 3601     		.2byte	0x136
 16158 145b 37000000 		.4byte	0x37
ARM GAS  /cygdrive/c/DOCUME~1/mkwapisz/LOCALS~1/Temp/cc1OEM1Z.s 			page 301


 16159 145f E1100000 		.4byte	.LLST145
 16160 1463 17       		.uleb128 0x17
 16161 1464 8B010000 		.4byte	.LASF141
 16162 1468 01       		.byte	0x1
 16163 1469 3601     		.2byte	0x136
 16164 146b 42000000 		.4byte	0x42
 16165 146f FF100000 		.4byte	.LLST146
 16166 1473 00       		.byte	0x0
 16167 1474 20       		.uleb128 0x20
 16168 1475 9E140000 		.4byte	0x149e
 16169 1479 40050000 		.4byte	.Ldebug_ranges0+0x540
 16170 147d 17       		.uleb128 0x17
 16171 147e 50020000 		.4byte	.LASF140
 16172 1482 01       		.byte	0x1
 16173 1483 3801     		.2byte	0x138
 16174 1485 37000000 		.4byte	0x37
 16175 1489 28110000 		.4byte	.LLST147
 16176 148d 17       		.uleb128 0x17
 16177 148e 8B010000 		.4byte	.LASF141
 16178 1492 01       		.byte	0x1
 16179 1493 3801     		.2byte	0x138
 16180 1495 42000000 		.4byte	0x42
 16181 1499 51110000 		.4byte	.LLST148
 16182 149d 00       		.byte	0x0
 16183 149e 20       		.uleb128 0x20
 16184 149f C8140000 		.4byte	0x14c8
 16185 14a3 78050000 		.4byte	.Ldebug_ranges0+0x578
 16186 14a7 17       		.uleb128 0x17
 16187 14a8 50020000 		.4byte	.LASF140
 16188 14ac 01       		.byte	0x1
 16189 14ad 3A01     		.2byte	0x13a
 16190 14af 37000000 		.4byte	0x37
 16191 14b3 7A110000 		.4byte	.LLST149
 16192 14b7 17       		.uleb128 0x17
 16193 14b8 8B010000 		.4byte	.LASF141
 16194 14bc 01       		.byte	0x1
 16195 14bd 3A01     		.2byte	0x13a
 16196 14bf 42000000 		.4byte	0x42
 16197 14c3 A3110000 		.4byte	.LLST150
 16198 14c7 00       		.byte	0x0
 16199 14c8 20       		.uleb128 0x20
 16200 14c9 F2140000 		.4byte	0x14f2
 16201 14cd B0050000 		.4byte	.Ldebug_ranges0+0x5b0
 16202 14d1 17       		.uleb128 0x17
 16203 14d2 50020000 		.4byte	.LASF140
 16204 14d6 01       		.byte	0x1
 16205 14d7 3B01     		.2byte	0x13b
 16206 14d9 37000000 		.4byte	0x37
 16207 14dd CC110000 		.4byte	.LLST151
 16208 14e1 17       		.uleb128 0x17
 16209 14e2 8B010000 		.4byte	.LASF141
 16210 14e6 01       		.byte	0x1
 16211 14e7 3B01     		.2byte	0x13b
 16212 14e9 42000000 		.4byte	0x42
 16213 14ed F5110000 		.4byte	.LLST152
 16214 14f1 00       		.byte	0x0
 16215 14f2 20       		.uleb128 0x20
ARM GAS  /cygdrive/c/DOCUME~1/mkwapisz/LOCALS~1/Temp/cc1OEM1Z.s 			page 302


 16216 14f3 1C150000 		.4byte	0x151c
 16217 14f7 F0050000 		.4byte	.Ldebug_ranges0+0x5f0
 16218 14fb 17       		.uleb128 0x17
 16219 14fc 50020000 		.4byte	.LASF140
 16220 1500 01       		.byte	0x1
 16221 1501 3D01     		.2byte	0x13d
 16222 1503 37000000 		.4byte	0x37
 16223 1507 1E120000 		.4byte	.LLST153
 16224 150b 17       		.uleb128 0x17
 16225 150c 8B010000 		.4byte	.LASF141
 16226 1510 01       		.byte	0x1
 16227 1511 3D01     		.2byte	0x13d
 16228 1513 42000000 		.4byte	0x42
 16229 1517 47120000 		.4byte	.LLST154
 16230 151b 00       		.byte	0x0
 16231 151c 20       		.uleb128 0x20
 16232 151d 46150000 		.4byte	0x1546
 16233 1521 20060000 		.4byte	.Ldebug_ranges0+0x620
 16234 1525 17       		.uleb128 0x17
 16235 1526 50020000 		.4byte	.LASF140
 16236 152a 01       		.byte	0x1
 16237 152b 3C01     		.2byte	0x13c
 16238 152d 37000000 		.4byte	0x37
 16239 1531 70120000 		.4byte	.LLST155
 16240 1535 17       		.uleb128 0x17
 16241 1536 8B010000 		.4byte	.LASF141
 16242 153a 01       		.byte	0x1
 16243 153b 3C01     		.2byte	0x13c
 16244 153d 42000000 		.4byte	0x42
 16245 1541 99120000 		.4byte	.LLST156
 16246 1545 00       		.byte	0x0
 16247 1546 20       		.uleb128 0x20
 16248 1547 70150000 		.4byte	0x1570
 16249 154b 50060000 		.4byte	.Ldebug_ranges0+0x650
 16250 154f 17       		.uleb128 0x17
 16251 1550 50020000 		.4byte	.LASF140
 16252 1554 01       		.byte	0x1
 16253 1555 3E01     		.2byte	0x13e
 16254 1557 37000000 		.4byte	0x37
 16255 155b C2120000 		.4byte	.LLST157
 16256 155f 17       		.uleb128 0x17
 16257 1560 8B010000 		.4byte	.LASF141
 16258 1564 01       		.byte	0x1
 16259 1565 3E01     		.2byte	0x13e
 16260 1567 42000000 		.4byte	0x42
 16261 156b EB120000 		.4byte	.LLST158
 16262 156f 00       		.byte	0x0
 16263 1570 20       		.uleb128 0x20
 16264 1571 9A150000 		.4byte	0x159a
 16265 1575 80060000 		.4byte	.Ldebug_ranges0+0x680
 16266 1579 17       		.uleb128 0x17
 16267 157a 50020000 		.4byte	.LASF140
 16268 157e 01       		.byte	0x1
 16269 157f 3F01     		.2byte	0x13f
 16270 1581 37000000 		.4byte	0x37
 16271 1585 14130000 		.4byte	.LLST159
 16272 1589 17       		.uleb128 0x17
ARM GAS  /cygdrive/c/DOCUME~1/mkwapisz/LOCALS~1/Temp/cc1OEM1Z.s 			page 303


 16273 158a 8B010000 		.4byte	.LASF141
 16274 158e 01       		.byte	0x1
 16275 158f 3F01     		.2byte	0x13f
 16276 1591 42000000 		.4byte	0x42
 16277 1595 3D130000 		.4byte	.LLST160
 16278 1599 00       		.byte	0x0
 16279 159a 20       		.uleb128 0x20
 16280 159b C4150000 		.4byte	0x15c4
 16281 159f B0060000 		.4byte	.Ldebug_ranges0+0x6b0
 16282 15a3 17       		.uleb128 0x17
 16283 15a4 50020000 		.4byte	.LASF140
 16284 15a8 01       		.byte	0x1
 16285 15a9 4001     		.2byte	0x140
 16286 15ab 37000000 		.4byte	0x37
 16287 15af 66130000 		.4byte	.LLST161
 16288 15b3 17       		.uleb128 0x17
 16289 15b4 8B010000 		.4byte	.LASF141
 16290 15b8 01       		.byte	0x1
 16291 15b9 4001     		.2byte	0x140
 16292 15bb 42000000 		.4byte	0x42
 16293 15bf 8F130000 		.4byte	.LLST162
 16294 15c3 00       		.byte	0x0
 16295 15c4 20       		.uleb128 0x20
 16296 15c5 EE150000 		.4byte	0x15ee
 16297 15c9 E0060000 		.4byte	.Ldebug_ranges0+0x6e0
 16298 15cd 17       		.uleb128 0x17
 16299 15ce 50020000 		.4byte	.LASF140
 16300 15d2 01       		.byte	0x1
 16301 15d3 4101     		.2byte	0x141
 16302 15d5 37000000 		.4byte	0x37
 16303 15d9 B8130000 		.4byte	.LLST163
 16304 15dd 17       		.uleb128 0x17
 16305 15de 8B010000 		.4byte	.LASF141
 16306 15e2 01       		.byte	0x1
 16307 15e3 4101     		.2byte	0x141
 16308 15e5 42000000 		.4byte	0x42
 16309 15e9 E1130000 		.4byte	.LLST164
 16310 15ed 00       		.byte	0x0
 16311 15ee 20       		.uleb128 0x20
 16312 15ef 18160000 		.4byte	0x1618
 16313 15f3 10070000 		.4byte	.Ldebug_ranges0+0x710
 16314 15f7 17       		.uleb128 0x17
 16315 15f8 50020000 		.4byte	.LASF140
 16316 15fc 01       		.byte	0x1
 16317 15fd 4301     		.2byte	0x143
 16318 15ff 37000000 		.4byte	0x37
 16319 1603 0A140000 		.4byte	.LLST165
 16320 1607 17       		.uleb128 0x17
 16321 1608 8B010000 		.4byte	.LASF141
 16322 160c 01       		.byte	0x1
 16323 160d 4301     		.2byte	0x143
 16324 160f 42000000 		.4byte	0x42
 16325 1613 33140000 		.4byte	.LLST166
 16326 1617 00       		.byte	0x0
 16327 1618 20       		.uleb128 0x20
 16328 1619 42160000 		.4byte	0x1642
 16329 161d 40070000 		.4byte	.Ldebug_ranges0+0x740
ARM GAS  /cygdrive/c/DOCUME~1/mkwapisz/LOCALS~1/Temp/cc1OEM1Z.s 			page 304


 16330 1621 17       		.uleb128 0x17
 16331 1622 50020000 		.4byte	.LASF140
 16332 1626 01       		.byte	0x1
 16333 1627 4401     		.2byte	0x144
 16334 1629 37000000 		.4byte	0x37
 16335 162d 5C140000 		.4byte	.LLST167
 16336 1631 17       		.uleb128 0x17
 16337 1632 8B010000 		.4byte	.LASF141
 16338 1636 01       		.byte	0x1
 16339 1637 4401     		.2byte	0x144
 16340 1639 42000000 		.4byte	0x42
 16341 163d 85140000 		.4byte	.LLST168
 16342 1641 00       		.byte	0x0
 16343 1642 20       		.uleb128 0x20
 16344 1643 6C160000 		.4byte	0x166c
 16345 1647 70070000 		.4byte	.Ldebug_ranges0+0x770
 16346 164b 17       		.uleb128 0x17
 16347 164c 50020000 		.4byte	.LASF140
 16348 1650 01       		.byte	0x1
 16349 1651 4501     		.2byte	0x145
 16350 1653 37000000 		.4byte	0x37
 16351 1657 AE140000 		.4byte	.LLST169
 16352 165b 17       		.uleb128 0x17
 16353 165c 8B010000 		.4byte	.LASF141
 16354 1660 01       		.byte	0x1
 16355 1661 4501     		.2byte	0x145
 16356 1663 42000000 		.4byte	0x42
 16357 1667 D7140000 		.4byte	.LLST170
 16358 166b 00       		.byte	0x0
 16359 166c 20       		.uleb128 0x20
 16360 166d 96160000 		.4byte	0x1696
 16361 1671 A0070000 		.4byte	.Ldebug_ranges0+0x7a0
 16362 1675 17       		.uleb128 0x17
 16363 1676 50020000 		.4byte	.LASF140
 16364 167a 01       		.byte	0x1
 16365 167b 4601     		.2byte	0x146
 16366 167d 37000000 		.4byte	0x37
 16367 1681 00150000 		.4byte	.LLST171
 16368 1685 17       		.uleb128 0x17
 16369 1686 8B010000 		.4byte	.LASF141
 16370 168a 01       		.byte	0x1
 16371 168b 4601     		.2byte	0x146
 16372 168d 42000000 		.4byte	0x42
 16373 1691 29150000 		.4byte	.LLST172
 16374 1695 00       		.byte	0x0
 16375 1696 20       		.uleb128 0x20
 16376 1697 C0160000 		.4byte	0x16c0
 16377 169b D0070000 		.4byte	.Ldebug_ranges0+0x7d0
 16378 169f 17       		.uleb128 0x17
 16379 16a0 50020000 		.4byte	.LASF140
 16380 16a4 01       		.byte	0x1
 16381 16a5 4801     		.2byte	0x148
 16382 16a7 37000000 		.4byte	0x37
 16383 16ab 52150000 		.4byte	.LLST173
 16384 16af 17       		.uleb128 0x17
 16385 16b0 8B010000 		.4byte	.LASF141
 16386 16b4 01       		.byte	0x1
ARM GAS  /cygdrive/c/DOCUME~1/mkwapisz/LOCALS~1/Temp/cc1OEM1Z.s 			page 305


 16387 16b5 4801     		.2byte	0x148
 16388 16b7 42000000 		.4byte	0x42
 16389 16bb 7B150000 		.4byte	.LLST174
 16390 16bf 00       		.byte	0x0
 16391 16c0 20       		.uleb128 0x20
 16392 16c1 EA160000 		.4byte	0x16ea
 16393 16c5 00080000 		.4byte	.Ldebug_ranges0+0x800
 16394 16c9 17       		.uleb128 0x17
 16395 16ca 50020000 		.4byte	.LASF140
 16396 16ce 01       		.byte	0x1
 16397 16cf 4901     		.2byte	0x149
 16398 16d1 37000000 		.4byte	0x37
 16399 16d5 A4150000 		.4byte	.LLST175
 16400 16d9 17       		.uleb128 0x17
 16401 16da 8B010000 		.4byte	.LASF141
 16402 16de 01       		.byte	0x1
 16403 16df 4901     		.2byte	0x149
 16404 16e1 42000000 		.4byte	0x42
 16405 16e5 CD150000 		.4byte	.LLST176
 16406 16e9 00       		.byte	0x0
 16407 16ea 20       		.uleb128 0x20
 16408 16eb 14170000 		.4byte	0x1714
 16409 16ef 30080000 		.4byte	.Ldebug_ranges0+0x830
 16410 16f3 17       		.uleb128 0x17
 16411 16f4 50020000 		.4byte	.LASF140
 16412 16f8 01       		.byte	0x1
 16413 16f9 4A01     		.2byte	0x14a
 16414 16fb 37000000 		.4byte	0x37
 16415 16ff F6150000 		.4byte	.LLST177
 16416 1703 17       		.uleb128 0x17
 16417 1704 8B010000 		.4byte	.LASF141
 16418 1708 01       		.byte	0x1
 16419 1709 4A01     		.2byte	0x14a
 16420 170b 42000000 		.4byte	0x42
 16421 170f 1F160000 		.4byte	.LLST178
 16422 1713 00       		.byte	0x0
 16423 1714 20       		.uleb128 0x20
 16424 1715 3E170000 		.4byte	0x173e
 16425 1719 60080000 		.4byte	.Ldebug_ranges0+0x860
 16426 171d 17       		.uleb128 0x17
 16427 171e 50020000 		.4byte	.LASF140
 16428 1722 01       		.byte	0x1
 16429 1723 4B01     		.2byte	0x14b
 16430 1725 37000000 		.4byte	0x37
 16431 1729 48160000 		.4byte	.LLST179
 16432 172d 17       		.uleb128 0x17
 16433 172e 8B010000 		.4byte	.LASF141
 16434 1732 01       		.byte	0x1
 16435 1733 4B01     		.2byte	0x14b
 16436 1735 42000000 		.4byte	0x42
 16437 1739 71160000 		.4byte	.LLST180
 16438 173d 00       		.byte	0x0
 16439 173e 20       		.uleb128 0x20
 16440 173f 68170000 		.4byte	0x1768
 16441 1743 A8080000 		.4byte	.Ldebug_ranges0+0x8a8
 16442 1747 17       		.uleb128 0x17
 16443 1748 50020000 		.4byte	.LASF140
ARM GAS  /cygdrive/c/DOCUME~1/mkwapisz/LOCALS~1/Temp/cc1OEM1Z.s 			page 306


 16444 174c 01       		.byte	0x1
 16445 174d 5101     		.2byte	0x151
 16446 174f 37000000 		.4byte	0x37
 16447 1753 9A160000 		.4byte	.LLST181
 16448 1757 17       		.uleb128 0x17
 16449 1758 8B010000 		.4byte	.LASF141
 16450 175c 01       		.byte	0x1
 16451 175d 5101     		.2byte	0x151
 16452 175f 42000000 		.4byte	0x42
 16453 1763 B8160000 		.4byte	.LLST182
 16454 1767 00       		.byte	0x0
 16455 1768 20       		.uleb128 0x20
 16456 1769 92170000 		.4byte	0x1792
 16457 176d C8080000 		.4byte	.Ldebug_ranges0+0x8c8
 16458 1771 17       		.uleb128 0x17
 16459 1772 50020000 		.4byte	.LASF140
 16460 1776 01       		.byte	0x1
 16461 1777 8E01     		.2byte	0x18e
 16462 1779 37000000 		.4byte	0x37
 16463 177d E1160000 		.4byte	.LLST183
 16464 1781 17       		.uleb128 0x17
 16465 1782 8B010000 		.4byte	.LASF141
 16466 1786 01       		.byte	0x1
 16467 1787 8E01     		.2byte	0x18e
 16468 1789 42000000 		.4byte	0x42
 16469 178d 0A170000 		.4byte	.LLST184
 16470 1791 00       		.byte	0x0
 16471 1792 20       		.uleb128 0x20
 16472 1793 BC170000 		.4byte	0x17bc
 16473 1797 E8080000 		.4byte	.Ldebug_ranges0+0x8e8
 16474 179b 17       		.uleb128 0x17
 16475 179c 50020000 		.4byte	.LASF140
 16476 17a0 01       		.byte	0x1
 16477 17a1 8F01     		.2byte	0x18f
 16478 17a3 37000000 		.4byte	0x37
 16479 17a7 28170000 		.4byte	.LLST185
 16480 17ab 17       		.uleb128 0x17
 16481 17ac 8B010000 		.4byte	.LASF141
 16482 17b0 01       		.byte	0x1
 16483 17b1 8F01     		.2byte	0x18f
 16484 17b3 42000000 		.4byte	0x42
 16485 17b7 51170000 		.4byte	.LLST186
 16486 17bb 00       		.byte	0x0
 16487 17bc 22       		.uleb128 0x22
 16488 17bd EA170000 		.4byte	0x17ea
 16489 17c1 900C0000 		.4byte	.LBB239
 16490 17c5 A40C0000 		.4byte	.LBE239
 16491 17c9 17       		.uleb128 0x17
 16492 17ca 50020000 		.4byte	.LASF140
 16493 17ce 01       		.byte	0x1
 16494 17cf 9401     		.2byte	0x194
 16495 17d1 37000000 		.4byte	0x37
 16496 17d5 7A170000 		.4byte	.LLST187
 16497 17d9 17       		.uleb128 0x17
 16498 17da 8B010000 		.4byte	.LASF141
 16499 17de 01       		.byte	0x1
 16500 17df 9401     		.2byte	0x194
ARM GAS  /cygdrive/c/DOCUME~1/mkwapisz/LOCALS~1/Temp/cc1OEM1Z.s 			page 307


 16501 17e1 42000000 		.4byte	0x42
 16502 17e5 98170000 		.4byte	.LLST188
 16503 17e9 00       		.byte	0x0
 16504 17ea 20       		.uleb128 0x20
 16505 17eb 14180000 		.4byte	0x1814
 16506 17ef 00090000 		.4byte	.Ldebug_ranges0+0x900
 16507 17f3 17       		.uleb128 0x17
 16508 17f4 50020000 		.4byte	.LASF140
 16509 17f8 01       		.byte	0x1
 16510 17f9 9601     		.2byte	0x196
 16511 17fb 37000000 		.4byte	0x37
 16512 17ff C1170000 		.4byte	.LLST189
 16513 1803 17       		.uleb128 0x17
 16514 1804 8B010000 		.4byte	.LASF141
 16515 1808 01       		.byte	0x1
 16516 1809 9601     		.2byte	0x196
 16517 180b 42000000 		.4byte	0x42
 16518 180f DF170000 		.4byte	.LLST190
 16519 1813 00       		.byte	0x0
 16520 1814 20       		.uleb128 0x20
 16521 1815 3E180000 		.4byte	0x183e
 16522 1819 30090000 		.4byte	.Ldebug_ranges0+0x930
 16523 181d 17       		.uleb128 0x17
 16524 181e 50020000 		.4byte	.LASF140
 16525 1822 01       		.byte	0x1
 16526 1823 9701     		.2byte	0x197
 16527 1825 37000000 		.4byte	0x37
 16528 1829 08180000 		.4byte	.LLST191
 16529 182d 17       		.uleb128 0x17
 16530 182e 8B010000 		.4byte	.LASF141
 16531 1832 01       		.byte	0x1
 16532 1833 9701     		.2byte	0x197
 16533 1835 42000000 		.4byte	0x42
 16534 1839 31180000 		.4byte	.LLST192
 16535 183d 00       		.byte	0x0
 16536 183e 20       		.uleb128 0x20
 16537 183f 68180000 		.4byte	0x1868
 16538 1843 60090000 		.4byte	.Ldebug_ranges0+0x960
 16539 1847 17       		.uleb128 0x17
 16540 1848 50020000 		.4byte	.LASF140
 16541 184c 01       		.byte	0x1
 16542 184d 9E01     		.2byte	0x19e
 16543 184f 37000000 		.4byte	0x37
 16544 1853 5A180000 		.4byte	.LLST193
 16545 1857 17       		.uleb128 0x17
 16546 1858 8B010000 		.4byte	.LASF141
 16547 185c 01       		.byte	0x1
 16548 185d 9E01     		.2byte	0x19e
 16549 185f 42000000 		.4byte	0x42
 16550 1863 83180000 		.4byte	.LLST194
 16551 1867 00       		.byte	0x0
 16552 1868 20       		.uleb128 0x20
 16553 1869 92180000 		.4byte	0x1892
 16554 186d 98090000 		.4byte	.Ldebug_ranges0+0x998
 16555 1871 17       		.uleb128 0x17
 16556 1872 50020000 		.4byte	.LASF140
 16557 1876 01       		.byte	0x1
ARM GAS  /cygdrive/c/DOCUME~1/mkwapisz/LOCALS~1/Temp/cc1OEM1Z.s 			page 308


 16558 1877 9F01     		.2byte	0x19f
 16559 1879 37000000 		.4byte	0x37
 16560 187d AC180000 		.4byte	.LLST195
 16561 1881 17       		.uleb128 0x17
 16562 1882 8B010000 		.4byte	.LASF141
 16563 1886 01       		.byte	0x1
 16564 1887 9F01     		.2byte	0x19f
 16565 1889 42000000 		.4byte	0x42
 16566 188d D5180000 		.4byte	.LLST196
 16567 1891 00       		.byte	0x0
 16568 1892 20       		.uleb128 0x20
 16569 1893 BC180000 		.4byte	0x18bc
 16570 1897 C8090000 		.4byte	.Ldebug_ranges0+0x9c8
 16571 189b 17       		.uleb128 0x17
 16572 189c 50020000 		.4byte	.LASF140
 16573 18a0 01       		.byte	0x1
 16574 18a1 A601     		.2byte	0x1a6
 16575 18a3 37000000 		.4byte	0x37
 16576 18a7 FE180000 		.4byte	.LLST197
 16577 18ab 17       		.uleb128 0x17
 16578 18ac 8B010000 		.4byte	.LASF141
 16579 18b0 01       		.byte	0x1
 16580 18b1 A601     		.2byte	0x1a6
 16581 18b3 42000000 		.4byte	0x42
 16582 18b7 27190000 		.4byte	.LLST198
 16583 18bb 00       		.byte	0x0
 16584 18bc 20       		.uleb128 0x20
 16585 18bd E6180000 		.4byte	0x18e6
 16586 18c1 000A0000 		.4byte	.Ldebug_ranges0+0xa00
 16587 18c5 17       		.uleb128 0x17
 16588 18c6 50020000 		.4byte	.LASF140
 16589 18ca 01       		.byte	0x1
 16590 18cb A701     		.2byte	0x1a7
 16591 18cd 37000000 		.4byte	0x37
 16592 18d1 50190000 		.4byte	.LLST199
 16593 18d5 17       		.uleb128 0x17
 16594 18d6 8B010000 		.4byte	.LASF141
 16595 18da 01       		.byte	0x1
 16596 18db A701     		.2byte	0x1a7
 16597 18dd 42000000 		.4byte	0x42
 16598 18e1 79190000 		.4byte	.LLST200
 16599 18e5 00       		.byte	0x0
 16600 18e6 20       		.uleb128 0x20
 16601 18e7 10190000 		.4byte	0x1910
 16602 18eb 300A0000 		.4byte	.Ldebug_ranges0+0xa30
 16603 18ef 17       		.uleb128 0x17
 16604 18f0 50020000 		.4byte	.LASF140
 16605 18f4 01       		.byte	0x1
 16606 18f5 B001     		.2byte	0x1b0
 16607 18f7 37000000 		.4byte	0x37
 16608 18fb A2190000 		.4byte	.LLST201
 16609 18ff 17       		.uleb128 0x17
 16610 1900 8B010000 		.4byte	.LASF141
 16611 1904 01       		.byte	0x1
 16612 1905 B001     		.2byte	0x1b0
 16613 1907 42000000 		.4byte	0x42
 16614 190b CB190000 		.4byte	.LLST202
ARM GAS  /cygdrive/c/DOCUME~1/mkwapisz/LOCALS~1/Temp/cc1OEM1Z.s 			page 309


 16615 190f 00       		.byte	0x0
 16616 1910 20       		.uleb128 0x20
 16617 1911 3A190000 		.4byte	0x193a
 16618 1915 680A0000 		.4byte	.Ldebug_ranges0+0xa68
 16619 1919 17       		.uleb128 0x17
 16620 191a 50020000 		.4byte	.LASF140
 16621 191e 01       		.byte	0x1
 16622 191f B101     		.2byte	0x1b1
 16623 1921 37000000 		.4byte	0x37
 16624 1925 F4190000 		.4byte	.LLST203
 16625 1929 17       		.uleb128 0x17
 16626 192a 8B010000 		.4byte	.LASF141
 16627 192e 01       		.byte	0x1
 16628 192f B101     		.2byte	0x1b1
 16629 1931 42000000 		.4byte	0x42
 16630 1935 121A0000 		.4byte	.LLST204
 16631 1939 00       		.byte	0x0
 16632 193a 20       		.uleb128 0x20
 16633 193b 64190000 		.4byte	0x1964
 16634 193f 880A0000 		.4byte	.Ldebug_ranges0+0xa88
 16635 1943 17       		.uleb128 0x17
 16636 1944 50020000 		.4byte	.LASF140
 16637 1948 01       		.byte	0x1
 16638 1949 B801     		.2byte	0x1b8
 16639 194b 37000000 		.4byte	0x37
 16640 194f 301A0000 		.4byte	.LLST205
 16641 1953 17       		.uleb128 0x17
 16642 1954 8B010000 		.4byte	.LASF141
 16643 1958 01       		.byte	0x1
 16644 1959 B801     		.2byte	0x1b8
 16645 195b 42000000 		.4byte	0x42
 16646 195f 4E1A0000 		.4byte	.LLST206
 16647 1963 00       		.byte	0x0
 16648 1964 20       		.uleb128 0x20
 16649 1965 8E190000 		.4byte	0x198e
 16650 1969 B00A0000 		.4byte	.Ldebug_ranges0+0xab0
 16651 196d 17       		.uleb128 0x17
 16652 196e 50020000 		.4byte	.LASF140
 16653 1972 01       		.byte	0x1
 16654 1973 BC01     		.2byte	0x1bc
 16655 1975 37000000 		.4byte	0x37
 16656 1979 771A0000 		.4byte	.LLST207
 16657 197d 17       		.uleb128 0x17
 16658 197e 8B010000 		.4byte	.LASF141
 16659 1982 01       		.byte	0x1
 16660 1983 BC01     		.2byte	0x1bc
 16661 1985 42000000 		.4byte	0x42
 16662 1989 951A0000 		.4byte	.LLST208
 16663 198d 00       		.byte	0x0
 16664 198e 20       		.uleb128 0x20
 16665 198f B8190000 		.4byte	0x19b8
 16666 1993 C80A0000 		.4byte	.Ldebug_ranges0+0xac8
 16667 1997 17       		.uleb128 0x17
 16668 1998 50020000 		.4byte	.LASF140
 16669 199c 01       		.byte	0x1
 16670 199d BE01     		.2byte	0x1be
 16671 199f 37000000 		.4byte	0x37
ARM GAS  /cygdrive/c/DOCUME~1/mkwapisz/LOCALS~1/Temp/cc1OEM1Z.s 			page 310


 16672 19a3 BE1A0000 		.4byte	.LLST209
 16673 19a7 17       		.uleb128 0x17
 16674 19a8 8B010000 		.4byte	.LASF141
 16675 19ac 01       		.byte	0x1
 16676 19ad BE01     		.2byte	0x1be
 16677 19af 42000000 		.4byte	0x42
 16678 19b3 DC1A0000 		.4byte	.LLST210
 16679 19b7 00       		.byte	0x0
 16680 19b8 20       		.uleb128 0x20
 16681 19b9 E2190000 		.4byte	0x19e2
 16682 19bd F80A0000 		.4byte	.Ldebug_ranges0+0xaf8
 16683 19c1 17       		.uleb128 0x17
 16684 19c2 50020000 		.4byte	.LASF140
 16685 19c6 01       		.byte	0x1
 16686 19c7 BF01     		.2byte	0x1bf
 16687 19c9 37000000 		.4byte	0x37
 16688 19cd 051B0000 		.4byte	.LLST211
 16689 19d1 17       		.uleb128 0x17
 16690 19d2 8B010000 		.4byte	.LASF141
 16691 19d6 01       		.byte	0x1
 16692 19d7 BF01     		.2byte	0x1bf
 16693 19d9 42000000 		.4byte	0x42
 16694 19dd 2E1B0000 		.4byte	.LLST212
 16695 19e1 00       		.byte	0x0
 16696 19e2 20       		.uleb128 0x20
 16697 19e3 0C1A0000 		.4byte	0x1a0c
 16698 19e7 280B0000 		.4byte	.Ldebug_ranges0+0xb28
 16699 19eb 17       		.uleb128 0x17
 16700 19ec 50020000 		.4byte	.LASF140
 16701 19f0 01       		.byte	0x1
 16702 19f1 C801     		.2byte	0x1c8
 16703 19f3 37000000 		.4byte	0x37
 16704 19f7 571B0000 		.4byte	.LLST213
 16705 19fb 17       		.uleb128 0x17
 16706 19fc 8B010000 		.4byte	.LASF141
 16707 1a00 01       		.byte	0x1
 16708 1a01 C801     		.2byte	0x1c8
 16709 1a03 42000000 		.4byte	0x42
 16710 1a07 751B0000 		.4byte	.LLST214
 16711 1a0b 00       		.byte	0x0
 16712 1a0c 20       		.uleb128 0x20
 16713 1a0d 361A0000 		.4byte	0x1a36
 16714 1a11 500B0000 		.4byte	.Ldebug_ranges0+0xb50
 16715 1a15 17       		.uleb128 0x17
 16716 1a16 50020000 		.4byte	.LASF140
 16717 1a1a 01       		.byte	0x1
 16718 1a1b CA01     		.2byte	0x1ca
 16719 1a1d 37000000 		.4byte	0x37
 16720 1a21 9E1B0000 		.4byte	.LLST215
 16721 1a25 17       		.uleb128 0x17
 16722 1a26 8B010000 		.4byte	.LASF141
 16723 1a2a 01       		.byte	0x1
 16724 1a2b CA01     		.2byte	0x1ca
 16725 1a2d 42000000 		.4byte	0x42
 16726 1a31 B11B0000 		.4byte	.LLST216
 16727 1a35 00       		.byte	0x0
 16728 1a36 20       		.uleb128 0x20
ARM GAS  /cygdrive/c/DOCUME~1/mkwapisz/LOCALS~1/Temp/cc1OEM1Z.s 			page 311


 16729 1a37 601A0000 		.4byte	0x1a60
 16730 1a3b 800B0000 		.4byte	.Ldebug_ranges0+0xb80
 16731 1a3f 17       		.uleb128 0x17
 16732 1a40 50020000 		.4byte	.LASF140
 16733 1a44 01       		.byte	0x1
 16734 1a45 CB01     		.2byte	0x1cb
 16735 1a47 37000000 		.4byte	0x37
 16736 1a4b C41B0000 		.4byte	.LLST217
 16737 1a4f 17       		.uleb128 0x17
 16738 1a50 8B010000 		.4byte	.LASF141
 16739 1a54 01       		.byte	0x1
 16740 1a55 CB01     		.2byte	0x1cb
 16741 1a57 42000000 		.4byte	0x42
 16742 1a5b E21B0000 		.4byte	.LLST218
 16743 1a5f 00       		.byte	0x0
 16744 1a60 20       		.uleb128 0x20
 16745 1a61 8A1A0000 		.4byte	0x1a8a
 16746 1a65 980B0000 		.4byte	.Ldebug_ranges0+0xb98
 16747 1a69 17       		.uleb128 0x17
 16748 1a6a 50020000 		.4byte	.LASF140
 16749 1a6e 01       		.byte	0x1
 16750 1a6f D401     		.2byte	0x1d4
 16751 1a71 37000000 		.4byte	0x37
 16752 1a75 001C0000 		.4byte	.LLST219
 16753 1a79 17       		.uleb128 0x17
 16754 1a7a 8B010000 		.4byte	.LASF141
 16755 1a7e 01       		.byte	0x1
 16756 1a7f D401     		.2byte	0x1d4
 16757 1a81 42000000 		.4byte	0x42
 16758 1a85 1E1C0000 		.4byte	.LLST220
 16759 1a89 00       		.byte	0x0
 16760 1a8a 20       		.uleb128 0x20
 16761 1a8b B41A0000 		.4byte	0x1ab4
 16762 1a8f B80B0000 		.4byte	.Ldebug_ranges0+0xbb8
 16763 1a93 17       		.uleb128 0x17
 16764 1a94 50020000 		.4byte	.LASF140
 16765 1a98 01       		.byte	0x1
 16766 1a99 D801     		.2byte	0x1d8
 16767 1a9b 37000000 		.4byte	0x37
 16768 1a9f 471C0000 		.4byte	.LLST221
 16769 1aa3 17       		.uleb128 0x17
 16770 1aa4 8B010000 		.4byte	.LASF141
 16771 1aa8 01       		.byte	0x1
 16772 1aa9 D801     		.2byte	0x1d8
 16773 1aab 42000000 		.4byte	0x42
 16774 1aaf 651C0000 		.4byte	.LLST222
 16775 1ab3 00       		.byte	0x0
 16776 1ab4 20       		.uleb128 0x20
 16777 1ab5 DE1A0000 		.4byte	0x1ade
 16778 1ab9 E00B0000 		.4byte	.Ldebug_ranges0+0xbe0
 16779 1abd 17       		.uleb128 0x17
 16780 1abe 50020000 		.4byte	.LASF140
 16781 1ac2 01       		.byte	0x1
 16782 1ac3 DE01     		.2byte	0x1de
 16783 1ac5 37000000 		.4byte	0x37
 16784 1ac9 8E1C0000 		.4byte	.LLST223
 16785 1acd 17       		.uleb128 0x17
ARM GAS  /cygdrive/c/DOCUME~1/mkwapisz/LOCALS~1/Temp/cc1OEM1Z.s 			page 312


 16786 1ace 8B010000 		.4byte	.LASF141
 16787 1ad2 01       		.byte	0x1
 16788 1ad3 DE01     		.2byte	0x1de
 16789 1ad5 42000000 		.4byte	0x42
 16790 1ad9 AC1C0000 		.4byte	.LLST224
 16791 1add 00       		.byte	0x0
 16792 1ade 20       		.uleb128 0x20
 16793 1adf 081B0000 		.4byte	0x1b08
 16794 1ae3 000C0000 		.4byte	.Ldebug_ranges0+0xc00
 16795 1ae7 17       		.uleb128 0x17
 16796 1ae8 50020000 		.4byte	.LASF140
 16797 1aec 01       		.byte	0x1
 16798 1aed E201     		.2byte	0x1e2
 16799 1aef 37000000 		.4byte	0x37
 16800 1af3 D51C0000 		.4byte	.LLST225
 16801 1af7 17       		.uleb128 0x17
 16802 1af8 8B010000 		.4byte	.LASF141
 16803 1afc 01       		.byte	0x1
 16804 1afd E201     		.2byte	0x1e2
 16805 1aff 42000000 		.4byte	0x42
 16806 1b03 F31C0000 		.4byte	.LLST226
 16807 1b07 00       		.byte	0x0
 16808 1b08 20       		.uleb128 0x20
 16809 1b09 321B0000 		.4byte	0x1b32
 16810 1b0d 180C0000 		.4byte	.Ldebug_ranges0+0xc18
 16811 1b11 17       		.uleb128 0x17
 16812 1b12 50020000 		.4byte	.LASF140
 16813 1b16 01       		.byte	0x1
 16814 1b17 E501     		.2byte	0x1e5
 16815 1b19 37000000 		.4byte	0x37
 16816 1b1d 1C1D0000 		.4byte	.LLST227
 16817 1b21 17       		.uleb128 0x17
 16818 1b22 8B010000 		.4byte	.LASF141
 16819 1b26 01       		.byte	0x1
 16820 1b27 E501     		.2byte	0x1e5
 16821 1b29 42000000 		.4byte	0x42
 16822 1b2d 3A1D0000 		.4byte	.LLST228
 16823 1b31 00       		.byte	0x0
 16824 1b32 20       		.uleb128 0x20
 16825 1b33 5C1B0000 		.4byte	0x1b5c
 16826 1b37 480C0000 		.4byte	.Ldebug_ranges0+0xc48
 16827 1b3b 17       		.uleb128 0x17
 16828 1b3c 50020000 		.4byte	.LASF140
 16829 1b40 01       		.byte	0x1
 16830 1b41 E601     		.2byte	0x1e6
 16831 1b43 37000000 		.4byte	0x37
 16832 1b47 4D1D0000 		.4byte	.LLST229
 16833 1b4b 17       		.uleb128 0x17
 16834 1b4c 8B010000 		.4byte	.LASF141
 16835 1b50 01       		.byte	0x1
 16836 1b51 E601     		.2byte	0x1e6
 16837 1b53 42000000 		.4byte	0x42
 16838 1b57 6B1D0000 		.4byte	.LLST230
 16839 1b5b 00       		.byte	0x0
 16840 1b5c 20       		.uleb128 0x20
 16841 1b5d 861B0000 		.4byte	0x1b86
 16842 1b61 680C0000 		.4byte	.Ldebug_ranges0+0xc68
ARM GAS  /cygdrive/c/DOCUME~1/mkwapisz/LOCALS~1/Temp/cc1OEM1Z.s 			page 313


 16843 1b65 17       		.uleb128 0x17
 16844 1b66 50020000 		.4byte	.LASF140
 16845 1b6a 01       		.byte	0x1
 16846 1b6b ED01     		.2byte	0x1ed
 16847 1b6d 37000000 		.4byte	0x37
 16848 1b71 891D0000 		.4byte	.LLST231
 16849 1b75 17       		.uleb128 0x17
 16850 1b76 8B010000 		.4byte	.LASF141
 16851 1b7a 01       		.byte	0x1
 16852 1b7b ED01     		.2byte	0x1ed
 16853 1b7d 42000000 		.4byte	0x42
 16854 1b81 A71D0000 		.4byte	.LLST232
 16855 1b85 00       		.byte	0x0
 16856 1b86 20       		.uleb128 0x20
 16857 1b87 B01B0000 		.4byte	0x1bb0
 16858 1b8b 800C0000 		.4byte	.Ldebug_ranges0+0xc80
 16859 1b8f 17       		.uleb128 0x17
 16860 1b90 50020000 		.4byte	.LASF140
 16861 1b94 01       		.byte	0x1
 16862 1b95 F301     		.2byte	0x1f3
 16863 1b97 37000000 		.4byte	0x37
 16864 1b9b D01D0000 		.4byte	.LLST233
 16865 1b9f 17       		.uleb128 0x17
 16866 1ba0 8B010000 		.4byte	.LASF141
 16867 1ba4 01       		.byte	0x1
 16868 1ba5 F301     		.2byte	0x1f3
 16869 1ba7 42000000 		.4byte	0x42
 16870 1bab F91D0000 		.4byte	.LLST234
 16871 1baf 00       		.byte	0x0
 16872 1bb0 20       		.uleb128 0x20
 16873 1bb1 DA1B0000 		.4byte	0x1bda
 16874 1bb5 A00C0000 		.4byte	.Ldebug_ranges0+0xca0
 16875 1bb9 17       		.uleb128 0x17
 16876 1bba 50020000 		.4byte	.LASF140
 16877 1bbe 01       		.byte	0x1
 16878 1bbf FF01     		.2byte	0x1ff
 16879 1bc1 37000000 		.4byte	0x37
 16880 1bc5 221E0000 		.4byte	.LLST235
 16881 1bc9 17       		.uleb128 0x17
 16882 1bca 8B010000 		.4byte	.LASF141
 16883 1bce 01       		.byte	0x1
 16884 1bcf FF01     		.2byte	0x1ff
 16885 1bd1 42000000 		.4byte	0x42
 16886 1bd5 401E0000 		.4byte	.LLST236
 16887 1bd9 00       		.byte	0x0
 16888 1bda 20       		.uleb128 0x20
 16889 1bdb 041C0000 		.4byte	0x1c04
 16890 1bdf C00C0000 		.4byte	.Ldebug_ranges0+0xcc0
 16891 1be3 17       		.uleb128 0x17
 16892 1be4 50020000 		.4byte	.LASF140
 16893 1be8 01       		.byte	0x1
 16894 1be9 0702     		.2byte	0x207
 16895 1beb 37000000 		.4byte	0x37
 16896 1bef 691E0000 		.4byte	.LLST237
 16897 1bf3 17       		.uleb128 0x17
 16898 1bf4 8B010000 		.4byte	.LASF141
 16899 1bf8 01       		.byte	0x1
ARM GAS  /cygdrive/c/DOCUME~1/mkwapisz/LOCALS~1/Temp/cc1OEM1Z.s 			page 314


 16900 1bf9 0702     		.2byte	0x207
 16901 1bfb 42000000 		.4byte	0x42
 16902 1bff 871E0000 		.4byte	.LLST238
 16903 1c03 00       		.byte	0x0
 16904 1c04 20       		.uleb128 0x20
 16905 1c05 2E1C0000 		.4byte	0x1c2e
 16906 1c09 E00C0000 		.4byte	.Ldebug_ranges0+0xce0
 16907 1c0d 17       		.uleb128 0x17
 16908 1c0e 50020000 		.4byte	.LASF140
 16909 1c12 01       		.byte	0x1
 16910 1c13 0B02     		.2byte	0x20b
 16911 1c15 37000000 		.4byte	0x37
 16912 1c19 B01E0000 		.4byte	.LLST239
 16913 1c1d 17       		.uleb128 0x17
 16914 1c1e 8B010000 		.4byte	.LASF141
 16915 1c22 01       		.byte	0x1
 16916 1c23 0B02     		.2byte	0x20b
 16917 1c25 42000000 		.4byte	0x42
 16918 1c29 CE1E0000 		.4byte	.LLST240
 16919 1c2d 00       		.byte	0x0
 16920 1c2e 20       		.uleb128 0x20
 16921 1c2f 581C0000 		.4byte	0x1c58
 16922 1c33 000D0000 		.4byte	.Ldebug_ranges0+0xd00
 16923 1c37 17       		.uleb128 0x17
 16924 1c38 50020000 		.4byte	.LASF140
 16925 1c3c 01       		.byte	0x1
 16926 1c3d 1102     		.2byte	0x211
 16927 1c3f 37000000 		.4byte	0x37
 16928 1c43 F71E0000 		.4byte	.LLST241
 16929 1c47 17       		.uleb128 0x17
 16930 1c48 8B010000 		.4byte	.LASF141
 16931 1c4c 01       		.byte	0x1
 16932 1c4d 1102     		.2byte	0x211
 16933 1c4f 42000000 		.4byte	0x42
 16934 1c53 151F0000 		.4byte	.LLST242
 16935 1c57 00       		.byte	0x0
 16936 1c58 23       		.uleb128 0x23
 16937 1c59 84120000 		.4byte	.LBB345
 16938 1c5d 98120000 		.4byte	.LBE345
 16939 1c61 17       		.uleb128 0x17
 16940 1c62 50020000 		.4byte	.LASF140
 16941 1c66 01       		.byte	0x1
 16942 1c67 1602     		.2byte	0x216
 16943 1c69 37000000 		.4byte	0x37
 16944 1c6d 3E1F0000 		.4byte	.LLST243
 16945 1c71 17       		.uleb128 0x17
 16946 1c72 8B010000 		.4byte	.LASF141
 16947 1c76 01       		.byte	0x1
 16948 1c77 1602     		.2byte	0x216
 16949 1c79 42000000 		.4byte	0x42
 16950 1c7d 671F0000 		.4byte	.LLST244
 16951 1c81 00       		.byte	0x0
 16952 1c82 00       		.byte	0x0
 16953 1c83 0D       		.uleb128 0xd
 16954 1c84 04       		.byte	0x4
 16955 1c85 891C0000 		.4byte	0x1c89
 16956 1c89 18       		.uleb128 0x18
ARM GAS  /cygdrive/c/DOCUME~1/mkwapisz/LOCALS~1/Temp/cc1OEM1Z.s 			page 315


 16957 1c8a 25000000 		.4byte	0x25
 16958 1c8e 0B       		.uleb128 0xb
 16959 1c8f 9E1C0000 		.4byte	0x1c9e
 16960 1c93 25000000 		.4byte	0x25
 16961 1c97 0C       		.uleb128 0xc
 16962 1c98 92000000 		.4byte	0x92
 16963 1c9c 07       		.byte	0x7
 16964 1c9d 00       		.byte	0x0
 16965 1c9e 0D       		.uleb128 0xd
 16966 1c9f 04       		.byte	0x4
 16967 1ca0 8E1C0000 		.4byte	0x1c8e
 16968 1ca4 24       		.uleb128 0x24
 16969 1ca5 D6270000 		.4byte	0x27d6
 16970 1ca9 FE000000 		.4byte	.LASF142
 16971 1cad 01       		.byte	0x1
 16972 1cae F202     		.2byte	0x2f2
 16973 1cb0 01       		.byte	0x1
 16974 1cb1 C0120000 		.4byte	.LFB7
 16975 1cb5 A81D0000 		.4byte	.LFE7
 16976 1cb9 7A1F0000 		.4byte	.LLST245
 16977 1cbd 15       		.uleb128 0x15
 16978 1cbe CF040000 		.4byte	.LASF54
 16979 1cc2 01       		.byte	0x1
 16980 1cc3 F002     		.2byte	0x2f0
 16981 1cc5 6B030000 		.4byte	0x36b
 16982 1cc9 A61F0000 		.4byte	.LLST246
 16983 1ccd 15       		.uleb128 0x15
 16984 1cce B8040000 		.4byte	.LASF58
 16985 1cd2 01       		.byte	0x1
 16986 1cd3 F002     		.2byte	0x2f0
 16987 1cd5 00040000 		.4byte	0x400
 16988 1cd9 C61F0000 		.4byte	.LLST247
 16989 1cdd 25       		.uleb128 0x25
 16990 1cde 6E636800 		.ascii	"nch\000"
 16991 1ce2 01       		.byte	0x1
 16992 1ce3 F102     		.2byte	0x2f1
 16993 1ce5 A0000000 		.4byte	0xa0
 16994 1ce9 E61F0000 		.4byte	.LLST248
 16995 1ced 25       		.uleb128 0x25
 16996 1cee 6E7300   		.ascii	"ns\000"
 16997 1cf1 01       		.byte	0x1
 16998 1cf2 F102     		.2byte	0x2f1
 16999 1cf4 A0000000 		.4byte	0xa0
 17000 1cf8 06200000 		.4byte	.LLST249
 17001 1cfc 1F       		.uleb128 0x1f
 17002 1cfd 47000000 		.4byte	.LASF50
 17003 1d01 01       		.byte	0x1
 17004 1d02 F302     		.2byte	0x2f3
 17005 1d04 A0000000 		.4byte	0xa0
 17006 1d08 03       		.byte	0x3
 17007 1d09 91       		.byte	0x91
 17008 1d0a B07E     		.sleb128 -208
 17009 1d0c 16       		.uleb128 0x16
 17010 1d0d 636800   		.ascii	"ch\000"
 17011 1d10 01       		.byte	0x1
 17012 1d11 F302     		.2byte	0x2f3
 17013 1d13 A0000000 		.4byte	0xa0
ARM GAS  /cygdrive/c/DOCUME~1/mkwapisz/LOCALS~1/Temp/cc1OEM1Z.s 			page 316


 17014 1d17 03       		.byte	0x3
 17015 1d18 91       		.byte	0x91
 17016 1d19 B47E     		.sleb128 -204
 17017 1d1b 16       		.uleb128 0x16
 17018 1d1c 7300     		.ascii	"s\000"
 17019 1d1e 01       		.byte	0x1
 17020 1d1f F302     		.2byte	0x2f3
 17021 1d21 A0000000 		.4byte	0xa0
 17022 1d25 03       		.byte	0x3
 17023 1d26 91       		.byte	0x91
 17024 1d27 B87E     		.sleb128 -200
 17025 1d29 26       		.uleb128 0x26
 17026 1d2a 736200   		.ascii	"sb\000"
 17027 1d2d 01       		.byte	0x1
 17028 1d2e F302     		.2byte	0x2f3
 17029 1d30 A0000000 		.4byte	0xa0
 17030 1d34 26       		.uleb128 0x26
 17031 1d35 706500   		.ascii	"pe\000"
 17032 1d38 01       		.byte	0x1
 17033 1d39 F302     		.2byte	0x2f3
 17034 1d3b A0000000 		.4byte	0xa0
 17035 1d3f 26       		.uleb128 0x26
 17036 1d40 706F00   		.ascii	"po\000"
 17037 1d43 01       		.byte	0x1
 17038 1d44 F302     		.2byte	0x2f3
 17039 1d46 A0000000 		.4byte	0xa0
 17040 1d4a 27       		.uleb128 0x27
 17041 1d4b 8A030000 		.4byte	.LASF143
 17042 1d4f 01       		.byte	0x1
 17043 1d50 F402     		.2byte	0x2f4
 17044 1d52 D6270000 		.4byte	0x27d6
 17045 1d56 17       		.uleb128 0x17
 17046 1d57 38030000 		.4byte	.LASF144
 17047 1d5b 01       		.byte	0x1
 17048 1d5c F402     		.2byte	0x2f4
 17049 1d5e D6270000 		.4byte	0x27d6
 17050 1d62 26200000 		.4byte	.LLST250
 17051 1d66 27       		.uleb128 0x27
 17052 1d67 A0030000 		.4byte	.LASF145
 17053 1d6b 01       		.byte	0x1
 17054 1d6c F402     		.2byte	0x2f4
 17055 1d6e D6270000 		.4byte	0x27d6
 17056 1d72 27       		.uleb128 0x27
 17057 1d73 C7030000 		.4byte	.LASF49
 17058 1d77 01       		.byte	0x1
 17059 1d78 F502     		.2byte	0x2f5
 17060 1d7a FE270000 		.4byte	0x27fe
 17061 1d7e 27       		.uleb128 0x27
 17062 1d7f 09010000 		.4byte	.LASF40
 17063 1d83 01       		.byte	0x1
 17064 1d84 F602     		.2byte	0x2f6
 17065 1d86 1A280000 		.4byte	0x281a
 17066 1d8a 1E       		.uleb128 0x1e
 17067 1d8b 666500   		.ascii	"fe\000"
 17068 1d8e 01       		.byte	0x1
 17069 1d8f F702     		.2byte	0x2f7
 17070 1d91 9E1C0000 		.4byte	0x1c9e
ARM GAS  /cygdrive/c/DOCUME~1/mkwapisz/LOCALS~1/Temp/cc1OEM1Z.s 			page 317


 17071 1d95 46200000 		.4byte	.LLST251
 17072 1d99 1E       		.uleb128 0x1e
 17073 1d9a 667800   		.ascii	"fx\000"
 17074 1d9d 01       		.byte	0x1
 17075 1d9e F702     		.2byte	0x2f7
 17076 1da0 9E1C0000 		.4byte	0x1c9e
 17077 1da4 B1200000 		.4byte	.LLST252
 17078 1da8 1E       		.uleb128 0x1e
 17079 1da9 666F00   		.ascii	"fo\000"
 17080 1dac 01       		.byte	0x1
 17081 1dad F702     		.2byte	0x2f7
 17082 1daf 9E1C0000 		.4byte	0x1c9e
 17083 1db3 C4200000 		.4byte	.LLST253
 17084 1db7 17       		.uleb128 0x17
 17085 1db8 90010000 		.4byte	.LASF146
 17086 1dbc 01       		.byte	0x1
 17087 1dbd F802     		.2byte	0x2f8
 17088 1dbf 30280000 		.4byte	0x2830
 17089 1dc3 E4200000 		.4byte	.LLST254
 17090 1dc7 1E       		.uleb128 0x1e
 17091 1dc8 70747200 		.ascii	"ptr\000"
 17092 1dcc 01       		.byte	0x1
 17093 1dcd F802     		.2byte	0x2f8
 17094 1dcf 831C0000 		.4byte	0x1c83
 17095 1dd3 0D210000 		.4byte	.LLST255
 17096 1dd7 26       		.uleb128 0x26
 17097 1dd8 686900   		.ascii	"hi\000"
 17098 1ddb 01       		.byte	0x1
 17099 1ddc F902     		.2byte	0x2f9
 17100 1dde 37000000 		.4byte	0x37
 17101 1de2 1E       		.uleb128 0x1e
 17102 1de3 6C6F00   		.ascii	"lo\000"
 17103 1de6 01       		.byte	0x1
 17104 1de7 FA02     		.2byte	0x2fa
 17105 1de9 42000000 		.4byte	0x42
 17106 1ded E3220000 		.4byte	.LLST256
 17107 1df1 17       		.uleb128 0x17
 17108 1df2 F5020000 		.4byte	.LASF147
 17109 1df6 01       		.byte	0x1
 17110 1df7 FB02     		.2byte	0x2fb
 17111 1df9 25000000 		.4byte	0x25
 17112 1dfd 7F250000 		.4byte	.LLST257
 17113 1e01 1F       		.uleb128 0x1f
 17114 1e02 7F020000 		.4byte	.LASF148
 17115 1e06 01       		.byte	0x1
 17116 1e07 FC02     		.2byte	0x2fc
 17117 1e09 36280000 		.4byte	0x2836
 17118 1e0d 03       		.byte	0x3
 17119 1e0e 91       		.byte	0x91
 17120 1e0f 9C7F     		.sleb128 -100
 17121 1e11 20       		.uleb128 0x20
 17122 1e12 3B1E0000 		.4byte	0x1e3b
 17123 1e16 200D0000 		.4byte	.Ldebug_ranges0+0xd20
 17124 1e1a 17       		.uleb128 0x17
 17125 1e1b 50020000 		.4byte	.LASF140
 17126 1e1f 01       		.byte	0x1
 17127 1e20 1F03     		.2byte	0x31f
ARM GAS  /cygdrive/c/DOCUME~1/mkwapisz/LOCALS~1/Temp/cc1OEM1Z.s 			page 318


 17128 1e22 37000000 		.4byte	0x37
 17129 1e26 BB250000 		.4byte	.LLST258
 17130 1e2a 17       		.uleb128 0x17
 17131 1e2b 8B010000 		.4byte	.LASF141
 17132 1e2f 01       		.byte	0x1
 17133 1e30 1F03     		.2byte	0x31f
 17134 1e32 42000000 		.4byte	0x42
 17135 1e36 D9250000 		.4byte	.LLST259
 17136 1e3a 00       		.byte	0x0
 17137 1e3b 20       		.uleb128 0x20
 17138 1e3c 651E0000 		.4byte	0x1e65
 17139 1e40 400D0000 		.4byte	.Ldebug_ranges0+0xd40
 17140 1e44 17       		.uleb128 0x17
 17141 1e45 50020000 		.4byte	.LASF140
 17142 1e49 01       		.byte	0x1
 17143 1e4a 1E03     		.2byte	0x31e
 17144 1e4c 37000000 		.4byte	0x37
 17145 1e50 02260000 		.4byte	.LLST260
 17146 1e54 17       		.uleb128 0x17
 17147 1e55 8B010000 		.4byte	.LASF141
 17148 1e59 01       		.byte	0x1
 17149 1e5a 1E03     		.2byte	0x31e
 17150 1e5c 42000000 		.4byte	0x42
 17151 1e60 15260000 		.4byte	.LLST261
 17152 1e64 00       		.byte	0x0
 17153 1e65 20       		.uleb128 0x20
 17154 1e66 8F1E0000 		.4byte	0x1e8f
 17155 1e6a 600D0000 		.4byte	.Ldebug_ranges0+0xd60
 17156 1e6e 17       		.uleb128 0x17
 17157 1e6f 50020000 		.4byte	.LASF140
 17158 1e73 01       		.byte	0x1
 17159 1e74 2A03     		.2byte	0x32a
 17160 1e76 37000000 		.4byte	0x37
 17161 1e7a 33260000 		.4byte	.LLST262
 17162 1e7e 17       		.uleb128 0x17
 17163 1e7f 8B010000 		.4byte	.LASF141
 17164 1e83 01       		.byte	0x1
 17165 1e84 2A03     		.2byte	0x32a
 17166 1e86 42000000 		.4byte	0x42
 17167 1e8a 51260000 		.4byte	.LLST263
 17168 1e8e 00       		.byte	0x0
 17169 1e8f 20       		.uleb128 0x20
 17170 1e90 B91E0000 		.4byte	0x1eb9
 17171 1e94 800D0000 		.4byte	.Ldebug_ranges0+0xd80
 17172 1e98 17       		.uleb128 0x17
 17173 1e99 50020000 		.4byte	.LASF140
 17174 1e9d 01       		.byte	0x1
 17175 1e9e 2303     		.2byte	0x323
 17176 1ea0 37000000 		.4byte	0x37
 17177 1ea4 7A260000 		.4byte	.LLST264
 17178 1ea8 17       		.uleb128 0x17
 17179 1ea9 8B010000 		.4byte	.LASF141
 17180 1ead 01       		.byte	0x1
 17181 1eae 2303     		.2byte	0x323
 17182 1eb0 42000000 		.4byte	0x42
 17183 1eb4 98260000 		.4byte	.LLST265
 17184 1eb8 00       		.byte	0x0
ARM GAS  /cygdrive/c/DOCUME~1/mkwapisz/LOCALS~1/Temp/cc1OEM1Z.s 			page 319


 17185 1eb9 20       		.uleb128 0x20
 17186 1eba E31E0000 		.4byte	0x1ee3
 17187 1ebe A00D0000 		.4byte	.Ldebug_ranges0+0xda0
 17188 1ec2 17       		.uleb128 0x17
 17189 1ec3 50020000 		.4byte	.LASF140
 17190 1ec7 01       		.byte	0x1
 17191 1ec8 2403     		.2byte	0x324
 17192 1eca 37000000 		.4byte	0x37
 17193 1ece C1260000 		.4byte	.LLST266
 17194 1ed2 17       		.uleb128 0x17
 17195 1ed3 8B010000 		.4byte	.LASF141
 17196 1ed7 01       		.byte	0x1
 17197 1ed8 2403     		.2byte	0x324
 17198 1eda 42000000 		.4byte	0x42
 17199 1ede D4260000 		.4byte	.LLST267
 17200 1ee2 00       		.byte	0x0
 17201 1ee3 20       		.uleb128 0x20
 17202 1ee4 0D1F0000 		.4byte	0x1f0d
 17203 1ee8 C00D0000 		.4byte	.Ldebug_ranges0+0xdc0
 17204 1eec 17       		.uleb128 0x17
 17205 1eed 50020000 		.4byte	.LASF140
 17206 1ef1 01       		.byte	0x1
 17207 1ef2 2103     		.2byte	0x321
 17208 1ef4 37000000 		.4byte	0x37
 17209 1ef8 F2260000 		.4byte	.LLST268
 17210 1efc 17       		.uleb128 0x17
 17211 1efd 8B010000 		.4byte	.LASF141
 17212 1f01 01       		.byte	0x1
 17213 1f02 2103     		.2byte	0x321
 17214 1f04 42000000 		.4byte	0x42
 17215 1f08 10270000 		.4byte	.LLST269
 17216 1f0c 00       		.byte	0x0
 17217 1f0d 20       		.uleb128 0x20
 17218 1f0e 371F0000 		.4byte	0x1f37
 17219 1f12 E00D0000 		.4byte	.Ldebug_ranges0+0xde0
 17220 1f16 17       		.uleb128 0x17
 17221 1f17 50020000 		.4byte	.LASF140
 17222 1f1b 01       		.byte	0x1
 17223 1f1c 2203     		.2byte	0x322
 17224 1f1e 37000000 		.4byte	0x37
 17225 1f22 39270000 		.4byte	.LLST270
 17226 1f26 17       		.uleb128 0x17
 17227 1f27 8B010000 		.4byte	.LASF141
 17228 1f2b 01       		.byte	0x1
 17229 1f2c 2203     		.2byte	0x322
 17230 1f2e 42000000 		.4byte	0x42
 17231 1f32 4C270000 		.4byte	.LLST271
 17232 1f36 00       		.byte	0x0
 17233 1f37 20       		.uleb128 0x20
 17234 1f38 611F0000 		.4byte	0x1f61
 17235 1f3c 000E0000 		.4byte	.Ldebug_ranges0+0xe00
 17236 1f40 17       		.uleb128 0x17
 17237 1f41 50020000 		.4byte	.LASF140
 17238 1f45 01       		.byte	0x1
 17239 1f46 2003     		.2byte	0x320
 17240 1f48 37000000 		.4byte	0x37
 17241 1f4c 6A270000 		.4byte	.LLST272
ARM GAS  /cygdrive/c/DOCUME~1/mkwapisz/LOCALS~1/Temp/cc1OEM1Z.s 			page 320


 17242 1f50 17       		.uleb128 0x17
 17243 1f51 8B010000 		.4byte	.LASF141
 17244 1f55 01       		.byte	0x1
 17245 1f56 2003     		.2byte	0x320
 17246 1f58 42000000 		.4byte	0x42
 17247 1f5c 7D270000 		.4byte	.LLST273
 17248 1f60 00       		.byte	0x0
 17249 1f61 20       		.uleb128 0x20
 17250 1f62 8B1F0000 		.4byte	0x1f8b
 17251 1f66 200E0000 		.4byte	.Ldebug_ranges0+0xe20
 17252 1f6a 17       		.uleb128 0x17
 17253 1f6b 50020000 		.4byte	.LASF140
 17254 1f6f 01       		.byte	0x1
 17255 1f70 2903     		.2byte	0x329
 17256 1f72 37000000 		.4byte	0x37
 17257 1f76 9B270000 		.4byte	.LLST274
 17258 1f7a 17       		.uleb128 0x17
 17259 1f7b 8B010000 		.4byte	.LASF141
 17260 1f7f 01       		.byte	0x1
 17261 1f80 2903     		.2byte	0x329
 17262 1f82 42000000 		.4byte	0x42
 17263 1f86 B9270000 		.4byte	.LLST275
 17264 1f8a 00       		.byte	0x0
 17265 1f8b 20       		.uleb128 0x20
 17266 1f8c B51F0000 		.4byte	0x1fb5
 17267 1f90 400E0000 		.4byte	.Ldebug_ranges0+0xe40
 17268 1f94 17       		.uleb128 0x17
 17269 1f95 50020000 		.4byte	.LASF140
 17270 1f99 01       		.byte	0x1
 17271 1f9a 2B03     		.2byte	0x32b
 17272 1f9c 37000000 		.4byte	0x37
 17273 1fa0 D7270000 		.4byte	.LLST276
 17274 1fa4 17       		.uleb128 0x17
 17275 1fa5 8B010000 		.4byte	.LASF141
 17276 1fa9 01       		.byte	0x1
 17277 1faa 2B03     		.2byte	0x32b
 17278 1fac 42000000 		.4byte	0x42
 17279 1fb0 EA270000 		.4byte	.LLST277
 17280 1fb4 00       		.byte	0x0
 17281 1fb5 20       		.uleb128 0x20
 17282 1fb6 DF1F0000 		.4byte	0x1fdf
 17283 1fba 600E0000 		.4byte	.Ldebug_ranges0+0xe60
 17284 1fbe 17       		.uleb128 0x17
 17285 1fbf 50020000 		.4byte	.LASF140
 17286 1fc3 01       		.byte	0x1
 17287 1fc4 2C03     		.2byte	0x32c
 17288 1fc6 37000000 		.4byte	0x37
 17289 1fca 08280000 		.4byte	.LLST278
 17290 1fce 17       		.uleb128 0x17
 17291 1fcf 8B010000 		.4byte	.LASF141
 17292 1fd3 01       		.byte	0x1
 17293 1fd4 2C03     		.2byte	0x32c
 17294 1fd6 42000000 		.4byte	0x42
 17295 1fda 26280000 		.4byte	.LLST279
 17296 1fde 00       		.byte	0x0
 17297 1fdf 20       		.uleb128 0x20
 17298 1fe0 09200000 		.4byte	0x2009
ARM GAS  /cygdrive/c/DOCUME~1/mkwapisz/LOCALS~1/Temp/cc1OEM1Z.s 			page 321


 17299 1fe4 800E0000 		.4byte	.Ldebug_ranges0+0xe80
 17300 1fe8 17       		.uleb128 0x17
 17301 1fe9 50020000 		.4byte	.LASF140
 17302 1fed 01       		.byte	0x1
 17303 1fee 2D03     		.2byte	0x32d
 17304 1ff0 37000000 		.4byte	0x37
 17305 1ff4 4F280000 		.4byte	.LLST280
 17306 1ff8 17       		.uleb128 0x17
 17307 1ff9 8B010000 		.4byte	.LASF141
 17308 1ffd 01       		.byte	0x1
 17309 1ffe 2D03     		.2byte	0x32d
 17310 2000 42000000 		.4byte	0x42
 17311 2004 62280000 		.4byte	.LLST281
 17312 2008 00       		.byte	0x0
 17313 2009 20       		.uleb128 0x20
 17314 200a 33200000 		.4byte	0x2033
 17315 200e A00E0000 		.4byte	.Ldebug_ranges0+0xea0
 17316 2012 17       		.uleb128 0x17
 17317 2013 50020000 		.4byte	.LASF140
 17318 2017 01       		.byte	0x1
 17319 2018 2E03     		.2byte	0x32e
 17320 201a 37000000 		.4byte	0x37
 17321 201e 80280000 		.4byte	.LLST282
 17322 2022 17       		.uleb128 0x17
 17323 2023 8B010000 		.4byte	.LASF141
 17324 2027 01       		.byte	0x1
 17325 2028 2E03     		.2byte	0x32e
 17326 202a 42000000 		.4byte	0x42
 17327 202e 9E280000 		.4byte	.LLST283
 17328 2032 00       		.byte	0x0
 17329 2033 20       		.uleb128 0x20
 17330 2034 5D200000 		.4byte	0x205d
 17331 2038 C00E0000 		.4byte	.Ldebug_ranges0+0xec0
 17332 203c 17       		.uleb128 0x17
 17333 203d 50020000 		.4byte	.LASF140
 17334 2041 01       		.byte	0x1
 17335 2042 2F03     		.2byte	0x32f
 17336 2044 37000000 		.4byte	0x37
 17337 2048 C7280000 		.4byte	.LLST284
 17338 204c 17       		.uleb128 0x17
 17339 204d 8B010000 		.4byte	.LASF141
 17340 2051 01       		.byte	0x1
 17341 2052 2F03     		.2byte	0x32f
 17342 2054 42000000 		.4byte	0x42
 17343 2058 DA280000 		.4byte	.LLST285
 17344 205c 00       		.byte	0x0
 17345 205d 20       		.uleb128 0x20
 17346 205e 87200000 		.4byte	0x2087
 17347 2062 E00E0000 		.4byte	.Ldebug_ranges0+0xee0
 17348 2066 17       		.uleb128 0x17
 17349 2067 50020000 		.4byte	.LASF140
 17350 206b 01       		.byte	0x1
 17351 206c 1D03     		.2byte	0x31d
 17352 206e 37000000 		.4byte	0x37
 17353 2072 F8280000 		.4byte	.LLST286
 17354 2076 17       		.uleb128 0x17
 17355 2077 8B010000 		.4byte	.LASF141
ARM GAS  /cygdrive/c/DOCUME~1/mkwapisz/LOCALS~1/Temp/cc1OEM1Z.s 			page 322


 17356 207b 01       		.byte	0x1
 17357 207c 1D03     		.2byte	0x31d
 17358 207e 42000000 		.4byte	0x42
 17359 2082 16290000 		.4byte	.LLST287
 17360 2086 00       		.byte	0x0
 17361 2087 22       		.uleb128 0x22
 17362 2088 B5200000 		.4byte	0x20b5
 17363 208c 58180000 		.4byte	.LBB383
 17364 2090 74180000 		.4byte	.LBE383
 17365 2094 17       		.uleb128 0x17
 17366 2095 50020000 		.4byte	.LASF140
 17367 2099 01       		.byte	0x1
 17368 209a 2803     		.2byte	0x328
 17369 209c 37000000 		.4byte	0x37
 17370 20a0 3F290000 		.4byte	.LLST288
 17371 20a4 17       		.uleb128 0x17
 17372 20a5 8B010000 		.4byte	.LASF141
 17373 20a9 01       		.byte	0x1
 17374 20aa 2803     		.2byte	0x328
 17375 20ac 42000000 		.4byte	0x42
 17376 20b0 5D290000 		.4byte	.LLST289
 17377 20b4 00       		.byte	0x0
 17378 20b5 22       		.uleb128 0x22
 17379 20b6 E3200000 		.4byte	0x20e3
 17380 20ba 70190000 		.4byte	.LBB391
 17381 20be 84190000 		.4byte	.LBE391
 17382 20c2 17       		.uleb128 0x17
 17383 20c3 50020000 		.4byte	.LASF140
 17384 20c7 01       		.byte	0x1
 17385 20c8 3E03     		.2byte	0x33e
 17386 20ca 37000000 		.4byte	0x37
 17387 20ce 86290000 		.4byte	.LLST290
 17388 20d2 17       		.uleb128 0x17
 17389 20d3 8B010000 		.4byte	.LASF141
 17390 20d7 01       		.byte	0x1
 17391 20d8 3E03     		.2byte	0x33e
 17392 20da 42000000 		.4byte	0x42
 17393 20de 99290000 		.4byte	.LLST291
 17394 20e2 00       		.byte	0x0
 17395 20e3 22       		.uleb128 0x22
 17396 20e4 11210000 		.4byte	0x2111
 17397 20e8 84190000 		.4byte	.LBB392
 17398 20ec 98190000 		.4byte	.LBE392
 17399 20f0 17       		.uleb128 0x17
 17400 20f1 50020000 		.4byte	.LASF140
 17401 20f5 01       		.byte	0x1
 17402 20f6 3F03     		.2byte	0x33f
 17403 20f8 37000000 		.4byte	0x37
 17404 20fc B7290000 		.4byte	.LLST292
 17405 2100 17       		.uleb128 0x17
 17406 2101 8B010000 		.4byte	.LASF141
 17407 2105 01       		.byte	0x1
 17408 2106 3F03     		.2byte	0x33f
 17409 2108 42000000 		.4byte	0x42
 17410 210c D5290000 		.4byte	.LLST293
 17411 2110 00       		.byte	0x0
 17412 2111 22       		.uleb128 0x22
ARM GAS  /cygdrive/c/DOCUME~1/mkwapisz/LOCALS~1/Temp/cc1OEM1Z.s 			page 323


 17413 2112 3F210000 		.4byte	0x213f
 17414 2116 98190000 		.4byte	.LBB393
 17415 211a AC190000 		.4byte	.LBE393
 17416 211e 17       		.uleb128 0x17
 17417 211f 50020000 		.4byte	.LASF140
 17418 2123 01       		.byte	0x1
 17419 2124 4003     		.2byte	0x340
 17420 2126 37000000 		.4byte	0x37
 17421 212a 092A0000 		.4byte	.LLST294
 17422 212e 17       		.uleb128 0x17
 17423 212f 8B010000 		.4byte	.LASF141
 17424 2133 01       		.byte	0x1
 17425 2134 4003     		.2byte	0x340
 17426 2136 42000000 		.4byte	0x42
 17427 213a 272A0000 		.4byte	.LLST295
 17428 213e 00       		.byte	0x0
 17429 213f 22       		.uleb128 0x22
 17430 2140 6D210000 		.4byte	0x216d
 17431 2144 AC190000 		.4byte	.LBB394
 17432 2148 C0190000 		.4byte	.LBE394
 17433 214c 17       		.uleb128 0x17
 17434 214d 50020000 		.4byte	.LASF140
 17435 2151 01       		.byte	0x1
 17436 2152 4103     		.2byte	0x341
 17437 2154 37000000 		.4byte	0x37
 17438 2158 452A0000 		.4byte	.LLST296
 17439 215c 17       		.uleb128 0x17
 17440 215d 8B010000 		.4byte	.LASF141
 17441 2161 01       		.byte	0x1
 17442 2162 4103     		.2byte	0x341
 17443 2164 42000000 		.4byte	0x42
 17444 2168 632A0000 		.4byte	.LLST297
 17445 216c 00       		.byte	0x0
 17446 216d 22       		.uleb128 0x22
 17447 216e 9B210000 		.4byte	0x219b
 17448 2172 C0190000 		.4byte	.LBB395
 17449 2176 D4190000 		.4byte	.LBE395
 17450 217a 17       		.uleb128 0x17
 17451 217b 50020000 		.4byte	.LASF140
 17452 217f 01       		.byte	0x1
 17453 2180 4203     		.2byte	0x342
 17454 2182 37000000 		.4byte	0x37
 17455 2186 812A0000 		.4byte	.LLST298
 17456 218a 17       		.uleb128 0x17
 17457 218b 8B010000 		.4byte	.LASF141
 17458 218f 01       		.byte	0x1
 17459 2190 4203     		.2byte	0x342
 17460 2192 42000000 		.4byte	0x42
 17461 2196 942A0000 		.4byte	.LLST299
 17462 219a 00       		.byte	0x0
 17463 219b 22       		.uleb128 0x22
 17464 219c C9210000 		.4byte	0x21c9
 17465 21a0 D4190000 		.4byte	.LBB396
 17466 21a4 E8190000 		.4byte	.LBE396
 17467 21a8 17       		.uleb128 0x17
 17468 21a9 50020000 		.4byte	.LASF140
 17469 21ad 01       		.byte	0x1
ARM GAS  /cygdrive/c/DOCUME~1/mkwapisz/LOCALS~1/Temp/cc1OEM1Z.s 			page 324


 17470 21ae 4303     		.2byte	0x343
 17471 21b0 37000000 		.4byte	0x37
 17472 21b4 B22A0000 		.4byte	.LLST300
 17473 21b8 17       		.uleb128 0x17
 17474 21b9 8B010000 		.4byte	.LASF141
 17475 21bd 01       		.byte	0x1
 17476 21be 4303     		.2byte	0x343
 17477 21c0 42000000 		.4byte	0x42
 17478 21c4 D02A0000 		.4byte	.LLST301
 17479 21c8 00       		.byte	0x0
 17480 21c9 22       		.uleb128 0x22
 17481 21ca F7210000 		.4byte	0x21f7
 17482 21ce E8190000 		.4byte	.LBB397
 17483 21d2 FC190000 		.4byte	.LBE397
 17484 21d6 17       		.uleb128 0x17
 17485 21d7 50020000 		.4byte	.LASF140
 17486 21db 01       		.byte	0x1
 17487 21dc 4403     		.2byte	0x344
 17488 21de 37000000 		.4byte	0x37
 17489 21e2 EE2A0000 		.4byte	.LLST302
 17490 21e6 17       		.uleb128 0x17
 17491 21e7 8B010000 		.4byte	.LASF141
 17492 21eb 01       		.byte	0x1
 17493 21ec 4403     		.2byte	0x344
 17494 21ee 42000000 		.4byte	0x42
 17495 21f2 012B0000 		.4byte	.LLST303
 17496 21f6 00       		.byte	0x0
 17497 21f7 20       		.uleb128 0x20
 17498 21f8 21220000 		.4byte	0x2221
 17499 21fc F80E0000 		.4byte	.Ldebug_ranges0+0xef8
 17500 2200 17       		.uleb128 0x17
 17501 2201 50020000 		.4byte	.LASF140
 17502 2205 01       		.byte	0x1
 17503 2206 4503     		.2byte	0x345
 17504 2208 37000000 		.4byte	0x37
 17505 220c 1F2B0000 		.4byte	.LLST304
 17506 2210 17       		.uleb128 0x17
 17507 2211 8B010000 		.4byte	.LASF141
 17508 2215 01       		.byte	0x1
 17509 2216 4503     		.2byte	0x345
 17510 2218 42000000 		.4byte	0x42
 17511 221c 3D2B0000 		.4byte	.LLST305
 17512 2220 00       		.byte	0x0
 17513 2221 22       		.uleb128 0x22
 17514 2222 4F220000 		.4byte	0x224f
 17515 2226 181A0000 		.4byte	.LBB400
 17516 222a 2C1A0000 		.4byte	.LBE400
 17517 222e 17       		.uleb128 0x17
 17518 222f 50020000 		.4byte	.LASF140
 17519 2233 01       		.byte	0x1
 17520 2234 4A03     		.2byte	0x34a
 17521 2236 37000000 		.4byte	0x37
 17522 223a 5B2B0000 		.4byte	.LLST306
 17523 223e 17       		.uleb128 0x17
 17524 223f 8B010000 		.4byte	.LASF141
 17525 2243 01       		.byte	0x1
 17526 2244 4A03     		.2byte	0x34a
ARM GAS  /cygdrive/c/DOCUME~1/mkwapisz/LOCALS~1/Temp/cc1OEM1Z.s 			page 325


 17527 2246 42000000 		.4byte	0x42
 17528 224a 792B0000 		.4byte	.LLST307
 17529 224e 00       		.byte	0x0
 17530 224f 22       		.uleb128 0x22
 17531 2250 7D220000 		.4byte	0x227d
 17532 2254 2C1A0000 		.4byte	.LBB401
 17533 2258 401A0000 		.4byte	.LBE401
 17534 225c 17       		.uleb128 0x17
 17535 225d 50020000 		.4byte	.LASF140
 17536 2261 01       		.byte	0x1
 17537 2262 4B03     		.2byte	0x34b
 17538 2264 37000000 		.4byte	0x37
 17539 2268 A22B0000 		.4byte	.LLST308
 17540 226c 17       		.uleb128 0x17
 17541 226d 8B010000 		.4byte	.LASF141
 17542 2271 01       		.byte	0x1
 17543 2272 4B03     		.2byte	0x34b
 17544 2274 42000000 		.4byte	0x42
 17545 2278 C02B0000 		.4byte	.LLST309
 17546 227c 00       		.byte	0x0
 17547 227d 22       		.uleb128 0x22
 17548 227e AB220000 		.4byte	0x22ab
 17549 2282 401A0000 		.4byte	.LBB402
 17550 2286 541A0000 		.4byte	.LBE402
 17551 228a 17       		.uleb128 0x17
 17552 228b 50020000 		.4byte	.LASF140
 17553 228f 01       		.byte	0x1
 17554 2290 4C03     		.2byte	0x34c
 17555 2292 37000000 		.4byte	0x37
 17556 2296 D32B0000 		.4byte	.LLST310
 17557 229a 17       		.uleb128 0x17
 17558 229b 8B010000 		.4byte	.LASF141
 17559 229f 01       		.byte	0x1
 17560 22a0 4C03     		.2byte	0x34c
 17561 22a2 42000000 		.4byte	0x42
 17562 22a6 F12B0000 		.4byte	.LLST311
 17563 22aa 00       		.byte	0x0
 17564 22ab 22       		.uleb128 0x22
 17565 22ac D9220000 		.4byte	0x22d9
 17566 22b0 541A0000 		.4byte	.LBB403
 17567 22b4 681A0000 		.4byte	.LBE403
 17568 22b8 17       		.uleb128 0x17
 17569 22b9 50020000 		.4byte	.LASF140
 17570 22bd 01       		.byte	0x1
 17571 22be 4D03     		.2byte	0x34d
 17572 22c0 37000000 		.4byte	0x37
 17573 22c4 1A2C0000 		.4byte	.LLST312
 17574 22c8 17       		.uleb128 0x17
 17575 22c9 8B010000 		.4byte	.LASF141
 17576 22cd 01       		.byte	0x1
 17577 22ce 4D03     		.2byte	0x34d
 17578 22d0 42000000 		.4byte	0x42
 17579 22d4 382C0000 		.4byte	.LLST313
 17580 22d8 00       		.byte	0x0
 17581 22d9 22       		.uleb128 0x22
 17582 22da 07230000 		.4byte	0x2307
 17583 22de 681A0000 		.4byte	.LBB404
ARM GAS  /cygdrive/c/DOCUME~1/mkwapisz/LOCALS~1/Temp/cc1OEM1Z.s 			page 326


 17584 22e2 7C1A0000 		.4byte	.LBE404
 17585 22e6 17       		.uleb128 0x17
 17586 22e7 50020000 		.4byte	.LASF140
 17587 22eb 01       		.byte	0x1
 17588 22ec 4E03     		.2byte	0x34e
 17589 22ee 37000000 		.4byte	0x37
 17590 22f2 562C0000 		.4byte	.LLST314
 17591 22f6 17       		.uleb128 0x17
 17592 22f7 8B010000 		.4byte	.LASF141
 17593 22fb 01       		.byte	0x1
 17594 22fc 4E03     		.2byte	0x34e
 17595 22fe 42000000 		.4byte	0x42
 17596 2302 692C0000 		.4byte	.LLST315
 17597 2306 00       		.byte	0x0
 17598 2307 22       		.uleb128 0x22
 17599 2308 35230000 		.4byte	0x2335
 17600 230c 7C1A0000 		.4byte	.LBB405
 17601 2310 901A0000 		.4byte	.LBE405
 17602 2314 17       		.uleb128 0x17
 17603 2315 50020000 		.4byte	.LASF140
 17604 2319 01       		.byte	0x1
 17605 231a 4F03     		.2byte	0x34f
 17606 231c 37000000 		.4byte	0x37
 17607 2320 872C0000 		.4byte	.LLST316
 17608 2324 17       		.uleb128 0x17
 17609 2325 8B010000 		.4byte	.LASF141
 17610 2329 01       		.byte	0x1
 17611 232a 4F03     		.2byte	0x34f
 17612 232c 42000000 		.4byte	0x42
 17613 2330 A52C0000 		.4byte	.LLST317
 17614 2334 00       		.byte	0x0
 17615 2335 22       		.uleb128 0x22
 17616 2336 63230000 		.4byte	0x2363
 17617 233a 901A0000 		.4byte	.LBB406
 17618 233e A41A0000 		.4byte	.LBE406
 17619 2342 17       		.uleb128 0x17
 17620 2343 50020000 		.4byte	.LASF140
 17621 2347 01       		.byte	0x1
 17622 2348 5003     		.2byte	0x350
 17623 234a 37000000 		.4byte	0x37
 17624 234e C32C0000 		.4byte	.LLST318
 17625 2352 17       		.uleb128 0x17
 17626 2353 8B010000 		.4byte	.LASF141
 17627 2357 01       		.byte	0x1
 17628 2358 5003     		.2byte	0x350
 17629 235a 42000000 		.4byte	0x42
 17630 235e D62C0000 		.4byte	.LLST319
 17631 2362 00       		.byte	0x0
 17632 2363 22       		.uleb128 0x22
 17633 2364 91230000 		.4byte	0x2391
 17634 2368 A41A0000 		.4byte	.LBB407
 17635 236c BC1A0000 		.4byte	.LBE407
 17636 2370 17       		.uleb128 0x17
 17637 2371 50020000 		.4byte	.LASF140
 17638 2375 01       		.byte	0x1
 17639 2376 5103     		.2byte	0x351
 17640 2378 37000000 		.4byte	0x37
ARM GAS  /cygdrive/c/DOCUME~1/mkwapisz/LOCALS~1/Temp/cc1OEM1Z.s 			page 327


 17641 237c F42C0000 		.4byte	.LLST320
 17642 2380 17       		.uleb128 0x17
 17643 2381 8B010000 		.4byte	.LASF141
 17644 2385 01       		.byte	0x1
 17645 2386 5103     		.2byte	0x351
 17646 2388 42000000 		.4byte	0x42
 17647 238c 1D2D0000 		.4byte	.LLST321
 17648 2390 00       		.byte	0x0
 17649 2391 22       		.uleb128 0x22
 17650 2392 BF230000 		.4byte	0x23bf
 17651 2396 E01A0000 		.4byte	.LBB408
 17652 239a F41A0000 		.4byte	.LBE408
 17653 239e 17       		.uleb128 0x17
 17654 239f 50020000 		.4byte	.LASF140
 17655 23a3 01       		.byte	0x1
 17656 23a4 5803     		.2byte	0x358
 17657 23a6 37000000 		.4byte	0x37
 17658 23aa 3B2D0000 		.4byte	.LLST322
 17659 23ae 17       		.uleb128 0x17
 17660 23af 8B010000 		.4byte	.LASF141
 17661 23b3 01       		.byte	0x1
 17662 23b4 5803     		.2byte	0x358
 17663 23b6 42000000 		.4byte	0x42
 17664 23ba 4E2D0000 		.4byte	.LLST323
 17665 23be 00       		.byte	0x0
 17666 23bf 22       		.uleb128 0x22
 17667 23c0 ED230000 		.4byte	0x23ed
 17668 23c4 F41A0000 		.4byte	.LBB409
 17669 23c8 081B0000 		.4byte	.LBE409
 17670 23cc 17       		.uleb128 0x17
 17671 23cd 50020000 		.4byte	.LASF140
 17672 23d1 01       		.byte	0x1
 17673 23d2 5903     		.2byte	0x359
 17674 23d4 37000000 		.4byte	0x37
 17675 23d8 6C2D0000 		.4byte	.LLST324
 17676 23dc 17       		.uleb128 0x17
 17677 23dd 8B010000 		.4byte	.LASF141
 17678 23e1 01       		.byte	0x1
 17679 23e2 5903     		.2byte	0x359
 17680 23e4 42000000 		.4byte	0x42
 17681 23e8 8A2D0000 		.4byte	.LLST325
 17682 23ec 00       		.byte	0x0
 17683 23ed 22       		.uleb128 0x22
 17684 23ee 1B240000 		.4byte	0x241b
 17685 23f2 081B0000 		.4byte	.LBB410
 17686 23f6 1C1B0000 		.4byte	.LBE410
 17687 23fa 17       		.uleb128 0x17
 17688 23fb 50020000 		.4byte	.LASF140
 17689 23ff 01       		.byte	0x1
 17690 2400 5A03     		.2byte	0x35a
 17691 2402 37000000 		.4byte	0x37
 17692 2406 A82D0000 		.4byte	.LLST326
 17693 240a 17       		.uleb128 0x17
 17694 240b 8B010000 		.4byte	.LASF141
 17695 240f 01       		.byte	0x1
 17696 2410 5A03     		.2byte	0x35a
 17697 2412 42000000 		.4byte	0x42
ARM GAS  /cygdrive/c/DOCUME~1/mkwapisz/LOCALS~1/Temp/cc1OEM1Z.s 			page 328


 17698 2416 BB2D0000 		.4byte	.LLST327
 17699 241a 00       		.byte	0x0
 17700 241b 22       		.uleb128 0x22
 17701 241c 49240000 		.4byte	0x2449
 17702 2420 1C1B0000 		.4byte	.LBB411
 17703 2424 301B0000 		.4byte	.LBE411
 17704 2428 17       		.uleb128 0x17
 17705 2429 50020000 		.4byte	.LASF140
 17706 242d 01       		.byte	0x1
 17707 242e 5B03     		.2byte	0x35b
 17708 2430 37000000 		.4byte	0x37
 17709 2434 D92D0000 		.4byte	.LLST328
 17710 2438 17       		.uleb128 0x17
 17711 2439 8B010000 		.4byte	.LASF141
 17712 243d 01       		.byte	0x1
 17713 243e 5B03     		.2byte	0x35b
 17714 2440 42000000 		.4byte	0x42
 17715 2444 EC2D0000 		.4byte	.LLST329
 17716 2448 00       		.byte	0x0
 17717 2449 22       		.uleb128 0x22
 17718 244a 77240000 		.4byte	0x2477
 17719 244e 301B0000 		.4byte	.LBB412
 17720 2452 441B0000 		.4byte	.LBE412
 17721 2456 17       		.uleb128 0x17
 17722 2457 50020000 		.4byte	.LASF140
 17723 245b 01       		.byte	0x1
 17724 245c 5C03     		.2byte	0x35c
 17725 245e 37000000 		.4byte	0x37
 17726 2462 0A2E0000 		.4byte	.LLST330
 17727 2466 17       		.uleb128 0x17
 17728 2467 8B010000 		.4byte	.LASF141
 17729 246b 01       		.byte	0x1
 17730 246c 5C03     		.2byte	0x35c
 17731 246e 42000000 		.4byte	0x42
 17732 2472 1D2E0000 		.4byte	.LLST331
 17733 2476 00       		.byte	0x0
 17734 2477 22       		.uleb128 0x22
 17735 2478 A5240000 		.4byte	0x24a5
 17736 247c 441B0000 		.4byte	.LBB413
 17737 2480 581B0000 		.4byte	.LBE413
 17738 2484 17       		.uleb128 0x17
 17739 2485 50020000 		.4byte	.LASF140
 17740 2489 01       		.byte	0x1
 17741 248a 5D03     		.2byte	0x35d
 17742 248c 37000000 		.4byte	0x37
 17743 2490 302E0000 		.4byte	.LLST332
 17744 2494 17       		.uleb128 0x17
 17745 2495 8B010000 		.4byte	.LASF141
 17746 2499 01       		.byte	0x1
 17747 249a 5D03     		.2byte	0x35d
 17748 249c 42000000 		.4byte	0x42
 17749 24a0 4E2E0000 		.4byte	.LLST333
 17750 24a4 00       		.byte	0x0
 17751 24a5 22       		.uleb128 0x22
 17752 24a6 D3240000 		.4byte	0x24d3
 17753 24aa 581B0000 		.4byte	.LBB414
 17754 24ae 6C1B0000 		.4byte	.LBE414
ARM GAS  /cygdrive/c/DOCUME~1/mkwapisz/LOCALS~1/Temp/cc1OEM1Z.s 			page 329


 17755 24b2 17       		.uleb128 0x17
 17756 24b3 50020000 		.4byte	.LASF140
 17757 24b7 01       		.byte	0x1
 17758 24b8 5E03     		.2byte	0x35e
 17759 24ba 37000000 		.4byte	0x37
 17760 24be 772E0000 		.4byte	.LLST334
 17761 24c2 17       		.uleb128 0x17
 17762 24c3 8B010000 		.4byte	.LASF141
 17763 24c7 01       		.byte	0x1
 17764 24c8 5E03     		.2byte	0x35e
 17765 24ca 42000000 		.4byte	0x42
 17766 24ce 8A2E0000 		.4byte	.LLST335
 17767 24d2 00       		.byte	0x0
 17768 24d3 20       		.uleb128 0x20
 17769 24d4 FD240000 		.4byte	0x24fd
 17770 24d8 100F0000 		.4byte	.Ldebug_ranges0+0xf10
 17771 24dc 17       		.uleb128 0x17
 17772 24dd 50020000 		.4byte	.LASF140
 17773 24e1 01       		.byte	0x1
 17774 24e2 5F03     		.2byte	0x35f
 17775 24e4 37000000 		.4byte	0x37
 17776 24e8 A82E0000 		.4byte	.LLST336
 17777 24ec 17       		.uleb128 0x17
 17778 24ed 8B010000 		.4byte	.LASF141
 17779 24f1 01       		.byte	0x1
 17780 24f2 5F03     		.2byte	0x35f
 17781 24f4 42000000 		.4byte	0x42
 17782 24f8 C62E0000 		.4byte	.LLST337
 17783 24fc 00       		.byte	0x0
 17784 24fd 22       		.uleb128 0x22
 17785 24fe 2B250000 		.4byte	0x252b
 17786 2502 881B0000 		.4byte	.LBB417
 17787 2506 9C1B0000 		.4byte	.LBE417
 17788 250a 17       		.uleb128 0x17
 17789 250b 50020000 		.4byte	.LASF140
 17790 250f 01       		.byte	0x1
 17791 2510 6203     		.2byte	0x362
 17792 2512 37000000 		.4byte	0x37
 17793 2516 E42E0000 		.4byte	.LLST338
 17794 251a 17       		.uleb128 0x17
 17795 251b 8B010000 		.4byte	.LASF141
 17796 251f 01       		.byte	0x1
 17797 2520 6203     		.2byte	0x362
 17798 2522 42000000 		.4byte	0x42
 17799 2526 F72E0000 		.4byte	.LLST339
 17800 252a 00       		.byte	0x0
 17801 252b 22       		.uleb128 0x22
 17802 252c 59250000 		.4byte	0x2559
 17803 2530 9C1B0000 		.4byte	.LBB418
 17804 2534 B01B0000 		.4byte	.LBE418
 17805 2538 17       		.uleb128 0x17
 17806 2539 50020000 		.4byte	.LASF140
 17807 253d 01       		.byte	0x1
 17808 253e 6303     		.2byte	0x363
 17809 2540 37000000 		.4byte	0x37
 17810 2544 152F0000 		.4byte	.LLST340
 17811 2548 17       		.uleb128 0x17
ARM GAS  /cygdrive/c/DOCUME~1/mkwapisz/LOCALS~1/Temp/cc1OEM1Z.s 			page 330


 17812 2549 8B010000 		.4byte	.LASF141
 17813 254d 01       		.byte	0x1
 17814 254e 6303     		.2byte	0x363
 17815 2550 42000000 		.4byte	0x42
 17816 2554 332F0000 		.4byte	.LLST341
 17817 2558 00       		.byte	0x0
 17818 2559 22       		.uleb128 0x22
 17819 255a 87250000 		.4byte	0x2587
 17820 255e B01B0000 		.4byte	.LBB419
 17821 2562 C41B0000 		.4byte	.LBE419
 17822 2566 17       		.uleb128 0x17
 17823 2567 50020000 		.4byte	.LASF140
 17824 256b 01       		.byte	0x1
 17825 256c 6403     		.2byte	0x364
 17826 256e 37000000 		.4byte	0x37
 17827 2572 512F0000 		.4byte	.LLST342
 17828 2576 17       		.uleb128 0x17
 17829 2577 8B010000 		.4byte	.LASF141
 17830 257b 01       		.byte	0x1
 17831 257c 6403     		.2byte	0x364
 17832 257e 42000000 		.4byte	0x42
 17833 2582 6F2F0000 		.4byte	.LLST343
 17834 2586 00       		.byte	0x0
 17835 2587 22       		.uleb128 0x22
 17836 2588 B5250000 		.4byte	0x25b5
 17837 258c C41B0000 		.4byte	.LBB420
 17838 2590 D81B0000 		.4byte	.LBE420
 17839 2594 17       		.uleb128 0x17
 17840 2595 50020000 		.4byte	.LASF140
 17841 2599 01       		.byte	0x1
 17842 259a 6503     		.2byte	0x365
 17843 259c 37000000 		.4byte	0x37
 17844 25a0 982F0000 		.4byte	.LLST344
 17845 25a4 17       		.uleb128 0x17
 17846 25a5 8B010000 		.4byte	.LASF141
 17847 25a9 01       		.byte	0x1
 17848 25aa 6503     		.2byte	0x365
 17849 25ac 42000000 		.4byte	0x42
 17850 25b0 B62F0000 		.4byte	.LLST345
 17851 25b4 00       		.byte	0x0
 17852 25b5 22       		.uleb128 0x22
 17853 25b6 E3250000 		.4byte	0x25e3
 17854 25ba D81B0000 		.4byte	.LBB421
 17855 25be EC1B0000 		.4byte	.LBE421
 17856 25c2 17       		.uleb128 0x17
 17857 25c3 50020000 		.4byte	.LASF140
 17858 25c7 01       		.byte	0x1
 17859 25c8 6603     		.2byte	0x366
 17860 25ca 37000000 		.4byte	0x37
 17861 25ce D42F0000 		.4byte	.LLST346
 17862 25d2 17       		.uleb128 0x17
 17863 25d3 8B010000 		.4byte	.LASF141
 17864 25d7 01       		.byte	0x1
 17865 25d8 6603     		.2byte	0x366
 17866 25da 42000000 		.4byte	0x42
 17867 25de F22F0000 		.4byte	.LLST347
 17868 25e2 00       		.byte	0x0
ARM GAS  /cygdrive/c/DOCUME~1/mkwapisz/LOCALS~1/Temp/cc1OEM1Z.s 			page 331


 17869 25e3 22       		.uleb128 0x22
 17870 25e4 11260000 		.4byte	0x2611
 17871 25e8 EC1B0000 		.4byte	.LBB422
 17872 25ec 001C0000 		.4byte	.LBE422
 17873 25f0 17       		.uleb128 0x17
 17874 25f1 50020000 		.4byte	.LASF140
 17875 25f5 01       		.byte	0x1
 17876 25f6 6703     		.2byte	0x367
 17877 25f8 37000000 		.4byte	0x37
 17878 25fc 10300000 		.4byte	.LLST348
 17879 2600 17       		.uleb128 0x17
 17880 2601 8B010000 		.4byte	.LASF141
 17881 2605 01       		.byte	0x1
 17882 2606 6703     		.2byte	0x367
 17883 2608 42000000 		.4byte	0x42
 17884 260c 23300000 		.4byte	.LLST349
 17885 2610 00       		.byte	0x0
 17886 2611 22       		.uleb128 0x22
 17887 2612 3F260000 		.4byte	0x263f
 17888 2616 001C0000 		.4byte	.LBB423
 17889 261a 141C0000 		.4byte	.LBE423
 17890 261e 17       		.uleb128 0x17
 17891 261f 50020000 		.4byte	.LASF140
 17892 2623 01       		.byte	0x1
 17893 2624 6803     		.2byte	0x368
 17894 2626 37000000 		.4byte	0x37
 17895 262a 41300000 		.4byte	.LLST350
 17896 262e 17       		.uleb128 0x17
 17897 262f 8B010000 		.4byte	.LASF141
 17898 2633 01       		.byte	0x1
 17899 2634 6803     		.2byte	0x368
 17900 2636 42000000 		.4byte	0x42
 17901 263a 5F300000 		.4byte	.LLST351
 17902 263e 00       		.byte	0x0
 17903 263f 22       		.uleb128 0x22
 17904 2640 6D260000 		.4byte	0x266d
 17905 2644 141C0000 		.4byte	.LBB424
 17906 2648 281C0000 		.4byte	.LBE424
 17907 264c 17       		.uleb128 0x17
 17908 264d 50020000 		.4byte	.LASF140
 17909 2651 01       		.byte	0x1
 17910 2652 6903     		.2byte	0x369
 17911 2654 37000000 		.4byte	0x37
 17912 2658 88300000 		.4byte	.LLST352
 17913 265c 17       		.uleb128 0x17
 17914 265d 8B010000 		.4byte	.LASF141
 17915 2661 01       		.byte	0x1
 17916 2662 6903     		.2byte	0x369
 17917 2664 42000000 		.4byte	0x42
 17918 2668 A6300000 		.4byte	.LLST353
 17919 266c 00       		.byte	0x0
 17920 266d 20       		.uleb128 0x20
 17921 266e 97260000 		.4byte	0x2697
 17922 2672 280F0000 		.4byte	.Ldebug_ranges0+0xf28
 17923 2676 17       		.uleb128 0x17
 17924 2677 50020000 		.4byte	.LASF140
 17925 267b 01       		.byte	0x1
ARM GAS  /cygdrive/c/DOCUME~1/mkwapisz/LOCALS~1/Temp/cc1OEM1Z.s 			page 332


 17926 267c 7503     		.2byte	0x375
 17927 267e 37000000 		.4byte	0x37
 17928 2682 C4300000 		.4byte	.LLST354
 17929 2686 17       		.uleb128 0x17
 17930 2687 8B010000 		.4byte	.LASF141
 17931 268b 01       		.byte	0x1
 17932 268c 7503     		.2byte	0x375
 17933 268e 42000000 		.4byte	0x42
 17934 2692 E2300000 		.4byte	.LLST355
 17935 2696 00       		.byte	0x0
 17936 2697 22       		.uleb128 0x22
 17937 2698 C5260000 		.4byte	0x26c5
 17938 269c 801C0000 		.4byte	.LBB429
 17939 26a0 941C0000 		.4byte	.LBE429
 17940 26a4 17       		.uleb128 0x17
 17941 26a5 50020000 		.4byte	.LASF140
 17942 26a9 01       		.byte	0x1
 17943 26aa 7603     		.2byte	0x376
 17944 26ac 37000000 		.4byte	0x37
 17945 26b0 00310000 		.4byte	.LLST356
 17946 26b4 17       		.uleb128 0x17
 17947 26b5 8B010000 		.4byte	.LASF141
 17948 26b9 01       		.byte	0x1
 17949 26ba 7603     		.2byte	0x376
 17950 26bc 42000000 		.4byte	0x42
 17951 26c0 1E310000 		.4byte	.LLST357
 17952 26c4 00       		.byte	0x0
 17953 26c5 22       		.uleb128 0x22
 17954 26c6 F3260000 		.4byte	0x26f3
 17955 26ca 941C0000 		.4byte	.LBB430
 17956 26ce A81C0000 		.4byte	.LBE430
 17957 26d2 17       		.uleb128 0x17
 17958 26d3 50020000 		.4byte	.LASF140
 17959 26d7 01       		.byte	0x1
 17960 26d8 7703     		.2byte	0x377
 17961 26da 37000000 		.4byte	0x37
 17962 26de 3C310000 		.4byte	.LLST358
 17963 26e2 17       		.uleb128 0x17
 17964 26e3 8B010000 		.4byte	.LASF141
 17965 26e7 01       		.byte	0x1
 17966 26e8 7703     		.2byte	0x377
 17967 26ea 42000000 		.4byte	0x42
 17968 26ee 4F310000 		.4byte	.LLST359
 17969 26f2 00       		.byte	0x0
 17970 26f3 22       		.uleb128 0x22
 17971 26f4 21270000 		.4byte	0x2721
 17972 26f8 A81C0000 		.4byte	.LBB431
 17973 26fc BC1C0000 		.4byte	.LBE431
 17974 2700 17       		.uleb128 0x17
 17975 2701 50020000 		.4byte	.LASF140
 17976 2705 01       		.byte	0x1
 17977 2706 7803     		.2byte	0x378
 17978 2708 37000000 		.4byte	0x37
 17979 270c 6D310000 		.4byte	.LLST360
 17980 2710 17       		.uleb128 0x17
 17981 2711 8B010000 		.4byte	.LASF141
 17982 2715 01       		.byte	0x1
ARM GAS  /cygdrive/c/DOCUME~1/mkwapisz/LOCALS~1/Temp/cc1OEM1Z.s 			page 333


 17983 2716 7803     		.2byte	0x378
 17984 2718 42000000 		.4byte	0x42
 17985 271c 80310000 		.4byte	.LLST361
 17986 2720 00       		.byte	0x0
 17987 2721 22       		.uleb128 0x22
 17988 2722 4F270000 		.4byte	0x274f
 17989 2726 BC1C0000 		.4byte	.LBB432
 17990 272a D01C0000 		.4byte	.LBE432
 17991 272e 17       		.uleb128 0x17
 17992 272f 50020000 		.4byte	.LASF140
 17993 2733 01       		.byte	0x1
 17994 2734 7903     		.2byte	0x379
 17995 2736 37000000 		.4byte	0x37
 17996 273a 9E310000 		.4byte	.LLST362
 17997 273e 17       		.uleb128 0x17
 17998 273f 8B010000 		.4byte	.LASF141
 17999 2743 01       		.byte	0x1
 18000 2744 7903     		.2byte	0x379
 18001 2746 42000000 		.4byte	0x42
 18002 274a B1310000 		.4byte	.LLST363
 18003 274e 00       		.byte	0x0
 18004 274f 22       		.uleb128 0x22
 18005 2750 7D270000 		.4byte	0x277d
 18006 2754 D01C0000 		.4byte	.LBB433
 18007 2758 E41C0000 		.4byte	.LBE433
 18008 275c 17       		.uleb128 0x17
 18009 275d 50020000 		.4byte	.LASF140
 18010 2761 01       		.byte	0x1
 18011 2762 7A03     		.2byte	0x37a
 18012 2764 37000000 		.4byte	0x37
 18013 2768 CF310000 		.4byte	.LLST364
 18014 276c 17       		.uleb128 0x17
 18015 276d 8B010000 		.4byte	.LASF141
 18016 2771 01       		.byte	0x1
 18017 2772 7A03     		.2byte	0x37a
 18018 2774 42000000 		.4byte	0x42
 18019 2778 E2310000 		.4byte	.LLST365
 18020 277c 00       		.byte	0x0
 18021 277d 22       		.uleb128 0x22
 18022 277e AB270000 		.4byte	0x27ab
 18023 2782 E41C0000 		.4byte	.LBB434
 18024 2786 F81C0000 		.4byte	.LBE434
 18025 278a 17       		.uleb128 0x17
 18026 278b 50020000 		.4byte	.LASF140
 18027 278f 01       		.byte	0x1
 18028 2790 7B03     		.2byte	0x37b
 18029 2792 37000000 		.4byte	0x37
 18030 2796 00320000 		.4byte	.LLST366
 18031 279a 17       		.uleb128 0x17
 18032 279b 8B010000 		.4byte	.LASF141
 18033 279f 01       		.byte	0x1
 18034 27a0 7B03     		.2byte	0x37b
 18035 27a2 42000000 		.4byte	0x42
 18036 27a6 1E320000 		.4byte	.LLST367
 18037 27aa 00       		.byte	0x0
 18038 27ab 23       		.uleb128 0x23
 18039 27ac F81C0000 		.4byte	.LBB435
ARM GAS  /cygdrive/c/DOCUME~1/mkwapisz/LOCALS~1/Temp/cc1OEM1Z.s 			page 334


 18040 27b0 0C1D0000 		.4byte	.LBE435
 18041 27b4 17       		.uleb128 0x17
 18042 27b5 50020000 		.4byte	.LASF140
 18043 27b9 01       		.byte	0x1
 18044 27ba 7C03     		.2byte	0x37c
 18045 27bc 37000000 		.4byte	0x37
 18046 27c0 3C320000 		.4byte	.LLST368
 18047 27c4 17       		.uleb128 0x17
 18048 27c5 8B010000 		.4byte	.LASF141
 18049 27c9 01       		.byte	0x1
 18050 27ca 7C03     		.2byte	0x37c
 18051 27cc 42000000 		.4byte	0x42
 18052 27d0 4F320000 		.4byte	.LLST369
 18053 27d4 00       		.byte	0x0
 18054 27d5 00       		.byte	0x0
 18055 27d6 0D       		.uleb128 0xd
 18056 27d7 04       		.byte	0x4
 18057 27d8 4A020000 		.4byte	0x24a
 18058 27dc 0B       		.uleb128 0xb
 18059 27dd FE270000 		.4byte	0x27fe
 18060 27e1 25000000 		.4byte	0x25
 18061 27e5 0C       		.uleb128 0xc
 18062 27e6 92000000 		.4byte	0x92
 18063 27ea 01       		.byte	0x1
 18064 27eb 0C       		.uleb128 0xc
 18065 27ec 92000000 		.4byte	0x92
 18066 27f0 01       		.byte	0x1
 18067 27f1 0C       		.uleb128 0xc
 18068 27f2 92000000 		.4byte	0x92
 18069 27f6 0F       		.byte	0xf
 18070 27f7 0C       		.uleb128 0xc
 18071 27f8 92000000 		.4byte	0x92
 18072 27fc 07       		.byte	0x7
 18073 27fd 00       		.byte	0x0
 18074 27fe 0D       		.uleb128 0xd
 18075 27ff 04       		.byte	0x4
 18076 2800 DC270000 		.4byte	0x27dc
 18077 2804 0B       		.uleb128 0xb
 18078 2805 1A280000 		.4byte	0x281a
 18079 2809 25000000 		.4byte	0x25
 18080 280d 0C       		.uleb128 0xc
 18081 280e 92000000 		.4byte	0x92
 18082 2812 23       		.byte	0x23
 18083 2813 0C       		.uleb128 0xc
 18084 2814 92000000 		.4byte	0x92
 18085 2818 1F       		.byte	0x1f
 18086 2819 00       		.byte	0x0
 18087 281a 0D       		.uleb128 0xd
 18088 281b 04       		.byte	0x4
 18089 281c 04280000 		.4byte	0x2804
 18090 2820 0B       		.uleb128 0xb
 18091 2821 30280000 		.4byte	0x2830
 18092 2825 25000000 		.4byte	0x25
 18093 2829 0C       		.uleb128 0xc
 18094 282a 92000000 		.4byte	0x92
 18095 282e 1F       		.byte	0x1f
 18096 282f 00       		.byte	0x0
ARM GAS  /cygdrive/c/DOCUME~1/mkwapisz/LOCALS~1/Temp/cc1OEM1Z.s 			page 335


 18097 2830 0D       		.uleb128 0xd
 18098 2831 04       		.byte	0x4
 18099 2832 20280000 		.4byte	0x2820
 18100 2836 0B       		.uleb128 0xb
 18101 2837 4C280000 		.4byte	0x284c
 18102 283b 4A020000 		.4byte	0x24a
 18103 283f 0C       		.uleb128 0xc
 18104 2840 92000000 		.4byte	0x92
 18105 2844 01       		.byte	0x1
 18106 2845 0C       		.uleb128 0xc
 18107 2846 92000000 		.4byte	0x92
 18108 284a 0F       		.byte	0xf
 18109 284b 00       		.byte	0x0
 18110 284c 24       		.uleb128 0x24
 18111 284d 72330000 		.4byte	0x3372
 18112 2851 19030000 		.4byte	.LASF149
 18113 2855 01       		.byte	0x1
 18114 2856 5002     		.2byte	0x250
 18115 2858 01       		.byte	0x1
 18116 2859 A81D0000 		.4byte	.LFB6
 18117 285d 90280000 		.4byte	.LFE6
 18118 2861 6D320000 		.4byte	.LLST370
 18119 2865 15       		.uleb128 0x15
 18120 2866 CF040000 		.4byte	.LASF54
 18121 286a 01       		.byte	0x1
 18122 286b 4E02     		.2byte	0x24e
 18123 286d 6B030000 		.4byte	0x36b
 18124 2871 99320000 		.4byte	.LLST371
 18125 2875 15       		.uleb128 0x15
 18126 2876 B8040000 		.4byte	.LASF58
 18127 287a 01       		.byte	0x1
 18128 287b 4E02     		.2byte	0x24e
 18129 287d 00040000 		.4byte	0x400
 18130 2881 B9320000 		.4byte	.LLST372
 18131 2885 25       		.uleb128 0x25
 18132 2886 6E636800 		.ascii	"nch\000"
 18133 288a 01       		.byte	0x1
 18134 288b 4F02     		.2byte	0x24f
 18135 288d A0000000 		.4byte	0xa0
 18136 2891 D9320000 		.4byte	.LLST373
 18137 2895 25       		.uleb128 0x25
 18138 2896 6E7300   		.ascii	"ns\000"
 18139 2899 01       		.byte	0x1
 18140 289a 4F02     		.2byte	0x24f
 18141 289c A0000000 		.4byte	0xa0
 18142 28a0 F9320000 		.4byte	.LLST374
 18143 28a4 1F       		.uleb128 0x1f
 18144 28a5 47000000 		.4byte	.LASF50
 18145 28a9 01       		.byte	0x1
 18146 28aa 5102     		.2byte	0x251
 18147 28ac A0000000 		.4byte	0xa0
 18148 28b0 03       		.byte	0x3
 18149 28b1 91       		.byte	0x91
 18150 28b2 F07D     		.sleb128 -272
 18151 28b4 16       		.uleb128 0x16
 18152 28b5 636800   		.ascii	"ch\000"
 18153 28b8 01       		.byte	0x1
ARM GAS  /cygdrive/c/DOCUME~1/mkwapisz/LOCALS~1/Temp/cc1OEM1Z.s 			page 336


 18154 28b9 5102     		.2byte	0x251
 18155 28bb A0000000 		.4byte	0xa0
 18156 28bf 03       		.byte	0x3
 18157 28c0 91       		.byte	0x91
 18158 28c1 F47D     		.sleb128 -268
 18159 28c3 16       		.uleb128 0x16
 18160 28c4 7300     		.ascii	"s\000"
 18161 28c6 01       		.byte	0x1
 18162 28c7 5102     		.2byte	0x251
 18163 28c9 A0000000 		.4byte	0xa0
 18164 28cd 03       		.byte	0x3
 18165 28ce 91       		.byte	0x91
 18166 28cf F87D     		.sleb128 -264
 18167 28d1 26       		.uleb128 0x26
 18168 28d2 736200   		.ascii	"sb\000"
 18169 28d5 01       		.byte	0x1
 18170 28d6 5102     		.2byte	0x251
 18171 28d8 A0000000 		.4byte	0xa0
 18172 28dc 26       		.uleb128 0x26
 18173 28dd 706500   		.ascii	"pe\000"
 18174 28e0 01       		.byte	0x1
 18175 28e1 5102     		.2byte	0x251
 18176 28e3 A0000000 		.4byte	0xa0
 18177 28e7 26       		.uleb128 0x26
 18178 28e8 706F00   		.ascii	"po\000"
 18179 28eb 01       		.byte	0x1
 18180 28ec 5102     		.2byte	0x251
 18181 28ee A0000000 		.4byte	0xa0
 18182 28f2 17       		.uleb128 0x17
 18183 28f3 8A030000 		.4byte	.LASF143
 18184 28f7 01       		.byte	0x1
 18185 28f8 5202     		.2byte	0x252
 18186 28fa D6270000 		.4byte	0x27d6
 18187 28fe 19330000 		.4byte	.LLST375
 18188 2902 27       		.uleb128 0x27
 18189 2903 8F030000 		.4byte	.LASF150
 18190 2907 01       		.byte	0x1
 18191 2908 5202     		.2byte	0x252
 18192 290a D6270000 		.4byte	0x27d6
 18193 290e 27       		.uleb128 0x27
 18194 290f C7030000 		.4byte	.LASF49
 18195 2913 01       		.byte	0x1
 18196 2914 5302     		.2byte	0x253
 18197 2916 FE270000 		.4byte	0x27fe
 18198 291a 27       		.uleb128 0x27
 18199 291b 09010000 		.4byte	.LASF40
 18200 291f 01       		.byte	0x1
 18201 2920 5402     		.2byte	0x254
 18202 2922 1A280000 		.4byte	0x281a
 18203 2926 1E       		.uleb128 0x1e
 18204 2927 666500   		.ascii	"fe\000"
 18205 292a 01       		.byte	0x1
 18206 292b 5502     		.2byte	0x255
 18207 292d 9E1C0000 		.4byte	0x1c9e
 18208 2931 39330000 		.4byte	.LLST376
 18209 2935 1E       		.uleb128 0x1e
 18210 2936 667800   		.ascii	"fx\000"
ARM GAS  /cygdrive/c/DOCUME~1/mkwapisz/LOCALS~1/Temp/cc1OEM1Z.s 			page 337


 18211 2939 01       		.byte	0x1
 18212 293a 5502     		.2byte	0x255
 18213 293c 9E1C0000 		.4byte	0x1c9e
 18214 2940 A4330000 		.4byte	.LLST377
 18215 2944 1E       		.uleb128 0x1e
 18216 2945 666F00   		.ascii	"fo\000"
 18217 2948 01       		.byte	0x1
 18218 2949 5502     		.2byte	0x255
 18219 294b 9E1C0000 		.4byte	0x1c9e
 18220 294f B7330000 		.4byte	.LLST378
 18221 2953 17       		.uleb128 0x17
 18222 2954 90010000 		.4byte	.LASF146
 18223 2958 01       		.byte	0x1
 18224 2959 5602     		.2byte	0x256
 18225 295b 30280000 		.4byte	0x2830
 18226 295f D7330000 		.4byte	.LLST379
 18227 2963 1E       		.uleb128 0x1e
 18228 2964 70747200 		.ascii	"ptr\000"
 18229 2968 01       		.byte	0x1
 18230 2969 5602     		.2byte	0x256
 18231 296b 831C0000 		.4byte	0x1c83
 18232 296f 00340000 		.4byte	.LLST380
 18233 2973 26       		.uleb128 0x26
 18234 2974 686900   		.ascii	"hi\000"
 18235 2977 01       		.byte	0x1
 18236 2978 5702     		.2byte	0x257
 18237 297a 37000000 		.4byte	0x37
 18238 297e 1E       		.uleb128 0x1e
 18239 297f 6C6F00   		.ascii	"lo\000"
 18240 2982 01       		.byte	0x1
 18241 2983 5802     		.2byte	0x258
 18242 2985 42000000 		.4byte	0x42
 18243 2989 D6350000 		.4byte	.LLST381
 18244 298d 17       		.uleb128 0x17
 18245 298e F5020000 		.4byte	.LASF147
 18246 2992 01       		.byte	0x1
 18247 2993 5902     		.2byte	0x259
 18248 2995 25000000 		.4byte	0x25
 18249 2999 72380000 		.4byte	.LLST382
 18250 299d 1F       		.uleb128 0x1f
 18251 299e 7F020000 		.4byte	.LASF148
 18252 29a2 01       		.byte	0x1
 18253 29a3 5A02     		.2byte	0x25a
 18254 29a5 72330000 		.4byte	0x3372
 18255 29a9 03       		.byte	0x3
 18256 29aa 91       		.byte	0x91
 18257 29ab DC7E     		.sleb128 -164
 18258 29ad 20       		.uleb128 0x20
 18259 29ae D7290000 		.4byte	0x29d7
 18260 29b2 500F0000 		.4byte	.Ldebug_ranges0+0xf50
 18261 29b6 17       		.uleb128 0x17
 18262 29b7 50020000 		.4byte	.LASF140
 18263 29bb 01       		.byte	0x1
 18264 29bc 7D02     		.2byte	0x27d
 18265 29be 37000000 		.4byte	0x37
 18266 29c2 AE380000 		.4byte	.LLST383
 18267 29c6 17       		.uleb128 0x17
ARM GAS  /cygdrive/c/DOCUME~1/mkwapisz/LOCALS~1/Temp/cc1OEM1Z.s 			page 338


 18268 29c7 8B010000 		.4byte	.LASF141
 18269 29cb 01       		.byte	0x1
 18270 29cc 7D02     		.2byte	0x27d
 18271 29ce 42000000 		.4byte	0x42
 18272 29d2 CC380000 		.4byte	.LLST384
 18273 29d6 00       		.byte	0x0
 18274 29d7 20       		.uleb128 0x20
 18275 29d8 012A0000 		.4byte	0x2a01
 18276 29dc 700F0000 		.4byte	.Ldebug_ranges0+0xf70
 18277 29e0 17       		.uleb128 0x17
 18278 29e1 50020000 		.4byte	.LASF140
 18279 29e5 01       		.byte	0x1
 18280 29e6 7C02     		.2byte	0x27c
 18281 29e8 37000000 		.4byte	0x37
 18282 29ec F5380000 		.4byte	.LLST385
 18283 29f0 17       		.uleb128 0x17
 18284 29f1 8B010000 		.4byte	.LASF141
 18285 29f5 01       		.byte	0x1
 18286 29f6 7C02     		.2byte	0x27c
 18287 29f8 42000000 		.4byte	0x42
 18288 29fc 08390000 		.4byte	.LLST386
 18289 2a00 00       		.byte	0x0
 18290 2a01 20       		.uleb128 0x20
 18291 2a02 2B2A0000 		.4byte	0x2a2b
 18292 2a06 900F0000 		.4byte	.Ldebug_ranges0+0xf90
 18293 2a0a 17       		.uleb128 0x17
 18294 2a0b 50020000 		.4byte	.LASF140
 18295 2a0f 01       		.byte	0x1
 18296 2a10 8802     		.2byte	0x288
 18297 2a12 37000000 		.4byte	0x37
 18298 2a16 26390000 		.4byte	.LLST387
 18299 2a1a 17       		.uleb128 0x17
 18300 2a1b 8B010000 		.4byte	.LASF141
 18301 2a1f 01       		.byte	0x1
 18302 2a20 8802     		.2byte	0x288
 18303 2a22 42000000 		.4byte	0x42
 18304 2a26 44390000 		.4byte	.LLST388
 18305 2a2a 00       		.byte	0x0
 18306 2a2b 20       		.uleb128 0x20
 18307 2a2c 552A0000 		.4byte	0x2a55
 18308 2a30 B00F0000 		.4byte	.Ldebug_ranges0+0xfb0
 18309 2a34 17       		.uleb128 0x17
 18310 2a35 50020000 		.4byte	.LASF140
 18311 2a39 01       		.byte	0x1
 18312 2a3a 8102     		.2byte	0x281
 18313 2a3c 37000000 		.4byte	0x37
 18314 2a40 6D390000 		.4byte	.LLST389
 18315 2a44 17       		.uleb128 0x17
 18316 2a45 8B010000 		.4byte	.LASF141
 18317 2a49 01       		.byte	0x1
 18318 2a4a 8102     		.2byte	0x281
 18319 2a4c 42000000 		.4byte	0x42
 18320 2a50 8B390000 		.4byte	.LLST390
 18321 2a54 00       		.byte	0x0
 18322 2a55 20       		.uleb128 0x20
 18323 2a56 7F2A0000 		.4byte	0x2a7f
 18324 2a5a D00F0000 		.4byte	.Ldebug_ranges0+0xfd0
ARM GAS  /cygdrive/c/DOCUME~1/mkwapisz/LOCALS~1/Temp/cc1OEM1Z.s 			page 339


 18325 2a5e 17       		.uleb128 0x17
 18326 2a5f 50020000 		.4byte	.LASF140
 18327 2a63 01       		.byte	0x1
 18328 2a64 8202     		.2byte	0x282
 18329 2a66 37000000 		.4byte	0x37
 18330 2a6a B4390000 		.4byte	.LLST391
 18331 2a6e 17       		.uleb128 0x17
 18332 2a6f 8B010000 		.4byte	.LASF141
 18333 2a73 01       		.byte	0x1
 18334 2a74 8202     		.2byte	0x282
 18335 2a76 42000000 		.4byte	0x42
 18336 2a7a C7390000 		.4byte	.LLST392
 18337 2a7e 00       		.byte	0x0
 18338 2a7f 20       		.uleb128 0x20
 18339 2a80 A92A0000 		.4byte	0x2aa9
 18340 2a84 F00F0000 		.4byte	.Ldebug_ranges0+0xff0
 18341 2a88 17       		.uleb128 0x17
 18342 2a89 50020000 		.4byte	.LASF140
 18343 2a8d 01       		.byte	0x1
 18344 2a8e 7F02     		.2byte	0x27f
 18345 2a90 37000000 		.4byte	0x37
 18346 2a94 E5390000 		.4byte	.LLST393
 18347 2a98 17       		.uleb128 0x17
 18348 2a99 8B010000 		.4byte	.LASF141
 18349 2a9d 01       		.byte	0x1
 18350 2a9e 7F02     		.2byte	0x27f
 18351 2aa0 42000000 		.4byte	0x42
 18352 2aa4 033A0000 		.4byte	.LLST394
 18353 2aa8 00       		.byte	0x0
 18354 2aa9 20       		.uleb128 0x20
 18355 2aaa D32A0000 		.4byte	0x2ad3
 18356 2aae 10100000 		.4byte	.Ldebug_ranges0+0x1010
 18357 2ab2 17       		.uleb128 0x17
 18358 2ab3 50020000 		.4byte	.LASF140
 18359 2ab7 01       		.byte	0x1
 18360 2ab8 8002     		.2byte	0x280
 18361 2aba 37000000 		.4byte	0x37
 18362 2abe 2C3A0000 		.4byte	.LLST395
 18363 2ac2 17       		.uleb128 0x17
 18364 2ac3 8B010000 		.4byte	.LASF141
 18365 2ac7 01       		.byte	0x1
 18366 2ac8 8002     		.2byte	0x280
 18367 2aca 42000000 		.4byte	0x42
 18368 2ace 3F3A0000 		.4byte	.LLST396
 18369 2ad2 00       		.byte	0x0
 18370 2ad3 20       		.uleb128 0x20
 18371 2ad4 FD2A0000 		.4byte	0x2afd
 18372 2ad8 30100000 		.4byte	.Ldebug_ranges0+0x1030
 18373 2adc 17       		.uleb128 0x17
 18374 2add 50020000 		.4byte	.LASF140
 18375 2ae1 01       		.byte	0x1
 18376 2ae2 7E02     		.2byte	0x27e
 18377 2ae4 37000000 		.4byte	0x37
 18378 2ae8 5D3A0000 		.4byte	.LLST397
 18379 2aec 17       		.uleb128 0x17
 18380 2aed 8B010000 		.4byte	.LASF141
 18381 2af1 01       		.byte	0x1
ARM GAS  /cygdrive/c/DOCUME~1/mkwapisz/LOCALS~1/Temp/cc1OEM1Z.s 			page 340


 18382 2af2 7E02     		.2byte	0x27e
 18383 2af4 42000000 		.4byte	0x42
 18384 2af8 703A0000 		.4byte	.LLST398
 18385 2afc 00       		.byte	0x0
 18386 2afd 20       		.uleb128 0x20
 18387 2afe 272B0000 		.4byte	0x2b27
 18388 2b02 50100000 		.4byte	.Ldebug_ranges0+0x1050
 18389 2b06 17       		.uleb128 0x17
 18390 2b07 50020000 		.4byte	.LASF140
 18391 2b0b 01       		.byte	0x1
 18392 2b0c 8702     		.2byte	0x287
 18393 2b0e 37000000 		.4byte	0x37
 18394 2b12 8E3A0000 		.4byte	.LLST399
 18395 2b16 17       		.uleb128 0x17
 18396 2b17 8B010000 		.4byte	.LASF141
 18397 2b1b 01       		.byte	0x1
 18398 2b1c 8702     		.2byte	0x287
 18399 2b1e 42000000 		.4byte	0x42
 18400 2b22 AC3A0000 		.4byte	.LLST400
 18401 2b26 00       		.byte	0x0
 18402 2b27 20       		.uleb128 0x20
 18403 2b28 512B0000 		.4byte	0x2b51
 18404 2b2c 70100000 		.4byte	.Ldebug_ranges0+0x1070
 18405 2b30 17       		.uleb128 0x17
 18406 2b31 50020000 		.4byte	.LASF140
 18407 2b35 01       		.byte	0x1
 18408 2b36 8902     		.2byte	0x289
 18409 2b38 37000000 		.4byte	0x37
 18410 2b3c CA3A0000 		.4byte	.LLST401
 18411 2b40 17       		.uleb128 0x17
 18412 2b41 8B010000 		.4byte	.LASF141
 18413 2b45 01       		.byte	0x1
 18414 2b46 8902     		.2byte	0x289
 18415 2b48 42000000 		.4byte	0x42
 18416 2b4c DD3A0000 		.4byte	.LLST402
 18417 2b50 00       		.byte	0x0
 18418 2b51 20       		.uleb128 0x20
 18419 2b52 7B2B0000 		.4byte	0x2b7b
 18420 2b56 90100000 		.4byte	.Ldebug_ranges0+0x1090
 18421 2b5a 17       		.uleb128 0x17
 18422 2b5b 50020000 		.4byte	.LASF140
 18423 2b5f 01       		.byte	0x1
 18424 2b60 8A02     		.2byte	0x28a
 18425 2b62 37000000 		.4byte	0x37
 18426 2b66 FB3A0000 		.4byte	.LLST403
 18427 2b6a 17       		.uleb128 0x17
 18428 2b6b 8B010000 		.4byte	.LASF141
 18429 2b6f 01       		.byte	0x1
 18430 2b70 8A02     		.2byte	0x28a
 18431 2b72 42000000 		.4byte	0x42
 18432 2b76 193B0000 		.4byte	.LLST404
 18433 2b7a 00       		.byte	0x0
 18434 2b7b 20       		.uleb128 0x20
 18435 2b7c A52B0000 		.4byte	0x2ba5
 18436 2b80 B0100000 		.4byte	.Ldebug_ranges0+0x10b0
 18437 2b84 17       		.uleb128 0x17
 18438 2b85 50020000 		.4byte	.LASF140
ARM GAS  /cygdrive/c/DOCUME~1/mkwapisz/LOCALS~1/Temp/cc1OEM1Z.s 			page 341


 18439 2b89 01       		.byte	0x1
 18440 2b8a 8B02     		.2byte	0x28b
 18441 2b8c 37000000 		.4byte	0x37
 18442 2b90 423B0000 		.4byte	.LLST405
 18443 2b94 17       		.uleb128 0x17
 18444 2b95 8B010000 		.4byte	.LASF141
 18445 2b99 01       		.byte	0x1
 18446 2b9a 8B02     		.2byte	0x28b
 18447 2b9c 42000000 		.4byte	0x42
 18448 2ba0 553B0000 		.4byte	.LLST406
 18449 2ba4 00       		.byte	0x0
 18450 2ba5 20       		.uleb128 0x20
 18451 2ba6 CF2B0000 		.4byte	0x2bcf
 18452 2baa D0100000 		.4byte	.Ldebug_ranges0+0x10d0
 18453 2bae 17       		.uleb128 0x17
 18454 2baf 50020000 		.4byte	.LASF140
 18455 2bb3 01       		.byte	0x1
 18456 2bb4 8C02     		.2byte	0x28c
 18457 2bb6 37000000 		.4byte	0x37
 18458 2bba 733B0000 		.4byte	.LLST407
 18459 2bbe 17       		.uleb128 0x17
 18460 2bbf 8B010000 		.4byte	.LASF141
 18461 2bc3 01       		.byte	0x1
 18462 2bc4 8C02     		.2byte	0x28c
 18463 2bc6 42000000 		.4byte	0x42
 18464 2bca 913B0000 		.4byte	.LLST408
 18465 2bce 00       		.byte	0x0
 18466 2bcf 20       		.uleb128 0x20
 18467 2bd0 F92B0000 		.4byte	0x2bf9
 18468 2bd4 F0100000 		.4byte	.Ldebug_ranges0+0x10f0
 18469 2bd8 17       		.uleb128 0x17
 18470 2bd9 50020000 		.4byte	.LASF140
 18471 2bdd 01       		.byte	0x1
 18472 2bde 8D02     		.2byte	0x28d
 18473 2be0 37000000 		.4byte	0x37
 18474 2be4 BA3B0000 		.4byte	.LLST409
 18475 2be8 17       		.uleb128 0x17
 18476 2be9 8B010000 		.4byte	.LASF141
 18477 2bed 01       		.byte	0x1
 18478 2bee 8D02     		.2byte	0x28d
 18479 2bf0 42000000 		.4byte	0x42
 18480 2bf4 CD3B0000 		.4byte	.LLST410
 18481 2bf8 00       		.byte	0x0
 18482 2bf9 20       		.uleb128 0x20
 18483 2bfa 232C0000 		.4byte	0x2c23
 18484 2bfe 10110000 		.4byte	.Ldebug_ranges0+0x1110
 18485 2c02 17       		.uleb128 0x17
 18486 2c03 50020000 		.4byte	.LASF140
 18487 2c07 01       		.byte	0x1
 18488 2c08 7B02     		.2byte	0x27b
 18489 2c0a 37000000 		.4byte	0x37
 18490 2c0e EB3B0000 		.4byte	.LLST411
 18491 2c12 17       		.uleb128 0x17
 18492 2c13 8B010000 		.4byte	.LASF141
 18493 2c17 01       		.byte	0x1
 18494 2c18 7B02     		.2byte	0x27b
 18495 2c1a 42000000 		.4byte	0x42
ARM GAS  /cygdrive/c/DOCUME~1/mkwapisz/LOCALS~1/Temp/cc1OEM1Z.s 			page 342


 18496 2c1e 093C0000 		.4byte	.LLST412
 18497 2c22 00       		.byte	0x0
 18498 2c23 22       		.uleb128 0x22
 18499 2c24 512C0000 		.4byte	0x2c51
 18500 2c28 40230000 		.4byte	.LBB473
 18501 2c2c 5C230000 		.4byte	.LBE473
 18502 2c30 17       		.uleb128 0x17
 18503 2c31 50020000 		.4byte	.LASF140
 18504 2c35 01       		.byte	0x1
 18505 2c36 8602     		.2byte	0x286
 18506 2c38 37000000 		.4byte	0x37
 18507 2c3c 323C0000 		.4byte	.LLST413
 18508 2c40 17       		.uleb128 0x17
 18509 2c41 8B010000 		.4byte	.LASF141
 18510 2c45 01       		.byte	0x1
 18511 2c46 8602     		.2byte	0x286
 18512 2c48 42000000 		.4byte	0x42
 18513 2c4c 503C0000 		.4byte	.LLST414
 18514 2c50 00       		.byte	0x0
 18515 2c51 22       		.uleb128 0x22
 18516 2c52 7F2C0000 		.4byte	0x2c7f
 18517 2c56 58240000 		.4byte	.LBB481
 18518 2c5a 6C240000 		.4byte	.LBE481
 18519 2c5e 17       		.uleb128 0x17
 18520 2c5f 50020000 		.4byte	.LASF140
 18521 2c63 01       		.byte	0x1
 18522 2c64 9C02     		.2byte	0x29c
 18523 2c66 37000000 		.4byte	0x37
 18524 2c6a 793C0000 		.4byte	.LLST415
 18525 2c6e 17       		.uleb128 0x17
 18526 2c6f 8B010000 		.4byte	.LASF141
 18527 2c73 01       		.byte	0x1
 18528 2c74 9C02     		.2byte	0x29c
 18529 2c76 42000000 		.4byte	0x42
 18530 2c7a 8C3C0000 		.4byte	.LLST416
 18531 2c7e 00       		.byte	0x0
 18532 2c7f 22       		.uleb128 0x22
 18533 2c80 AD2C0000 		.4byte	0x2cad
 18534 2c84 6C240000 		.4byte	.LBB482
 18535 2c88 80240000 		.4byte	.LBE482
 18536 2c8c 17       		.uleb128 0x17
 18537 2c8d 50020000 		.4byte	.LASF140
 18538 2c91 01       		.byte	0x1
 18539 2c92 9D02     		.2byte	0x29d
 18540 2c94 37000000 		.4byte	0x37
 18541 2c98 AA3C0000 		.4byte	.LLST417
 18542 2c9c 17       		.uleb128 0x17
 18543 2c9d 8B010000 		.4byte	.LASF141
 18544 2ca1 01       		.byte	0x1
 18545 2ca2 9D02     		.2byte	0x29d
 18546 2ca4 42000000 		.4byte	0x42
 18547 2ca8 C83C0000 		.4byte	.LLST418
 18548 2cac 00       		.byte	0x0
 18549 2cad 22       		.uleb128 0x22
 18550 2cae DB2C0000 		.4byte	0x2cdb
 18551 2cb2 80240000 		.4byte	.LBB483
 18552 2cb6 94240000 		.4byte	.LBE483
ARM GAS  /cygdrive/c/DOCUME~1/mkwapisz/LOCALS~1/Temp/cc1OEM1Z.s 			page 343


 18553 2cba 17       		.uleb128 0x17
 18554 2cbb 50020000 		.4byte	.LASF140
 18555 2cbf 01       		.byte	0x1
 18556 2cc0 9E02     		.2byte	0x29e
 18557 2cc2 37000000 		.4byte	0x37
 18558 2cc6 FC3C0000 		.4byte	.LLST419
 18559 2cca 17       		.uleb128 0x17
 18560 2ccb 8B010000 		.4byte	.LASF141
 18561 2ccf 01       		.byte	0x1
 18562 2cd0 9E02     		.2byte	0x29e
 18563 2cd2 42000000 		.4byte	0x42
 18564 2cd6 1A3D0000 		.4byte	.LLST420
 18565 2cda 00       		.byte	0x0
 18566 2cdb 22       		.uleb128 0x22
 18567 2cdc 092D0000 		.4byte	0x2d09
 18568 2ce0 94240000 		.4byte	.LBB484
 18569 2ce4 A8240000 		.4byte	.LBE484
 18570 2ce8 17       		.uleb128 0x17
 18571 2ce9 50020000 		.4byte	.LASF140
 18572 2ced 01       		.byte	0x1
 18573 2cee 9F02     		.2byte	0x29f
 18574 2cf0 37000000 		.4byte	0x37
 18575 2cf4 383D0000 		.4byte	.LLST421
 18576 2cf8 17       		.uleb128 0x17
 18577 2cf9 8B010000 		.4byte	.LASF141
 18578 2cfd 01       		.byte	0x1
 18579 2cfe 9F02     		.2byte	0x29f
 18580 2d00 42000000 		.4byte	0x42
 18581 2d04 563D0000 		.4byte	.LLST422
 18582 2d08 00       		.byte	0x0
 18583 2d09 22       		.uleb128 0x22
 18584 2d0a 372D0000 		.4byte	0x2d37
 18585 2d0e A8240000 		.4byte	.LBB485
 18586 2d12 BC240000 		.4byte	.LBE485
 18587 2d16 17       		.uleb128 0x17
 18588 2d17 50020000 		.4byte	.LASF140
 18589 2d1b 01       		.byte	0x1
 18590 2d1c A002     		.2byte	0x2a0
 18591 2d1e 37000000 		.4byte	0x37
 18592 2d22 743D0000 		.4byte	.LLST423
 18593 2d26 17       		.uleb128 0x17
 18594 2d27 8B010000 		.4byte	.LASF141
 18595 2d2b 01       		.byte	0x1
 18596 2d2c A002     		.2byte	0x2a0
 18597 2d2e 42000000 		.4byte	0x42
 18598 2d32 873D0000 		.4byte	.LLST424
 18599 2d36 00       		.byte	0x0
 18600 2d37 22       		.uleb128 0x22
 18601 2d38 652D0000 		.4byte	0x2d65
 18602 2d3c BC240000 		.4byte	.LBB486
 18603 2d40 D0240000 		.4byte	.LBE486
 18604 2d44 17       		.uleb128 0x17
 18605 2d45 50020000 		.4byte	.LASF140
 18606 2d49 01       		.byte	0x1
 18607 2d4a A102     		.2byte	0x2a1
 18608 2d4c 37000000 		.4byte	0x37
 18609 2d50 A53D0000 		.4byte	.LLST425
ARM GAS  /cygdrive/c/DOCUME~1/mkwapisz/LOCALS~1/Temp/cc1OEM1Z.s 			page 344


 18610 2d54 17       		.uleb128 0x17
 18611 2d55 8B010000 		.4byte	.LASF141
 18612 2d59 01       		.byte	0x1
 18613 2d5a A102     		.2byte	0x2a1
 18614 2d5c 42000000 		.4byte	0x42
 18615 2d60 C33D0000 		.4byte	.LLST426
 18616 2d64 00       		.byte	0x0
 18617 2d65 22       		.uleb128 0x22
 18618 2d66 932D0000 		.4byte	0x2d93
 18619 2d6a D0240000 		.4byte	.LBB487
 18620 2d6e E4240000 		.4byte	.LBE487
 18621 2d72 17       		.uleb128 0x17
 18622 2d73 50020000 		.4byte	.LASF140
 18623 2d77 01       		.byte	0x1
 18624 2d78 A202     		.2byte	0x2a2
 18625 2d7a 37000000 		.4byte	0x37
 18626 2d7e E13D0000 		.4byte	.LLST427
 18627 2d82 17       		.uleb128 0x17
 18628 2d83 8B010000 		.4byte	.LASF141
 18629 2d87 01       		.byte	0x1
 18630 2d88 A202     		.2byte	0x2a2
 18631 2d8a 42000000 		.4byte	0x42
 18632 2d8e F43D0000 		.4byte	.LLST428
 18633 2d92 00       		.byte	0x0
 18634 2d93 20       		.uleb128 0x20
 18635 2d94 BD2D0000 		.4byte	0x2dbd
 18636 2d98 28110000 		.4byte	.Ldebug_ranges0+0x1128
 18637 2d9c 17       		.uleb128 0x17
 18638 2d9d 50020000 		.4byte	.LASF140
 18639 2da1 01       		.byte	0x1
 18640 2da2 A302     		.2byte	0x2a3
 18641 2da4 37000000 		.4byte	0x37
 18642 2da8 123E0000 		.4byte	.LLST429
 18643 2dac 17       		.uleb128 0x17
 18644 2dad 8B010000 		.4byte	.LASF141
 18645 2db1 01       		.byte	0x1
 18646 2db2 A302     		.2byte	0x2a3
 18647 2db4 42000000 		.4byte	0x42
 18648 2db8 303E0000 		.4byte	.LLST430
 18649 2dbc 00       		.byte	0x0
 18650 2dbd 22       		.uleb128 0x22
 18651 2dbe EB2D0000 		.4byte	0x2deb
 18652 2dc2 00250000 		.4byte	.LBB490
 18653 2dc6 14250000 		.4byte	.LBE490
 18654 2dca 17       		.uleb128 0x17
 18655 2dcb 50020000 		.4byte	.LASF140
 18656 2dcf 01       		.byte	0x1
 18657 2dd0 A802     		.2byte	0x2a8
 18658 2dd2 37000000 		.4byte	0x37
 18659 2dd6 4E3E0000 		.4byte	.LLST431
 18660 2dda 17       		.uleb128 0x17
 18661 2ddb 8B010000 		.4byte	.LASF141
 18662 2ddf 01       		.byte	0x1
 18663 2de0 A802     		.2byte	0x2a8
 18664 2de2 42000000 		.4byte	0x42
 18665 2de6 6C3E0000 		.4byte	.LLST432
 18666 2dea 00       		.byte	0x0
ARM GAS  /cygdrive/c/DOCUME~1/mkwapisz/LOCALS~1/Temp/cc1OEM1Z.s 			page 345


 18667 2deb 22       		.uleb128 0x22
 18668 2dec 192E0000 		.4byte	0x2e19
 18669 2df0 14250000 		.4byte	.LBB491
 18670 2df4 28250000 		.4byte	.LBE491
 18671 2df8 17       		.uleb128 0x17
 18672 2df9 50020000 		.4byte	.LASF140
 18673 2dfd 01       		.byte	0x1
 18674 2dfe A902     		.2byte	0x2a9
 18675 2e00 37000000 		.4byte	0x37
 18676 2e04 953E0000 		.4byte	.LLST433
 18677 2e08 17       		.uleb128 0x17
 18678 2e09 8B010000 		.4byte	.LASF141
 18679 2e0d 01       		.byte	0x1
 18680 2e0e A902     		.2byte	0x2a9
 18681 2e10 42000000 		.4byte	0x42
 18682 2e14 B33E0000 		.4byte	.LLST434
 18683 2e18 00       		.byte	0x0
 18684 2e19 22       		.uleb128 0x22
 18685 2e1a 472E0000 		.4byte	0x2e47
 18686 2e1e 28250000 		.4byte	.LBB492
 18687 2e22 3C250000 		.4byte	.LBE492
 18688 2e26 17       		.uleb128 0x17
 18689 2e27 50020000 		.4byte	.LASF140
 18690 2e2b 01       		.byte	0x1
 18691 2e2c AA02     		.2byte	0x2aa
 18692 2e2e 37000000 		.4byte	0x37
 18693 2e32 C63E0000 		.4byte	.LLST435
 18694 2e36 17       		.uleb128 0x17
 18695 2e37 8B010000 		.4byte	.LASF141
 18696 2e3b 01       		.byte	0x1
 18697 2e3c AA02     		.2byte	0x2aa
 18698 2e3e 42000000 		.4byte	0x42
 18699 2e42 E43E0000 		.4byte	.LLST436
 18700 2e46 00       		.byte	0x0
 18701 2e47 22       		.uleb128 0x22
 18702 2e48 752E0000 		.4byte	0x2e75
 18703 2e4c 3C250000 		.4byte	.LBB493
 18704 2e50 50250000 		.4byte	.LBE493
 18705 2e54 17       		.uleb128 0x17
 18706 2e55 50020000 		.4byte	.LASF140
 18707 2e59 01       		.byte	0x1
 18708 2e5a AB02     		.2byte	0x2ab
 18709 2e5c 37000000 		.4byte	0x37
 18710 2e60 0D3F0000 		.4byte	.LLST437
 18711 2e64 17       		.uleb128 0x17
 18712 2e65 8B010000 		.4byte	.LASF141
 18713 2e69 01       		.byte	0x1
 18714 2e6a AB02     		.2byte	0x2ab
 18715 2e6c 42000000 		.4byte	0x42
 18716 2e70 2B3F0000 		.4byte	.LLST438
 18717 2e74 00       		.byte	0x0
 18718 2e75 22       		.uleb128 0x22
 18719 2e76 A32E0000 		.4byte	0x2ea3
 18720 2e7a 50250000 		.4byte	.LBB494
 18721 2e7e 64250000 		.4byte	.LBE494
 18722 2e82 17       		.uleb128 0x17
 18723 2e83 50020000 		.4byte	.LASF140
ARM GAS  /cygdrive/c/DOCUME~1/mkwapisz/LOCALS~1/Temp/cc1OEM1Z.s 			page 346


 18724 2e87 01       		.byte	0x1
 18725 2e88 AC02     		.2byte	0x2ac
 18726 2e8a 37000000 		.4byte	0x37
 18727 2e8e 493F0000 		.4byte	.LLST439
 18728 2e92 17       		.uleb128 0x17
 18729 2e93 8B010000 		.4byte	.LASF141
 18730 2e97 01       		.byte	0x1
 18731 2e98 AC02     		.2byte	0x2ac
 18732 2e9a 42000000 		.4byte	0x42
 18733 2e9e 5C3F0000 		.4byte	.LLST440
 18734 2ea2 00       		.byte	0x0
 18735 2ea3 22       		.uleb128 0x22
 18736 2ea4 D12E0000 		.4byte	0x2ed1
 18737 2ea8 64250000 		.4byte	.LBB495
 18738 2eac 78250000 		.4byte	.LBE495
 18739 2eb0 17       		.uleb128 0x17
 18740 2eb1 50020000 		.4byte	.LASF140
 18741 2eb5 01       		.byte	0x1
 18742 2eb6 AD02     		.2byte	0x2ad
 18743 2eb8 37000000 		.4byte	0x37
 18744 2ebc 7A3F0000 		.4byte	.LLST441
 18745 2ec0 17       		.uleb128 0x17
 18746 2ec1 8B010000 		.4byte	.LASF141
 18747 2ec5 01       		.byte	0x1
 18748 2ec6 AD02     		.2byte	0x2ad
 18749 2ec8 42000000 		.4byte	0x42
 18750 2ecc 983F0000 		.4byte	.LLST442
 18751 2ed0 00       		.byte	0x0
 18752 2ed1 22       		.uleb128 0x22
 18753 2ed2 FF2E0000 		.4byte	0x2eff
 18754 2ed6 78250000 		.4byte	.LBB496
 18755 2eda 8C250000 		.4byte	.LBE496
 18756 2ede 17       		.uleb128 0x17
 18757 2edf 50020000 		.4byte	.LASF140
 18758 2ee3 01       		.byte	0x1
 18759 2ee4 AE02     		.2byte	0x2ae
 18760 2ee6 37000000 		.4byte	0x37
 18761 2eea B63F0000 		.4byte	.LLST443
 18762 2eee 17       		.uleb128 0x17
 18763 2eef 8B010000 		.4byte	.LASF141
 18764 2ef3 01       		.byte	0x1
 18765 2ef4 AE02     		.2byte	0x2ae
 18766 2ef6 42000000 		.4byte	0x42
 18767 2efa C93F0000 		.4byte	.LLST444
 18768 2efe 00       		.byte	0x0
 18769 2eff 22       		.uleb128 0x22
 18770 2f00 2D2F0000 		.4byte	0x2f2d
 18771 2f04 8C250000 		.4byte	.LBB497
 18772 2f08 A4250000 		.4byte	.LBE497
 18773 2f0c 17       		.uleb128 0x17
 18774 2f0d 50020000 		.4byte	.LASF140
 18775 2f11 01       		.byte	0x1
 18776 2f12 AF02     		.2byte	0x2af
 18777 2f14 37000000 		.4byte	0x37
 18778 2f18 E73F0000 		.4byte	.LLST445
 18779 2f1c 17       		.uleb128 0x17
 18780 2f1d 8B010000 		.4byte	.LASF141
ARM GAS  /cygdrive/c/DOCUME~1/mkwapisz/LOCALS~1/Temp/cc1OEM1Z.s 			page 347


 18781 2f21 01       		.byte	0x1
 18782 2f22 AF02     		.2byte	0x2af
 18783 2f24 42000000 		.4byte	0x42
 18784 2f28 10400000 		.4byte	.LLST446
 18785 2f2c 00       		.byte	0x0
 18786 2f2d 22       		.uleb128 0x22
 18787 2f2e 5B2F0000 		.4byte	0x2f5b
 18788 2f32 C8250000 		.4byte	.LBB498
 18789 2f36 DC250000 		.4byte	.LBE498
 18790 2f3a 17       		.uleb128 0x17
 18791 2f3b 50020000 		.4byte	.LASF140
 18792 2f3f 01       		.byte	0x1
 18793 2f40 B602     		.2byte	0x2b6
 18794 2f42 37000000 		.4byte	0x37
 18795 2f46 2E400000 		.4byte	.LLST447
 18796 2f4a 17       		.uleb128 0x17
 18797 2f4b 8B010000 		.4byte	.LASF141
 18798 2f4f 01       		.byte	0x1
 18799 2f50 B602     		.2byte	0x2b6
 18800 2f52 42000000 		.4byte	0x42
 18801 2f56 41400000 		.4byte	.LLST448
 18802 2f5a 00       		.byte	0x0
 18803 2f5b 22       		.uleb128 0x22
 18804 2f5c 892F0000 		.4byte	0x2f89
 18805 2f60 DC250000 		.4byte	.LBB499
 18806 2f64 F0250000 		.4byte	.LBE499
 18807 2f68 17       		.uleb128 0x17
 18808 2f69 50020000 		.4byte	.LASF140
 18809 2f6d 01       		.byte	0x1
 18810 2f6e B702     		.2byte	0x2b7
 18811 2f70 37000000 		.4byte	0x37
 18812 2f74 5F400000 		.4byte	.LLST449
 18813 2f78 17       		.uleb128 0x17
 18814 2f79 8B010000 		.4byte	.LASF141
 18815 2f7d 01       		.byte	0x1
 18816 2f7e B702     		.2byte	0x2b7
 18817 2f80 42000000 		.4byte	0x42
 18818 2f84 7D400000 		.4byte	.LLST450
 18819 2f88 00       		.byte	0x0
 18820 2f89 22       		.uleb128 0x22
 18821 2f8a B72F0000 		.4byte	0x2fb7
 18822 2f8e F0250000 		.4byte	.LBB500
 18823 2f92 04260000 		.4byte	.LBE500
 18824 2f96 17       		.uleb128 0x17
 18825 2f97 50020000 		.4byte	.LASF140
 18826 2f9b 01       		.byte	0x1
 18827 2f9c B802     		.2byte	0x2b8
 18828 2f9e 37000000 		.4byte	0x37
 18829 2fa2 9B400000 		.4byte	.LLST451
 18830 2fa6 17       		.uleb128 0x17
 18831 2fa7 8B010000 		.4byte	.LASF141
 18832 2fab 01       		.byte	0x1
 18833 2fac B802     		.2byte	0x2b8
 18834 2fae 42000000 		.4byte	0x42
 18835 2fb2 AE400000 		.4byte	.LLST452
 18836 2fb6 00       		.byte	0x0
 18837 2fb7 22       		.uleb128 0x22
ARM GAS  /cygdrive/c/DOCUME~1/mkwapisz/LOCALS~1/Temp/cc1OEM1Z.s 			page 348


 18838 2fb8 E52F0000 		.4byte	0x2fe5
 18839 2fbc 04260000 		.4byte	.LBB501
 18840 2fc0 18260000 		.4byte	.LBE501
 18841 2fc4 17       		.uleb128 0x17
 18842 2fc5 50020000 		.4byte	.LASF140
 18843 2fc9 01       		.byte	0x1
 18844 2fca B902     		.2byte	0x2b9
 18845 2fcc 37000000 		.4byte	0x37
 18846 2fd0 CC400000 		.4byte	.LLST453
 18847 2fd4 17       		.uleb128 0x17
 18848 2fd5 8B010000 		.4byte	.LASF141
 18849 2fd9 01       		.byte	0x1
 18850 2fda B902     		.2byte	0x2b9
 18851 2fdc 42000000 		.4byte	0x42
 18852 2fe0 DF400000 		.4byte	.LLST454
 18853 2fe4 00       		.byte	0x0
 18854 2fe5 22       		.uleb128 0x22
 18855 2fe6 13300000 		.4byte	0x3013
 18856 2fea 18260000 		.4byte	.LBB502
 18857 2fee 2C260000 		.4byte	.LBE502
 18858 2ff2 17       		.uleb128 0x17
 18859 2ff3 50020000 		.4byte	.LASF140
 18860 2ff7 01       		.byte	0x1
 18861 2ff8 BA02     		.2byte	0x2ba
 18862 2ffa 37000000 		.4byte	0x37
 18863 2ffe FD400000 		.4byte	.LLST455
 18864 3002 17       		.uleb128 0x17
 18865 3003 8B010000 		.4byte	.LASF141
 18866 3007 01       		.byte	0x1
 18867 3008 BA02     		.2byte	0x2ba
 18868 300a 42000000 		.4byte	0x42
 18869 300e 10410000 		.4byte	.LLST456
 18870 3012 00       		.byte	0x0
 18871 3013 22       		.uleb128 0x22
 18872 3014 41300000 		.4byte	0x3041
 18873 3018 2C260000 		.4byte	.LBB503
 18874 301c 40260000 		.4byte	.LBE503
 18875 3020 17       		.uleb128 0x17
 18876 3021 50020000 		.4byte	.LASF140
 18877 3025 01       		.byte	0x1
 18878 3026 BB02     		.2byte	0x2bb
 18879 3028 37000000 		.4byte	0x37
 18880 302c 23410000 		.4byte	.LLST457
 18881 3030 17       		.uleb128 0x17
 18882 3031 8B010000 		.4byte	.LASF141
 18883 3035 01       		.byte	0x1
 18884 3036 BB02     		.2byte	0x2bb
 18885 3038 42000000 		.4byte	0x42
 18886 303c 41410000 		.4byte	.LLST458
 18887 3040 00       		.byte	0x0
 18888 3041 22       		.uleb128 0x22
 18889 3042 6F300000 		.4byte	0x306f
 18890 3046 40260000 		.4byte	.LBB504
 18891 304a 54260000 		.4byte	.LBE504
 18892 304e 17       		.uleb128 0x17
 18893 304f 50020000 		.4byte	.LASF140
 18894 3053 01       		.byte	0x1
ARM GAS  /cygdrive/c/DOCUME~1/mkwapisz/LOCALS~1/Temp/cc1OEM1Z.s 			page 349


 18895 3054 BC02     		.2byte	0x2bc
 18896 3056 37000000 		.4byte	0x37
 18897 305a 6A410000 		.4byte	.LLST459
 18898 305e 17       		.uleb128 0x17
 18899 305f 8B010000 		.4byte	.LASF141
 18900 3063 01       		.byte	0x1
 18901 3064 BC02     		.2byte	0x2bc
 18902 3066 42000000 		.4byte	0x42
 18903 306a 7D410000 		.4byte	.LLST460
 18904 306e 00       		.byte	0x0
 18905 306f 20       		.uleb128 0x20
 18906 3070 99300000 		.4byte	0x3099
 18907 3074 40110000 		.4byte	.Ldebug_ranges0+0x1140
 18908 3078 17       		.uleb128 0x17
 18909 3079 50020000 		.4byte	.LASF140
 18910 307d 01       		.byte	0x1
 18911 307e BD02     		.2byte	0x2bd
 18912 3080 37000000 		.4byte	0x37
 18913 3084 9B410000 		.4byte	.LLST461
 18914 3088 17       		.uleb128 0x17
 18915 3089 8B010000 		.4byte	.LASF141
 18916 308d 01       		.byte	0x1
 18917 308e BD02     		.2byte	0x2bd
 18918 3090 42000000 		.4byte	0x42
 18919 3094 B9410000 		.4byte	.LLST462
 18920 3098 00       		.byte	0x0
 18921 3099 22       		.uleb128 0x22
 18922 309a C7300000 		.4byte	0x30c7
 18923 309e 70260000 		.4byte	.LBB507
 18924 30a2 84260000 		.4byte	.LBE507
 18925 30a6 17       		.uleb128 0x17
 18926 30a7 50020000 		.4byte	.LASF140
 18927 30ab 01       		.byte	0x1
 18928 30ac C002     		.2byte	0x2c0
 18929 30ae 37000000 		.4byte	0x37
 18930 30b2 D7410000 		.4byte	.LLST463
 18931 30b6 17       		.uleb128 0x17
 18932 30b7 8B010000 		.4byte	.LASF141
 18933 30bb 01       		.byte	0x1
 18934 30bc C002     		.2byte	0x2c0
 18935 30be 42000000 		.4byte	0x42
 18936 30c2 EA410000 		.4byte	.LLST464
 18937 30c6 00       		.byte	0x0
 18938 30c7 22       		.uleb128 0x22
 18939 30c8 F5300000 		.4byte	0x30f5
 18940 30cc 84260000 		.4byte	.LBB508
 18941 30d0 98260000 		.4byte	.LBE508
 18942 30d4 17       		.uleb128 0x17
 18943 30d5 50020000 		.4byte	.LASF140
 18944 30d9 01       		.byte	0x1
 18945 30da C102     		.2byte	0x2c1
 18946 30dc 37000000 		.4byte	0x37
 18947 30e0 08420000 		.4byte	.LLST465
 18948 30e4 17       		.uleb128 0x17
 18949 30e5 8B010000 		.4byte	.LASF141
 18950 30e9 01       		.byte	0x1
 18951 30ea C102     		.2byte	0x2c1
ARM GAS  /cygdrive/c/DOCUME~1/mkwapisz/LOCALS~1/Temp/cc1OEM1Z.s 			page 350


 18952 30ec 42000000 		.4byte	0x42
 18953 30f0 26420000 		.4byte	.LLST466
 18954 30f4 00       		.byte	0x0
 18955 30f5 22       		.uleb128 0x22
 18956 30f6 23310000 		.4byte	0x3123
 18957 30fa 98260000 		.4byte	.LBB509
 18958 30fe AC260000 		.4byte	.LBE509
 18959 3102 17       		.uleb128 0x17
 18960 3103 50020000 		.4byte	.LASF140
 18961 3107 01       		.byte	0x1
 18962 3108 C202     		.2byte	0x2c2
 18963 310a 37000000 		.4byte	0x37
 18964 310e 44420000 		.4byte	.LLST467
 18965 3112 17       		.uleb128 0x17
 18966 3113 8B010000 		.4byte	.LASF141
 18967 3117 01       		.byte	0x1
 18968 3118 C202     		.2byte	0x2c2
 18969 311a 42000000 		.4byte	0x42
 18970 311e 62420000 		.4byte	.LLST468
 18971 3122 00       		.byte	0x0
 18972 3123 22       		.uleb128 0x22
 18973 3124 51310000 		.4byte	0x3151
 18974 3128 AC260000 		.4byte	.LBB510
 18975 312c C0260000 		.4byte	.LBE510
 18976 3130 17       		.uleb128 0x17
 18977 3131 50020000 		.4byte	.LASF140
 18978 3135 01       		.byte	0x1
 18979 3136 C302     		.2byte	0x2c3
 18980 3138 37000000 		.4byte	0x37
 18981 313c 8B420000 		.4byte	.LLST469
 18982 3140 17       		.uleb128 0x17
 18983 3141 8B010000 		.4byte	.LASF141
 18984 3145 01       		.byte	0x1
 18985 3146 C302     		.2byte	0x2c3
 18986 3148 42000000 		.4byte	0x42
 18987 314c A9420000 		.4byte	.LLST470
 18988 3150 00       		.byte	0x0
 18989 3151 22       		.uleb128 0x22
 18990 3152 7F310000 		.4byte	0x317f
 18991 3156 C0260000 		.4byte	.LBB511
 18992 315a D4260000 		.4byte	.LBE511
 18993 315e 17       		.uleb128 0x17
 18994 315f 50020000 		.4byte	.LASF140
 18995 3163 01       		.byte	0x1
 18996 3164 C402     		.2byte	0x2c4
 18997 3166 37000000 		.4byte	0x37
 18998 316a C7420000 		.4byte	.LLST471
 18999 316e 17       		.uleb128 0x17
 19000 316f 8B010000 		.4byte	.LASF141
 19001 3173 01       		.byte	0x1
 19002 3174 C402     		.2byte	0x2c4
 19003 3176 42000000 		.4byte	0x42
 19004 317a E5420000 		.4byte	.LLST472
 19005 317e 00       		.byte	0x0
 19006 317f 22       		.uleb128 0x22
 19007 3180 AD310000 		.4byte	0x31ad
 19008 3184 D4260000 		.4byte	.LBB512
ARM GAS  /cygdrive/c/DOCUME~1/mkwapisz/LOCALS~1/Temp/cc1OEM1Z.s 			page 351


 19009 3188 E8260000 		.4byte	.LBE512
 19010 318c 17       		.uleb128 0x17
 19011 318d 50020000 		.4byte	.LASF140
 19012 3191 01       		.byte	0x1
 19013 3192 C502     		.2byte	0x2c5
 19014 3194 37000000 		.4byte	0x37
 19015 3198 03430000 		.4byte	.LLST473
 19016 319c 17       		.uleb128 0x17
 19017 319d 8B010000 		.4byte	.LASF141
 19018 31a1 01       		.byte	0x1
 19019 31a2 C502     		.2byte	0x2c5
 19020 31a4 42000000 		.4byte	0x42
 19021 31a8 16430000 		.4byte	.LLST474
 19022 31ac 00       		.byte	0x0
 19023 31ad 22       		.uleb128 0x22
 19024 31ae DB310000 		.4byte	0x31db
 19025 31b2 E8260000 		.4byte	.LBB513
 19026 31b6 FC260000 		.4byte	.LBE513
 19027 31ba 17       		.uleb128 0x17
 19028 31bb 50020000 		.4byte	.LASF140
 19029 31bf 01       		.byte	0x1
 19030 31c0 C602     		.2byte	0x2c6
 19031 31c2 37000000 		.4byte	0x37
 19032 31c6 34430000 		.4byte	.LLST475
 19033 31ca 17       		.uleb128 0x17
 19034 31cb 8B010000 		.4byte	.LASF141
 19035 31cf 01       		.byte	0x1
 19036 31d0 C602     		.2byte	0x2c6
 19037 31d2 42000000 		.4byte	0x42
 19038 31d6 52430000 		.4byte	.LLST476
 19039 31da 00       		.byte	0x0
 19040 31db 22       		.uleb128 0x22
 19041 31dc 09320000 		.4byte	0x3209
 19042 31e0 FC260000 		.4byte	.LBB514
 19043 31e4 10270000 		.4byte	.LBE514
 19044 31e8 17       		.uleb128 0x17
 19045 31e9 50020000 		.4byte	.LASF140
 19046 31ed 01       		.byte	0x1
 19047 31ee C702     		.2byte	0x2c7
 19048 31f0 37000000 		.4byte	0x37
 19049 31f4 7B430000 		.4byte	.LLST477
 19050 31f8 17       		.uleb128 0x17
 19051 31f9 8B010000 		.4byte	.LASF141
 19052 31fd 01       		.byte	0x1
 19053 31fe C702     		.2byte	0x2c7
 19054 3200 42000000 		.4byte	0x42
 19055 3204 99430000 		.4byte	.LLST478
 19056 3208 00       		.byte	0x0
 19057 3209 20       		.uleb128 0x20
 19058 320a 33320000 		.4byte	0x3233
 19059 320e 58110000 		.4byte	.Ldebug_ranges0+0x1158
 19060 3212 17       		.uleb128 0x17
 19061 3213 50020000 		.4byte	.LASF140
 19062 3217 01       		.byte	0x1
 19063 3218 D302     		.2byte	0x2d3
 19064 321a 37000000 		.4byte	0x37
 19065 321e B7430000 		.4byte	.LLST479
ARM GAS  /cygdrive/c/DOCUME~1/mkwapisz/LOCALS~1/Temp/cc1OEM1Z.s 			page 352


 19066 3222 17       		.uleb128 0x17
 19067 3223 8B010000 		.4byte	.LASF141
 19068 3227 01       		.byte	0x1
 19069 3228 D302     		.2byte	0x2d3
 19070 322a 42000000 		.4byte	0x42
 19071 322e D5430000 		.4byte	.LLST480
 19072 3232 00       		.byte	0x0
 19073 3233 22       		.uleb128 0x22
 19074 3234 61320000 		.4byte	0x3261
 19075 3238 68270000 		.4byte	.LBB519
 19076 323c 7C270000 		.4byte	.LBE519
 19077 3240 17       		.uleb128 0x17
 19078 3241 50020000 		.4byte	.LASF140
 19079 3245 01       		.byte	0x1
 19080 3246 D402     		.2byte	0x2d4
 19081 3248 37000000 		.4byte	0x37
 19082 324c F3430000 		.4byte	.LLST481
 19083 3250 17       		.uleb128 0x17
 19084 3251 8B010000 		.4byte	.LASF141
 19085 3255 01       		.byte	0x1
 19086 3256 D402     		.2byte	0x2d4
 19087 3258 42000000 		.4byte	0x42
 19088 325c 11440000 		.4byte	.LLST482
 19089 3260 00       		.byte	0x0
 19090 3261 22       		.uleb128 0x22
 19091 3262 8F320000 		.4byte	0x328f
 19092 3266 7C270000 		.4byte	.LBB520
 19093 326a 90270000 		.4byte	.LBE520
 19094 326e 17       		.uleb128 0x17
 19095 326f 50020000 		.4byte	.LASF140
 19096 3273 01       		.byte	0x1
 19097 3274 D502     		.2byte	0x2d5
 19098 3276 37000000 		.4byte	0x37
 19099 327a 2F440000 		.4byte	.LLST483
 19100 327e 17       		.uleb128 0x17
 19101 327f 8B010000 		.4byte	.LASF141
 19102 3283 01       		.byte	0x1
 19103 3284 D502     		.2byte	0x2d5
 19104 3286 42000000 		.4byte	0x42
 19105 328a 42440000 		.4byte	.LLST484
 19106 328e 00       		.byte	0x0
 19107 328f 22       		.uleb128 0x22
 19108 3290 BD320000 		.4byte	0x32bd
 19109 3294 90270000 		.4byte	.LBB521
 19110 3298 A4270000 		.4byte	.LBE521
 19111 329c 17       		.uleb128 0x17
 19112 329d 50020000 		.4byte	.LASF140
 19113 32a1 01       		.byte	0x1
 19114 32a2 D602     		.2byte	0x2d6
 19115 32a4 37000000 		.4byte	0x37
 19116 32a8 60440000 		.4byte	.LLST485
 19117 32ac 17       		.uleb128 0x17
 19118 32ad 8B010000 		.4byte	.LASF141
 19119 32b1 01       		.byte	0x1
 19120 32b2 D602     		.2byte	0x2d6
 19121 32b4 42000000 		.4byte	0x42
 19122 32b8 73440000 		.4byte	.LLST486
ARM GAS  /cygdrive/c/DOCUME~1/mkwapisz/LOCALS~1/Temp/cc1OEM1Z.s 			page 353


 19123 32bc 00       		.byte	0x0
 19124 32bd 22       		.uleb128 0x22
 19125 32be EB320000 		.4byte	0x32eb
 19126 32c2 A4270000 		.4byte	.LBB522
 19127 32c6 B8270000 		.4byte	.LBE522
 19128 32ca 17       		.uleb128 0x17
 19129 32cb 50020000 		.4byte	.LASF140
 19130 32cf 01       		.byte	0x1
 19131 32d0 D702     		.2byte	0x2d7
 19132 32d2 37000000 		.4byte	0x37
 19133 32d6 91440000 		.4byte	.LLST487
 19134 32da 17       		.uleb128 0x17
 19135 32db 8B010000 		.4byte	.LASF141
 19136 32df 01       		.byte	0x1
 19137 32e0 D702     		.2byte	0x2d7
 19138 32e2 42000000 		.4byte	0x42
 19139 32e6 A4440000 		.4byte	.LLST488
 19140 32ea 00       		.byte	0x0
 19141 32eb 22       		.uleb128 0x22
 19142 32ec 19330000 		.4byte	0x3319
 19143 32f0 B8270000 		.4byte	.LBB523
 19144 32f4 CC270000 		.4byte	.LBE523
 19145 32f8 17       		.uleb128 0x17
 19146 32f9 50020000 		.4byte	.LASF140
 19147 32fd 01       		.byte	0x1
 19148 32fe D802     		.2byte	0x2d8
 19149 3300 37000000 		.4byte	0x37
 19150 3304 C2440000 		.4byte	.LLST489
 19151 3308 17       		.uleb128 0x17
 19152 3309 8B010000 		.4byte	.LASF141
 19153 330d 01       		.byte	0x1
 19154 330e D802     		.2byte	0x2d8
 19155 3310 42000000 		.4byte	0x42
 19156 3314 D5440000 		.4byte	.LLST490
 19157 3318 00       		.byte	0x0
 19158 3319 22       		.uleb128 0x22
 19159 331a 47330000 		.4byte	0x3347
 19160 331e CC270000 		.4byte	.LBB524
 19161 3322 E0270000 		.4byte	.LBE524
 19162 3326 17       		.uleb128 0x17
 19163 3327 50020000 		.4byte	.LASF140
 19164 332b 01       		.byte	0x1
 19165 332c D902     		.2byte	0x2d9
 19166 332e 37000000 		.4byte	0x37
 19167 3332 F3440000 		.4byte	.LLST491
 19168 3336 17       		.uleb128 0x17
 19169 3337 8B010000 		.4byte	.LASF141
 19170 333b 01       		.byte	0x1
 19171 333c D902     		.2byte	0x2d9
 19172 333e 42000000 		.4byte	0x42
 19173 3342 11450000 		.4byte	.LLST492
 19174 3346 00       		.byte	0x0
 19175 3347 23       		.uleb128 0x23
 19176 3348 E0270000 		.4byte	.LBB525
 19177 334c F4270000 		.4byte	.LBE525
 19178 3350 17       		.uleb128 0x17
 19179 3351 50020000 		.4byte	.LASF140
ARM GAS  /cygdrive/c/DOCUME~1/mkwapisz/LOCALS~1/Temp/cc1OEM1Z.s 			page 354


 19180 3355 01       		.byte	0x1
 19181 3356 DA02     		.2byte	0x2da
 19182 3358 37000000 		.4byte	0x37
 19183 335c 2F450000 		.4byte	.LLST493
 19184 3360 17       		.uleb128 0x17
 19185 3361 8B010000 		.4byte	.LASF141
 19186 3365 01       		.byte	0x1
 19187 3366 DA02     		.2byte	0x2da
 19188 3368 42000000 		.4byte	0x42
 19189 336c 42450000 		.4byte	.LLST494
 19190 3370 00       		.byte	0x0
 19191 3371 00       		.byte	0x0
 19192 3372 0B       		.uleb128 0xb
 19193 3373 88330000 		.4byte	0x3388
 19194 3377 4A020000 		.4byte	0x24a
 19195 337b 0C       		.uleb128 0xc
 19196 337c 92000000 		.4byte	0x92
 19197 3380 01       		.byte	0x1
 19198 3381 0C       		.uleb128 0xc
 19199 3382 92000000 		.4byte	0x92
 19200 3386 1F       		.byte	0x1f
 19201 3387 00       		.byte	0x0
 19202 3388 0B       		.uleb128 0xb
 19203 3389 9E330000 		.4byte	0x339e
 19204 338d 25000000 		.4byte	0x25
 19205 3391 0C       		.uleb128 0xc
 19206 3392 92000000 		.4byte	0x92
 19207 3396 10       		.byte	0x10
 19208 3397 0C       		.uleb128 0xc
 19209 3398 92000000 		.4byte	0x92
 19210 339c 1F       		.byte	0x1f
 19211 339d 00       		.byte	0x0
 19212 339e 16       		.uleb128 0x16
 19213 339f 4400     		.ascii	"D\000"
 19214 33a1 01       		.byte	0x1
 19215 33a2 4102     		.2byte	0x241
 19216 33a4 AE330000 		.4byte	0x33ae
 19217 33a8 05       		.byte	0x5
 19218 33a9 03       		.byte	0x3
 19219 33aa 00000000 		.4byte	D
 19220 33ae 18       		.uleb128 0x18
 19221 33af 88330000 		.4byte	0x3388
 19222 33b3 00       		.byte	0x0
 19223              		.section	.debug_abbrev
 19224 0000 01       		.uleb128 0x1
 19225 0001 11       		.uleb128 0x11
 19226 0002 01       		.byte	0x1
 19227 0003 10       		.uleb128 0x10
 19228 0004 06       		.uleb128 0x6
 19229 0005 12       		.uleb128 0x12
 19230 0006 01       		.uleb128 0x1
 19231 0007 11       		.uleb128 0x11
 19232 0008 01       		.uleb128 0x1
 19233 0009 25       		.uleb128 0x25
 19234 000a 0E       		.uleb128 0xe
 19235 000b 13       		.uleb128 0x13
 19236 000c 0B       		.uleb128 0xb
ARM GAS  /cygdrive/c/DOCUME~1/mkwapisz/LOCALS~1/Temp/cc1OEM1Z.s 			page 355


 19237 000d 03       		.uleb128 0x3
 19238 000e 0E       		.uleb128 0xe
 19239 000f 1B       		.uleb128 0x1b
 19240 0010 0E       		.uleb128 0xe
 19241 0011 00       		.byte	0x0
 19242 0012 00       		.byte	0x0
 19243 0013 02       		.uleb128 0x2
 19244 0014 16       		.uleb128 0x16
 19245 0015 00       		.byte	0x0
 19246 0016 03       		.uleb128 0x3
 19247 0017 0E       		.uleb128 0xe
 19248 0018 3A       		.uleb128 0x3a
 19249 0019 0B       		.uleb128 0xb
 19250 001a 3B       		.uleb128 0x3b
 19251 001b 0B       		.uleb128 0xb
 19252 001c 49       		.uleb128 0x49
 19253 001d 13       		.uleb128 0x13
 19254 001e 00       		.byte	0x0
 19255 001f 00       		.byte	0x0
 19256 0020 03       		.uleb128 0x3
 19257 0021 24       		.uleb128 0x24
 19258 0022 00       		.byte	0x0
 19259 0023 03       		.uleb128 0x3
 19260 0024 0E       		.uleb128 0xe
 19261 0025 0B       		.uleb128 0xb
 19262 0026 0B       		.uleb128 0xb
 19263 0027 3E       		.uleb128 0x3e
 19264 0028 0B       		.uleb128 0xb
 19265 0029 00       		.byte	0x0
 19266 002a 00       		.byte	0x0
 19267 002b 04       		.uleb128 0x4
 19268 002c 13       		.uleb128 0x13
 19269 002d 01       		.byte	0x1
 19270 002e 01       		.uleb128 0x1
 19271 002f 13       		.uleb128 0x13
 19272 0030 0B       		.uleb128 0xb
 19273 0031 0B       		.uleb128 0xb
 19274 0032 3A       		.uleb128 0x3a
 19275 0033 0B       		.uleb128 0xb
 19276 0034 3B       		.uleb128 0x3b
 19277 0035 0B       		.uleb128 0xb
 19278 0036 00       		.byte	0x0
 19279 0037 00       		.byte	0x0
 19280 0038 05       		.uleb128 0x5
 19281 0039 0D       		.uleb128 0xd
 19282 003a 00       		.byte	0x0
 19283 003b 03       		.uleb128 0x3
 19284 003c 0E       		.uleb128 0xe
 19285 003d 3A       		.uleb128 0x3a
 19286 003e 0B       		.uleb128 0xb
 19287 003f 3B       		.uleb128 0x3b
 19288 0040 0B       		.uleb128 0xb
 19289 0041 49       		.uleb128 0x49
 19290 0042 13       		.uleb128 0x13
 19291 0043 38       		.uleb128 0x38
 19292 0044 0A       		.uleb128 0xa
 19293 0045 00       		.byte	0x0
ARM GAS  /cygdrive/c/DOCUME~1/mkwapisz/LOCALS~1/Temp/cc1OEM1Z.s 			page 356


 19294 0046 00       		.byte	0x0
 19295 0047 06       		.uleb128 0x6
 19296 0048 24       		.uleb128 0x24
 19297 0049 00       		.byte	0x0
 19298 004a 03       		.uleb128 0x3
 19299 004b 08       		.uleb128 0x8
 19300 004c 0B       		.uleb128 0xb
 19301 004d 0B       		.uleb128 0xb
 19302 004e 3E       		.uleb128 0x3e
 19303 004f 0B       		.uleb128 0xb
 19304 0050 00       		.byte	0x0
 19305 0051 00       		.byte	0x0
 19306 0052 07       		.uleb128 0x7
 19307 0053 04       		.uleb128 0x4
 19308 0054 01       		.byte	0x1
 19309 0055 01       		.uleb128 0x1
 19310 0056 13       		.uleb128 0x13
 19311 0057 03       		.uleb128 0x3
 19312 0058 0E       		.uleb128 0xe
 19313 0059 0B       		.uleb128 0xb
 19314 005a 0B       		.uleb128 0xb
 19315 005b 3A       		.uleb128 0x3a
 19316 005c 0B       		.uleb128 0xb
 19317 005d 3B       		.uleb128 0x3b
 19318 005e 0B       		.uleb128 0xb
 19319 005f 00       		.byte	0x0
 19320 0060 00       		.byte	0x0
 19321 0061 08       		.uleb128 0x8
 19322 0062 28       		.uleb128 0x28
 19323 0063 00       		.byte	0x0
 19324 0064 03       		.uleb128 0x3
 19325 0065 0E       		.uleb128 0xe
 19326 0066 1C       		.uleb128 0x1c
 19327 0067 0D       		.uleb128 0xd
 19328 0068 00       		.byte	0x0
 19329 0069 00       		.byte	0x0
 19330 006a 09       		.uleb128 0x9
 19331 006b 13       		.uleb128 0x13
 19332 006c 01       		.byte	0x1
 19333 006d 01       		.uleb128 0x1
 19334 006e 13       		.uleb128 0x13
 19335 006f 03       		.uleb128 0x3
 19336 0070 0E       		.uleb128 0xe
 19337 0071 0B       		.uleb128 0xb
 19338 0072 0B       		.uleb128 0xb
 19339 0073 3A       		.uleb128 0x3a
 19340 0074 0B       		.uleb128 0xb
 19341 0075 3B       		.uleb128 0x3b
 19342 0076 0B       		.uleb128 0xb
 19343 0077 00       		.byte	0x0
 19344 0078 00       		.byte	0x0
 19345 0079 0A       		.uleb128 0xa
 19346 007a 13       		.uleb128 0x13
 19347 007b 01       		.byte	0x1
 19348 007c 01       		.uleb128 0x1
 19349 007d 13       		.uleb128 0x13
 19350 007e 03       		.uleb128 0x3
ARM GAS  /cygdrive/c/DOCUME~1/mkwapisz/LOCALS~1/Temp/cc1OEM1Z.s 			page 357


 19351 007f 0E       		.uleb128 0xe
 19352 0080 0B       		.uleb128 0xb
 19353 0081 05       		.uleb128 0x5
 19354 0082 3A       		.uleb128 0x3a
 19355 0083 0B       		.uleb128 0xb
 19356 0084 3B       		.uleb128 0x3b
 19357 0085 0B       		.uleb128 0xb
 19358 0086 00       		.byte	0x0
 19359 0087 00       		.byte	0x0
 19360 0088 0B       		.uleb128 0xb
 19361 0089 01       		.uleb128 0x1
 19362 008a 01       		.byte	0x1
 19363 008b 01       		.uleb128 0x1
 19364 008c 13       		.uleb128 0x13
 19365 008d 49       		.uleb128 0x49
 19366 008e 13       		.uleb128 0x13
 19367 008f 00       		.byte	0x0
 19368 0090 00       		.byte	0x0
 19369 0091 0C       		.uleb128 0xc
 19370 0092 21       		.uleb128 0x21
 19371 0093 00       		.byte	0x0
 19372 0094 49       		.uleb128 0x49
 19373 0095 13       		.uleb128 0x13
 19374 0096 2F       		.uleb128 0x2f
 19375 0097 0B       		.uleb128 0xb
 19376 0098 00       		.byte	0x0
 19377 0099 00       		.byte	0x0
 19378 009a 0D       		.uleb128 0xd
 19379 009b 0F       		.uleb128 0xf
 19380 009c 00       		.byte	0x0
 19381 009d 0B       		.uleb128 0xb
 19382 009e 0B       		.uleb128 0xb
 19383 009f 49       		.uleb128 0x49
 19384 00a0 13       		.uleb128 0x13
 19385 00a1 00       		.byte	0x0
 19386 00a2 00       		.byte	0x0
 19387 00a3 0E       		.uleb128 0xe
 19388 00a4 0D       		.uleb128 0xd
 19389 00a5 00       		.byte	0x0
 19390 00a6 03       		.uleb128 0x3
 19391 00a7 08       		.uleb128 0x8
 19392 00a8 3A       		.uleb128 0x3a
 19393 00a9 0B       		.uleb128 0xb
 19394 00aa 3B       		.uleb128 0x3b
 19395 00ab 0B       		.uleb128 0xb
 19396 00ac 49       		.uleb128 0x49
 19397 00ad 13       		.uleb128 0x13
 19398 00ae 38       		.uleb128 0x38
 19399 00af 0A       		.uleb128 0xa
 19400 00b0 00       		.byte	0x0
 19401 00b1 00       		.byte	0x0
 19402 00b2 0F       		.uleb128 0xf
 19403 00b3 2E       		.uleb128 0x2e
 19404 00b4 01       		.byte	0x1
 19405 00b5 01       		.uleb128 0x1
 19406 00b6 13       		.uleb128 0x13
 19407 00b7 03       		.uleb128 0x3
ARM GAS  /cygdrive/c/DOCUME~1/mkwapisz/LOCALS~1/Temp/cc1OEM1Z.s 			page 358


 19408 00b8 0E       		.uleb128 0xe
 19409 00b9 3A       		.uleb128 0x3a
 19410 00ba 0B       		.uleb128 0xb
 19411 00bb 3B       		.uleb128 0x3b
 19412 00bc 0B       		.uleb128 0xb
 19413 00bd 27       		.uleb128 0x27
 19414 00be 0C       		.uleb128 0xc
 19415 00bf 49       		.uleb128 0x49
 19416 00c0 13       		.uleb128 0x13
 19417 00c1 11       		.uleb128 0x11
 19418 00c2 01       		.uleb128 0x1
 19419 00c3 12       		.uleb128 0x12
 19420 00c4 01       		.uleb128 0x1
 19421 00c5 40       		.uleb128 0x40
 19422 00c6 0A       		.uleb128 0xa
 19423 00c7 00       		.byte	0x0
 19424 00c8 00       		.byte	0x0
 19425 00c9 10       		.uleb128 0x10
 19426 00ca 05       		.uleb128 0x5
 19427 00cb 00       		.byte	0x0
 19428 00cc 03       		.uleb128 0x3
 19429 00cd 0E       		.uleb128 0xe
 19430 00ce 3A       		.uleb128 0x3a
 19431 00cf 0B       		.uleb128 0xb
 19432 00d0 3B       		.uleb128 0x3b
 19433 00d1 0B       		.uleb128 0xb
 19434 00d2 49       		.uleb128 0x49
 19435 00d3 13       		.uleb128 0x13
 19436 00d4 02       		.uleb128 0x2
 19437 00d5 06       		.uleb128 0x6
 19438 00d6 00       		.byte	0x0
 19439 00d7 00       		.byte	0x0
 19440 00d8 11       		.uleb128 0x11
 19441 00d9 2E       		.uleb128 0x2e
 19442 00da 01       		.byte	0x1
 19443 00db 01       		.uleb128 0x1
 19444 00dc 13       		.uleb128 0x13
 19445 00dd 3F       		.uleb128 0x3f
 19446 00de 0C       		.uleb128 0xc
 19447 00df 03       		.uleb128 0x3
 19448 00e0 0E       		.uleb128 0xe
 19449 00e1 3A       		.uleb128 0x3a
 19450 00e2 0B       		.uleb128 0xb
 19451 00e3 3B       		.uleb128 0x3b
 19452 00e4 0B       		.uleb128 0xb
 19453 00e5 27       		.uleb128 0x27
 19454 00e6 0C       		.uleb128 0xc
 19455 00e7 11       		.uleb128 0x11
 19456 00e8 01       		.uleb128 0x1
 19457 00e9 12       		.uleb128 0x12
 19458 00ea 01       		.uleb128 0x1
 19459 00eb 40       		.uleb128 0x40
 19460 00ec 06       		.uleb128 0x6
 19461 00ed 00       		.byte	0x0
 19462 00ee 00       		.byte	0x0
 19463 00ef 12       		.uleb128 0x12
 19464 00f0 05       		.uleb128 0x5
ARM GAS  /cygdrive/c/DOCUME~1/mkwapisz/LOCALS~1/Temp/cc1OEM1Z.s 			page 359


 19465 00f1 00       		.byte	0x0
 19466 00f2 03       		.uleb128 0x3
 19467 00f3 0E       		.uleb128 0xe
 19468 00f4 3A       		.uleb128 0x3a
 19469 00f5 0B       		.uleb128 0xb
 19470 00f6 3B       		.uleb128 0x3b
 19471 00f7 0B       		.uleb128 0xb
 19472 00f8 49       		.uleb128 0x49
 19473 00f9 13       		.uleb128 0x13
 19474 00fa 02       		.uleb128 0x2
 19475 00fb 0A       		.uleb128 0xa
 19476 00fc 00       		.byte	0x0
 19477 00fd 00       		.byte	0x0
 19478 00fe 13       		.uleb128 0x13
 19479 00ff 34       		.uleb128 0x34
 19480 0100 00       		.byte	0x0
 19481 0101 03       		.uleb128 0x3
 19482 0102 08       		.uleb128 0x8
 19483 0103 3A       		.uleb128 0x3a
 19484 0104 0B       		.uleb128 0xb
 19485 0105 3B       		.uleb128 0x3b
 19486 0106 0B       		.uleb128 0xb
 19487 0107 49       		.uleb128 0x49
 19488 0108 13       		.uleb128 0x13
 19489 0109 02       		.uleb128 0x2
 19490 010a 0A       		.uleb128 0xa
 19491 010b 00       		.byte	0x0
 19492 010c 00       		.byte	0x0
 19493 010d 14       		.uleb128 0x14
 19494 010e 2E       		.uleb128 0x2e
 19495 010f 01       		.byte	0x1
 19496 0110 01       		.uleb128 0x1
 19497 0111 13       		.uleb128 0x13
 19498 0112 3F       		.uleb128 0x3f
 19499 0113 0C       		.uleb128 0xc
 19500 0114 03       		.uleb128 0x3
 19501 0115 0E       		.uleb128 0xe
 19502 0116 3A       		.uleb128 0x3a
 19503 0117 0B       		.uleb128 0xb
 19504 0118 3B       		.uleb128 0x3b
 19505 0119 05       		.uleb128 0x5
 19506 011a 27       		.uleb128 0x27
 19507 011b 0C       		.uleb128 0xc
 19508 011c 11       		.uleb128 0x11
 19509 011d 01       		.uleb128 0x1
 19510 011e 12       		.uleb128 0x12
 19511 011f 01       		.uleb128 0x1
 19512 0120 40       		.uleb128 0x40
 19513 0121 06       		.uleb128 0x6
 19514 0122 00       		.byte	0x0
 19515 0123 00       		.byte	0x0
 19516 0124 15       		.uleb128 0x15
 19517 0125 05       		.uleb128 0x5
 19518 0126 00       		.byte	0x0
 19519 0127 03       		.uleb128 0x3
 19520 0128 0E       		.uleb128 0xe
 19521 0129 3A       		.uleb128 0x3a
ARM GAS  /cygdrive/c/DOCUME~1/mkwapisz/LOCALS~1/Temp/cc1OEM1Z.s 			page 360


 19522 012a 0B       		.uleb128 0xb
 19523 012b 3B       		.uleb128 0x3b
 19524 012c 05       		.uleb128 0x5
 19525 012d 49       		.uleb128 0x49
 19526 012e 13       		.uleb128 0x13
 19527 012f 02       		.uleb128 0x2
 19528 0130 06       		.uleb128 0x6
 19529 0131 00       		.byte	0x0
 19530 0132 00       		.byte	0x0
 19531 0133 16       		.uleb128 0x16
 19532 0134 34       		.uleb128 0x34
 19533 0135 00       		.byte	0x0
 19534 0136 03       		.uleb128 0x3
 19535 0137 08       		.uleb128 0x8
 19536 0138 3A       		.uleb128 0x3a
 19537 0139 0B       		.uleb128 0xb
 19538 013a 3B       		.uleb128 0x3b
 19539 013b 05       		.uleb128 0x5
 19540 013c 49       		.uleb128 0x49
 19541 013d 13       		.uleb128 0x13
 19542 013e 02       		.uleb128 0x2
 19543 013f 0A       		.uleb128 0xa
 19544 0140 00       		.byte	0x0
 19545 0141 00       		.byte	0x0
 19546 0142 17       		.uleb128 0x17
 19547 0143 34       		.uleb128 0x34
 19548 0144 00       		.byte	0x0
 19549 0145 03       		.uleb128 0x3
 19550 0146 0E       		.uleb128 0xe
 19551 0147 3A       		.uleb128 0x3a
 19552 0148 0B       		.uleb128 0xb
 19553 0149 3B       		.uleb128 0x3b
 19554 014a 05       		.uleb128 0x5
 19555 014b 49       		.uleb128 0x49
 19556 014c 13       		.uleb128 0x13
 19557 014d 02       		.uleb128 0x2
 19558 014e 06       		.uleb128 0x6
 19559 014f 00       		.byte	0x0
 19560 0150 00       		.byte	0x0
 19561 0151 18       		.uleb128 0x18
 19562 0152 26       		.uleb128 0x26
 19563 0153 00       		.byte	0x0
 19564 0154 49       		.uleb128 0x49
 19565 0155 13       		.uleb128 0x13
 19566 0156 00       		.byte	0x0
 19567 0157 00       		.byte	0x0
 19568 0158 19       		.uleb128 0x19
 19569 0159 15       		.uleb128 0x15
 19570 015a 01       		.byte	0x1
 19571 015b 01       		.uleb128 0x1
 19572 015c 13       		.uleb128 0x13
 19573 015d 27       		.uleb128 0x27
 19574 015e 0C       		.uleb128 0xc
 19575 015f 00       		.byte	0x0
 19576 0160 00       		.byte	0x0
 19577 0161 1A       		.uleb128 0x1a
 19578 0162 05       		.uleb128 0x5
ARM GAS  /cygdrive/c/DOCUME~1/mkwapisz/LOCALS~1/Temp/cc1OEM1Z.s 			page 361


 19579 0163 00       		.byte	0x0
 19580 0164 49       		.uleb128 0x49
 19581 0165 13       		.uleb128 0x13
 19582 0166 00       		.byte	0x0
 19583 0167 00       		.byte	0x0
 19584 0168 1B       		.uleb128 0x1b
 19585 0169 2E       		.uleb128 0x2e
 19586 016a 01       		.byte	0x1
 19587 016b 01       		.uleb128 0x1
 19588 016c 13       		.uleb128 0x13
 19589 016d 03       		.uleb128 0x3
 19590 016e 0E       		.uleb128 0xe
 19591 016f 3A       		.uleb128 0x3a
 19592 0170 0B       		.uleb128 0xb
 19593 0171 3B       		.uleb128 0x3b
 19594 0172 0B       		.uleb128 0xb
 19595 0173 27       		.uleb128 0x27
 19596 0174 0C       		.uleb128 0xc
 19597 0175 11       		.uleb128 0x11
 19598 0176 01       		.uleb128 0x1
 19599 0177 12       		.uleb128 0x12
 19600 0178 01       		.uleb128 0x1
 19601 0179 40       		.uleb128 0x40
 19602 017a 06       		.uleb128 0x6
 19603 017b 00       		.byte	0x0
 19604 017c 00       		.byte	0x0
 19605 017d 1C       		.uleb128 0x1c
 19606 017e 05       		.uleb128 0x5
 19607 017f 00       		.byte	0x0
 19608 0180 03       		.uleb128 0x3
 19609 0181 08       		.uleb128 0x8
 19610 0182 3A       		.uleb128 0x3a
 19611 0183 0B       		.uleb128 0xb
 19612 0184 3B       		.uleb128 0x3b
 19613 0185 0B       		.uleb128 0xb
 19614 0186 49       		.uleb128 0x49
 19615 0187 13       		.uleb128 0x13
 19616 0188 02       		.uleb128 0x2
 19617 0189 06       		.uleb128 0x6
 19618 018a 00       		.byte	0x0
 19619 018b 00       		.byte	0x0
 19620 018c 1D       		.uleb128 0x1d
 19621 018d 34       		.uleb128 0x34
 19622 018e 00       		.byte	0x0
 19623 018f 03       		.uleb128 0x3
 19624 0190 08       		.uleb128 0x8
 19625 0191 3A       		.uleb128 0x3a
 19626 0192 0B       		.uleb128 0xb
 19627 0193 3B       		.uleb128 0x3b
 19628 0194 0B       		.uleb128 0xb
 19629 0195 49       		.uleb128 0x49
 19630 0196 13       		.uleb128 0x13
 19631 0197 02       		.uleb128 0x2
 19632 0198 06       		.uleb128 0x6
 19633 0199 00       		.byte	0x0
 19634 019a 00       		.byte	0x0
 19635 019b 1E       		.uleb128 0x1e
ARM GAS  /cygdrive/c/DOCUME~1/mkwapisz/LOCALS~1/Temp/cc1OEM1Z.s 			page 362


 19636 019c 34       		.uleb128 0x34
 19637 019d 00       		.byte	0x0
 19638 019e 03       		.uleb128 0x3
 19639 019f 08       		.uleb128 0x8
 19640 01a0 3A       		.uleb128 0x3a
 19641 01a1 0B       		.uleb128 0xb
 19642 01a2 3B       		.uleb128 0x3b
 19643 01a3 05       		.uleb128 0x5
 19644 01a4 49       		.uleb128 0x49
 19645 01a5 13       		.uleb128 0x13
 19646 01a6 02       		.uleb128 0x2
 19647 01a7 06       		.uleb128 0x6
 19648 01a8 00       		.byte	0x0
 19649 01a9 00       		.byte	0x0
 19650 01aa 1F       		.uleb128 0x1f
 19651 01ab 34       		.uleb128 0x34
 19652 01ac 00       		.byte	0x0
 19653 01ad 03       		.uleb128 0x3
 19654 01ae 0E       		.uleb128 0xe
 19655 01af 3A       		.uleb128 0x3a
 19656 01b0 0B       		.uleb128 0xb
 19657 01b1 3B       		.uleb128 0x3b
 19658 01b2 05       		.uleb128 0x5
 19659 01b3 49       		.uleb128 0x49
 19660 01b4 13       		.uleb128 0x13
 19661 01b5 02       		.uleb128 0x2
 19662 01b6 0A       		.uleb128 0xa
 19663 01b7 00       		.byte	0x0
 19664 01b8 00       		.byte	0x0
 19665 01b9 20       		.uleb128 0x20
 19666 01ba 0B       		.uleb128 0xb
 19667 01bb 01       		.byte	0x1
 19668 01bc 01       		.uleb128 0x1
 19669 01bd 13       		.uleb128 0x13
 19670 01be 55       		.uleb128 0x55
 19671 01bf 06       		.uleb128 0x6
 19672 01c0 00       		.byte	0x0
 19673 01c1 00       		.byte	0x0
 19674 01c2 21       		.uleb128 0x21
 19675 01c3 34       		.uleb128 0x34
 19676 01c4 00       		.byte	0x0
 19677 01c5 03       		.uleb128 0x3
 19678 01c6 0E       		.uleb128 0xe
 19679 01c7 3A       		.uleb128 0x3a
 19680 01c8 0B       		.uleb128 0xb
 19681 01c9 3B       		.uleb128 0x3b
 19682 01ca 0B       		.uleb128 0xb
 19683 01cb 49       		.uleb128 0x49
 19684 01cc 13       		.uleb128 0x13
 19685 01cd 02       		.uleb128 0x2
 19686 01ce 06       		.uleb128 0x6
 19687 01cf 00       		.byte	0x0
 19688 01d0 00       		.byte	0x0
 19689 01d1 22       		.uleb128 0x22
 19690 01d2 0B       		.uleb128 0xb
 19691 01d3 01       		.byte	0x1
 19692 01d4 01       		.uleb128 0x1
ARM GAS  /cygdrive/c/DOCUME~1/mkwapisz/LOCALS~1/Temp/cc1OEM1Z.s 			page 363


 19693 01d5 13       		.uleb128 0x13
 19694 01d6 11       		.uleb128 0x11
 19695 01d7 01       		.uleb128 0x1
 19696 01d8 12       		.uleb128 0x12
 19697 01d9 01       		.uleb128 0x1
 19698 01da 00       		.byte	0x0
 19699 01db 00       		.byte	0x0
 19700 01dc 23       		.uleb128 0x23
 19701 01dd 0B       		.uleb128 0xb
 19702 01de 01       		.byte	0x1
 19703 01df 11       		.uleb128 0x11
 19704 01e0 01       		.uleb128 0x1
 19705 01e1 12       		.uleb128 0x12
 19706 01e2 01       		.uleb128 0x1
 19707 01e3 00       		.byte	0x0
 19708 01e4 00       		.byte	0x0
 19709 01e5 24       		.uleb128 0x24
 19710 01e6 2E       		.uleb128 0x2e
 19711 01e7 01       		.byte	0x1
 19712 01e8 01       		.uleb128 0x1
 19713 01e9 13       		.uleb128 0x13
 19714 01ea 03       		.uleb128 0x3
 19715 01eb 0E       		.uleb128 0xe
 19716 01ec 3A       		.uleb128 0x3a
 19717 01ed 0B       		.uleb128 0xb
 19718 01ee 3B       		.uleb128 0x3b
 19719 01ef 05       		.uleb128 0x5
 19720 01f0 27       		.uleb128 0x27
 19721 01f1 0C       		.uleb128 0xc
 19722 01f2 11       		.uleb128 0x11
 19723 01f3 01       		.uleb128 0x1
 19724 01f4 12       		.uleb128 0x12
 19725 01f5 01       		.uleb128 0x1
 19726 01f6 40       		.uleb128 0x40
 19727 01f7 06       		.uleb128 0x6
 19728 01f8 00       		.byte	0x0
 19729 01f9 00       		.byte	0x0
 19730 01fa 25       		.uleb128 0x25
 19731 01fb 05       		.uleb128 0x5
 19732 01fc 00       		.byte	0x0
 19733 01fd 03       		.uleb128 0x3
 19734 01fe 08       		.uleb128 0x8
 19735 01ff 3A       		.uleb128 0x3a
 19736 0200 0B       		.uleb128 0xb
 19737 0201 3B       		.uleb128 0x3b
 19738 0202 05       		.uleb128 0x5
 19739 0203 49       		.uleb128 0x49
 19740 0204 13       		.uleb128 0x13
 19741 0205 02       		.uleb128 0x2
 19742 0206 06       		.uleb128 0x6
 19743 0207 00       		.byte	0x0
 19744 0208 00       		.byte	0x0
 19745 0209 26       		.uleb128 0x26
 19746 020a 34       		.uleb128 0x34
 19747 020b 00       		.byte	0x0
 19748 020c 03       		.uleb128 0x3
 19749 020d 08       		.uleb128 0x8
ARM GAS  /cygdrive/c/DOCUME~1/mkwapisz/LOCALS~1/Temp/cc1OEM1Z.s 			page 364


 19750 020e 3A       		.uleb128 0x3a
 19751 020f 0B       		.uleb128 0xb
 19752 0210 3B       		.uleb128 0x3b
 19753 0211 05       		.uleb128 0x5
 19754 0212 49       		.uleb128 0x49
 19755 0213 13       		.uleb128 0x13
 19756 0214 00       		.byte	0x0
 19757 0215 00       		.byte	0x0
 19758 0216 27       		.uleb128 0x27
 19759 0217 34       		.uleb128 0x34
 19760 0218 00       		.byte	0x0
 19761 0219 03       		.uleb128 0x3
 19762 021a 0E       		.uleb128 0xe
 19763 021b 3A       		.uleb128 0x3a
 19764 021c 0B       		.uleb128 0xb
 19765 021d 3B       		.uleb128 0x3b
 19766 021e 05       		.uleb128 0x5
 19767 021f 49       		.uleb128 0x49
 19768 0220 13       		.uleb128 0x13
 19769 0221 00       		.byte	0x0
 19770 0222 00       		.byte	0x0
 19771 0223 00       		.byte	0x0
 19772              		.section	.debug_pubnames,"",%progbits
 19773 0000 48000000 		.4byte	0x48
 19774 0004 0200     		.2byte	0x2
 19775 0006 00000000 		.4byte	.Ldebug_info0
 19776 000a B4330000 		.4byte	0x33b4
 19777 000e 22030000 		.4byte	0x322
 19778 0012 6D61645F 		.ascii	"mad_synth_mute\000"
 19778      73796E74 
 19778      685F6D75 
 19778      746500
 19779 0021 71030000 		.4byte	0x371
 19780 0025 6D61645F 		.ascii	"mad_synth_init\000"
 19780      73796E74 
 19780      685F696E 
 19780      697400
 19781 0034 9A030000 		.4byte	0x39a
 19782 0038 6D61645F 		.ascii	"mad_synth_frame\000"
 19782      73796E74 
 19782      685F6672 
 19782      616D6500 
 19783 0048 00000000 		.4byte	0x0
 19784              		.section	.debug_aranges,"",%progbits
 19785 0000 1C000000 		.4byte	0x1c
 19786 0004 0200     		.2byte	0x2
 19787 0006 00000000 		.4byte	.Ldebug_info0
 19788 000a 04       		.byte	0x4
 19789 000b 00       		.byte	0x0
 19790 000c 0000     		.2byte	0x0
 19791 000e 0000     		.2byte	0x0
 19792 0010 00000000 		.4byte	.Ltext0
 19793 0014 90280000 		.4byte	.Letext0-.Ltext0
 19794 0018 00000000 		.4byte	0x0
 19795 001c 00000000 		.4byte	0x0
 19796              		.section	.debug_ranges,"",%progbits
 19797              	.Ldebug_ranges0:
ARM GAS  /cygdrive/c/DOCUME~1/mkwapisz/LOCALS~1/Temp/cc1OEM1Z.s 			page 365


 19798 0000 D0010000 		.4byte	.LBB2-.Ltext0
 19799 0004 D8010000 		.4byte	.LBE2-.Ltext0
 19800 0008 04020000 		.4byte	.LBB8-.Ltext0
 19801 000c 08020000 		.4byte	.LBE8-.Ltext0
 19802 0010 F8010000 		.4byte	.LBB6-.Ltext0
 19803 0014 FC010000 		.4byte	.LBE6-.Ltext0
 19804 0018 E4010000 		.4byte	.LBB4-.Ltext0
 19805 001c E8010000 		.4byte	.LBE4-.Ltext0
 19806 0020 DC010000 		.4byte	.LBB3-.Ltext0
 19807 0024 E0010000 		.4byte	.LBE3-.Ltext0
 19808 0028 00000000 		.4byte	0x0
 19809 002c 00000000 		.4byte	0x0
 19810 0030 F0010000 		.4byte	.LBB5-.Ltext0
 19811 0034 F4010000 		.4byte	.LBE5-.Ltext0
 19812 0038 08020000 		.4byte	.LBB9-.Ltext0
 19813 003c 18020000 		.4byte	.LBE9-.Ltext0
 19814 0040 00000000 		.4byte	0x0
 19815 0044 00000000 		.4byte	0x0
 19816 0048 00020000 		.4byte	.LBB7-.Ltext0
 19817 004c 04020000 		.4byte	.LBE7-.Ltext0
 19818 0050 50020000 		.4byte	.LBB15-.Ltext0
 19819 0054 58020000 		.4byte	.LBE15-.Ltext0
 19820 0058 3C020000 		.4byte	.LBB13-.Ltext0
 19821 005c 40020000 		.4byte	.LBE13-.Ltext0
 19822 0060 30020000 		.4byte	.LBB11-.Ltext0
 19823 0064 34020000 		.4byte	.LBE11-.Ltext0
 19824 0068 18020000 		.4byte	.LBB10-.Ltext0
 19825 006c 28020000 		.4byte	.LBE10-.Ltext0
 19826 0070 00000000 		.4byte	0x0
 19827 0074 00000000 		.4byte	0x0
 19828 0078 34020000 		.4byte	.LBB12-.Ltext0
 19829 007c 3C020000 		.4byte	.LBE12-.Ltext0
 19830 0080 7C020000 		.4byte	.LBB20-.Ltext0
 19831 0084 84020000 		.4byte	.LBE20-.Ltext0
 19832 0088 64020000 		.4byte	.LBB17-.Ltext0
 19833 008c 68020000 		.4byte	.LBE17-.Ltext0
 19834 0090 58020000 		.4byte	.LBB16-.Ltext0
 19835 0094 5C020000 		.4byte	.LBE16-.Ltext0
 19836 0098 40020000 		.4byte	.LBB14-.Ltext0
 19837 009c 50020000 		.4byte	.LBE14-.Ltext0
 19838 00a0 00000000 		.4byte	0x0
 19839 00a4 00000000 		.4byte	0x0
 19840 00a8 68020000 		.4byte	.LBB18-.Ltext0
 19841 00ac 70020000 		.4byte	.LBE18-.Ltext0
 19842 00b0 A4020000 		.4byte	.LBB25-.Ltext0
 19843 00b4 A8020000 		.4byte	.LBE25-.Ltext0
 19844 00b8 94020000 		.4byte	.LBB22-.Ltext0
 19845 00bc 98020000 		.4byte	.LBE22-.Ltext0
 19846 00c0 88020000 		.4byte	.LBB21-.Ltext0
 19847 00c4 8C020000 		.4byte	.LBE21-.Ltext0
 19848 00c8 74020000 		.4byte	.LBB19-.Ltext0
 19849 00cc 7C020000 		.4byte	.LBE19-.Ltext0
 19850 00d0 00000000 		.4byte	0x0
 19851 00d4 00000000 		.4byte	0x0
 19852 00d8 9C020000 		.4byte	.LBB23-.Ltext0
 19853 00dc A0020000 		.4byte	.LBE23-.Ltext0
 19854 00e0 A8020000 		.4byte	.LBB26-.Ltext0
ARM GAS  /cygdrive/c/DOCUME~1/mkwapisz/LOCALS~1/Temp/cc1OEM1Z.s 			page 366


 19855 00e4 B8020000 		.4byte	.LBE26-.Ltext0
 19856 00e8 00000000 		.4byte	0x0
 19857 00ec 00000000 		.4byte	0x0
 19858 00f0 A0020000 		.4byte	.LBB24-.Ltext0
 19859 00f4 A4020000 		.4byte	.LBE24-.Ltext0
 19860 00f8 EC020000 		.4byte	.LBB32-.Ltext0
 19861 00fc F4020000 		.4byte	.LBE32-.Ltext0
 19862 0100 D8020000 		.4byte	.LBB30-.Ltext0
 19863 0104 DC020000 		.4byte	.LBE30-.Ltext0
 19864 0108 D0020000 		.4byte	.LBB28-.Ltext0
 19865 010c D4020000 		.4byte	.LBE28-.Ltext0
 19866 0110 B8020000 		.4byte	.LBB27-.Ltext0
 19867 0114 C8020000 		.4byte	.LBE27-.Ltext0
 19868 0118 00000000 		.4byte	0x0
 19869 011c 00000000 		.4byte	0x0
 19870 0120 D4020000 		.4byte	.LBB29-.Ltext0
 19871 0124 D8020000 		.4byte	.LBE29-.Ltext0
 19872 0128 18030000 		.4byte	.LBB37-.Ltext0
 19873 012c 20030000 		.4byte	.LBE37-.Ltext0
 19874 0130 00030000 		.4byte	.LBB34-.Ltext0
 19875 0134 04030000 		.4byte	.LBE34-.Ltext0
 19876 0138 F4020000 		.4byte	.LBB33-.Ltext0
 19877 013c F8020000 		.4byte	.LBE33-.Ltext0
 19878 0140 DC020000 		.4byte	.LBB31-.Ltext0
 19879 0144 EC020000 		.4byte	.LBE31-.Ltext0
 19880 0148 00000000 		.4byte	0x0
 19881 014c 00000000 		.4byte	0x0
 19882 0150 04030000 		.4byte	.LBB35-.Ltext0
 19883 0154 0C030000 		.4byte	.LBE35-.Ltext0
 19884 0158 44030000 		.4byte	.LBB42-.Ltext0
 19885 015c 48030000 		.4byte	.LBE42-.Ltext0
 19886 0160 38030000 		.4byte	.LBB40-.Ltext0
 19887 0164 3C030000 		.4byte	.LBE40-.Ltext0
 19888 0168 24030000 		.4byte	.LBB38-.Ltext0
 19889 016c 28030000 		.4byte	.LBE38-.Ltext0
 19890 0170 10030000 		.4byte	.LBB36-.Ltext0
 19891 0174 18030000 		.4byte	.LBE36-.Ltext0
 19892 0178 00000000 		.4byte	0x0
 19893 017c 00000000 		.4byte	0x0
 19894 0180 30030000 		.4byte	.LBB39-.Ltext0
 19895 0184 34030000 		.4byte	.LBE39-.Ltext0
 19896 0188 48030000 		.4byte	.LBB43-.Ltext0
 19897 018c 58030000 		.4byte	.LBE43-.Ltext0
 19898 0190 00000000 		.4byte	0x0
 19899 0194 00000000 		.4byte	0x0
 19900 0198 40030000 		.4byte	.LBB41-.Ltext0
 19901 019c 44030000 		.4byte	.LBE41-.Ltext0
 19902 01a0 90030000 		.4byte	.LBB49-.Ltext0
 19903 01a4 98030000 		.4byte	.LBE49-.Ltext0
 19904 01a8 7C030000 		.4byte	.LBB47-.Ltext0
 19905 01ac 80030000 		.4byte	.LBE47-.Ltext0
 19906 01b0 70030000 		.4byte	.LBB45-.Ltext0
 19907 01b4 74030000 		.4byte	.LBE45-.Ltext0
 19908 01b8 58030000 		.4byte	.LBB44-.Ltext0
 19909 01bc 68030000 		.4byte	.LBE44-.Ltext0
 19910 01c0 00000000 		.4byte	0x0
 19911 01c4 00000000 		.4byte	0x0
ARM GAS  /cygdrive/c/DOCUME~1/mkwapisz/LOCALS~1/Temp/cc1OEM1Z.s 			page 367


 19912 01c8 74030000 		.4byte	.LBB46-.Ltext0
 19913 01cc 7C030000 		.4byte	.LBE46-.Ltext0
 19914 01d0 BC030000 		.4byte	.LBB54-.Ltext0
 19915 01d4 C4030000 		.4byte	.LBE54-.Ltext0
 19916 01d8 A4030000 		.4byte	.LBB51-.Ltext0
 19917 01dc A8030000 		.4byte	.LBE51-.Ltext0
 19918 01e0 98030000 		.4byte	.LBB50-.Ltext0
 19919 01e4 9C030000 		.4byte	.LBE50-.Ltext0
 19920 01e8 80030000 		.4byte	.LBB48-.Ltext0
 19921 01ec 90030000 		.4byte	.LBE48-.Ltext0
 19922 01f0 00000000 		.4byte	0x0
 19923 01f4 00000000 		.4byte	0x0
 19924 01f8 A8030000 		.4byte	.LBB52-.Ltext0
 19925 01fc B0030000 		.4byte	.LBE52-.Ltext0
 19926 0200 E8030000 		.4byte	.LBB59-.Ltext0
 19927 0204 EC030000 		.4byte	.LBE59-.Ltext0
 19928 0208 DC030000 		.4byte	.LBB57-.Ltext0
 19929 020c E0030000 		.4byte	.LBE57-.Ltext0
 19930 0210 C8030000 		.4byte	.LBB55-.Ltext0
 19931 0214 CC030000 		.4byte	.LBE55-.Ltext0
 19932 0218 B4030000 		.4byte	.LBB53-.Ltext0
 19933 021c BC030000 		.4byte	.LBE53-.Ltext0
 19934 0220 00000000 		.4byte	0x0
 19935 0224 00000000 		.4byte	0x0
 19936 0228 D4030000 		.4byte	.LBB56-.Ltext0
 19937 022c D8030000 		.4byte	.LBE56-.Ltext0
 19938 0230 EC030000 		.4byte	.LBB60-.Ltext0
 19939 0234 FC030000 		.4byte	.LBE60-.Ltext0
 19940 0238 00000000 		.4byte	0x0
 19941 023c 00000000 		.4byte	0x0
 19942 0240 E4030000 		.4byte	.LBB58-.Ltext0
 19943 0244 E8030000 		.4byte	.LBE58-.Ltext0
 19944 0248 34040000 		.4byte	.LBB66-.Ltext0
 19945 024c 3C040000 		.4byte	.LBE66-.Ltext0
 19946 0250 24040000 		.4byte	.LBB64-.Ltext0
 19947 0254 28040000 		.4byte	.LBE64-.Ltext0
 19948 0258 14040000 		.4byte	.LBB62-.Ltext0
 19949 025c 18040000 		.4byte	.LBE62-.Ltext0
 19950 0260 FC030000 		.4byte	.LBB61-.Ltext0
 19951 0264 0C040000 		.4byte	.LBE61-.Ltext0
 19952 0268 00000000 		.4byte	0x0
 19953 026c 00000000 		.4byte	0x0
 19954 0270 18040000 		.4byte	.LBB63-.Ltext0
 19955 0274 24040000 		.4byte	.LBE63-.Ltext0
 19956 0278 60040000 		.4byte	.LBB71-.Ltext0
 19957 027c 68040000 		.4byte	.LBE71-.Ltext0
 19958 0280 48040000 		.4byte	.LBB68-.Ltext0
 19959 0284 4C040000 		.4byte	.LBE68-.Ltext0
 19960 0288 3C040000 		.4byte	.LBB67-.Ltext0
 19961 028c 40040000 		.4byte	.LBE67-.Ltext0
 19962 0290 28040000 		.4byte	.LBB65-.Ltext0
 19963 0294 34040000 		.4byte	.LBE65-.Ltext0
 19964 0298 00000000 		.4byte	0x0
 19965 029c 00000000 		.4byte	0x0
 19966 02a0 4C040000 		.4byte	.LBB69-.Ltext0
 19967 02a4 54040000 		.4byte	.LBE69-.Ltext0
 19968 02a8 8C040000 		.4byte	.LBB76-.Ltext0
ARM GAS  /cygdrive/c/DOCUME~1/mkwapisz/LOCALS~1/Temp/cc1OEM1Z.s 			page 368


 19969 02ac 90040000 		.4byte	.LBE76-.Ltext0
 19970 02b0 80040000 		.4byte	.LBB74-.Ltext0
 19971 02b4 84040000 		.4byte	.LBE74-.Ltext0
 19972 02b8 6C040000 		.4byte	.LBB72-.Ltext0
 19973 02bc 70040000 		.4byte	.LBE72-.Ltext0
 19974 02c0 58040000 		.4byte	.LBB70-.Ltext0
 19975 02c4 60040000 		.4byte	.LBE70-.Ltext0
 19976 02c8 00000000 		.4byte	0x0
 19977 02cc 00000000 		.4byte	0x0
 19978 02d0 78040000 		.4byte	.LBB73-.Ltext0
 19979 02d4 7C040000 		.4byte	.LBE73-.Ltext0
 19980 02d8 90040000 		.4byte	.LBB77-.Ltext0
 19981 02dc A0040000 		.4byte	.LBE77-.Ltext0
 19982 02e0 00000000 		.4byte	0x0
 19983 02e4 00000000 		.4byte	0x0
 19984 02e8 88040000 		.4byte	.LBB75-.Ltext0
 19985 02ec 8C040000 		.4byte	.LBE75-.Ltext0
 19986 02f0 D8040000 		.4byte	.LBB83-.Ltext0
 19987 02f4 E0040000 		.4byte	.LBE83-.Ltext0
 19988 02f8 C4040000 		.4byte	.LBB81-.Ltext0
 19989 02fc C8040000 		.4byte	.LBE81-.Ltext0
 19990 0300 B8040000 		.4byte	.LBB79-.Ltext0
 19991 0304 BC040000 		.4byte	.LBE79-.Ltext0
 19992 0308 A0040000 		.4byte	.LBB78-.Ltext0
 19993 030c B0040000 		.4byte	.LBE78-.Ltext0
 19994 0310 00000000 		.4byte	0x0
 19995 0314 00000000 		.4byte	0x0
 19996 0318 BC040000 		.4byte	.LBB80-.Ltext0
 19997 031c C4040000 		.4byte	.LBE80-.Ltext0
 19998 0320 08050000 		.4byte	.LBB88-.Ltext0
 19999 0324 0C050000 		.4byte	.LBE88-.Ltext0
 20000 0328 00050000 		.4byte	.LBB87-.Ltext0
 20001 032c 04050000 		.4byte	.LBE87-.Ltext0
 20002 0330 EC040000 		.4byte	.LBB85-.Ltext0
 20003 0334 F0040000 		.4byte	.LBE85-.Ltext0
 20004 0338 E0040000 		.4byte	.LBB84-.Ltext0
 20005 033c E4040000 		.4byte	.LBE84-.Ltext0
 20006 0340 C8040000 		.4byte	.LBB82-.Ltext0
 20007 0344 D8040000 		.4byte	.LBE82-.Ltext0
 20008 0348 00000000 		.4byte	0x0
 20009 034c 00000000 		.4byte	0x0
 20010 0350 F0040000 		.4byte	.LBB86-.Ltext0
 20011 0354 00050000 		.4byte	.LBE86-.Ltext0
 20012 0358 38050000 		.4byte	.LBB94-.Ltext0
 20013 035c 3C050000 		.4byte	.LBE94-.Ltext0
 20014 0360 30050000 		.4byte	.LBB93-.Ltext0
 20015 0364 34050000 		.4byte	.LBE93-.Ltext0
 20016 0368 18050000 		.4byte	.LBB90-.Ltext0
 20017 036c 1C050000 		.4byte	.LBE90-.Ltext0
 20018 0370 0C050000 		.4byte	.LBB89-.Ltext0
 20019 0374 10050000 		.4byte	.LBE89-.Ltext0
 20020 0378 00000000 		.4byte	0x0
 20021 037c 00000000 		.4byte	0x0
 20022 0380 1C050000 		.4byte	.LBB91-.Ltext0
 20023 0384 24050000 		.4byte	.LBE91-.Ltext0
 20024 0388 48050000 		.4byte	.LBB97-.Ltext0
 20025 038c 4C050000 		.4byte	.LBE97-.Ltext0
ARM GAS  /cygdrive/c/DOCUME~1/mkwapisz/LOCALS~1/Temp/cc1OEM1Z.s 			page 369


 20026 0390 3C050000 		.4byte	.LBB95-.Ltext0
 20027 0394 44050000 		.4byte	.LBE95-.Ltext0
 20028 0398 28050000 		.4byte	.LBB92-.Ltext0
 20029 039c 30050000 		.4byte	.LBE92-.Ltext0
 20030 03a0 00000000 		.4byte	0x0
 20031 03a4 00000000 		.4byte	0x0
 20032 03a8 44050000 		.4byte	.LBB96-.Ltext0
 20033 03ac 48050000 		.4byte	.LBE96-.Ltext0
 20034 03b0 84050000 		.4byte	.LBB104-.Ltext0
 20035 03b4 8C050000 		.4byte	.LBE104-.Ltext0
 20036 03b8 70050000 		.4byte	.LBB102-.Ltext0
 20037 03bc 74050000 		.4byte	.LBE102-.Ltext0
 20038 03c0 68050000 		.4byte	.LBB100-.Ltext0
 20039 03c4 6C050000 		.4byte	.LBE100-.Ltext0
 20040 03c8 60050000 		.4byte	.LBB99-.Ltext0
 20041 03cc 64050000 		.4byte	.LBE99-.Ltext0
 20042 03d0 4C050000 		.4byte	.LBB98-.Ltext0
 20043 03d4 5C050000 		.4byte	.LBE98-.Ltext0
 20044 03d8 00000000 		.4byte	0x0
 20045 03dc 00000000 		.4byte	0x0
 20046 03e0 6C050000 		.4byte	.LBB101-.Ltext0
 20047 03e4 70050000 		.4byte	.LBE101-.Ltext0
 20048 03e8 B0050000 		.4byte	.LBB109-.Ltext0
 20049 03ec B8050000 		.4byte	.LBE109-.Ltext0
 20050 03f0 98050000 		.4byte	.LBB106-.Ltext0
 20051 03f4 9C050000 		.4byte	.LBE106-.Ltext0
 20052 03f8 8C050000 		.4byte	.LBB105-.Ltext0
 20053 03fc 90050000 		.4byte	.LBE105-.Ltext0
 20054 0400 74050000 		.4byte	.LBB103-.Ltext0
 20055 0404 84050000 		.4byte	.LBE103-.Ltext0
 20056 0408 00000000 		.4byte	0x0
 20057 040c 00000000 		.4byte	0x0
 20058 0410 9C050000 		.4byte	.LBB107-.Ltext0
 20059 0414 A4050000 		.4byte	.LBE107-.Ltext0
 20060 0418 D0050000 		.4byte	.LBB113-.Ltext0
 20061 041c D4050000 		.4byte	.LBE113-.Ltext0
 20062 0420 C8050000 		.4byte	.LBB111-.Ltext0
 20063 0424 CC050000 		.4byte	.LBE111-.Ltext0
 20064 0428 BC050000 		.4byte	.LBB110-.Ltext0
 20065 042c C0050000 		.4byte	.LBE110-.Ltext0
 20066 0430 A8050000 		.4byte	.LBB108-.Ltext0
 20067 0434 B0050000 		.4byte	.LBE108-.Ltext0
 20068 0438 00000000 		.4byte	0x0
 20069 043c 00000000 		.4byte	0x0
 20070 0440 CC050000 		.4byte	.LBB112-.Ltext0
 20071 0444 D0050000 		.4byte	.LBE112-.Ltext0
 20072 0448 20060000 		.4byte	.LBB121-.Ltext0
 20073 044c 28060000 		.4byte	.LBE121-.Ltext0
 20074 0450 0C060000 		.4byte	.LBB119-.Ltext0
 20075 0454 10060000 		.4byte	.LBE119-.Ltext0
 20076 0458 04060000 		.4byte	.LBB117-.Ltext0
 20077 045c 08060000 		.4byte	.LBE117-.Ltext0
 20078 0460 EC050000 		.4byte	.LBB116-.Ltext0
 20079 0464 FC050000 		.4byte	.LBE116-.Ltext0
 20080 0468 00000000 		.4byte	0x0
 20081 046c 00000000 		.4byte	0x0
 20082 0470 D4050000 		.4byte	.LBB114-.Ltext0
ARM GAS  /cygdrive/c/DOCUME~1/mkwapisz/LOCALS~1/Temp/cc1OEM1Z.s 			page 370


 20083 0474 E4050000 		.4byte	.LBE114-.Ltext0
 20084 0478 E8050000 		.4byte	.LBB115-.Ltext0
 20085 047c EC050000 		.4byte	.LBE115-.Ltext0
 20086 0480 00000000 		.4byte	0x0
 20087 0484 00000000 		.4byte	0x0
 20088 0488 08060000 		.4byte	.LBB118-.Ltext0
 20089 048c 0C060000 		.4byte	.LBE118-.Ltext0
 20090 0490 50060000 		.4byte	.LBB126-.Ltext0
 20091 0494 54060000 		.4byte	.LBE126-.Ltext0
 20092 0498 48060000 		.4byte	.LBB125-.Ltext0
 20093 049c 4C060000 		.4byte	.LBE125-.Ltext0
 20094 04a0 34060000 		.4byte	.LBB123-.Ltext0
 20095 04a4 38060000 		.4byte	.LBE123-.Ltext0
 20096 04a8 28060000 		.4byte	.LBB122-.Ltext0
 20097 04ac 2C060000 		.4byte	.LBE122-.Ltext0
 20098 04b0 10060000 		.4byte	.LBB120-.Ltext0
 20099 04b4 20060000 		.4byte	.LBE120-.Ltext0
 20100 04b8 00000000 		.4byte	0x0
 20101 04bc 00000000 		.4byte	0x0
 20102 04c0 38060000 		.4byte	.LBB124-.Ltext0
 20103 04c4 48060000 		.4byte	.LBE124-.Ltext0
 20104 04c8 78060000 		.4byte	.LBB130-.Ltext0
 20105 04cc 7C060000 		.4byte	.LBE130-.Ltext0
 20106 04d0 70060000 		.4byte	.LBB129-.Ltext0
 20107 04d4 74060000 		.4byte	.LBE129-.Ltext0
 20108 04d8 54060000 		.4byte	.LBB127-.Ltext0
 20109 04dc 58060000 		.4byte	.LBE127-.Ltext0
 20110 04e0 00000000 		.4byte	0x0
 20111 04e4 00000000 		.4byte	0x0
 20112 04e8 60060000 		.4byte	.LBB128-.Ltext0
 20113 04ec 70060000 		.4byte	.LBE128-.Ltext0
 20114 04f0 88060000 		.4byte	.LBB133-.Ltext0
 20115 04f4 8C060000 		.4byte	.LBE133-.Ltext0
 20116 04f8 7C060000 		.4byte	.LBB131-.Ltext0
 20117 04fc 84060000 		.4byte	.LBE131-.Ltext0
 20118 0500 00000000 		.4byte	0x0
 20119 0504 00000000 		.4byte	0x0
 20120 0508 84060000 		.4byte	.LBB132-.Ltext0
 20121 050c 88060000 		.4byte	.LBE132-.Ltext0
 20122 0510 D8060000 		.4byte	.LBB140-.Ltext0
 20123 0514 DC060000 		.4byte	.LBE140-.Ltext0
 20124 0518 CC060000 		.4byte	.LBB139-.Ltext0
 20125 051c D0060000 		.4byte	.LBE139-.Ltext0
 20126 0520 B0060000 		.4byte	.LBB136-.Ltext0
 20127 0524 B4060000 		.4byte	.LBE136-.Ltext0
 20128 0528 A0060000 		.4byte	.LBB135-.Ltext0
 20129 052c A4060000 		.4byte	.LBE135-.Ltext0
 20130 0530 8C060000 		.4byte	.LBB134-.Ltext0
 20131 0534 9C060000 		.4byte	.LBE134-.Ltext0
 20132 0538 00000000 		.4byte	0x0
 20133 053c 00000000 		.4byte	0x0
 20134 0540 B8060000 		.4byte	.LBB137-.Ltext0
 20135 0544 C0060000 		.4byte	.LBE137-.Ltext0
 20136 0548 1C070000 		.4byte	.LBB147-.Ltext0
 20137 054c 20070000 		.4byte	.LBE147-.Ltext0
 20138 0550 14070000 		.4byte	.LBB146-.Ltext0
 20139 0554 18070000 		.4byte	.LBE146-.Ltext0
ARM GAS  /cygdrive/c/DOCUME~1/mkwapisz/LOCALS~1/Temp/cc1OEM1Z.s 			page 371


 20140 0558 F8060000 		.4byte	.LBB144-.Ltext0
 20141 055c FC060000 		.4byte	.LBE144-.Ltext0
 20142 0560 DC060000 		.4byte	.LBB141-.Ltext0
 20143 0564 E0060000 		.4byte	.LBE141-.Ltext0
 20144 0568 C4060000 		.4byte	.LBB138-.Ltext0
 20145 056c CC060000 		.4byte	.LBE138-.Ltext0
 20146 0570 00000000 		.4byte	0x0
 20147 0574 00000000 		.4byte	0x0
 20148 0578 E0060000 		.4byte	.LBB142-.Ltext0
 20149 057c E4060000 		.4byte	.LBE142-.Ltext0
 20150 0580 54070000 		.4byte	.LBB154-.Ltext0
 20151 0584 5C070000 		.4byte	.LBE154-.Ltext0
 20152 0588 2C070000 		.4byte	.LBB149-.Ltext0
 20153 058c 30070000 		.4byte	.LBE149-.Ltext0
 20154 0590 20070000 		.4byte	.LBB148-.Ltext0
 20155 0594 24070000 		.4byte	.LBE148-.Ltext0
 20156 0598 08070000 		.4byte	.LBB145-.Ltext0
 20157 059c 14070000 		.4byte	.LBE145-.Ltext0
 20158 05a0 EC060000 		.4byte	.LBB143-.Ltext0
 20159 05a4 F0060000 		.4byte	.LBE143-.Ltext0
 20160 05a8 00000000 		.4byte	0x0
 20161 05ac 00000000 		.4byte	0x0
 20162 05b0 30070000 		.4byte	.LBB150-.Ltext0
 20163 05b4 34070000 		.4byte	.LBE150-.Ltext0
 20164 05b8 90070000 		.4byte	.LBB161-.Ltext0
 20165 05bc 94070000 		.4byte	.LBE161-.Ltext0
 20166 05c0 84070000 		.4byte	.LBB160-.Ltext0
 20167 05c4 88070000 		.4byte	.LBE160-.Ltext0
 20168 05c8 74070000 		.4byte	.LBB158-.Ltext0
 20169 05cc 78070000 		.4byte	.LBE158-.Ltext0
 20170 05d0 5C070000 		.4byte	.LBB155-.Ltext0
 20171 05d4 60070000 		.4byte	.LBE155-.Ltext0
 20172 05d8 48070000 		.4byte	.LBB153-.Ltext0
 20173 05dc 54070000 		.4byte	.LBE153-.Ltext0
 20174 05e0 3C070000 		.4byte	.LBB152-.Ltext0
 20175 05e4 40070000 		.4byte	.LBE152-.Ltext0
 20176 05e8 00000000 		.4byte	0x0
 20177 05ec 00000000 		.4byte	0x0
 20178 05f0 34070000 		.4byte	.LBB151-.Ltext0
 20179 05f4 38070000 		.4byte	.LBE151-.Ltext0
 20180 05f8 D4070000 		.4byte	.LBB169-.Ltext0
 20181 05fc DC070000 		.4byte	.LBE169-.Ltext0
 20182 0600 C0070000 		.4byte	.LBB167-.Ltext0
 20183 0604 C4070000 		.4byte	.LBE167-.Ltext0
 20184 0608 B4070000 		.4byte	.LBB165-.Ltext0
 20185 060c B8070000 		.4byte	.LBE165-.Ltext0
 20186 0610 9C070000 		.4byte	.LBB163-.Ltext0
 20187 0614 AC070000 		.4byte	.LBE163-.Ltext0
 20188 0618 00000000 		.4byte	0x0
 20189 061c 00000000 		.4byte	0x0
 20190 0620 60070000 		.4byte	.LBB156-.Ltext0
 20191 0624 68070000 		.4byte	.LBE156-.Ltext0
 20192 0628 AC070000 		.4byte	.LBB164-.Ltext0
 20193 062c B4070000 		.4byte	.LBE164-.Ltext0
 20194 0630 94070000 		.4byte	.LBB162-.Ltext0
 20195 0634 9C070000 		.4byte	.LBE162-.Ltext0
 20196 0638 78070000 		.4byte	.LBB159-.Ltext0
ARM GAS  /cygdrive/c/DOCUME~1/mkwapisz/LOCALS~1/Temp/cc1OEM1Z.s 			page 372


 20197 063c 84070000 		.4byte	.LBE159-.Ltext0
 20198 0640 70070000 		.4byte	.LBB157-.Ltext0
 20199 0644 74070000 		.4byte	.LBE157-.Ltext0
 20200 0648 00000000 		.4byte	0x0
 20201 064c 00000000 		.4byte	0x0
 20202 0650 B8070000 		.4byte	.LBB166-.Ltext0
 20203 0654 C0070000 		.4byte	.LBE166-.Ltext0
 20204 0658 FC070000 		.4byte	.LBB174-.Ltext0
 20205 065c 04080000 		.4byte	.LBE174-.Ltext0
 20206 0660 E8070000 		.4byte	.LBB172-.Ltext0
 20207 0664 EC070000 		.4byte	.LBE172-.Ltext0
 20208 0668 DC070000 		.4byte	.LBB170-.Ltext0
 20209 066c E0070000 		.4byte	.LBE170-.Ltext0
 20210 0670 C4070000 		.4byte	.LBB168-.Ltext0
 20211 0674 D4070000 		.4byte	.LBE168-.Ltext0
 20212 0678 00000000 		.4byte	0x0
 20213 067c 00000000 		.4byte	0x0
 20214 0680 E0070000 		.4byte	.LBB171-.Ltext0
 20215 0684 E8070000 		.4byte	.LBE171-.Ltext0
 20216 0688 24080000 		.4byte	.LBB179-.Ltext0
 20217 068c 2C080000 		.4byte	.LBE179-.Ltext0
 20218 0690 14080000 		.4byte	.LBB177-.Ltext0
 20219 0694 18080000 		.4byte	.LBE177-.Ltext0
 20220 0698 04080000 		.4byte	.LBB175-.Ltext0
 20221 069c 08080000 		.4byte	.LBE175-.Ltext0
 20222 06a0 EC070000 		.4byte	.LBB173-.Ltext0
 20223 06a4 FC070000 		.4byte	.LBE173-.Ltext0
 20224 06a8 00000000 		.4byte	0x0
 20225 06ac 00000000 		.4byte	0x0
 20226 06b0 08080000 		.4byte	.LBB176-.Ltext0
 20227 06b4 14080000 		.4byte	.LBE176-.Ltext0
 20228 06b8 48080000 		.4byte	.LBB184-.Ltext0
 20229 06bc 50080000 		.4byte	.LBE184-.Ltext0
 20230 06c0 34080000 		.4byte	.LBB182-.Ltext0
 20231 06c4 38080000 		.4byte	.LBE182-.Ltext0
 20232 06c8 2C080000 		.4byte	.LBB180-.Ltext0
 20233 06cc 30080000 		.4byte	.LBE180-.Ltext0
 20234 06d0 18080000 		.4byte	.LBB178-.Ltext0
 20235 06d4 24080000 		.4byte	.LBE178-.Ltext0
 20236 06d8 00000000 		.4byte	0x0
 20237 06dc 00000000 		.4byte	0x0
 20238 06e0 30080000 		.4byte	.LBB181-.Ltext0
 20239 06e4 34080000 		.4byte	.LBE181-.Ltext0
 20240 06e8 70080000 		.4byte	.LBB189-.Ltext0
 20241 06ec 78080000 		.4byte	.LBE189-.Ltext0
 20242 06f0 5C080000 		.4byte	.LBB187-.Ltext0
 20243 06f4 60080000 		.4byte	.LBE187-.Ltext0
 20244 06f8 50080000 		.4byte	.LBB185-.Ltext0
 20245 06fc 54080000 		.4byte	.LBE185-.Ltext0
 20246 0700 38080000 		.4byte	.LBB183-.Ltext0
 20247 0704 48080000 		.4byte	.LBE183-.Ltext0
 20248 0708 00000000 		.4byte	0x0
 20249 070c 00000000 		.4byte	0x0
 20250 0710 54080000 		.4byte	.LBB186-.Ltext0
 20251 0714 5C080000 		.4byte	.LBE186-.Ltext0
 20252 0718 98080000 		.4byte	.LBB194-.Ltext0
 20253 071c A0080000 		.4byte	.LBE194-.Ltext0
ARM GAS  /cygdrive/c/DOCUME~1/mkwapisz/LOCALS~1/Temp/cc1OEM1Z.s 			page 373


 20254 0720 84080000 		.4byte	.LBB192-.Ltext0
 20255 0724 88080000 		.4byte	.LBE192-.Ltext0
 20256 0728 78080000 		.4byte	.LBB190-.Ltext0
 20257 072c 7C080000 		.4byte	.LBE190-.Ltext0
 20258 0730 60080000 		.4byte	.LBB188-.Ltext0
 20259 0734 70080000 		.4byte	.LBE188-.Ltext0
 20260 0738 00000000 		.4byte	0x0
 20261 073c 00000000 		.4byte	0x0
 20262 0740 7C080000 		.4byte	.LBB191-.Ltext0
 20263 0744 84080000 		.4byte	.LBE191-.Ltext0
 20264 0748 C0080000 		.4byte	.LBB199-.Ltext0
 20265 074c C8080000 		.4byte	.LBE199-.Ltext0
 20266 0750 B0080000 		.4byte	.LBB197-.Ltext0
 20267 0754 B4080000 		.4byte	.LBE197-.Ltext0
 20268 0758 A0080000 		.4byte	.LBB195-.Ltext0
 20269 075c A4080000 		.4byte	.LBE195-.Ltext0
 20270 0760 88080000 		.4byte	.LBB193-.Ltext0
 20271 0764 98080000 		.4byte	.LBE193-.Ltext0
 20272 0768 00000000 		.4byte	0x0
 20273 076c 00000000 		.4byte	0x0
 20274 0770 A4080000 		.4byte	.LBB196-.Ltext0
 20275 0774 B0080000 		.4byte	.LBE196-.Ltext0
 20276 0778 E8080000 		.4byte	.LBB204-.Ltext0
 20277 077c F0080000 		.4byte	.LBE204-.Ltext0
 20278 0780 D4080000 		.4byte	.LBB202-.Ltext0
 20279 0784 D8080000 		.4byte	.LBE202-.Ltext0
 20280 0788 C8080000 		.4byte	.LBB200-.Ltext0
 20281 078c CC080000 		.4byte	.LBE200-.Ltext0
 20282 0790 B4080000 		.4byte	.LBB198-.Ltext0
 20283 0794 C0080000 		.4byte	.LBE198-.Ltext0
 20284 0798 00000000 		.4byte	0x0
 20285 079c 00000000 		.4byte	0x0
 20286 07a0 CC080000 		.4byte	.LBB201-.Ltext0
 20287 07a4 D4080000 		.4byte	.LBE201-.Ltext0
 20288 07a8 10090000 		.4byte	.LBB209-.Ltext0
 20289 07ac 18090000 		.4byte	.LBE209-.Ltext0
 20290 07b0 FC080000 		.4byte	.LBB207-.Ltext0
 20291 07b4 00090000 		.4byte	.LBE207-.Ltext0
 20292 07b8 F0080000 		.4byte	.LBB205-.Ltext0
 20293 07bc F4080000 		.4byte	.LBE205-.Ltext0
 20294 07c0 D8080000 		.4byte	.LBB203-.Ltext0
 20295 07c4 E8080000 		.4byte	.LBE203-.Ltext0
 20296 07c8 00000000 		.4byte	0x0
 20297 07cc 00000000 		.4byte	0x0
 20298 07d0 F4080000 		.4byte	.LBB206-.Ltext0
 20299 07d4 FC080000 		.4byte	.LBE206-.Ltext0
 20300 07d8 38090000 		.4byte	.LBB214-.Ltext0
 20301 07dc 40090000 		.4byte	.LBE214-.Ltext0
 20302 07e0 24090000 		.4byte	.LBB212-.Ltext0
 20303 07e4 28090000 		.4byte	.LBE212-.Ltext0
 20304 07e8 18090000 		.4byte	.LBB210-.Ltext0
 20305 07ec 1C090000 		.4byte	.LBE210-.Ltext0
 20306 07f0 00090000 		.4byte	.LBB208-.Ltext0
 20307 07f4 10090000 		.4byte	.LBE208-.Ltext0
 20308 07f8 00000000 		.4byte	0x0
 20309 07fc 00000000 		.4byte	0x0
 20310 0800 1C090000 		.4byte	.LBB211-.Ltext0
ARM GAS  /cygdrive/c/DOCUME~1/mkwapisz/LOCALS~1/Temp/cc1OEM1Z.s 			page 374


 20311 0804 24090000 		.4byte	.LBE211-.Ltext0
 20312 0808 60090000 		.4byte	.LBB219-.Ltext0
 20313 080c 68090000 		.4byte	.LBE219-.Ltext0
 20314 0810 50090000 		.4byte	.LBB217-.Ltext0
 20315 0814 54090000 		.4byte	.LBE217-.Ltext0
 20316 0818 40090000 		.4byte	.LBB215-.Ltext0
 20317 081c 44090000 		.4byte	.LBE215-.Ltext0
 20318 0820 28090000 		.4byte	.LBB213-.Ltext0
 20319 0824 38090000 		.4byte	.LBE213-.Ltext0
 20320 0828 00000000 		.4byte	0x0
 20321 082c 00000000 		.4byte	0x0
 20322 0830 44090000 		.4byte	.LBB216-.Ltext0
 20323 0834 50090000 		.4byte	.LBE216-.Ltext0
 20324 0838 A8090000 		.4byte	.LBB226-.Ltext0
 20325 083c B0090000 		.4byte	.LBE226-.Ltext0
 20326 0840 8C090000 		.4byte	.LBB223-.Ltext0
 20327 0844 90090000 		.4byte	.LBE223-.Ltext0
 20328 0848 68090000 		.4byte	.LBB220-.Ltext0
 20329 084c 6C090000 		.4byte	.LBE220-.Ltext0
 20330 0850 54090000 		.4byte	.LBB218-.Ltext0
 20331 0854 60090000 		.4byte	.LBE218-.Ltext0
 20332 0858 00000000 		.4byte	0x0
 20333 085c 00000000 		.4byte	0x0
 20334 0860 6C090000 		.4byte	.LBB221-.Ltext0
 20335 0864 74090000 		.4byte	.LBE221-.Ltext0
 20336 0868 780A0000 		.4byte	.LBB230-.Ltext0
 20337 086c 7C0A0000 		.4byte	.LBE230-.Ltext0
 20338 0870 480A0000 		.4byte	.LBB229-.Ltext0
 20339 0874 4C0A0000 		.4byte	.LBE229-.Ltext0
 20340 0878 3C0A0000 		.4byte	.LBB228-.Ltext0
 20341 087c 400A0000 		.4byte	.LBE228-.Ltext0
 20342 0880 B0090000 		.4byte	.LBB227-.Ltext0
 20343 0884 B4090000 		.4byte	.LBE227-.Ltext0
 20344 0888 A0090000 		.4byte	.LBB225-.Ltext0
 20345 088c A8090000 		.4byte	.LBE225-.Ltext0
 20346 0890 90090000 		.4byte	.LBB224-.Ltext0
 20347 0894 94090000 		.4byte	.LBE224-.Ltext0
 20348 0898 7C090000 		.4byte	.LBB222-.Ltext0
 20349 089c 80090000 		.4byte	.LBE222-.Ltext0
 20350 08a0 00000000 		.4byte	0x0
 20351 08a4 00000000 		.4byte	0x0
 20352 08a8 9C0A0000 		.4byte	.LBB231-.Ltext0
 20353 08ac A80A0000 		.4byte	.LBE231-.Ltext0
 20354 08b0 B40A0000 		.4byte	.LBB233-.Ltext0
 20355 08b4 B80A0000 		.4byte	.LBE233-.Ltext0
 20356 08b8 AC0A0000 		.4byte	.LBB232-.Ltext0
 20357 08bc B00A0000 		.4byte	.LBE232-.Ltext0
 20358 08c0 00000000 		.4byte	0x0
 20359 08c4 00000000 		.4byte	0x0
 20360 08c8 400C0000 		.4byte	.LBB234-.Ltext0
 20361 08cc 440C0000 		.4byte	.LBE234-.Ltext0
 20362 08d0 780C0000 		.4byte	.LBB237-.Ltext0
 20363 08d4 7C0C0000 		.4byte	.LBE237-.Ltext0
 20364 08d8 540C0000 		.4byte	.LBB235-.Ltext0
 20365 08dc 680C0000 		.4byte	.LBE235-.Ltext0
 20366 08e0 00000000 		.4byte	0x0
 20367 08e4 00000000 		.4byte	0x0
ARM GAS  /cygdrive/c/DOCUME~1/mkwapisz/LOCALS~1/Temp/cc1OEM1Z.s 			page 375


 20368 08e8 680C0000 		.4byte	.LBB236-.Ltext0
 20369 08ec 780C0000 		.4byte	.LBE236-.Ltext0
 20370 08f0 7C0C0000 		.4byte	.LBB238-.Ltext0
 20371 08f4 880C0000 		.4byte	.LBE238-.Ltext0
 20372 08f8 00000000 		.4byte	0x0
 20373 08fc 00000000 		.4byte	0x0
 20374 0900 B80C0000 		.4byte	.LBB240-.Ltext0
 20375 0904 C00C0000 		.4byte	.LBE240-.Ltext0
 20376 0908 F80C0000 		.4byte	.LBB246-.Ltext0
 20377 090c 000D0000 		.4byte	.LBE246-.Ltext0
 20378 0910 E80C0000 		.4byte	.LBB244-.Ltext0
 20379 0914 EC0C0000 		.4byte	.LBE244-.Ltext0
 20380 0918 CC0C0000 		.4byte	.LBB242-.Ltext0
 20381 091c DC0C0000 		.4byte	.LBE242-.Ltext0
 20382 0920 C40C0000 		.4byte	.LBB241-.Ltext0
 20383 0924 C80C0000 		.4byte	.LBE241-.Ltext0
 20384 0928 00000000 		.4byte	0x0
 20385 092c 00000000 		.4byte	0x0
 20386 0930 DC0C0000 		.4byte	.LBB243-.Ltext0
 20387 0934 E80C0000 		.4byte	.LBE243-.Ltext0
 20388 0938 380D0000 		.4byte	.LBB252-.Ltext0
 20389 093c 3C0D0000 		.4byte	.LBE252-.Ltext0
 20390 0940 0C0D0000 		.4byte	.LBB248-.Ltext0
 20391 0944 100D0000 		.4byte	.LBE248-.Ltext0
 20392 0948 000D0000 		.4byte	.LBB247-.Ltext0
 20393 094c 080D0000 		.4byte	.LBE247-.Ltext0
 20394 0950 EC0C0000 		.4byte	.LBB245-.Ltext0
 20395 0954 F80C0000 		.4byte	.LBE245-.Ltext0
 20396 0958 00000000 		.4byte	0x0
 20397 095c 00000000 		.4byte	0x0
 20398 0960 140D0000 		.4byte	.LBB249-.Ltext0
 20399 0964 1C0D0000 		.4byte	.LBE249-.Ltext0
 20400 0968 5C0D0000 		.4byte	.LBB257-.Ltext0
 20401 096c 640D0000 		.4byte	.LBE257-.Ltext0
 20402 0970 480D0000 		.4byte	.LBB255-.Ltext0
 20403 0974 4C0D0000 		.4byte	.LBE255-.Ltext0
 20404 0978 3C0D0000 		.4byte	.LBB253-.Ltext0
 20405 097c 400D0000 		.4byte	.LBE253-.Ltext0
 20406 0980 280D0000 		.4byte	.LBB251-.Ltext0
 20407 0984 340D0000 		.4byte	.LBE251-.Ltext0
 20408 0988 200D0000 		.4byte	.LBB250-.Ltext0
 20409 098c 240D0000 		.4byte	.LBE250-.Ltext0
 20410 0990 00000000 		.4byte	0x0
 20411 0994 00000000 		.4byte	0x0
 20412 0998 400D0000 		.4byte	.LBB254-.Ltext0
 20413 099c 480D0000 		.4byte	.LBE254-.Ltext0
 20414 09a0 980D0000 		.4byte	.LBB263-.Ltext0
 20415 09a4 9C0D0000 		.4byte	.LBE263-.Ltext0
 20416 09a8 700D0000 		.4byte	.LBB259-.Ltext0
 20417 09ac 740D0000 		.4byte	.LBE259-.Ltext0
 20418 09b0 640D0000 		.4byte	.LBB258-.Ltext0
 20419 09b4 6C0D0000 		.4byte	.LBE258-.Ltext0
 20420 09b8 4C0D0000 		.4byte	.LBB256-.Ltext0
 20421 09bc 5C0D0000 		.4byte	.LBE256-.Ltext0
 20422 09c0 00000000 		.4byte	0x0
 20423 09c4 00000000 		.4byte	0x0
 20424 09c8 780D0000 		.4byte	.LBB260-.Ltext0
ARM GAS  /cygdrive/c/DOCUME~1/mkwapisz/LOCALS~1/Temp/cc1OEM1Z.s 			page 376


 20425 09cc 800D0000 		.4byte	.LBE260-.Ltext0
 20426 09d0 C00D0000 		.4byte	.LBB268-.Ltext0
 20427 09d4 C80D0000 		.4byte	.LBE268-.Ltext0
 20428 09d8 AC0D0000 		.4byte	.LBB266-.Ltext0
 20429 09dc B00D0000 		.4byte	.LBE266-.Ltext0
 20430 09e0 A00D0000 		.4byte	.LBB264-.Ltext0
 20431 09e4 A40D0000 		.4byte	.LBE264-.Ltext0
 20432 09e8 8C0D0000 		.4byte	.LBB262-.Ltext0
 20433 09ec 980D0000 		.4byte	.LBE262-.Ltext0
 20434 09f0 840D0000 		.4byte	.LBB261-.Ltext0
 20435 09f4 880D0000 		.4byte	.LBE261-.Ltext0
 20436 09f8 00000000 		.4byte	0x0
 20437 09fc 00000000 		.4byte	0x0
 20438 0a00 A40D0000 		.4byte	.LBB265-.Ltext0
 20439 0a04 AC0D0000 		.4byte	.LBE265-.Ltext0
 20440 0a08 080E0000 		.4byte	.LBB274-.Ltext0
 20441 0a0c 0C0E0000 		.4byte	.LBE274-.Ltext0
 20442 0a10 D40D0000 		.4byte	.LBB270-.Ltext0
 20443 0a14 D80D0000 		.4byte	.LBE270-.Ltext0
 20444 0a18 C80D0000 		.4byte	.LBB269-.Ltext0
 20445 0a1c D00D0000 		.4byte	.LBE269-.Ltext0
 20446 0a20 B00D0000 		.4byte	.LBB267-.Ltext0
 20447 0a24 C00D0000 		.4byte	.LBE267-.Ltext0
 20448 0a28 00000000 		.4byte	0x0
 20449 0a2c 00000000 		.4byte	0x0
 20450 0a30 E40D0000 		.4byte	.LBB271-.Ltext0
 20451 0a34 EC0D0000 		.4byte	.LBE271-.Ltext0
 20452 0a38 240E0000 		.4byte	.LBB279-.Ltext0
 20453 0a3c 280E0000 		.4byte	.LBE279-.Ltext0
 20454 0a40 1C0E0000 		.4byte	.LBB277-.Ltext0
 20455 0a44 200E0000 		.4byte	.LBE277-.Ltext0
 20456 0a48 100E0000 		.4byte	.LBB275-.Ltext0
 20457 0a4c 140E0000 		.4byte	.LBE275-.Ltext0
 20458 0a50 F80D0000 		.4byte	.LBB273-.Ltext0
 20459 0a54 040E0000 		.4byte	.LBE273-.Ltext0
 20460 0a58 F00D0000 		.4byte	.LBB272-.Ltext0
 20461 0a5c F40D0000 		.4byte	.LBE272-.Ltext0
 20462 0a60 00000000 		.4byte	0x0
 20463 0a64 00000000 		.4byte	0x0
 20464 0a68 140E0000 		.4byte	.LBB276-.Ltext0
 20465 0a6c 1C0E0000 		.4byte	.LBE276-.Ltext0
 20466 0a70 280E0000 		.4byte	.LBB280-.Ltext0
 20467 0a74 400E0000 		.4byte	.LBE280-.Ltext0
 20468 0a78 200E0000 		.4byte	.LBB278-.Ltext0
 20469 0a7c 240E0000 		.4byte	.LBE278-.Ltext0
 20470 0a80 00000000 		.4byte	0x0
 20471 0a84 00000000 		.4byte	0x0
 20472 0a88 440E0000 		.4byte	.LBB281-.Ltext0
 20473 0a8c 480E0000 		.4byte	.LBE281-.Ltext0
 20474 0a90 5C0E0000 		.4byte	.LBB284-.Ltext0
 20475 0a94 6C0E0000 		.4byte	.LBE284-.Ltext0
 20476 0a98 540E0000 		.4byte	.LBB283-.Ltext0
 20477 0a9c 580E0000 		.4byte	.LBE283-.Ltext0
 20478 0aa0 4C0E0000 		.4byte	.LBB282-.Ltext0
 20479 0aa4 500E0000 		.4byte	.LBE282-.Ltext0
 20480 0aa8 00000000 		.4byte	0x0
 20481 0aac 00000000 		.4byte	0x0
ARM GAS  /cygdrive/c/DOCUME~1/mkwapisz/LOCALS~1/Temp/cc1OEM1Z.s 			page 377


 20482 0ab0 780E0000 		.4byte	.LBB285-.Ltext0
 20483 0ab4 800E0000 		.4byte	.LBE285-.Ltext0
 20484 0ab8 840E0000 		.4byte	.LBB286-.Ltext0
 20485 0abc 900E0000 		.4byte	.LBE286-.Ltext0
 20486 0ac0 00000000 		.4byte	0x0
 20487 0ac4 00000000 		.4byte	0x0
 20488 0ac8 9C0E0000 		.4byte	.LBB287-.Ltext0
 20489 0acc A40E0000 		.4byte	.LBE287-.Ltext0
 20490 0ad0 DC0E0000 		.4byte	.LBB293-.Ltext0
 20491 0ad4 E40E0000 		.4byte	.LBE293-.Ltext0
 20492 0ad8 CC0E0000 		.4byte	.LBB291-.Ltext0
 20493 0adc D00E0000 		.4byte	.LBE291-.Ltext0
 20494 0ae0 B00E0000 		.4byte	.LBB289-.Ltext0
 20495 0ae4 C00E0000 		.4byte	.LBE289-.Ltext0
 20496 0ae8 A80E0000 		.4byte	.LBB288-.Ltext0
 20497 0aec AC0E0000 		.4byte	.LBE288-.Ltext0
 20498 0af0 00000000 		.4byte	0x0
 20499 0af4 00000000 		.4byte	0x0
 20500 0af8 C00E0000 		.4byte	.LBB290-.Ltext0
 20501 0afc CC0E0000 		.4byte	.LBE290-.Ltext0
 20502 0b00 040F0000 		.4byte	.LBB297-.Ltext0
 20503 0b04 080F0000 		.4byte	.LBE297-.Ltext0
 20504 0b08 F00E0000 		.4byte	.LBB295-.Ltext0
 20505 0b0c F40E0000 		.4byte	.LBE295-.Ltext0
 20506 0b10 E40E0000 		.4byte	.LBB294-.Ltext0
 20507 0b14 EC0E0000 		.4byte	.LBE294-.Ltext0
 20508 0b18 D00E0000 		.4byte	.LBB292-.Ltext0
 20509 0b1c DC0E0000 		.4byte	.LBE292-.Ltext0
 20510 0b20 00000000 		.4byte	0x0
 20511 0b24 00000000 		.4byte	0x0
 20512 0b28 FC0E0000 		.4byte	.LBB296-.Ltext0
 20513 0b2c 040F0000 		.4byte	.LBE296-.Ltext0
 20514 0b30 280F0000 		.4byte	.LBB300-.Ltext0
 20515 0b34 2C0F0000 		.4byte	.LBE300-.Ltext0
 20516 0b38 180F0000 		.4byte	.LBB299-.Ltext0
 20517 0b3c 240F0000 		.4byte	.LBE299-.Ltext0
 20518 0b40 100F0000 		.4byte	.LBB298-.Ltext0
 20519 0b44 140F0000 		.4byte	.LBE298-.Ltext0
 20520 0b48 00000000 		.4byte	0x0
 20521 0b4c 00000000 		.4byte	0x0
 20522 0b50 2C0F0000 		.4byte	.LBB301-.Ltext0
 20523 0b54 340F0000 		.4byte	.LBE301-.Ltext0
 20524 0b58 600F0000 		.4byte	.LBB306-.Ltext0
 20525 0b5c 680F0000 		.4byte	.LBE306-.Ltext0
 20526 0b60 540F0000 		.4byte	.LBB304-.Ltext0
 20527 0b64 580F0000 		.4byte	.LBE304-.Ltext0
 20528 0b68 440F0000 		.4byte	.LBB303-.Ltext0
 20529 0b6c 500F0000 		.4byte	.LBE303-.Ltext0
 20530 0b70 3C0F0000 		.4byte	.LBB302-.Ltext0
 20531 0b74 400F0000 		.4byte	.LBE302-.Ltext0
 20532 0b78 00000000 		.4byte	0x0
 20533 0b7c 00000000 		.4byte	0x0
 20534 0b80 580F0000 		.4byte	.LBB305-.Ltext0
 20535 0b84 600F0000 		.4byte	.LBE305-.Ltext0
 20536 0b88 680F0000 		.4byte	.LBB307-.Ltext0
 20537 0b8c 840F0000 		.4byte	.LBE307-.Ltext0
 20538 0b90 00000000 		.4byte	0x0
ARM GAS  /cygdrive/c/DOCUME~1/mkwapisz/LOCALS~1/Temp/cc1OEM1Z.s 			page 378


 20539 0b94 00000000 		.4byte	0x0
 20540 0b98 900F0000 		.4byte	.LBB308-.Ltext0
 20541 0b9c 980F0000 		.4byte	.LBE308-.Ltext0
 20542 0ba0 A40F0000 		.4byte	.LBB310-.Ltext0
 20543 0ba4 B40F0000 		.4byte	.LBE310-.Ltext0
 20544 0ba8 9C0F0000 		.4byte	.LBB309-.Ltext0
 20545 0bac A00F0000 		.4byte	.LBE309-.Ltext0
 20546 0bb0 00000000 		.4byte	0x0
 20547 0bb4 00000000 		.4byte	0x0
 20548 0bb8 B80F0000 		.4byte	.LBB311-.Ltext0
 20549 0bbc BC0F0000 		.4byte	.LBE311-.Ltext0
 20550 0bc0 D40F0000 		.4byte	.LBB314-.Ltext0
 20551 0bc4 E00F0000 		.4byte	.LBE314-.Ltext0
 20552 0bc8 C80F0000 		.4byte	.LBB313-.Ltext0
 20553 0bcc D00F0000 		.4byte	.LBE313-.Ltext0
 20554 0bd0 C00F0000 		.4byte	.LBB312-.Ltext0
 20555 0bd4 C40F0000 		.4byte	.LBE312-.Ltext0
 20556 0bd8 00000000 		.4byte	0x0
 20557 0bdc 00000000 		.4byte	0x0
 20558 0be0 EC0F0000 		.4byte	.LBB315-.Ltext0
 20559 0be4 F40F0000 		.4byte	.LBE315-.Ltext0
 20560 0be8 00100000 		.4byte	.LBB317-.Ltext0
 20561 0bec 10100000 		.4byte	.LBE317-.Ltext0
 20562 0bf0 F80F0000 		.4byte	.LBB316-.Ltext0
 20563 0bf4 FC0F0000 		.4byte	.LBE316-.Ltext0
 20564 0bf8 00000000 		.4byte	0x0
 20565 0bfc 00000000 		.4byte	0x0
 20566 0c00 24100000 		.4byte	.LBB318-.Ltext0
 20567 0c04 2C100000 		.4byte	.LBE318-.Ltext0
 20568 0c08 30100000 		.4byte	.LBB319-.Ltext0
 20569 0c0c 3C100000 		.4byte	.LBE319-.Ltext0
 20570 0c10 00000000 		.4byte	0x0
 20571 0c14 00000000 		.4byte	0x0
 20572 0c18 4C100000 		.4byte	.LBB320-.Ltext0
 20573 0c1c 50100000 		.4byte	.LBE320-.Ltext0
 20574 0c20 94100000 		.4byte	.LBB326-.Ltext0
 20575 0c24 98100000 		.4byte	.LBE326-.Ltext0
 20576 0c28 80100000 		.4byte	.LBB324-.Ltext0
 20577 0c2c 84100000 		.4byte	.LBE324-.Ltext0
 20578 0c30 64100000 		.4byte	.LBB322-.Ltext0
 20579 0c34 70100000 		.4byte	.LBE322-.Ltext0
 20580 0c38 54100000 		.4byte	.LBB321-.Ltext0
 20581 0c3c 60100000 		.4byte	.LBE321-.Ltext0
 20582 0c40 00000000 		.4byte	0x0
 20583 0c44 00000000 		.4byte	0x0
 20584 0c48 70100000 		.4byte	.LBB323-.Ltext0
 20585 0c4c 80100000 		.4byte	.LBE323-.Ltext0
 20586 0c50 98100000 		.4byte	.LBB327-.Ltext0
 20587 0c54 9C100000 		.4byte	.LBE327-.Ltext0
 20588 0c58 84100000 		.4byte	.LBB325-.Ltext0
 20589 0c5c 94100000 		.4byte	.LBE325-.Ltext0
 20590 0c60 00000000 		.4byte	0x0
 20591 0c64 00000000 		.4byte	0x0
 20592 0c68 AC100000 		.4byte	.LBB328-.Ltext0
 20593 0c6c B4100000 		.4byte	.LBE328-.Ltext0
 20594 0c70 B8100000 		.4byte	.LBB329-.Ltext0
 20595 0c74 CC100000 		.4byte	.LBE329-.Ltext0
ARM GAS  /cygdrive/c/DOCUME~1/mkwapisz/LOCALS~1/Temp/cc1OEM1Z.s 			page 379


 20596 0c78 00000000 		.4byte	0x0
 20597 0c7c 00000000 		.4byte	0x0
 20598 0c80 D4100000 		.4byte	.LBB330-.Ltext0
 20599 0c84 DC100000 		.4byte	.LBE330-.Ltext0
 20600 0c88 00110000 		.4byte	.LBB332-.Ltext0
 20601 0c8c 04110000 		.4byte	.LBE332-.Ltext0
 20602 0c90 EC100000 		.4byte	.LBB331-.Ltext0
 20603 0c94 FC100000 		.4byte	.LBE331-.Ltext0
 20604 0c98 00000000 		.4byte	0x0
 20605 0c9c 00000000 		.4byte	0x0
 20606 0ca0 18110000 		.4byte	.LBB333-.Ltext0
 20607 0ca4 20110000 		.4byte	.LBE333-.Ltext0
 20608 0ca8 38110000 		.4byte	.LBB335-.Ltext0
 20609 0cac 44110000 		.4byte	.LBE335-.Ltext0
 20610 0cb0 24110000 		.4byte	.LBB334-.Ltext0
 20611 0cb4 2C110000 		.4byte	.LBE334-.Ltext0
 20612 0cb8 00000000 		.4byte	0x0
 20613 0cbc 00000000 		.4byte	0x0
 20614 0cc0 50110000 		.4byte	.LBB336-.Ltext0
 20615 0cc4 58110000 		.4byte	.LBE336-.Ltext0
 20616 0cc8 68110000 		.4byte	.LBB338-.Ltext0
 20617 0ccc 78110000 		.4byte	.LBE338-.Ltext0
 20618 0cd0 60110000 		.4byte	.LBB337-.Ltext0
 20619 0cd4 64110000 		.4byte	.LBE337-.Ltext0
 20620 0cd8 00000000 		.4byte	0x0
 20621 0cdc 00000000 		.4byte	0x0
 20622 0ce0 88110000 		.4byte	.LBB339-.Ltext0
 20623 0ce4 90110000 		.4byte	.LBE339-.Ltext0
 20624 0ce8 A0110000 		.4byte	.LBB341-.Ltext0
 20625 0cec AC110000 		.4byte	.LBE341-.Ltext0
 20626 0cf0 94110000 		.4byte	.LBB340-.Ltext0
 20627 0cf4 9C110000 		.4byte	.LBE340-.Ltext0
 20628 0cf8 00000000 		.4byte	0x0
 20629 0cfc 00000000 		.4byte	0x0
 20630 0d00 C0110000 		.4byte	.LBB342-.Ltext0
 20631 0d04 C8110000 		.4byte	.LBE342-.Ltext0
 20632 0d08 54120000 		.4byte	.LBB344-.Ltext0
 20633 0d0c 64120000 		.4byte	.LBE344-.Ltext0
 20634 0d10 CC110000 		.4byte	.LBB343-.Ltext0
 20635 0d14 D0110000 		.4byte	.LBE343-.Ltext0
 20636 0d18 00000000 		.4byte	0x0
 20637 0d1c 00000000 		.4byte	0x0
 20638 0d20 D0160000 		.4byte	.LBB346-.Ltext0
 20639 0d24 D4160000 		.4byte	.LBE346-.Ltext0
 20640 0d28 C8170000 		.4byte	.LBB377-.Ltext0
 20641 0d2c E0170000 		.4byte	.LBE377-.Ltext0
 20642 0d30 E4160000 		.4byte	.LBB348-.Ltext0
 20643 0d34 E8160000 		.4byte	.LBE348-.Ltext0
 20644 0d38 00000000 		.4byte	0x0
 20645 0d3c 00000000 		.4byte	0x0
 20646 0d40 E0160000 		.4byte	.LBB347-.Ltext0
 20647 0d44 E4160000 		.4byte	.LBE347-.Ltext0
 20648 0d48 B0170000 		.4byte	.LBB376-.Ltext0
 20649 0d4c C8170000 		.4byte	.LBE376-.Ltext0
 20650 0d50 08170000 		.4byte	.LBB354-.Ltext0
 20651 0d54 0C170000 		.4byte	.LBE354-.Ltext0
 20652 0d58 00000000 		.4byte	0x0
ARM GAS  /cygdrive/c/DOCUME~1/mkwapisz/LOCALS~1/Temp/cc1OEM1Z.s 			page 380


 20653 0d5c 00000000 		.4byte	0x0
 20654 0d60 E8160000 		.4byte	.LBB349-.Ltext0
 20655 0d64 EC160000 		.4byte	.LBE349-.Ltext0
 20656 0d68 8C180000 		.4byte	.LBB385-.Ltext0
 20657 0d6c A4180000 		.4byte	.LBE385-.Ltext0
 20658 0d70 14170000 		.4byte	.LBB357-.Ltext0
 20659 0d74 1C170000 		.4byte	.LBE357-.Ltext0
 20660 0d78 00000000 		.4byte	0x0
 20661 0d7c 00000000 		.4byte	0x0
 20662 0d80 EC160000 		.4byte	.LBB350-.Ltext0
 20663 0d84 F0160000 		.4byte	.LBE350-.Ltext0
 20664 0d88 28180000 		.4byte	.LBB381-.Ltext0
 20665 0d8c 40180000 		.4byte	.LBE381-.Ltext0
 20666 0d90 28170000 		.4byte	.LBB361-.Ltext0
 20667 0d94 2C170000 		.4byte	.LBE361-.Ltext0
 20668 0d98 00000000 		.4byte	0x0
 20669 0d9c 00000000 		.4byte	0x0
 20670 0da0 F0160000 		.4byte	.LBB351-.Ltext0
 20671 0da4 F4160000 		.4byte	.LBE351-.Ltext0
 20672 0da8 40180000 		.4byte	.LBB382-.Ltext0
 20673 0dac 58180000 		.4byte	.LBE382-.Ltext0
 20674 0db0 2C170000 		.4byte	.LBB362-.Ltext0
 20675 0db4 30170000 		.4byte	.LBE362-.Ltext0
 20676 0db8 00000000 		.4byte	0x0
 20677 0dbc 00000000 		.4byte	0x0
 20678 0dc0 FC160000 		.4byte	.LBB352-.Ltext0
 20679 0dc4 00170000 		.4byte	.LBE352-.Ltext0
 20680 0dc8 F8170000 		.4byte	.LBB379-.Ltext0
 20681 0dcc 10180000 		.4byte	.LBE379-.Ltext0
 20682 0dd0 20170000 		.4byte	.LBB359-.Ltext0
 20683 0dd4 24170000 		.4byte	.LBE359-.Ltext0
 20684 0dd8 00000000 		.4byte	0x0
 20685 0ddc 00000000 		.4byte	0x0
 20686 0de0 00170000 		.4byte	.LBB353-.Ltext0
 20687 0de4 08170000 		.4byte	.LBE353-.Ltext0
 20688 0de8 10180000 		.4byte	.LBB380-.Ltext0
 20689 0dec 28180000 		.4byte	.LBE380-.Ltext0
 20690 0df0 24170000 		.4byte	.LBB360-.Ltext0
 20691 0df4 28170000 		.4byte	.LBE360-.Ltext0
 20692 0df8 00000000 		.4byte	0x0
 20693 0dfc 00000000 		.4byte	0x0
 20694 0e00 0C170000 		.4byte	.LBB355-.Ltext0
 20695 0e04 10170000 		.4byte	.LBE355-.Ltext0
 20696 0e08 E0170000 		.4byte	.LBB378-.Ltext0
 20697 0e0c F8170000 		.4byte	.LBE378-.Ltext0
 20698 0e10 1C170000 		.4byte	.LBB358-.Ltext0
 20699 0e14 20170000 		.4byte	.LBE358-.Ltext0
 20700 0e18 00000000 		.4byte	0x0
 20701 0e1c 00000000 		.4byte	0x0
 20702 0e20 10170000 		.4byte	.LBB356-.Ltext0
 20703 0e24 14170000 		.4byte	.LBE356-.Ltext0
 20704 0e28 74180000 		.4byte	.LBB384-.Ltext0
 20705 0e2c 8C180000 		.4byte	.LBE384-.Ltext0
 20706 0e30 30170000 		.4byte	.LBB363-.Ltext0
 20707 0e34 34170000 		.4byte	.LBE363-.Ltext0
 20708 0e38 00000000 		.4byte	0x0
 20709 0e3c 00000000 		.4byte	0x0
ARM GAS  /cygdrive/c/DOCUME~1/mkwapisz/LOCALS~1/Temp/cc1OEM1Z.s 			page 381


 20710 0e40 34170000 		.4byte	.LBB364-.Ltext0
 20711 0e44 38170000 		.4byte	.LBE364-.Ltext0
 20712 0e48 A4180000 		.4byte	.LBB386-.Ltext0
 20713 0e4c BC180000 		.4byte	.LBE386-.Ltext0
 20714 0e50 4C170000 		.4byte	.LBB369-.Ltext0
 20715 0e54 50170000 		.4byte	.LBE369-.Ltext0
 20716 0e58 00000000 		.4byte	0x0
 20717 0e5c 00000000 		.4byte	0x0
 20718 0e60 38170000 		.4byte	.LBB365-.Ltext0
 20719 0e64 3C170000 		.4byte	.LBE365-.Ltext0
 20720 0e68 BC180000 		.4byte	.LBB387-.Ltext0
 20721 0e6c D4180000 		.4byte	.LBE387-.Ltext0
 20722 0e70 50170000 		.4byte	.LBB370-.Ltext0
 20723 0e74 54170000 		.4byte	.LBE370-.Ltext0
 20724 0e78 00000000 		.4byte	0x0
 20725 0e7c 00000000 		.4byte	0x0
 20726 0e80 3C170000 		.4byte	.LBB366-.Ltext0
 20727 0e84 40170000 		.4byte	.LBE366-.Ltext0
 20728 0e88 D4180000 		.4byte	.LBB388-.Ltext0
 20729 0e8c EC180000 		.4byte	.LBE388-.Ltext0
 20730 0e90 54170000 		.4byte	.LBB371-.Ltext0
 20731 0e94 58170000 		.4byte	.LBE371-.Ltext0
 20732 0e98 00000000 		.4byte	0x0
 20733 0e9c 00000000 		.4byte	0x0
 20734 0ea0 40170000 		.4byte	.LBB367-.Ltext0
 20735 0ea4 44170000 		.4byte	.LBE367-.Ltext0
 20736 0ea8 EC180000 		.4byte	.LBB389-.Ltext0
 20737 0eac 04190000 		.4byte	.LBE389-.Ltext0
 20738 0eb0 58170000 		.4byte	.LBB372-.Ltext0
 20739 0eb4 5C170000 		.4byte	.LBE372-.Ltext0
 20740 0eb8 00000000 		.4byte	0x0
 20741 0ebc 00000000 		.4byte	0x0
 20742 0ec0 44170000 		.4byte	.LBB368-.Ltext0
 20743 0ec4 4C170000 		.4byte	.LBE368-.Ltext0
 20744 0ec8 04190000 		.4byte	.LBB390-.Ltext0
 20745 0ecc 1C190000 		.4byte	.LBE390-.Ltext0
 20746 0ed0 5C170000 		.4byte	.LBB373-.Ltext0
 20747 0ed4 6C170000 		.4byte	.LBE373-.Ltext0
 20748 0ed8 00000000 		.4byte	0x0
 20749 0edc 00000000 		.4byte	0x0
 20750 0ee0 98170000 		.4byte	.LBB374-.Ltext0
 20751 0ee4 9C170000 		.4byte	.LBE374-.Ltext0
 20752 0ee8 A0170000 		.4byte	.LBB375-.Ltext0
 20753 0eec B0170000 		.4byte	.LBE375-.Ltext0
 20754 0ef0 00000000 		.4byte	0x0
 20755 0ef4 00000000 		.4byte	0x0
 20756 0ef8 001A0000 		.4byte	.LBB398-.Ltext0
 20757 0efc 0C1A0000 		.4byte	.LBE398-.Ltext0
 20758 0f00 101A0000 		.4byte	.LBB399-.Ltext0
 20759 0f04 181A0000 		.4byte	.LBE399-.Ltext0
 20760 0f08 00000000 		.4byte	0x0
 20761 0f0c 00000000 		.4byte	0x0
 20762 0f10 701B0000 		.4byte	.LBB415-.Ltext0
 20763 0f14 7C1B0000 		.4byte	.LBE415-.Ltext0
 20764 0f18 801B0000 		.4byte	.LBB416-.Ltext0
 20765 0f1c 881B0000 		.4byte	.LBE416-.Ltext0
 20766 0f20 00000000 		.4byte	0x0
ARM GAS  /cygdrive/c/DOCUME~1/mkwapisz/LOCALS~1/Temp/cc1OEM1Z.s 			page 382


 20767 0f24 00000000 		.4byte	0x0
 20768 0f28 541C0000 		.4byte	.LBB425-.Ltext0
 20769 0f2c 5C1C0000 		.4byte	.LBE425-.Ltext0
 20770 0f30 781C0000 		.4byte	.LBB428-.Ltext0
 20771 0f34 801C0000 		.4byte	.LBE428-.Ltext0
 20772 0f38 701C0000 		.4byte	.LBB427-.Ltext0
 20773 0f3c 741C0000 		.4byte	.LBE427-.Ltext0
 20774 0f40 641C0000 		.4byte	.LBB426-.Ltext0
 20775 0f44 6C1C0000 		.4byte	.LBE426-.Ltext0
 20776 0f48 00000000 		.4byte	0x0
 20777 0f4c 00000000 		.4byte	0x0
 20778 0f50 B8210000 		.4byte	.LBB436-.Ltext0
 20779 0f54 BC210000 		.4byte	.LBE436-.Ltext0
 20780 0f58 B0220000 		.4byte	.LBB467-.Ltext0
 20781 0f5c C8220000 		.4byte	.LBE467-.Ltext0
 20782 0f60 CC210000 		.4byte	.LBB438-.Ltext0
 20783 0f64 D0210000 		.4byte	.LBE438-.Ltext0
 20784 0f68 00000000 		.4byte	0x0
 20785 0f6c 00000000 		.4byte	0x0
 20786 0f70 C8210000 		.4byte	.LBB437-.Ltext0
 20787 0f74 CC210000 		.4byte	.LBE437-.Ltext0
 20788 0f78 98220000 		.4byte	.LBB466-.Ltext0
 20789 0f7c B0220000 		.4byte	.LBE466-.Ltext0
 20790 0f80 F0210000 		.4byte	.LBB444-.Ltext0
 20791 0f84 F4210000 		.4byte	.LBE444-.Ltext0
 20792 0f88 00000000 		.4byte	0x0
 20793 0f8c 00000000 		.4byte	0x0
 20794 0f90 D0210000 		.4byte	.LBB439-.Ltext0
 20795 0f94 D4210000 		.4byte	.LBE439-.Ltext0
 20796 0f98 74230000 		.4byte	.LBB475-.Ltext0
 20797 0f9c 8C230000 		.4byte	.LBE475-.Ltext0
 20798 0fa0 FC210000 		.4byte	.LBB447-.Ltext0
 20799 0fa4 04220000 		.4byte	.LBE447-.Ltext0
 20800 0fa8 00000000 		.4byte	0x0
 20801 0fac 00000000 		.4byte	0x0
 20802 0fb0 D4210000 		.4byte	.LBB440-.Ltext0
 20803 0fb4 D8210000 		.4byte	.LBE440-.Ltext0
 20804 0fb8 10230000 		.4byte	.LBB471-.Ltext0
 20805 0fbc 28230000 		.4byte	.LBE471-.Ltext0
 20806 0fc0 10220000 		.4byte	.LBB451-.Ltext0
 20807 0fc4 14220000 		.4byte	.LBE451-.Ltext0
 20808 0fc8 00000000 		.4byte	0x0
 20809 0fcc 00000000 		.4byte	0x0
 20810 0fd0 D8210000 		.4byte	.LBB441-.Ltext0
 20811 0fd4 DC210000 		.4byte	.LBE441-.Ltext0
 20812 0fd8 28230000 		.4byte	.LBB472-.Ltext0
 20813 0fdc 40230000 		.4byte	.LBE472-.Ltext0
 20814 0fe0 14220000 		.4byte	.LBB452-.Ltext0
 20815 0fe4 18220000 		.4byte	.LBE452-.Ltext0
 20816 0fe8 00000000 		.4byte	0x0
 20817 0fec 00000000 		.4byte	0x0
 20818 0ff0 E4210000 		.4byte	.LBB442-.Ltext0
 20819 0ff4 E8210000 		.4byte	.LBE442-.Ltext0
 20820 0ff8 E0220000 		.4byte	.LBB469-.Ltext0
 20821 0ffc F8220000 		.4byte	.LBE469-.Ltext0
 20822 1000 08220000 		.4byte	.LBB449-.Ltext0
 20823 1004 0C220000 		.4byte	.LBE449-.Ltext0
ARM GAS  /cygdrive/c/DOCUME~1/mkwapisz/LOCALS~1/Temp/cc1OEM1Z.s 			page 383


 20824 1008 00000000 		.4byte	0x0
 20825 100c 00000000 		.4byte	0x0
 20826 1010 E8210000 		.4byte	.LBB443-.Ltext0
 20827 1014 F0210000 		.4byte	.LBE443-.Ltext0
 20828 1018 F8220000 		.4byte	.LBB470-.Ltext0
 20829 101c 10230000 		.4byte	.LBE470-.Ltext0
 20830 1020 0C220000 		.4byte	.LBB450-.Ltext0
 20831 1024 10220000 		.4byte	.LBE450-.Ltext0
 20832 1028 00000000 		.4byte	0x0
 20833 102c 00000000 		.4byte	0x0
 20834 1030 F4210000 		.4byte	.LBB445-.Ltext0
 20835 1034 F8210000 		.4byte	.LBE445-.Ltext0
 20836 1038 C8220000 		.4byte	.LBB468-.Ltext0
 20837 103c E0220000 		.4byte	.LBE468-.Ltext0
 20838 1040 04220000 		.4byte	.LBB448-.Ltext0
 20839 1044 08220000 		.4byte	.LBE448-.Ltext0
 20840 1048 00000000 		.4byte	0x0
 20841 104c 00000000 		.4byte	0x0
 20842 1050 F8210000 		.4byte	.LBB446-.Ltext0
 20843 1054 FC210000 		.4byte	.LBE446-.Ltext0
 20844 1058 5C230000 		.4byte	.LBB474-.Ltext0
 20845 105c 74230000 		.4byte	.LBE474-.Ltext0
 20846 1060 18220000 		.4byte	.LBB453-.Ltext0
 20847 1064 1C220000 		.4byte	.LBE453-.Ltext0
 20848 1068 00000000 		.4byte	0x0
 20849 106c 00000000 		.4byte	0x0
 20850 1070 1C220000 		.4byte	.LBB454-.Ltext0
 20851 1074 20220000 		.4byte	.LBE454-.Ltext0
 20852 1078 8C230000 		.4byte	.LBB476-.Ltext0
 20853 107c A4230000 		.4byte	.LBE476-.Ltext0
 20854 1080 34220000 		.4byte	.LBB459-.Ltext0
 20855 1084 38220000 		.4byte	.LBE459-.Ltext0
 20856 1088 00000000 		.4byte	0x0
 20857 108c 00000000 		.4byte	0x0
 20858 1090 20220000 		.4byte	.LBB455-.Ltext0
 20859 1094 24220000 		.4byte	.LBE455-.Ltext0
 20860 1098 A4230000 		.4byte	.LBB477-.Ltext0
 20861 109c BC230000 		.4byte	.LBE477-.Ltext0
 20862 10a0 38220000 		.4byte	.LBB460-.Ltext0
 20863 10a4 3C220000 		.4byte	.LBE460-.Ltext0
 20864 10a8 00000000 		.4byte	0x0
 20865 10ac 00000000 		.4byte	0x0
 20866 10b0 24220000 		.4byte	.LBB456-.Ltext0
 20867 10b4 28220000 		.4byte	.LBE456-.Ltext0
 20868 10b8 BC230000 		.4byte	.LBB478-.Ltext0
 20869 10bc D4230000 		.4byte	.LBE478-.Ltext0
 20870 10c0 3C220000 		.4byte	.LBB461-.Ltext0
 20871 10c4 40220000 		.4byte	.LBE461-.Ltext0
 20872 10c8 00000000 		.4byte	0x0
 20873 10cc 00000000 		.4byte	0x0
 20874 10d0 28220000 		.4byte	.LBB457-.Ltext0
 20875 10d4 2C220000 		.4byte	.LBE457-.Ltext0
 20876 10d8 D4230000 		.4byte	.LBB479-.Ltext0
 20877 10dc EC230000 		.4byte	.LBE479-.Ltext0
 20878 10e0 40220000 		.4byte	.LBB462-.Ltext0
 20879 10e4 44220000 		.4byte	.LBE462-.Ltext0
 20880 10e8 00000000 		.4byte	0x0
ARM GAS  /cygdrive/c/DOCUME~1/mkwapisz/LOCALS~1/Temp/cc1OEM1Z.s 			page 384


 20881 10ec 00000000 		.4byte	0x0
 20882 10f0 2C220000 		.4byte	.LBB458-.Ltext0
 20883 10f4 34220000 		.4byte	.LBE458-.Ltext0
 20884 10f8 EC230000 		.4byte	.LBB480-.Ltext0
 20885 10fc 04240000 		.4byte	.LBE480-.Ltext0
 20886 1100 44220000 		.4byte	.LBB463-.Ltext0
 20887 1104 54220000 		.4byte	.LBE463-.Ltext0
 20888 1108 00000000 		.4byte	0x0
 20889 110c 00000000 		.4byte	0x0
 20890 1110 80220000 		.4byte	.LBB464-.Ltext0
 20891 1114 84220000 		.4byte	.LBE464-.Ltext0
 20892 1118 88220000 		.4byte	.LBB465-.Ltext0
 20893 111c 98220000 		.4byte	.LBE465-.Ltext0
 20894 1120 00000000 		.4byte	0x0
 20895 1124 00000000 		.4byte	0x0
 20896 1128 E8240000 		.4byte	.LBB488-.Ltext0
 20897 112c F4240000 		.4byte	.LBE488-.Ltext0
 20898 1130 F8240000 		.4byte	.LBB489-.Ltext0
 20899 1134 00250000 		.4byte	.LBE489-.Ltext0
 20900 1138 00000000 		.4byte	0x0
 20901 113c 00000000 		.4byte	0x0
 20902 1140 58260000 		.4byte	.LBB505-.Ltext0
 20903 1144 64260000 		.4byte	.LBE505-.Ltext0
 20904 1148 68260000 		.4byte	.LBB506-.Ltext0
 20905 114c 70260000 		.4byte	.LBE506-.Ltext0
 20906 1150 00000000 		.4byte	0x0
 20907 1154 00000000 		.4byte	0x0
 20908 1158 3C270000 		.4byte	.LBB515-.Ltext0
 20909 115c 44270000 		.4byte	.LBE515-.Ltext0
 20910 1160 60270000 		.4byte	.LBB518-.Ltext0
 20911 1164 68270000 		.4byte	.LBE518-.Ltext0
 20912 1168 58270000 		.4byte	.LBB517-.Ltext0
 20913 116c 5C270000 		.4byte	.LBE517-.Ltext0
 20914 1170 4C270000 		.4byte	.LBB516-.Ltext0
 20915 1174 54270000 		.4byte	.LBE516-.Ltext0
 20916 1178 00000000 		.4byte	0x0
 20917 117c 00000000 		.4byte	0x0
 20918              		.section	.debug_str,"MS",%progbits,1
 20919              	.LASF3:
 20920 0000 6C6F6E67 		.ascii	"long int\000"
 20920      20696E74 
 20920      00
 20921              	.LASF25:
 20922 0009 6C617965 		.ascii	"layer\000"
 20922      7200
 20923              	.LASF116:
 20924 000f 74313638 		.ascii	"t168\000"
 20924      00
 20925              	.LASF63:
 20926 0014 74313030 		.ascii	"t100\000"
 20926      00
 20927              	.LASF64:
 20928 0019 74313031 		.ascii	"t101\000"
 20928      00
 20929              	.LASF2:
 20930 001e 6D61645F 		.ascii	"mad_fixed64lo_t\000"
 20930      66697865 
ARM GAS  /cygdrive/c/DOCUME~1/mkwapisz/LOCALS~1/Temp/cc1OEM1Z.s 			page 385


 20930      6436346C 
 20930      6F5F7400 
 20931              	.LASF66:
 20932 002e 74313033 		.ascii	"t103\000"
 20932      00
 20933              	.LASF98:
 20934 0033 74313035 		.ascii	"t105\000"
 20934      00
 20935              	.LASF67:
 20936 0038 74313036 		.ascii	"t106\000"
 20936      00
 20937              	.LASF68:
 20938 003d 74313037 		.ascii	"t107\000"
 20938      00
 20939              	.LASF69:
 20940 0042 74313038 		.ascii	"t108\000"
 20940      00
 20941              	.LASF50:
 20942 0047 70686173 		.ascii	"phase\000"
 20942      6500
 20943              	.LASF62:
 20944 004d 736C6F74 		.ascii	"slot\000"
 20944      00
 20945              	.LASF19:
 20946 0052 4D41445F 		.ascii	"MAD_MODE_STEREO\000"
 20946      4D4F4445 
 20946      5F535445 
 20946      52454F00 
 20947              	.LASF33:
 20948 0062 666C6167 		.ascii	"flags\000"
 20948      7300
 20949              	.LASF16:
 20950 0068 4D41445F 		.ascii	"MAD_MODE_SINGLE_CHANNEL\000"
 20950      4D4F4445 
 20950      5F53494E 
 20950      474C455F 
 20950      4348414E 
 20951              	.LASF0:
 20952 0080 6D61645F 		.ascii	"mad_fixed_t\000"
 20952      66697865 
 20952      645F7400 
 20953              	.LASF10:
 20954 008c 756E7369 		.ascii	"unsigned int\000"
 20954      676E6564 
 20954      20696E74 
 20954      00
 20955              	.LASF88:
 20956 0099 74313130 		.ascii	"t110\000"
 20956      00
 20957              	.LASF102:
 20958 009e 74313131 		.ascii	"t111\000"
 20958      00
 20959              	.LASF112:
 20960 00a3 74313132 		.ascii	"t112\000"
 20960      00
 20961              	.LASF71:
 20962 00a8 74313133 		.ascii	"t113\000"
ARM GAS  /cygdrive/c/DOCUME~1/mkwapisz/LOCALS~1/Temp/cc1OEM1Z.s 			page 386


 20962      00
 20963              	.LASF72:
 20964 00ad 74313134 		.ascii	"t114\000"
 20964      00
 20965              	.LASF74:
 20966 00b2 74313136 		.ascii	"t116\000"
 20966      00
 20967              	.LASF129:
 20968 00b7 74313137 		.ascii	"t117\000"
 20968      00
 20969              	.LASF75:
 20970 00bc 74313138 		.ascii	"t118\000"
 20970      00
 20971              	.LASF21:
 20972 00c1 4D41445F 		.ascii	"MAD_EMPHASIS_NONE\000"
 20972      454D5048 
 20972      41534953 
 20972      5F4E4F4E 
 20972      4500
 20973              	.LASF28:
 20974 00d3 656D7068 		.ascii	"emphasis\000"
 20974      61736973 
 20974      00
 20975              	.LASF15:
 20976 00dc 6D61645F 		.ascii	"mad_mode\000"
 20976      6D6F6465 
 20976      00
 20977              	.LASF118:
 20978 00e5 74313230 		.ascii	"t120\000"
 20978      00
 20979              	.LASF77:
 20980 00ea 74313231 		.ascii	"t121\000"
 20980      00
 20981              	.LASF130:
 20982 00ef 74313234 		.ascii	"t124\000"
 20982      00
 20983              	.LASF106:
 20984 00f4 74313237 		.ascii	"t127\000"
 20984      00
 20985              	.LASF135:
 20986 00f9 74313437 		.ascii	"t147\000"
 20986      00
 20987              	.LASF142:
 20988 00fe 73796E74 		.ascii	"synth_half\000"
 20988      685F6861 
 20988      6C6600
 20989              	.LASF40:
 20990 0109 73627361 		.ascii	"sbsample\000"
 20990      6D706C65 
 20990      00
 20991              	.LASF65:
 20992 0112 74313032 		.ascii	"t102\000"
 20992      00
 20993              	.LASF131:
 20994 0117 74313331 		.ascii	"t131\000"
 20994      00
 20995              	.LASF84:
ARM GAS  /cygdrive/c/DOCUME~1/mkwapisz/LOCALS~1/Temp/cc1OEM1Z.s 			page 387


 20996 011c 74313333 		.ascii	"t133\000"
 20996      00
 20997              	.LASF117:
 20998 0121 74313334 		.ascii	"t134\000"
 20998      00
 20999              	.LASF86:
 21000 0126 74313336 		.ascii	"t136\000"
 21000      00
 21001              	.LASF87:
 21002 012b 74313337 		.ascii	"t137\000"
 21002      00
 21003              	.LASF126:
 21004 0130 74313338 		.ascii	"t138\000"
 21004      00
 21005              	.LASF128:
 21006 0135 74313339 		.ascii	"t139\000"
 21006      00
 21007              	.LASF29:
 21008 013a 62697472 		.ascii	"bitrate\000"
 21008      61746500 
 21009              	.LASF35:
 21010 0142 64757261 		.ascii	"duration\000"
 21010      74696F6E 
 21010      00
 21011              	.LASF20:
 21012 014b 6D61645F 		.ascii	"mad_emphasis\000"
 21012      656D7068 
 21012      61736973 
 21012      00
 21013              	.LASF1:
 21014 0158 6D61645F 		.ascii	"mad_fixed64hi_t\000"
 21014      66697865 
 21014      64363468 
 21014      695F7400 
 21015              	.LASF52:
 21016 0168 6C6F6E67 		.ascii	"long long unsigned int\000"
 21016      206C6F6E 
 21016      6720756E 
 21016      7369676E 
 21016      65642069 
 21017              	.LASF7:
 21018 017f 6D61645F 		.ascii	"mad_timer_t\000"
 21018      74696D65 
 21018      725F7400 
 21019              	.LASF141:
 21020 018b 5F5F6C6F 		.ascii	"__lo\000"
 21020      00
 21021              	.LASF146:
 21022 0190 44707472 		.ascii	"Dptr\000"
 21022      00
 21023              	.LASF6:
 21024 0195 66726163 		.ascii	"fraction\000"
 21024      74696F6E 
 21024      00
 21025              	.LASF132:
 21026 019e 74313430 		.ascii	"t140\000"
 21026      00
ARM GAS  /cygdrive/c/DOCUME~1/mkwapisz/LOCALS~1/Temp/cc1OEM1Z.s 			page 388


 21027              	.LASF90:
 21028 01a3 74313432 		.ascii	"t142\000"
 21028      00
 21029              	.LASF91:
 21030 01a8 74313433 		.ascii	"t143\000"
 21030      00
 21031              	.LASF92:
 21032 01ad 74313434 		.ascii	"t144\000"
 21032      00
 21033              	.LASF93:
 21034 01b2 74313435 		.ascii	"t145\000"
 21034      00
 21035              	.LASF95:
 21036 01b7 74313438 		.ascii	"t148\000"
 21036      00
 21037              	.LASF96:
 21038 01bc 74313439 		.ascii	"t149\000"
 21038      00
 21039              	.LASF11:
 21040 01c1 4D41445F 		.ascii	"MAD_LAYER_I\000"
 21040      4C415945 
 21040      525F4900 
 21041              	.LASF57:
 21042 01cd 6D61645F 		.ascii	"mad_synth_frame\000"
 21042      73796E74 
 21042      685F6672 
 21042      616D6500 
 21043              	.LASF26:
 21044 01dd 6D6F6465 		.ascii	"mode\000"
 21044      00
 21045              	.LASF22:
 21046 01e2 4D41445F 		.ascii	"MAD_EMPHASIS_50_15_US\000"
 21046      454D5048 
 21046      41534953 
 21046      5F35305F 
 21046      31355F55 
 21047              	.LASF97:
 21048 01f8 74313530 		.ascii	"t150\000"
 21048      00
 21049              	.LASF121:
 21050 01fd 74313531 		.ascii	"t151\000"
 21050      00
 21051              	.LASF100:
 21052 0202 74313533 		.ascii	"t153\000"
 21052      00
 21053              	.LASF101:
 21054 0207 74313534 		.ascii	"t154\000"
 21054      00
 21055              	.LASF136:
 21056 020c 74313536 		.ascii	"t156\000"
 21056      00
 21057              	.LASF103:
 21058 0211 74313537 		.ascii	"t157\000"
 21058      00
 21059              	.LASF34:
 21060 0216 70726976 		.ascii	"private_bits\000"
 21060      6174655F 
ARM GAS  /cygdrive/c/DOCUME~1/mkwapisz/LOCALS~1/Temp/cc1OEM1Z.s 			page 389


 21060      62697473 
 21060      00
 21061              	.LASF76:
 21062 0223 74313139 		.ascii	"t119\000"
 21062      00
 21063              	.LASF23:
 21064 0228 4D41445F 		.ascii	"MAD_EMPHASIS_CCITT_J_17\000"
 21064      454D5048 
 21064      41534953 
 21064      5F434349 
 21064      54545F4A 
 21065              	.LASF36:
 21066 0240 6D61645F 		.ascii	"mad_header\000"
 21066      68656164 
 21066      657200
 21067              	.LASF83:
 21068 024b 74313332 		.ascii	"t132\000"
 21068      00
 21069              	.LASF140:
 21070 0250 5F5F6869 		.ascii	"__hi\000"
 21070      00
 21071              	.LASF104:
 21072 0255 74313538 		.ascii	"t158\000"
 21072      00
 21073              	.LASF107:
 21074 025a 74313630 		.ascii	"t160\000"
 21074      00
 21075              	.LASF42:
 21076 025f 63686172 		.ascii	"char\000"
 21076      00
 21077              	.LASF110:
 21078 0264 74313633 		.ascii	"t163\000"
 21078      00
 21079              	.LASF18:
 21080 0269 4D41445F 		.ascii	"MAD_MODE_JOINT_STEREO\000"
 21080      4D4F4445 
 21080      5F4A4F49 
 21080      4E545F53 
 21080      54455245 
 21081              	.LASF148:
 21082 027f 73686F72 		.ascii	"short_sample_buff\000"
 21082      745F7361 
 21082      6D706C65 
 21082      5F627566 
 21082      6600
 21083              	.LASF127:
 21084 0291 74313233 		.ascii	"t123\000"
 21084      00
 21085              	.LASF122:
 21086 0296 74313730 		.ascii	"t170\000"
 21086      00
 21087              	.LASF79:
 21088 029b 74313235 		.ascii	"t125\000"
 21088      00
 21089              	.LASF125:
 21090 02a0 74313733 		.ascii	"t173\000"
 21090      00
ARM GAS  /cygdrive/c/DOCUME~1/mkwapisz/LOCALS~1/Temp/cc1OEM1Z.s 			page 390


 21091              	.LASF80:
 21092 02a5 74313236 		.ascii	"t126\000"
 21092      00
 21093              	.LASF137:
 21094 02aa 74313735 		.ascii	"t175\000"
 21094      00
 21095              	.LASF139:
 21096 02af 74313736 		.ascii	"t176\000"
 21096      00
 21097              	.LASF81:
 21098 02b4 74313238 		.ascii	"t128\000"
 21098      00
 21099              	.LASF82:
 21100 02b9 74313239 		.ascii	"t129\000"
 21100      00
 21101              	.LASF51:
 21102 02be 6C6F6E67 		.ascii	"long long int\000"
 21102      206C6F6E 
 21102      6720696E 
 21102      7400
 21103              	.LASF55:
 21104 02cc 6D61645F 		.ascii	"mad_synth_mute\000"
 21104      73796E74 
 21104      685F6D75 
 21104      746500
 21105              	.LASF30:
 21106 02db 73616D70 		.ascii	"samplerate\000"
 21106      6C657261 
 21106      746500
 21107              	.LASF46:
 21108 02e6 6368616E 		.ascii	"channels\000"
 21108      6E656C73 
 21108      00
 21109              	.LASF60:
 21110 02ef 7363616C 		.ascii	"scale\000"
 21110      6500
 21111              	.LASF147:
 21112 02f5 7261775F 		.ascii	"raw_sample\000"
 21112      73616D70 
 21112      6C6500
 21113              	.LASF5:
 21114 0300 7365636F 		.ascii	"seconds\000"
 21114      6E647300 
 21115              	.LASF108:
 21116 0308 74313631 		.ascii	"t161\000"
 21116      00
 21117              	.LASF109:
 21118 030d 74313632 		.ascii	"t162\000"
 21118      00
 21119              	.LASF38:
 21120 0312 68656164 		.ascii	"header\000"
 21120      657200
 21121              	.LASF149:
 21122 0319 73796E74 		.ascii	"synth_full\000"
 21122      685F6675 
 21122      6C6C00
 21123              	.LASF113:
ARM GAS  /cygdrive/c/DOCUME~1/mkwapisz/LOCALS~1/Temp/cc1OEM1Z.s 			page 391


 21124 0324 74313634 		.ascii	"t164\000"
 21124      00
 21125              	.LASF138:
 21126 0329 74313635 		.ascii	"t165\000"
 21126      00
 21127              	.LASF114:
 21128 032e 74313636 		.ascii	"t166\000"
 21128      00
 21129              	.LASF115:
 21130 0333 74313637 		.ascii	"t167\000"
 21130      00
 21131              	.LASF144:
 21132 0338 70636D31 		.ascii	"pcm1v\000"
 21132      7600
 21133              	.LASF85:
 21134 033e 74313034 		.ascii	"t104\000"
 21134      00
 21135              	.LASF120:
 21136 0343 74313639 		.ascii	"t169\000"
 21136      00
 21137              	.LASF119:
 21138 0348 74313335 		.ascii	"t135\000"
 21138      00
 21139              	.LASF153:
 21140 034d 2F637967 		.ascii	"/cygdrive/c/Embedded/workspace/testProject/libmad\000"
 21140      64726976 
 21140      652F632F 
 21140      456D6265 
 21140      64646564 
 21141              	.LASF70:
 21142 037f 74313039 		.ascii	"t109\000"
 21142      00
 21143              	.LASF61:
 21144 0384 64637433 		.ascii	"dct32\000"
 21144      3200
 21145              	.LASF143:
 21146 038a 70636D31 		.ascii	"pcm1\000"
 21146      00
 21147              	.LASF150:
 21148 038f 70636D32 		.ascii	"pcm2\000"
 21148      00
 21149              	.LASF59:
 21150 0394 73796E74 		.ascii	"synth_frame\000"
 21150      685F6672 
 21150      616D6500 
 21151              	.LASF145:
 21152 03a0 70636D32 		.ascii	"pcm2v\000"
 21152      7600
 21153              	.LASF44:
 21154 03a6 73686F72 		.ascii	"short int\000"
 21154      7420696E 
 21154      7400
 21155              	.LASF41:
 21156 03b0 6F766572 		.ascii	"overlap\000"
 21156      6C617000 
 21157              	.LASF39:
 21158 03b8 6F707469 		.ascii	"options\000"
ARM GAS  /cygdrive/c/DOCUME~1/mkwapisz/LOCALS~1/Temp/cc1OEM1Z.s 			page 392


 21158      6F6E7300 
 21159              	.LASF47:
 21160 03c0 6C656E67 		.ascii	"length\000"
 21160      746800
 21161              	.LASF49:
 21162 03c7 66696C74 		.ascii	"filter\000"
 21162      657200
 21163              	.LASF31:
 21164 03ce 6372635F 		.ascii	"crc_check\000"
 21164      63686563 
 21164      6B00
 21165              	.LASF152:
 21166 03d8 73796E74 		.ascii	"synth_stereo.c\000"
 21166      685F7374 
 21166      6572656F 
 21166      2E6300
 21167              	.LASF56:
 21168 03e7 6D61645F 		.ascii	"mad_synth_init\000"
 21168      73796E74 
 21168      685F696E 
 21168      697400
 21169              	.LASF89:
 21170 03f6 74313431 		.ascii	"t141\000"
 21170      00
 21171              	.LASF17:
 21172 03fb 4D41445F 		.ascii	"MAD_MODE_DUAL_CHANNEL\000"
 21172      4D4F4445 
 21172      5F445541 
 21172      4C5F4348 
 21172      414E4E45 
 21173              	.LASF94:
 21174 0411 74313436 		.ascii	"t146\000"
 21174      00
 21175              	.LASF37:
 21176 0416 6D61645F 		.ascii	"mad_frame\000"
 21176      6672616D 
 21176      6500
 21177              	.LASF123:
 21178 0420 74313731 		.ascii	"t171\000"
 21178      00
 21179              	.LASF124:
 21180 0425 74313732 		.ascii	"t172\000"
 21180      00
 21181              	.LASF133:
 21182 042a 74313734 		.ascii	"t174\000"
 21182      00
 21183              	.LASF4:
 21184 042f 6C6F6E67 		.ascii	"long unsigned int\000"
 21184      20756E73 
 21184      69676E65 
 21184      6420696E 
 21184      7400
 21185              	.LASF78:
 21186 0441 74313232 		.ascii	"t122\000"
 21186      00
 21187              	.LASF53:
 21188 0446 73616D70 		.ascii	"sample\000"
ARM GAS  /cygdrive/c/DOCUME~1/mkwapisz/LOCALS~1/Temp/cc1OEM1Z.s 			page 393


 21188      6C6500
 21189              	.LASF151:
 21190 044d 474E5520 		.ascii	"GNU C 4.1.1\000"
 21190      4320342E 
 21190      312E3100 
 21191              	.LASF13:
 21192 0459 4D41445F 		.ascii	"MAD_LAYER_III\000"
 21192      4C415945 
 21192      525F4949 
 21192      4900
 21193              	.LASF8:
 21194 0467 756E7369 		.ascii	"unsigned char\000"
 21194      676E6564 
 21194      20636861 
 21194      7200
 21195              	.LASF27:
 21196 0475 6D6F6465 		.ascii	"mode_extension\000"
 21196      5F657874 
 21196      656E7369 
 21196      6F6E00
 21197              	.LASF73:
 21198 0484 74313135 		.ascii	"t115\000"
 21198      00
 21199              	.LASF134:
 21200 0489 74313535 		.ascii	"t155\000"
 21200      00
 21201              	.LASF14:
 21202 048e 6D61645F 		.ascii	"mad_layer\000"
 21202      6C617965 
 21202      7200
 21203              	.LASF48:
 21204 0498 6D61645F 		.ascii	"mad_synth\000"
 21204      73796E74 
 21204      6800
 21205              	.LASF24:
 21206 04a2 4D41445F 		.ascii	"MAD_EMPHASIS_RESERVED\000"
 21206      454D5048 
 21206      41534953 
 21206      5F524553 
 21206      45525645 
 21207              	.LASF58:
 21208 04b8 6672616D 		.ascii	"frame\000"
 21208      6500
 21209              	.LASF99:
 21210 04be 74313532 		.ascii	"t152\000"
 21210      00
 21211              	.LASF43:
 21212 04c3 7369676E 		.ascii	"signed char\000"
 21212      65642063 
 21212      68617200 
 21213              	.LASF54:
 21214 04cf 73796E74 		.ascii	"synth\000"
 21214      6800
 21215              	.LASF9:
 21216 04d5 73686F72 		.ascii	"short unsigned int\000"
 21216      7420756E 
 21216      7369676E 
ARM GAS  /cygdrive/c/DOCUME~1/mkwapisz/LOCALS~1/Temp/cc1OEM1Z.s 			page 394


 21216      65642069 
 21216      6E7400
 21217              	.LASF12:
 21218 04e8 4D41445F 		.ascii	"MAD_LAYER_II\000"
 21218      4C415945 
 21218      525F4949 
 21218      00
 21219              	.LASF32:
 21220 04f5 6372635F 		.ascii	"crc_target\000"
 21220      74617267 
 21220      657400
 21221              	.LASF105:
 21222 0500 74313539 		.ascii	"t159\000"
 21222      00
 21223              	.LASF111:
 21224 0505 74313330 		.ascii	"t130\000"
 21224      00
 21225              	.LASF45:
 21226 050a 6D61645F 		.ascii	"mad_pcm\000"
 21226      70636D00 
 21227              		.ident	"GCC: (GNU) 4.1.1"
ARM GAS  /cygdrive/c/DOCUME~1/mkwapisz/LOCALS~1/Temp/cc1OEM1Z.s 			page 395


DEFINED SYMBOLS
                            *ABS*:00000000 synth_stereo.c
/cygdrive/c/DOCUME~1/mkwapisz/LOCALS~1/Temp/cc1OEM1Z.s:12     .text:00000000 scale
/cygdrive/c/DOCUME~1/mkwapisz/LOCALS~1/Temp/cc1OEM1Z.s:22     .text:00000000 $a
/cygdrive/c/DOCUME~1/mkwapisz/LOCALS~1/Temp/cc1OEM1Z.s:42     .text:00000020 mad_synth_mute
/cygdrive/c/DOCUME~1/mkwapisz/LOCALS~1/Temp/cc1OEM1Z.s:99     .text:00000094 mad_synth_init
/cygdrive/c/DOCUME~1/mkwapisz/LOCALS~1/Temp/cc1OEM1Z.s:134    .text:000000cc $d
/cygdrive/c/DOCUME~1/mkwapisz/LOCALS~1/Temp/cc1OEM1Z.s:140    .text:000000d0 mad_synth_frame
/cygdrive/c/DOCUME~1/mkwapisz/LOCALS~1/Temp/cc1OEM1Z.s:148    .text:000000d0 $a
/cygdrive/c/DOCUME~1/mkwapisz/LOCALS~1/Temp/cc1OEM1Z.s:240    .text:0000019c $d
/cygdrive/c/DOCUME~1/mkwapisz/LOCALS~1/Temp/cc1OEM1Z.s:4934   .text:00001da8 synth_full
/cygdrive/c/DOCUME~1/mkwapisz/LOCALS~1/Temp/cc1OEM1Z.s:3300   .text:000012c0 synth_half
/cygdrive/c/DOCUME~1/mkwapisz/LOCALS~1/Temp/cc1OEM1Z.s:249    .text:000001b0 dct32
/cygdrive/c/DOCUME~1/mkwapisz/LOCALS~1/Temp/cc1OEM1Z.s:256    .text:000001b0 $a
/cygdrive/c/DOCUME~1/mkwapisz/LOCALS~1/Temp/cc1OEM1Z.s:3215   .text:000011d8 $d
/cygdrive/c/DOCUME~1/mkwapisz/LOCALS~1/Temp/cc1OEM1Z.s:3250   .text:00001254 $a
/cygdrive/c/DOCUME~1/mkwapisz/LOCALS~1/Temp/cc1OEM1Z.s:4928   .text:00001da0 $d
/cygdrive/c/DOCUME~1/mkwapisz/LOCALS~1/Temp/cc1OEM1Z.s:6570   .rodata:00000000 D
/cygdrive/c/DOCUME~1/mkwapisz/LOCALS~1/Temp/cc1OEM1Z.s:4941   .text:00001da8 $a
/cygdrive/c/DOCUME~1/mkwapisz/LOCALS~1/Temp/cc1OEM1Z.s:6562   .text:00002888 $d
/cygdrive/c/DOCUME~1/mkwapisz/LOCALS~1/Temp/cc1OEM1Z.s:6571   .rodata:00000000 $d

UNDEFINED SYMBOLS
set_dac_sample_rate
MAD_F_MLX
memset
render_sample_block
