ARM GAS  /cygdrive/c/DOCUME~1/mkwapisz/LOCALS~1/Temp/ccLlueLU.s 			page 1


   1              		.file	"synth.c"
   2              		.text
   3              		.align	2
   4              		.type	scale, %function
   5              	scale:
   6              		@ Function supports interworking.
   7              		@ args = 0, pretend = 0, frame = 0
   8              		@ frame_needed = 0, uses_anonymous_args = 0
   9              		@ link register save eliminated.
  10 0000 0008A0E1 		mov	r0, r0, asl #16
  11 0004 010270E3 		cmn	r0, #268435456
  12 0008 0C009FE5 		ldr	r0, .L6
  13 000c 0000A043 		movmi	r0, #0
  14 0010 0008A0E1 		mov	r0, r0, asl #16
  15 0014 C00EA0E1 		mov	r0, r0, asr #29
  16              		@ lr needed for prologue
  17 0018 1EFF2FE1 		bx	lr
  18              	.L7:
  19              		.align	2
  20              	.L6:
  21 001c FFFF0000 		.word	65535
  22              		.size	scale, .-scale
  23              		.align	2
  24              		.global	mad_synth_mute
  25              		.type	mad_synth_mute, %function
  26              	mad_synth_mute:
  27              		@ Function supports interworking.
  28              		@ args = 0, pretend = 0, frame = 0
  29              		@ frame_needed = 0, uses_anonymous_args = 0
  30 0020 70402DE9 		stmfd	sp!, {r4, r5, r6, lr}
  31 0024 0050A0E1 		mov	r5, r0
  32 0028 0040A0E3 		mov	r4, #0
  33 002c 180000EA 		b	.L9
  34              	.L10:
  35 0030 01E08EE2 		add	lr, lr, #1
  36 0034 0060A0E3 		mov	r6, #0	@ movhi
  37 0038 013C4CE2 		sub	r3, ip, #256
  38 003c 022C4CE2 		sub	r2, ip, #512
  39 0040 031C4CE2 		sub	r1, ip, #768
  40 0044 08005EE3 		cmp	lr, #8
  41 0048 B060CCE1 		strh	r6, [ip, #0]	@ movhi
  42 004c B060C3E1 		strh	r6, [r3, #0]	@ movhi
  43 0050 02C08CE2 		add	ip, ip, #2
  44 0054 B060C2E1 		strh	r6, [r2, #0]	@ movhi
  45 0058 B060C1E1 		strh	r6, [r1, #0]	@ movhi
  46 005c F3FFFF1A 		bne	.L10
  47 0060 010080E2 		add	r0, r0, #1
  48 0064 100050E3 		cmp	r0, #16
  49 0068 0300001A 		bne	.L12
  50 006c 014084E2 		add	r4, r4, #1
  51 0070 020054E3 		cmp	r4, #2
  52 0074 0800000A 		beq	.L21
  53 0078 050000EA 		b	.L9
  54              	.L12:
  55 007c 043380E0 		add	r3, r0, r4, asl #6
  56 0080 0332A0E1 		mov	r3, r3, asl #4
  57 0084 033C83E2 		add	r3, r3, #768
ARM GAS  /cygdrive/c/DOCUME~1/mkwapisz/LOCALS~1/Temp/ccLlueLU.s 			page 2


  58 0088 03C085E0 		add	ip, r5, r3
  59 008c 00E0A0E3 		mov	lr, #0
  60 0090 E6FFFFEA 		b	.L10
  61              	.L9:
  62 0094 0000A0E3 		mov	r0, #0
  63 0098 F7FFFFEA 		b	.L12
  64              	.L21:
  65 009c 7040BDE8 		ldmfd	sp!, {r4, r5, r6, lr}
  66 00a0 1EFF2FE1 		bx	lr
  67              		.size	mad_synth_mute, .-mad_synth_mute
  68              		.align	2
  69              		.global	mad_synth_init
  70              		.type	mad_synth_init, %function
  71              	mad_synth_init:
  72              		@ Function supports interworking.
  73              		@ args = 0, pretend = 0, frame = 0
  74              		@ frame_needed = 0, uses_anonymous_args = 0
  75 00a4 10402DE9 		stmfd	sp!, {r4, lr}
  76 00a8 0040A0E1 		mov	r4, r0
  77 00ac FEFFFFEB 		bl	mad_synth_mute
  78 00b0 1C309FE5 		ldr	r3, .L24
  79 00b4 0020A0E3 		mov	r2, #0
  80 00b8 B32084E1 		strh	r2, [r4, r3]	@ movhi
  81 00bc 023043E2 		sub	r3, r3, #2
  82 00c0 B32084E1 		strh	r2, [r4, r3]	@ movhi
  83 00c4 002884E5 		str	r2, [r4, #2048]
  84 00c8 042884E5 		str	r2, [r4, #2052]
  85 00cc 1040BDE8 		ldmfd	sp!, {r4, lr}
  86 00d0 1EFF2FE1 		bx	lr
  87              	.L25:
  88              		.align	2
  89              	.L24:
  90 00d4 0A080000 		.word	2058
  91              		.size	mad_synth_init, .-mad_synth_init
  92              		.align	2
  93              		.type	dct32, %function
  94              	dct32:
  95              		@ Function supports interworking.
  96              		@ args = 0, pretend = 0, frame = 2208
  97              		@ frame_needed = 0, uses_anonymous_args = 0
  98 00d8 F04F2DE9 		stmfd	sp!, {r4, r5, r6, r7, r8, r9, sl, fp, lr}
  99 00dc BA42D0E1 		ldrh	r4, [r0, #42]
 100 00e0 BE53D0E1 		ldrh	r5, [r0, #62]
 101 00e4 B062D0E1 		ldrh	r6, [r0, #32]
 102 00e8 B073D0E1 		ldrh	r7, [r0, #48]
 103 00ec BE82D0E1 		ldrh	r8, [r0, #46]
 104 00f0 B893D0E1 		ldrh	r9, [r0, #56]
 105 00f4 B6A2D0E1 		ldrh	sl, [r0, #38]
 106 00f8 8ADE4DE2 		sub	sp, sp, #2208
 107 00fc B6B3D0E1 		ldrh	fp, [r0, #54]
 108 0100 B8C2D0E1 		ldrh	ip, [r0, #40]
 109 0104 BCE3D0E1 		ldrh	lr, [r0, #60]
 110 0108 04468DE5 		str	r4, [sp, #1540]
 111 010c 8C558DE5 		str	r5, [sp, #1420]
 112 0110 B242D0E1 		ldrh	r4, [r0, #34]
 113 0114 B253D0E1 		ldrh	r5, [r0, #50]
 114 0118 94658DE5 		str	r6, [sp, #1428]
ARM GAS  /cygdrive/c/DOCUME~1/mkwapisz/LOCALS~1/Temp/ccLlueLU.s 			page 3


 115 011c 9C758DE5 		str	r7, [sp, #1436]
 116 0120 BC62D0E1 		ldrh	r6, [r0, #44]
 117 0124 BA73D0E1 		ldrh	r7, [r0, #58]
 118 0128 A4858DE5 		str	r8, [sp, #1444]
 119 012c AC958DE5 		str	r9, [sp, #1452]
 120 0130 B482D0E1 		ldrh	r8, [r0, #36]
 121 0134 B493D0E1 		ldrh	r9, [r0, #52]
 122 0138 B4A58DE5 		str	sl, [sp, #1460]
 123 013c B0A0D0E1 		ldrh	sl, [r0, #0]
 124 0140 BCB58DE5 		str	fp, [sp, #1468]
 125 0144 C4C58DE5 		str	ip, [sp, #1476]
 126 0148 CCE58DE5 		str	lr, [sp, #1484]
 127 014c D4458DE5 		str	r4, [sp, #1492]
 128 0150 DC558DE5 		str	r5, [sp, #1500]
 129 0154 E4658DE5 		str	r6, [sp, #1508]
 130 0158 EC758DE5 		str	r7, [sp, #1516]
 131 015c F4858DE5 		str	r8, [sp, #1524]
 132 0160 FC958DE5 		str	r9, [sp, #1532]
 133 0164 88A58DE5 		str	sl, [sp, #1416]
 134 0168 B0E1D0E1 		ldrh	lr, [r0, #16]
 135 016c B640D0E1 		ldrh	r4, [r0, #6]
 136 0170 B860D0E1 		ldrh	r6, [r0, #8]
 137 0174 B671D0E1 		ldrh	r7, [r0, #22]
 138 0178 BC91D0E1 		ldrh	r9, [r0, #28]
 139 017c BCA0D0E1 		ldrh	sl, [r0, #12]
 140 0180 BEB1D0E1 		ldrh	fp, [r0, #30]
 141 0184 BEC0D0E1 		ldrh	ip, [r0, #14]
 142 0188 A0E58DE5 		str	lr, [sp, #1440]
 143 018c A8458DE5 		str	r4, [sp, #1448]
 144 0190 BAE1D0E1 		ldrh	lr, [r0, #26]
 145 0194 BA40D0E1 		ldrh	r4, [r0, #10]
 146 0198 B8658DE5 		str	r6, [sp, #1464]
 147 019c C0758DE5 		str	r7, [sp, #1472]
 148 01a0 94659DE5 		ldr	r6, [sp, #1428]
 149 01a4 9C759DE5 		ldr	r7, [sp, #1436]
 150 01a8 D0958DE5 		str	r9, [sp, #1488]
 151 01ac D8A58DE5 		str	sl, [sp, #1496]
 152 01b0 AC959DE5 		ldr	r9, [sp, #1452]
 153 01b4 B4A59DE5 		ldr	sl, [sp, #1460]
 154 01b8 B851D0E1 		ldrh	r5, [r0, #24]
 155 01bc B280D0E1 		ldrh	r8, [r0, #2]
 156 01c0 90B58DE5 		str	fp, [sp, #1424]
 157 01c4 98C58DE5 		str	ip, [sp, #1432]
 158 01c8 B2B1D0E1 		ldrh	fp, [r0, #18]
 159 01cc B4C0D0E1 		ldrh	ip, [r0, #4]
 160 01d0 F0E58DE5 		str	lr, [sp, #1520]
 161 01d4 B401D0E1 		ldrh	r0, [r0, #20]
 162 01d8 F8458DE5 		str	r4, [sp, #1528]
 163 01dc 06E8A0E1 		mov	lr, r6, asl #16
 164 01e0 0748A0E1 		mov	r4, r7, asl #16
 165 01e4 0968A0E1 		mov	r6, r9, asl #16
 166 01e8 0A78A0E1 		mov	r7, sl, asl #16
 167 01ec C4959DE5 		ldr	r9, [sp, #1476]
 168 01f0 CCA59DE5 		ldr	sl, [sp, #1484]
 169 01f4 B0558DE5 		str	r5, [sp, #1456]
 170 01f8 C8858DE5 		str	r8, [sp, #1480]
 171 01fc 8C559DE5 		ldr	r5, [sp, #1420]
ARM GAS  /cygdrive/c/DOCUME~1/mkwapisz/LOCALS~1/Temp/ccLlueLU.s 			page 4


 172 0200 A4859DE5 		ldr	r8, [sp, #1444]
 173 0204 E0B58DE5 		str	fp, [sp, #1504]
 174 0208 00068DE5 		str	r0, [sp, #1536]
 175 020c BCB59DE5 		ldr	fp, [sp, #1468]
 176 0210 0908A0E1 		mov	r0, r9, asl #16
 177 0214 0A98A0E1 		mov	r9, sl, asl #16
 178 0218 D4A59DE5 		ldr	sl, [sp, #1492]
 179 021c E8C58DE5 		str	ip, [sp, #1512]
 180 0220 05C8A0E1 		mov	ip, r5, asl #16
 181 0224 0858A0E1 		mov	r5, r8, asl #16
 182 0228 0B88A0E1 		mov	r8, fp, asl #16
 183 022c 0AB8A0E1 		mov	fp, sl, asl #16
 184 0230 DCA59DE5 		ldr	sl, [sp, #1500]
 185 0234 0AA8A0E1 		mov	sl, sl, asl #16
 186 0238 3CA48DE5 		str	sl, [sp, #1084]
 187 023c E4A59DE5 		ldr	sl, [sp, #1508]
 188 0240 0AA8A0E1 		mov	sl, sl, asl #16
 189 0244 28A48DE5 		str	sl, [sp, #1064]
 190 0248 ECA59DE5 		ldr	sl, [sp, #1516]
 191 024c 0AA8A0E1 		mov	sl, sl, asl #16
 192 0250 E8A38DE5 		str	sl, [sp, #1000]
 193 0254 F4A59DE5 		ldr	sl, [sp, #1524]
 194 0258 0AA8A0E1 		mov	sl, sl, asl #16
 195 025c D4A38DE5 		str	sl, [sp, #980]
 196 0260 FCA59DE5 		ldr	sl, [sp, #1532]
 197 0264 0AA8A0E1 		mov	sl, sl, asl #16
 198 0268 98A38DE5 		str	sl, [sp, #920]
 199 026c 04A69DE5 		ldr	sl, [sp, #1540]
 200 0270 0AA8A0E1 		mov	sl, sl, asl #16
 201 0274 88A38DE5 		str	sl, [sp, #904]
 202 0278 88A59DE5 		ldr	sl, [sp, #1416]
 203 027c 0AA8A0E1 		mov	sl, sl, asl #16
 204 0280 7CA58DE5 		str	sl, [sp, #1404]
 205 0284 90A59DE5 		ldr	sl, [sp, #1424]
 206 0288 0AA8A0E1 		mov	sl, sl, asl #16
 207 028c 6CA58DE5 		str	sl, [sp, #1388]
 208 0290 98A59DE5 		ldr	sl, [sp, #1432]
 209 0294 0AA8A0E1 		mov	sl, sl, asl #16
 210 0298 3CA58DE5 		str	sl, [sp, #1340]
 211 029c A0A59DE5 		ldr	sl, [sp, #1440]
 212 02a0 0AA8A0E1 		mov	sl, sl, asl #16
 213 02a4 2CA58DE5 		str	sl, [sp, #1324]
 214 02a8 A8A59DE5 		ldr	sl, [sp, #1448]
 215 02ac 0AA8A0E1 		mov	sl, sl, asl #16
 216 02b0 F8A48DE5 		str	sl, [sp, #1272]
 217 02b4 B0A59DE5 		ldr	sl, [sp, #1456]
 218 02b8 0AA8A0E1 		mov	sl, sl, asl #16
 219 02bc E8A48DE5 		str	sl, [sp, #1256]
 220 02c0 B8A59DE5 		ldr	sl, [sp, #1464]
 221 02c4 0AA8A0E1 		mov	sl, sl, asl #16
 222 02c8 B4A48DE5 		str	sl, [sp, #1204]
 223 02cc C0A59DE5 		ldr	sl, [sp, #1472]
 224 02d0 4008A0E1 		mov	r0, r0, asr #16
 225 02d4 0AA8A0E1 		mov	sl, sl, asl #16
 226 02d8 4BB8A0E1 		mov	fp, fp, asr #16
 227 02dc A4A48DE5 		str	sl, [sp, #1188]
 228 02e0 A0048DE5 		str	r0, [sp, #1184]
ARM GAS  /cygdrive/c/DOCUME~1/mkwapisz/LOCALS~1/Temp/ccLlueLU.s 			page 5


 229 02e4 D0A59DE5 		ldr	sl, [sp, #1488]
 230 02e8 C8059DE5 		ldr	r0, [sp, #1480]
 231 02ec 68B48DE5 		str	fp, [sp, #1128]
 232 02f0 D8B59DE5 		ldr	fp, [sp, #1496]
 233 02f4 0008A0E1 		mov	r0, r0, asl #16
 234 02f8 0AA8A0E1 		mov	sl, sl, asl #16
 235 02fc 0BB8A0E1 		mov	fp, fp, asl #16
 236 0300 78048DE5 		str	r0, [sp, #1144]
 237 0304 6CA48DE5 		str	sl, [sp, #1132]
 238 0308 44B48DE5 		str	fp, [sp, #1092]
 239 030c E0A59DE5 		ldr	sl, [sp, #1504]
 240 0310 28B49DE5 		ldr	fp, [sp, #1064]
 241 0314 0AA8A0E1 		mov	sl, sl, asl #16
 242 0318 30A48DE5 		str	sl, [sp, #1072]
 243 031c E8A39DE5 		ldr	sl, [sp, #1000]
 244 0320 3C049DE5 		ldr	r0, [sp, #1084]
 245 0324 4BB8A0E1 		mov	fp, fp, asr #16
 246 0328 2CB48DE5 		str	fp, [sp, #1068]
 247 032c 4AA8A0E1 		mov	sl, sl, asr #16
 248 0330 F0B59DE5 		ldr	fp, [sp, #1520]
 249 0334 4008A0E1 		mov	r0, r0, asr #16
 250 0338 ECA38DE5 		str	sl, [sp, #1004]
 251 033c F8A59DE5 		ldr	sl, [sp, #1528]
 252 0340 40048DE5 		str	r0, [sp, #1088]
 253 0344 0BB8A0E1 		mov	fp, fp, asl #16
 254 0348 E8059DE5 		ldr	r0, [sp, #1512]
 255 034c DCB38DE5 		str	fp, [sp, #988]
 256 0350 0AA8A0E1 		mov	sl, sl, asl #16
 257 0354 98B39DE5 		ldr	fp, [sp, #920]
 258 0358 0008A0E1 		mov	r0, r0, asl #16
 259 035c A0A38DE5 		str	sl, [sp, #928]
 260 0360 88A39DE5 		ldr	sl, [sp, #904]
 261 0364 F0038DE5 		str	r0, [sp, #1008]
 262 0368 4BB8A0E1 		mov	fp, fp, asr #16
 263 036c D4039DE5 		ldr	r0, [sp, #980]
 264 0370 9CB38DE5 		str	fp, [sp, #924]
 265 0374 4AB8A0E1 		mov	fp, sl, asr #16
 266 0378 6CA59DE5 		ldr	sl, [sp, #1388]
 267 037c 4008A0E1 		mov	r0, r0, asr #16
 268 0380 4EE8A0E1 		mov	lr, lr, asr #16
 269 0384 4AE86EE0 		rsb	lr, lr, sl, asr #16
 270 0388 D8038DE5 		str	r0, [sp, #984]
 271 038c 00069DE5 		ldr	r0, [sp, #1536]
 272 0390 18E08DE5 		str	lr, [sp, #24]
 273 0394 3CE59DE5 		ldr	lr, [sp, #1340]
 274 0398 0008A0E1 		mov	r0, r0, asl #16
 275 039c 4448A0E1 		mov	r4, r4, asr #16
 276 03a0 4E4864E0 		rsb	r4, r4, lr, asr #16
 277 03a4 F8A49DE5 		ldr	sl, [sp, #1272]
 278 03a8 E8E49DE5 		ldr	lr, [sp, #1256]
 279 03ac 20008DE5 		str	r0, [sp, #32]
 280 03b0 7C059DE5 		ldr	r0, [sp, #1404]
 281 03b4 4CC8A0E1 		mov	ip, ip, asr #16
 282 03b8 4668A0E1 		mov	r6, r6, asr #16
 283 03bc 4778A0E1 		mov	r7, r7, asr #16
 284 03c0 40C86CE0 		rsb	ip, ip, r0, asr #16
 285 03c4 4A6866E0 		rsb	r6, r6, sl, asr #16
ARM GAS  /cygdrive/c/DOCUME~1/mkwapisz/LOCALS~1/Temp/ccLlueLU.s 			page 6


 286 03c8 2C059DE5 		ldr	r0, [sp, #1324]
 287 03cc 4E7867E0 		rsb	r7, r7, lr, asr #16
 288 03d0 4AAE8DE2 		add	sl, sp, #1184
 289 03d4 00449AE8 		ldmia	sl, {sl, lr}	@ phole ldm
 290 03d8 4558A0E1 		mov	r5, r5, asr #16
 291 03dc 405865E0 		rsb	r5, r5, r0, asr #16
 292 03e0 4EA86AE0 		rsb	sl, sl, lr, asr #16
 293 03e4 B4049DE5 		ldr	r0, [sp, #1204]
 294 03e8 6CE49DE5 		ldr	lr, [sp, #1132]
 295 03ec 9CA48DE5 		str	sl, [sp, #1180]
 296 03f0 4888A0E1 		mov	r8, r8, asr #16
 297 03f4 68A49DE5 		ldr	sl, [sp, #1128]
 298 03f8 408868E0 		rsb	r8, r8, r0, asr #16
 299 03fc 78049DE5 		ldr	r0, [sp, #1144]
 300 0400 4EA86AE0 		rsb	sl, sl, lr, asr #16
 301 0404 4998A0E1 		mov	r9, r9, asr #16
 302 0408 64A48DE5 		str	sl, [sp, #1124]
 303 040c 409869E0 		rsb	r9, r9, r0, asr #16
 304 0410 110D8DE2 		add	r0, sp, #1088
 305 0414 010490E8 		ldmia	r0, {r0, sl}	@ phole ldm
 306 0418 4A0860E0 		rsb	r0, r0, sl, asr #16
 307 041c 38048DE5 		str	r0, [sp, #1080]
 308 0420 2CE49DE5 		ldr	lr, [sp, #1068]
 309 0424 30049DE5 		ldr	r0, [sp, #1072]
 310 0428 40E86EE0 		rsb	lr, lr, r0, asr #16
 311 042c 24E48DE5 		str	lr, [sp, #1060]
 312 0430 FBAF8DE2 		add	sl, sp, #1004
 313 0434 00449AE8 		ldmia	sl, {sl, lr}	@ phole ldm
 314 0438 4EA86AE0 		rsb	sl, sl, lr, asr #16
 315 043c E4A38DE5 		str	sl, [sp, #996]
 316 0440 F60F8DE2 		add	r0, sp, #984
 317 0444 010490E8 		ldmia	r0, {r0, sl}	@ phole ldm
 318 0448 4A0860E0 		rsb	r0, r0, sl, asr #16
 319 044c D0038DE5 		str	r0, [sp, #976]
 320 0450 20A09DE5 		ldr	sl, [sp, #32]
 321 0454 A0039DE5 		ldr	r0, [sp, #928]
 322 0458 9CE39DE5 		ldr	lr, [sp, #924]
 323 045c 4AB86BE0 		rsb	fp, fp, sl, asr #16
 324 0460 40E86EE0 		rsb	lr, lr, r0, asr #16
 325 0464 94E38DE5 		str	lr, [sp, #916]
 326 0468 84B38DE5 		str	fp, [sp, #900]
 327 046c F80F9FE5 		ldr	r0, .L28
 328 0470 9CB0CEE0 		smull	fp, lr, ip, r0
 329 0474 2BBEB0E1 		movs	fp, fp, lsr #28
 330 0478 0EA2ABE0 		adc	sl, fp, lr, lsl #4
 331 047c 0AB8A0E1 		mov	fp, sl, asl #16
 332 0480 78B58DE5 		str	fp, [sp, #1400]
 333 0484 E40F9FE5 		ldr	r0, .L28+4
 334 0488 18B09DE5 		ldr	fp, [sp, #24]
 335 048c 9BC0CAE0 		smull	ip, sl, fp, r0
 336 0490 2CCEB0E1 		movs	ip, ip, lsr #28
 337 0494 0AE2ACE0 		adc	lr, ip, sl, lsl #4
 338 0498 D40F9FE5 		ldr	r0, .L28+8
 339 049c 0EB8A0E1 		mov	fp, lr, asl #16
 340 04a0 94C0CAE0 		smull	ip, sl, r4, r0
 341 04a4 2CCEB0E1 		movs	ip, ip, lsr #28
 342 04a8 0AE2ACE0 		adc	lr, ip, sl, lsl #4
ARM GAS  /cygdrive/c/DOCUME~1/mkwapisz/LOCALS~1/Temp/ccLlueLU.s 			page 7


 343 04ac 0EE8A0E1 		mov	lr, lr, asl #16
 344 04b0 38E58DE5 		str	lr, [sp, #1336]
 345 04b4 BC0F9FE5 		ldr	r0, .L28+12
 346 04b8 95C0C4E0 		smull	ip, r4, r5, r0
 347 04bc 2CCEB0E1 		movs	ip, ip, lsr #28
 348 04c0 04E2ACE0 		adc	lr, ip, r4, lsl #4
 349 04c4 0EE8A0E1 		mov	lr, lr, asl #16
 350 04c8 28E58DE5 		str	lr, [sp, #1320]
 351 04cc A80F9FE5 		ldr	r0, .L28+16
 352 04d0 96C0C5E0 		smull	ip, r5, r6, r0
 353 04d4 2CCEB0E1 		movs	ip, ip, lsr #28
 354 04d8 05E2ACE0 		adc	lr, ip, r5, lsl #4
 355 04dc 0EE8A0E1 		mov	lr, lr, asl #16
 356 04e0 F4E48DE5 		str	lr, [sp, #1268]
 357 04e4 940F9FE5 		ldr	r0, .L28+20
 358 04e8 97C0C6E0 		smull	ip, r6, r7, r0
 359 04ec 2CCEB0E1 		movs	ip, ip, lsr #28
 360 04f0 06E2ACE0 		adc	lr, ip, r6, lsl #4
 361 04f4 880F9FE5 		ldr	r0, .L28+24
 362 04f8 98C0C7E0 		smull	ip, r7, r8, r0
 363 04fc 2CCEB0E1 		movs	ip, ip, lsr #28
 364 0500 0742ACE0 		adc	r4, ip, r7, lsl #4
 365 0504 0EE8A0E1 		mov	lr, lr, asl #16
 366 0508 0448A0E1 		mov	r4, r4, asl #16
 367 050c 9CA49DE5 		ldr	sl, [sp, #1180]
 368 0510 E4E48DE5 		str	lr, [sp, #1252]
 369 0514 B0448DE5 		str	r4, [sp, #1200]
 370 0518 680F9FE5 		ldr	r0, .L28+28
 371 051c 9AC0C8E0 		smull	ip, r8, sl, r0
 372 0520 2CCEB0E1 		movs	ip, ip, lsr #28
 373 0524 0842ACE0 		adc	r4, ip, r8, lsl #4
 374 0528 5C0F9FE5 		ldr	r0, .L28+32
 375 052c 99C0CEE0 		smull	ip, lr, r9, r0
 376 0530 2CCEB0E1 		movs	ip, ip, lsr #28
 377 0534 0E52ACE0 		adc	r5, ip, lr, lsl #4
 378 0538 0448A0E1 		mov	r4, r4, asl #16
 379 053c 0558A0E1 		mov	r5, r5, asl #16
 380 0540 64649DE5 		ldr	r6, [sp, #1124]
 381 0544 38849DE5 		ldr	r8, [sp, #1080]
 382 0548 24A49DE5 		ldr	sl, [sp, #1060]
 383 054c 98448DE5 		str	r4, [sp, #1176]
 384 0550 74548DE5 		str	r5, [sp, #1140]
 385 0554 340F9FE5 		ldr	r0, .L28+36
 386 0558 96C0C4E0 		smull	ip, r4, r6, r0
 387 055c 2CCEB0E1 		movs	ip, ip, lsr #28
 388 0560 0452ACE0 		adc	r5, ip, r4, lsl #4
 389 0564 280F9FE5 		ldr	r0, .L28+40
 390 0568 98C0C7E0 		smull	ip, r7, r8, r0
 391 056c 2CCEB0E1 		movs	ip, ip, lsr #28
 392 0570 0762ACE0 		adc	r6, ip, r7, lsl #4
 393 0574 1C0F9FE5 		ldr	r0, .L28+44
 394 0578 0648A0E1 		mov	r4, r6, asl #16
 395 057c 9AC0C9E0 		smull	ip, r9, sl, r0
 396 0580 2CCEB0E1 		movs	ip, ip, lsr #28
 397 0584 0962ACE0 		adc	r6, ip, r9, lsl #4
 398 0588 0668A0E1 		mov	r6, r6, asl #16
 399 058c 18608DE5 		str	r6, [sp, #24]
ARM GAS  /cygdrive/c/DOCUME~1/mkwapisz/LOCALS~1/Temp/ccLlueLU.s 			page 8


 400 0590 040F9FE5 		ldr	r0, .L28+48
 401 0594 E4639DE5 		ldr	r6, [sp, #996]
 402 0598 96C0CEE0 		smull	ip, lr, r6, r0
 403 059c 2CCEB0E1 		movs	ip, ip, lsr #28
 404 05a0 0E62ACE0 		adc	r6, ip, lr, lsl #4
 405 05a4 03EC8DE2 		add	lr, sp, #768
 406 05a8 B46FCEE1 		strh	r6, [lr, #244]	@ movhi
 407 05ac B48FDEE1 		ldrh	r8, [lr, #244]	@ movhi
 408 05b0 4F0040E2 		sub	r0, r0, #79
 409 05b4 D0A39DE5 		ldr	sl, [sp, #976]
 410 05b8 9AC0C9E0 		smull	ip, r9, sl, r0
 411 05bc 2CCEB0E1 		movs	ip, ip, lsr #28
 412 05c0 0962ACE0 		adc	r6, ip, r9, lsl #4
 413 05c4 0878A0E1 		mov	r7, r8, asl #16
 414 05c8 94939DE5 		ldr	r9, [sp, #916]
 415 05cc 9D0F80E2 		add	r0, r0, #628
 416 05d0 99C0CEE0 		smull	ip, lr, r9, r0
 417 05d4 2CCEB0E1 		movs	ip, ip, lsr #28
 418 05d8 0E82ACE0 		adc	r8, ip, lr, lsl #4
 419 05dc 84E39DE5 		ldr	lr, [sp, #900]
 420 05e0 B80E9FE5 		ldr	r0, .L28+52
 421 05e4 9EA0CCE0 		smull	sl, ip, lr, r0
 422 05e8 2AAEB0E1 		movs	sl, sl, lsr #28
 423 05ec 0C92AAE0 		adc	r9, sl, ip, lsl #4
 424 05f0 78059DE5 		ldr	r0, [sp, #1400]
 425 05f4 2008A0E1 		mov	r0, r0, lsr #16
 426 05f8 78078DE5 		str	r0, [sp, #1912]
 427 05fc 38A59DE5 		ldr	sl, [sp, #1336]
 428 0600 28C59DE5 		ldr	ip, [sp, #1320]
 429 0604 2AA8A0E1 		mov	sl, sl, lsr #16
 430 0608 88A78DE5 		str	sl, [sp, #1928]
 431 060c E4049DE5 		ldr	r0, [sp, #1252]
 432 0610 B0A49DE5 		ldr	sl, [sp, #1200]
 433 0614 0558A0E1 		mov	r5, r5, asl #16
 434 0618 2CC8A0E1 		mov	ip, ip, lsr #16
 435 061c 2558A0E1 		mov	r5, r5, lsr #16
 436 0620 8CC78DE5 		str	ip, [sp, #1932]
 437 0624 C4578DE5 		str	r5, [sp, #1988]
 438 0628 2008A0E1 		mov	r0, r0, lsr #16
 439 062c 2AA8A0E1 		mov	sl, sl, lsr #16
 440 0630 98C49DE5 		ldr	ip, [sp, #1176]
 441 0634 A0078DE5 		str	r0, [sp, #1952]
 442 0638 8C579DE5 		ldr	r5, [sp, #1932]
 443 063c B0A78DE5 		str	sl, [sp, #1968]
 444 0640 18009DE5 		ldr	r0, [sp, #24]
 445 0644 C4A79DE5 		ldr	sl, [sp, #1988]
 446 0648 2CC8A0E1 		mov	ip, ip, lsr #16
 447 064c B4C78DE5 		str	ip, [sp, #1972]
 448 0650 2008A0E1 		mov	r0, r0, lsr #16
 449 0654 05C8A0E1 		mov	ip, r5, asl #16
 450 0658 0A58A0E1 		mov	r5, sl, asl #16
 451 065c 78A79DE5 		ldr	sl, [sp, #1912]
 452 0660 2BB8A0E1 		mov	fp, fp, lsr #16
 453 0664 2448A0E1 		mov	r4, r4, lsr #16
 454 0668 D4078DE5 		str	r0, [sp, #2004]
 455 066c 0008A0E1 		mov	r0, r0, asl #16
 456 0670 F4E49DE5 		ldr	lr, [sp, #1268]
ARM GAS  /cygdrive/c/DOCUME~1/mkwapisz/LOCALS~1/Temp/ccLlueLU.s 			page 9


 457 0674 D0478DE5 		str	r4, [sp, #2000]
 458 0678 14048DE5 		str	r0, [sp, #1044]
 459 067c 0B48A0E1 		mov	r4, fp, asl #16
 460 0680 98059DE5 		ldr	r0, [sp, #1432]
 461 0684 0BB08AE0 		add	fp, sl, fp
 462 0688 9CA59DE5 		ldr	sl, [sp, #1436]
 463 068c 2EE8A0E1 		mov	lr, lr, lsr #16
 464 0690 0A0080E0 		add	r0, r0, sl
 465 0694 9CE78DE5 		str	lr, [sp, #1948]
 466 0698 A4A59DE5 		ldr	sl, [sp, #1444]
 467 069c 74E49DE5 		ldr	lr, [sp, #1140]
 468 06a0 2778A0E1 		mov	r7, r7, lsr #16
 469 06a4 44058DE5 		str	r0, [sp, #1348]
 470 06a8 0668A0E1 		mov	r6, r6, asl #16
 471 06ac A0059DE5 		ldr	r0, [sp, #1440]
 472 06b0 DC778DE5 		str	r7, [sp, #2012]
 473 06b4 2668A0E1 		mov	r6, r6, lsr #16
 474 06b8 B4779DE5 		ldr	r7, [sp, #1972]
 475 06bc E0678DE5 		str	r6, [sp, #2016]
 476 06c0 0A0080E0 		add	r0, r0, sl
 477 06c4 2EE8A0E1 		mov	lr, lr, lsr #16
 478 06c8 A0679DE5 		ldr	r6, [sp, #1952]
 479 06cc C0E78DE5 		str	lr, [sp, #1984]
 480 06d0 20408DE5 		str	r4, [sp, #32]
 481 06d4 0748A0E1 		mov	r4, r7, asl #16
 482 06d8 E0779DE5 		ldr	r7, [sp, #2016]
 483 06dc 34058DE5 		str	r0, [sp, #1332]
 484 06e0 8CA79DE5 		ldr	sl, [sp, #1932]
 485 06e4 88079DE5 		ldr	r0, [sp, #1928]
 486 06e8 0A0080E0 		add	r0, r0, sl
 487 06ec 24058DE5 		str	r0, [sp, #1316]
 488 06f0 A0A79DE5 		ldr	sl, [sp, #1952]
 489 06f4 9C079DE5 		ldr	r0, [sp, #1948]
 490 06f8 0A0080E0 		add	r0, r0, sl
 491 06fc E0048DE5 		str	r0, [sp, #1248]
 492 0700 BCA59DE5 		ldr	sl, [sp, #1468]
 493 0704 B8059DE5 		ldr	r0, [sp, #1464]
 494 0708 0A0080E0 		add	r0, r0, sl
 495 070c BC048DE5 		str	r0, [sp, #1212]
 496 0710 170D8DE2 		add	r0, sp, #1472
 497 0714 010490E8 		ldmia	r0, {r0, sl}	@ phole ldm
 498 0718 0A0080E0 		add	r0, r0, sl
 499 071c AC048DE5 		str	r0, [sp, #1196]
 500 0720 7B0E8DE2 		add	r0, sp, #1968
 501 0724 010490E8 		ldmia	r0, {r0, sl}	@ phole ldm
 502 0728 0A0080E0 		add	r0, r0, sl
 503 072c 94048DE5 		str	r0, [sp, #1172]
 504 0730 1F0D8DE2 		add	r0, sp, #1984
 505 0734 010490E8 		ldmia	r0, {r0, sl}	@ phole ldm
 506 0738 0A0080E0 		add	r0, r0, sl
 507 073c 60048DE5 		str	r0, [sp, #1120]
 508 0740 7D0E8DE2 		add	r0, sp, #2000
 509 0744 010490E8 		ldmia	r0, {r0, sl}	@ phole ldm
 510 0748 0A0080E0 		add	r0, r0, sl
 511 074c 20048DE5 		str	r0, [sp, #1056]
 512 0750 E0A79DE5 		ldr	sl, [sp, #2016]
 513 0754 DC079DE5 		ldr	r0, [sp, #2012]
ARM GAS  /cygdrive/c/DOCUME~1/mkwapisz/LOCALS~1/Temp/ccLlueLU.s 			page 10


 514 0758 0BB8A0E1 		mov	fp, fp, asl #16
 515 075c 0A0080E0 		add	r0, r0, sl
 516 0760 CC038DE5 		str	r0, [sp, #972]
 517 0764 68B58DE5 		str	fp, [sp, #1384]
 518 0768 20009DE5 		ldr	r0, [sp, #32]
 519 076c 78B79DE5 		ldr	fp, [sp, #1912]
 520 0770 4008A0E1 		mov	r0, r0, asr #16
 521 0774 0BB8A0E1 		mov	fp, fp, asl #16
 522 0778 60B58DE5 		str	fp, [sp, #1376]
 523 077c 20008DE5 		str	r0, [sp, #32]
 524 0780 44A59DE5 		ldr	sl, [sp, #1348]
 525 0784 34B59DE5 		ldr	fp, [sp, #1332]
 526 0788 24059DE5 		ldr	r0, [sp, #1316]
 527 078c 0AA8A0E1 		mov	sl, sl, asl #16
 528 0790 0BB8A0E1 		mov	fp, fp, asl #16
 529 0794 0008A0E1 		mov	r0, r0, asl #16
 530 0798 4CC8A0E1 		mov	ip, ip, asr #16
 531 079c 40A58DE5 		str	sl, [sp, #1344]
 532 07a0 30B58DE5 		str	fp, [sp, #1328]
 533 07a4 20058DE5 		str	r0, [sp, #1312]
 534 07a8 88A79DE5 		ldr	sl, [sp, #1928]
 535 07ac 14C08DE5 		str	ip, [sp, #20]
 536 07b0 9CC79DE5 		ldr	ip, [sp, #1948]
 537 07b4 0AA8A0E1 		mov	sl, sl, asl #16
 538 07b8 0CC8A0E1 		mov	ip, ip, asl #16
 539 07bc 18A58DE5 		str	sl, [sp, #1304]
 540 07c0 E0B49DE5 		ldr	fp, [sp, #1248]
 541 07c4 D4C48DE5 		str	ip, [sp, #1236]
 542 07c8 ACA49DE5 		ldr	sl, [sp, #1196]
 543 07cc B0C79DE5 		ldr	ip, [sp, #1968]
 544 07d0 BC049DE5 		ldr	r0, [sp, #1212]
 545 07d4 0BB8A0E1 		mov	fp, fp, asl #16
 546 07d8 0AA8A0E1 		mov	sl, sl, asl #16
 547 07dc 0CC8A0E1 		mov	ip, ip, asl #16
 548 07e0 DCB48DE5 		str	fp, [sp, #1244]
 549 07e4 0008A0E1 		mov	r0, r0, asl #16
 550 07e8 A8A48DE5 		str	sl, [sp, #1192]
 551 07ec 94B49DE5 		ldr	fp, [sp, #1172]
 552 07f0 8CC48DE5 		str	ip, [sp, #1164]
 553 07f4 C0A79DE5 		ldr	sl, [sp, #1984]
 554 07f8 D0C79DE5 		ldr	ip, [sp, #2000]
 555 07fc B8048DE5 		str	r0, [sp, #1208]
 556 0800 60049DE5 		ldr	r0, [sp, #1120]
 557 0804 0BB8A0E1 		mov	fp, fp, asl #16
 558 0808 0AA8A0E1 		mov	sl, sl, asl #16
 559 080c 0CC8A0E1 		mov	ip, ip, asl #16
 560 0810 0888A0E1 		mov	r8, r8, asl #16
 561 0814 0998A0E1 		mov	r9, r9, asl #16
 562 0818 2888A0E1 		mov	r8, r8, lsr #16
 563 081c 2998A0E1 		mov	r9, r9, lsr #16
 564 0820 90B48DE5 		str	fp, [sp, #1168]
 565 0824 0008A0E1 		mov	r0, r0, asl #16
 566 0828 58A48DE5 		str	sl, [sp, #1112]
 567 082c 20B49DE5 		ldr	fp, [sp, #1056]
 568 0830 18C48DE5 		str	ip, [sp, #1048]
 569 0834 CCA39DE5 		ldr	sl, [sp, #972]
 570 0838 DCC79DE5 		ldr	ip, [sp, #2012]
ARM GAS  /cygdrive/c/DOCUME~1/mkwapisz/LOCALS~1/Temp/ccLlueLU.s 			page 11


 571 083c 06E8A0E1 		mov	lr, r6, asl #16
 572 0840 5C048DE5 		str	r0, [sp, #1116]
 573 0844 0768A0E1 		mov	r6, r7, asl #16
 574 0848 14049DE5 		ldr	r0, [sp, #1044]
 575 084c 0978A0E1 		mov	r7, r9, asl #16
 576 0850 099088E0 		add	r9, r8, r9
 577 0854 0BB8A0E1 		mov	fp, fp, asl #16
 578 0858 0AA8A0E1 		mov	sl, sl, asl #16
 579 085c 0CC8A0E1 		mov	ip, ip, asl #16
 580 0860 0998A0E1 		mov	r9, r9, asl #16
 581 0864 1CB48DE5 		str	fp, [sp, #1052]
 582 0868 C8A38DE5 		str	sl, [sp, #968]
 583 086c 40B8A0E1 		mov	fp, r0, asr #16
 584 0870 C4C38DE5 		str	ip, [sp, #964]
 585 0874 28908DE5 		str	r9, [sp, #40]
 586 0878 94C59DE5 		ldr	ip, [sp, #1428]
 587 087c 8C959DE5 		ldr	r9, [sp, #1420]
 588 0880 88059DE5 		ldr	r0, [sp, #1416]
 589 0884 90A59DE5 		ldr	sl, [sp, #1424]
 590 0888 090080E0 		add	r0, r0, r9
 591 088c 0CA08AE0 		add	sl, sl, ip
 592 0890 84058DE5 		str	r0, [sp, #1412]
 593 0894 74A58DE5 		str	sl, [sp, #1396]
 594 0898 5BAE8DE2 		add	sl, sp, #1456
 595 089c 00149AE8 		ldmia	sl, {sl, ip}	@ phole ldm
 596 08a0 AC959DE5 		ldr	r9, [sp, #1452]
 597 08a4 A8059DE5 		ldr	r0, [sp, #1448]
 598 08a8 0CA08AE0 		add	sl, sl, ip
 599 08ac 090080E0 		add	r0, r0, r9
 600 08b0 04C69DE5 		ldr	ip, [sp, #1540]
 601 08b4 F0A48DE5 		str	sl, [sp, #1264]
 602 08b8 00A69DE5 		ldr	sl, [sp, #1536]
 603 08bc FC959DE5 		ldr	r9, [sp, #1532]
 604 08c0 00058DE5 		str	r0, [sp, #1280]
 605 08c4 F8059DE5 		ldr	r0, [sp, #1528]
 606 08c8 0CA08AE0 		add	sl, sl, ip
 607 08cc 090080E0 		add	r0, r0, r9
 608 08d0 90A38DE5 		str	sl, [sp, #912]
 609 08d4 20909DE5 		ldr	r9, [sp, #32]
 610 08d8 60A59DE5 		ldr	sl, [sp, #1376]
 611 08dc A8038DE5 		str	r0, [sp, #936]
 612 08e0 4A0869E0 		rsb	r0, r9, sl, asr #16
 613 08e4 14909DE5 		ldr	r9, [sp, #20]
 614 08e8 18A59DE5 		ldr	sl, [sp, #1304]
 615 08ec 4AC869E0 		rsb	ip, r9, sl, asr #16
 616 08f0 8CA49DE5 		ldr	sl, [sp, #1164]
 617 08f4 D4949DE5 		ldr	r9, [sp, #1236]
 618 08f8 4448A0E1 		mov	r4, r4, asr #16
 619 08fc 4A4864E0 		rsb	r4, r4, sl, asr #16
 620 0900 4EE8A0E1 		mov	lr, lr, asr #16
 621 0904 18A49DE5 		ldr	sl, [sp, #1048]
 622 0908 49E86EE0 		rsb	lr, lr, r9, asr #16
 623 090c 58949DE5 		ldr	r9, [sp, #1112]
 624 0910 4AB86BE0 		rsb	fp, fp, sl, asr #16
 625 0914 4558A0E1 		mov	r5, r5, asr #16
 626 0918 68A59DE5 		ldr	sl, [sp, #1384]
 627 091c 495865E0 		rsb	r5, r5, r9, asr #16
ARM GAS  /cygdrive/c/DOCUME~1/mkwapisz/LOCALS~1/Temp/ccLlueLU.s 			page 12


 628 0920 C4939DE5 		ldr	r9, [sp, #964]
 629 0924 0888A0E1 		mov	r8, r8, asl #16
 630 0928 2AA8A0E1 		mov	sl, sl, lsr #16
 631 092c 4668A0E1 		mov	r6, r6, asr #16
 632 0930 4778A0E1 		mov	r7, r7, asr #16
 633 0934 496866E0 		rsb	r6, r6, r9, asr #16
 634 0938 487867E0 		rsb	r7, r7, r8, asr #16
 635 093c 88A68DE5 		str	sl, [sp, #1672]
 636 0940 5CAB9FE5 		ldr	sl, .L28+56
 637 0944 908AC9E0 		smull	r8, r9, r0, sl
 638 0948 288EB0E1 		movs	r8, r8, lsr #28
 639 094c 09A2A8E0 		adc	sl, r8, r9, lsl #4
 640 0950 058C8DE2 		add	r8, sp, #1280
 641 0954 20959DE5 		ldr	r9, [sp, #1312]
 642 0958 B4A6C8E1 		strh	sl, [r8, #100]	@ movhi
 643 095c 40059DE5 		ldr	r0, [sp, #1344]
 644 0960 30859DE5 		ldr	r8, [sp, #1328]
 645 0964 2998A0E1 		mov	r9, r9, lsr #16
 646 0968 2008A0E1 		mov	r0, r0, lsr #16
 647 096c 2888A0E1 		mov	r8, r8, lsr #16
 648 0970 8C968DE5 		str	r9, [sp, #1676]
 649 0974 DC949DE5 		ldr	r9, [sp, #1244]
 650 0978 2C068DE5 		str	r0, [sp, #1580]
 651 097c 30868DE5 		str	r8, [sp, #1584]
 652 0980 208B9FE5 		ldr	r8, .L28+60
 653 0984 9CA8C0E0 		smull	sl, r0, ip, r8
 654 0988 2AAEB0E1 		movs	sl, sl, lsr #28
 655 098c 0082AAE0 		adc	r8, sl, r0, lsl #4
 656 0990 05AC8DE2 		add	sl, sp, #1280
 657 0994 BC81CAE1 		strh	r8, [sl, #28]	@ movhi
 658 0998 2998A0E1 		mov	r9, r9, lsr #16
 659 099c 08AB9FE5 		ldr	sl, .L28+64
 660 09a0 9ECAC0E0 		smull	ip, r0, lr, sl
 661 09a4 2CCEB0E1 		movs	ip, ip, lsr #28
 662 09a8 0082ACE0 		adc	r8, ip, r0, lsl #4
 663 09ac 01AB8DE2 		add	sl, sp, #1024
 664 09b0 90968DE5 		str	r9, [sp, #1680]
 665 09b4 B88DCAE1 		strh	r8, [sl, #216]	@ movhi
 666 09b8 B8C49DE5 		ldr	ip, [sp, #1208]
 667 09bc A8E49DE5 		ldr	lr, [sp, #1192]
 668 09c0 90049DE5 		ldr	r0, [sp, #1168]
 669 09c4 2CC8A0E1 		mov	ip, ip, lsr #16
 670 09c8 2EE8A0E1 		mov	lr, lr, lsr #16
 671 09cc 2008A0E1 		mov	r0, r0, lsr #16
 672 09d0 3CC68DE5 		str	ip, [sp, #1596]
 673 09d4 40E68DE5 		str	lr, [sp, #1600]
 674 09d8 94068DE5 		str	r0, [sp, #1684]
 675 09dc CC9A9FE5 		ldr	r9, .L28+68
 676 09e0 94C9C0E0 		smull	ip, r0, r4, r9
 677 09e4 2CCEB0E1 		movs	ip, ip, lsr #28
 678 09e8 0082ACE0 		adc	r8, ip, r0, lsl #4
 679 09ec 5CA49DE5 		ldr	sl, [sp, #1116]
 680 09f0 BCEA9FE5 		ldr	lr, .L28+72
 681 09f4 95CEC0E0 		smull	ip, r0, r5, lr
 682 09f8 2CCEB0E1 		movs	ip, ip, lsr #28
 683 09fc 0042ACE0 		adc	r4, ip, r0, lsl #4
 684 0a00 1C049DE5 		ldr	r0, [sp, #1052]
ARM GAS  /cygdrive/c/DOCUME~1/mkwapisz/LOCALS~1/Temp/ccLlueLU.s 			page 13


 685 0a04 C8539DE5 		ldr	r5, [sp, #968]
 686 0a08 2AA8A0E1 		mov	sl, sl, lsr #16
 687 0a0c 2008A0E1 		mov	r0, r0, lsr #16
 688 0a10 98A68DE5 		str	sl, [sp, #1688]
 689 0a14 9C068DE5 		str	r0, [sp, #1692]
 690 0a18 28A09DE5 		ldr	sl, [sp, #40]
 691 0a1c 2558A0E1 		mov	r5, r5, lsr #16
 692 0a20 909A9FE5 		ldr	r9, .L28+76
 693 0a24 96C9C0E0 		smull	ip, r0, r6, r9
 694 0a28 2CCEB0E1 		movs	ip, ip, lsr #28
 695 0a2c 00E2ACE0 		adc	lr, ip, r0, lsl #4
 696 0a30 846A9FE5 		ldr	r6, .L28+80
 697 0a34 97C6C0E0 		smull	ip, r0, r7, r6
 698 0a38 2CCEB0E1 		movs	ip, ip, lsr #28
 699 0a3c 0072ACE0 		adc	r7, ip, r0, lsl #4
 700 0a40 84C59DE5 		ldr	ip, [sp, #1412]
 701 0a44 A0568DE5 		str	r5, [sp, #1696]
 702 0a48 055C8DE2 		add	r5, sp, #1280
 703 0a4c 2A98A0E1 		mov	r9, sl, lsr #16
 704 0a50 0CC8A0E1 		mov	ip, ip, asl #16
 705 0a54 B456D5E1 		ldrh	r5, [r5, #100]
 706 0a58 05AC8DE2 		add	sl, sp, #1280
 707 0a5c 80C58DE5 		str	ip, [sp, #1408]
 708 0a60 74059DE5 		ldr	r0, [sp, #1396]
 709 0a64 BCA1DAE1 		ldrh	sl, [sl, #28]
 710 0a68 00C59DE5 		ldr	ip, [sp, #1280]
 711 0a6c 0558A0E1 		mov	r5, r5, asl #16
 712 0a70 0008A0E1 		mov	r0, r0, asl #16
 713 0a74 5C558DE5 		str	r5, [sp, #1372]
 714 0a78 0AA8A0E1 		mov	sl, sl, asl #16
 715 0a7c 0CC8A0E1 		mov	ip, ip, asl #16
 716 0a80 015B8DE2 		add	r5, sp, #1024
 717 0a84 70058DE5 		str	r0, [sp, #1392]
 718 0a88 14A58DE5 		str	sl, [sp, #1300]
 719 0a8c FCC48DE5 		str	ip, [sp, #1276]
 720 0a90 F0049DE5 		ldr	r0, [sp, #1264]
 721 0a94 B85DD5E1 		ldrh	r5, [r5, #216]
 722 0a98 A8A39DE5 		ldr	sl, [sp, #936]
 723 0a9c 90C39DE5 		ldr	ip, [sp, #912]
 724 0aa0 0008A0E1 		mov	r0, r0, asl #16
 725 0aa4 0558A0E1 		mov	r5, r5, asl #16
 726 0aa8 0EE8A0E1 		mov	lr, lr, asl #16
 727 0aac 0AA8A0E1 		mov	sl, sl, asl #16
 728 0ab0 0CC8A0E1 		mov	ip, ip, asl #16
 729 0ab4 EC048DE5 		str	r0, [sp, #1260]
 730 0ab8 D0548DE5 		str	r5, [sp, #1232]
 731 0abc C0E38DE5 		str	lr, [sp, #960]
 732 0ac0 A4A38DE5 		str	sl, [sp, #932]
 733 0ac4 8CC38DE5 		str	ip, [sp, #908]
 734 0ac8 635FA0E3 		mov	r5, #396	@ movhi
 735 0acc D8A59DE5 		ldr	sl, [sp, #1496]
 736 0ad0 9BE5C0E0 		smull	lr, r0, fp, r5
 737 0ad4 2EEEB0E1 		movs	lr, lr, lsr #28
 738 0ad8 00C2AEE0 		adc	ip, lr, r0, lsl #4
 739 0adc DCB59DE5 		ldr	fp, [sp, #1500]
 740 0ae0 0BA08AE0 		add	sl, sl, fp
 741 0ae4 20A08DE5 		str	sl, [sp, #32]
ARM GAS  /cygdrive/c/DOCUME~1/mkwapisz/LOCALS~1/Temp/ccLlueLU.s 			page 14


 742 0ae8 E0E59DE5 		ldr	lr, [sp, #1504]
 743 0aec E4059DE5 		ldr	r0, [sp, #1508]
 744 0af0 E8A59DE5 		ldr	sl, [sp, #1512]
 745 0af4 00508EE0 		add	r5, lr, r0
 746 0af8 ECE59DE5 		ldr	lr, [sp, #1516]
 747 0afc F0059DE5 		ldr	r0, [sp, #1520]
 748 0b00 0EB08AE0 		add	fp, sl, lr
 749 0b04 F4A59DE5 		ldr	sl, [sp, #1524]
 750 0b08 0AE080E0 		add	lr, r0, sl
 751 0b0c 80059DE5 		ldr	r0, [sp, #1408]
 752 0b10 70A59DE5 		ldr	sl, [sp, #1392]
 753 0b14 2008A0E1 		mov	r0, r0, lsr #16
 754 0b18 24068DE5 		str	r0, [sp, #1572]
 755 0b1c 2AA8A0E1 		mov	sl, sl, lsr #16
 756 0b20 5C059DE5 		ldr	r0, [sp, #1372]
 757 0b24 28A68DE5 		str	sl, [sp, #1576]
 758 0b28 14A59DE5 		ldr	sl, [sp, #1300]
 759 0b2c 2008A0E1 		mov	r0, r0, lsr #16
 760 0b30 7C078DE5 		str	r0, [sp, #1916]
 761 0b34 2AA8A0E1 		mov	sl, sl, lsr #16
 762 0b38 FC049DE5 		ldr	r0, [sp, #1276]
 763 0b3c 90A78DE5 		str	sl, [sp, #1936]
 764 0b40 ECA49DE5 		ldr	sl, [sp, #1260]
 765 0b44 2008A0E1 		mov	r0, r0, lsr #16
 766 0b48 34068DE5 		str	r0, [sp, #1588]
 767 0b4c 2AA8A0E1 		mov	sl, sl, lsr #16
 768 0b50 D0049DE5 		ldr	r0, [sp, #1232]
 769 0b54 38A68DE5 		str	sl, [sp, #1592]
 770 0b58 0448A0E1 		mov	r4, r4, asl #16
 771 0b5c A4A39DE5 		ldr	sl, [sp, #932]
 772 0b60 2008A0E1 		mov	r0, r0, lsr #16
 773 0b64 2448A0E1 		mov	r4, r4, lsr #16
 774 0b68 0BB8A0E1 		mov	fp, fp, asl #16
 775 0b6c 0EE8A0E1 		mov	lr, lr, asl #16
 776 0b70 A4078DE5 		str	r0, [sp, #1956]
 777 0b74 C8478DE5 		str	r4, [sp, #1992]
 778 0b78 2AA8A0E1 		mov	sl, sl, lsr #16
 779 0b7c C0439DE5 		ldr	r4, [sp, #960]
 780 0b80 8C039DE5 		ldr	r0, [sp, #908]
 781 0b84 F8B38DE5 		str	fp, [sp, #1016]
 782 0b88 E0E38DE5 		str	lr, [sp, #992]
 783 0b8c 2CB69DE5 		ldr	fp, [sp, #1580]
 784 0b90 30E69DE5 		ldr	lr, [sp, #1584]
 785 0b94 5CA68DE5 		str	sl, [sp, #1628]
 786 0b98 20A09DE5 		ldr	sl, [sp, #32]
 787 0b9c 0EB08BE0 		add	fp, fp, lr
 788 0ba0 2448A0E1 		mov	r4, r4, lsr #16
 789 0ba4 2008A0E1 		mov	r0, r0, lsr #16
 790 0ba8 0558A0E1 		mov	r5, r5, asl #16
 791 0bac E4478DE5 		str	r4, [sp, #2020]
 792 0bb0 60068DE5 		str	r0, [sp, #1632]
 793 0bb4 0A48A0E1 		mov	r4, sl, asl #16
 794 0bb8 34548DE5 		str	r5, [sp, #1076]
 795 0bbc 20B08DE5 		str	fp, [sp, #32]
 796 0bc0 3C069DE5 		ldr	r0, [sp, #1596]
 797 0bc4 40A69DE5 		ldr	sl, [sp, #1600]
 798 0bc8 C8E59DE5 		ldr	lr, [sp, #1480]
ARM GAS  /cygdrive/c/DOCUME~1/mkwapisz/LOCALS~1/Temp/ccLlueLU.s 			page 15


 799 0bcc 0A5080E0 		add	r5, r0, sl
 800 0bd0 CC059DE5 		ldr	r0, [sp, #1484]
 801 0bd4 D0A59DE5 		ldr	sl, [sp, #1488]
 802 0bd8 00B08EE0 		add	fp, lr, r0
 803 0bdc D4059DE5 		ldr	r0, [sp, #1492]
 804 0be0 00E08AE0 		add	lr, sl, r0
 805 0be4 8C069DE5 		ldr	r0, [sp, #1676]
 806 0be8 88A69DE5 		ldr	sl, [sp, #1672]
 807 0bec 00A08AE0 		add	sl, sl, r0
 808 0bf0 38A38DE5 		str	sl, [sp, #824]
 809 0bf4 94069DE5 		ldr	r0, [sp, #1684]
 810 0bf8 90A69DE5 		ldr	sl, [sp, #1680]
 811 0bfc 00A08AE0 		add	sl, sl, r0
 812 0c00 24A38DE5 		str	sl, [sp, #804]
 813 0c04 9C069DE5 		ldr	r0, [sp, #1692]
 814 0c08 98A69DE5 		ldr	sl, [sp, #1688]
 815 0c0c 00A08AE0 		add	sl, sl, r0
 816 0c10 0CA38DE5 		str	sl, [sp, #780]
 817 0c14 A0A69DE5 		ldr	sl, [sp, #1696]
 818 0c18 34049DE5 		ldr	r0, [sp, #1076]
 819 0c1c 09A08AE0 		add	sl, sl, r9
 820 0c20 2448A0E1 		mov	r4, r4, lsr #16
 821 0c24 F4A28DE5 		str	sl, [sp, #756]
 822 0c28 4C468DE5 		str	r4, [sp, #1612]
 823 0c2c 2008A0E1 		mov	r0, r0, lsr #16
 824 0c30 F8439DE5 		ldr	r4, [sp, #1016]
 825 0c34 E0A39DE5 		ldr	sl, [sp, #992]
 826 0c38 50068DE5 		str	r0, [sp, #1616]
 827 0c3c 20009DE5 		ldr	r0, [sp, #32]
 828 0c40 2448A0E1 		mov	r4, r4, lsr #16
 829 0c44 2AA8A0E1 		mov	sl, sl, lsr #16
 830 0c48 0BB8A0E1 		mov	fp, fp, asl #16
 831 0c4c 0EE8A0E1 		mov	lr, lr, asl #16
 832 0c50 54468DE5 		str	r4, [sp, #1620]
 833 0c54 58A68DE5 		str	sl, [sp, #1624]
 834 0c58 0048A0E1 		mov	r4, r0, asl #16
 835 0c5c 20B08DE5 		str	fp, [sp, #32]
 836 0c60 70E48DE5 		str	lr, [sp, #1136]
 837 0c64 38A39DE5 		ldr	sl, [sp, #824]
 838 0c68 24B39DE5 		ldr	fp, [sp, #804]
 839 0c6c 0CE39DE5 		ldr	lr, [sp, #780]
 840 0c70 F4029DE5 		ldr	r0, [sp, #756]
 841 0c74 0AA8A0E1 		mov	sl, sl, asl #16
 842 0c78 0BB8A0E1 		mov	fp, fp, asl #16
 843 0c7c 0EE8A0E1 		mov	lr, lr, asl #16
 844 0c80 0008A0E1 		mov	r0, r0, asl #16
 845 0c84 34A38DE5 		str	sl, [sp, #820]
 846 0c88 20B38DE5 		str	fp, [sp, #800]
 847 0c8c 08E38DE5 		str	lr, [sp, #776]
 848 0c90 F0028DE5 		str	r0, [sp, #752]
 849 0c94 24A69DE5 		ldr	sl, [sp, #1572]
 850 0c98 28E69DE5 		ldr	lr, [sp, #1576]
 851 0c9c 34069DE5 		ldr	r0, [sp, #1588]
 852 0ca0 0EB08AE0 		add	fp, sl, lr
 853 0ca4 38A69DE5 		ldr	sl, [sp, #1592]
 854 0ca8 0AE080E0 		add	lr, r0, sl
 855 0cac 60A69DE5 		ldr	sl, [sp, #1632]
ARM GAS  /cygdrive/c/DOCUME~1/mkwapisz/LOCALS~1/Temp/ccLlueLU.s 			page 16


 856 0cb0 5C069DE5 		ldr	r0, [sp, #1628]
 857 0cb4 0A0080E0 		add	r0, r0, sl
 858 0cb8 80038DE5 		str	r0, [sp, #896]
 859 0cbc 90A79DE5 		ldr	sl, [sp, #1936]
 860 0cc0 7C079DE5 		ldr	r0, [sp, #1916]
 861 0cc4 0A0080E0 		add	r0, r0, sl
 862 0cc8 B8028DE5 		str	r0, [sp, #696]
 863 0ccc C8A79DE5 		ldr	sl, [sp, #1992]
 864 0cd0 A4079DE5 		ldr	r0, [sp, #1956]
 865 0cd4 0888A0E1 		mov	r8, r8, asl #16
 866 0cd8 0CC8A0E1 		mov	ip, ip, asl #16
 867 0cdc 2888A0E1 		mov	r8, r8, lsr #16
 868 0ce0 2CC8A0E1 		mov	ip, ip, lsr #16
 869 0ce4 2448A0E1 		mov	r4, r4, lsr #16
 870 0ce8 080080E0 		add	r0, r0, r8
 871 0cec 0CA08AE0 		add	sl, sl, ip
 872 0cf0 6C468DE5 		str	r4, [sp, #1644]
 873 0cf4 20409DE5 		ldr	r4, [sp, #32]
 874 0cf8 9C028DE5 		str	r0, [sp, #668]
 875 0cfc 8CA28DE5 		str	sl, [sp, #652]
 876 0d00 E4079DE5 		ldr	r0, [sp, #2020]
 877 0d04 34A39DE5 		ldr	sl, [sp, #820]
 878 0d08 0778A0E1 		mov	r7, r7, asl #16
 879 0d0c 0558A0E1 		mov	r5, r5, asl #16
 880 0d10 2778A0E1 		mov	r7, r7, lsr #16
 881 0d14 2558A0E1 		mov	r5, r5, lsr #16
 882 0d18 2448A0E1 		mov	r4, r4, lsr #16
 883 0d1c 070080E0 		add	r0, r0, r7
 884 0d20 74568DE5 		str	r5, [sp, #1652]
 885 0d24 44468DE5 		str	r4, [sp, #1604]
 886 0d28 70549DE5 		ldr	r5, [sp, #1136]
 887 0d2c 2AA8A0E1 		mov	sl, sl, lsr #16
 888 0d30 08439DE5 		ldr	r4, [sp, #776]
 889 0d34 78028DE5 		str	r0, [sp, #632]
 890 0d38 C0A68DE5 		str	sl, [sp, #1728]
 891 0d3c 20039DE5 		ldr	r0, [sp, #800]
 892 0d40 80A39DE5 		ldr	sl, [sp, #896]
 893 0d44 2558A0E1 		mov	r5, r5, lsr #16
 894 0d48 2448A0E1 		mov	r4, r4, lsr #16
 895 0d4c 48568DE5 		str	r5, [sp, #1608]
 896 0d50 2008A0E1 		mov	r0, r0, lsr #16
 897 0d54 C8468DE5 		str	r4, [sp, #1736]
 898 0d58 F0529DE5 		ldr	r5, [sp, #752]
 899 0d5c 0BB8A0E1 		mov	fp, fp, asl #16
 900 0d60 0E48A0E1 		mov	r4, lr, asl #16
 901 0d64 0AE8A0E1 		mov	lr, sl, asl #16
 902 0d68 8CA29DE5 		ldr	sl, [sp, #652]
 903 0d6c C4068DE5 		str	r0, [sp, #1732]
 904 0d70 20B08DE5 		str	fp, [sp, #32]
 905 0d74 9C029DE5 		ldr	r0, [sp, #668]
 906 0d78 B8B29DE5 		ldr	fp, [sp, #696]
 907 0d7c 2558A0E1 		mov	r5, r5, lsr #16
 908 0d80 0AA8A0E1 		mov	sl, sl, asl #16
 909 0d84 CC568DE5 		str	r5, [sp, #1740]
 910 0d88 88A28DE5 		str	sl, [sp, #648]
 911 0d8c 0B58A0E1 		mov	r5, fp, asl #16
 912 0d90 00B8A0E1 		mov	fp, r0, asl #16
ARM GAS  /cygdrive/c/DOCUME~1/mkwapisz/LOCALS~1/Temp/ccLlueLU.s 			page 17


 913 0d94 78029DE5 		ldr	r0, [sp, #632]
 914 0d98 0008A0E1 		mov	r0, r0, asl #16
 915 0d9c 74028DE5 		str	r0, [sp, #628]
 916 0da0 4CA69DE5 		ldr	sl, [sp, #1612]
 917 0da4 50069DE5 		ldr	r0, [sp, #1616]
 918 0da8 00A08AE0 		add	sl, sl, r0
 919 0dac 10A48DE5 		str	sl, [sp, #1040]
 920 0db0 58069DE5 		ldr	r0, [sp, #1624]
 921 0db4 54A69DE5 		ldr	sl, [sp, #1620]
 922 0db8 2EE8A0E1 		mov	lr, lr, lsr #16
 923 0dbc 00A08AE0 		add	sl, sl, r0
 924 0dc0 2558A0E1 		mov	r5, r5, lsr #16
 925 0dc4 2BB8A0E1 		mov	fp, fp, lsr #16
 926 0dc8 BCA38DE5 		str	sl, [sp, #956]
 927 0dcc 84E68DE5 		str	lr, [sp, #1668]
 928 0dd0 20A09DE5 		ldr	sl, [sp, #32]
 929 0dd4 E8568DE5 		str	r5, [sp, #1768]
 930 0dd8 ECB68DE5 		str	fp, [sp, #1772]
 931 0ddc 74E29DE5 		ldr	lr, [sp, #628]
 932 0de0 88B29DE5 		ldr	fp, [sp, #648]
 933 0de4 28069DE5 		ldr	r0, [sp, #1576]
 934 0de8 38569DE5 		ldr	r5, [sp, #1592]
 935 0dec 2AA8A0E1 		mov	sl, sl, lsr #16
 936 0df0 2448A0E1 		mov	r4, r4, lsr #16
 937 0df4 2BB8A0E1 		mov	fp, fp, lsr #16
 938 0df8 2EE8A0E1 		mov	lr, lr, lsr #16
 939 0dfc 0008A0E1 		mov	r0, r0, asl #16
 940 0e00 0558A0E1 		mov	r5, r5, asl #16
 941 0e04 68A68DE5 		str	sl, [sp, #1640]
 942 0e08 70468DE5 		str	r4, [sp, #1648]
 943 0e0c F0B68DE5 		str	fp, [sp, #1776]
 944 0e10 F4E68DE5 		str	lr, [sp, #1780]
 945 0e14 4C058DE5 		str	r0, [sp, #1356]
 946 0e18 30469DE5 		ldr	r4, [sp, #1584]
 947 0e1c C0548DE5 		str	r5, [sp, #1216]
 948 0e20 40A69DE5 		ldr	sl, [sp, #1600]
 949 0e24 48B69DE5 		ldr	fp, [sp, #1608]
 950 0e28 10E49DE5 		ldr	lr, [sp, #1040]
 951 0e2c 50069DE5 		ldr	r0, [sp, #1616]
 952 0e30 58569DE5 		ldr	r5, [sp, #1624]
 953 0e34 0448A0E1 		mov	r4, r4, asl #16
 954 0e38 0AA8A0E1 		mov	sl, sl, asl #16
 955 0e3c 0BB8A0E1 		mov	fp, fp, asl #16
 956 0e40 0EE8A0E1 		mov	lr, lr, asl #16
 957 0e44 0008A0E1 		mov	r0, r0, asl #16
 958 0e48 0558A0E1 		mov	r5, r5, asl #16
 959 0e4c 04458DE5 		str	r4, [sp, #1284]
 960 0e50 7CA48DE5 		str	sl, [sp, #1148]
 961 0e54 BC439DE5 		ldr	r4, [sp, #956]
 962 0e58 20B08DE5 		str	fp, [sp, #32]
 963 0e5c 0CE48DE5 		str	lr, [sp, #1036]
 964 0e60 FC038DE5 		str	r0, [sp, #1020]
 965 0e64 AC538DE5 		str	r5, [sp, #940]
 966 0e68 60A69DE5 		ldr	sl, [sp, #1632]
 967 0e6c 0AA8A0E1 		mov	sl, sl, asl #16
 968 0e70 70A38DE5 		str	sl, [sp, #880]
 969 0e74 8CA69DE5 		ldr	sl, [sp, #1676]
ARM GAS  /cygdrive/c/DOCUME~1/mkwapisz/LOCALS~1/Temp/ccLlueLU.s 			page 18


 970 0e78 74069DE5 		ldr	r0, [sp, #1652]
 971 0e7c 0AA8A0E1 		mov	sl, sl, asl #16
 972 0e80 6CB69DE5 		ldr	fp, [sp, #1644]
 973 0e84 0058A0E1 		mov	r5, r0, asl #16
 974 0e88 28A38DE5 		str	sl, [sp, #808]
 975 0e8c 9C069DE5 		ldr	r0, [sp, #1692]
 976 0e90 90A79DE5 		ldr	sl, [sp, #1936]
 977 0e94 04E8A0E1 		mov	lr, r4, asl #16
 978 0e98 0008A0E1 		mov	r0, r0, asl #16
 979 0e9c 0B48A0E1 		mov	r4, fp, asl #16
 980 0ea0 0AA8A0E1 		mov	sl, sl, asl #16
 981 0ea4 94B69DE5 		ldr	fp, [sp, #1684]
 982 0ea8 FC028DE5 		str	r0, [sp, #764]
 983 0eac A8A28DE5 		str	sl, [sp, #680]
 984 0eb0 44069DE5 		ldr	r0, [sp, #1604]
 985 0eb4 48A69DE5 		ldr	sl, [sp, #1608]
 986 0eb8 0BB8A0E1 		mov	fp, fp, asl #16
 987 0ebc 10B38DE5 		str	fp, [sp, #784]
 988 0ec0 0AB080E0 		add	fp, r0, sl
 989 0ec4 1B0D8DE2 		add	r0, sp, #1728
 990 0ec8 010490E8 		ldmia	r0, {r0, sl}	@ phole ldm
 991 0ecc 0A0080E0 		add	r0, r0, sl
 992 0ed0 44028DE5 		str	r0, [sp, #580]
 993 0ed4 CCA69DE5 		ldr	sl, [sp, #1740]
 994 0ed8 C8069DE5 		ldr	r0, [sp, #1736]
 995 0edc 0A0080E0 		add	r0, r0, sl
 996 0ee0 3C028DE5 		str	r0, [sp, #572]
 997 0ee4 0C049DE5 		ldr	r0, [sp, #1036]
 998 0ee8 2EE8A0E1 		mov	lr, lr, lsr #16
 999 0eec 2008A0E1 		mov	r0, r0, lsr #16
 1000 0ef0 7C068DE5 		str	r0, [sp, #1660]
 1001 0ef4 80E68DE5 		str	lr, [sp, #1664]
 1002 0ef8 24A69DE5 		ldr	sl, [sp, #1572]
 1003 0efc 4CE59DE5 		ldr	lr, [sp, #1356]
 1004 0f00 2C069DE5 		ldr	r0, [sp, #1580]
 1005 0f04 0AA8A0E1 		mov	sl, sl, asl #16
 1006 0f08 4EE8A0E1 		mov	lr, lr, asr #16
 1007 0f0c 0008A0E1 		mov	r0, r0, asl #16
 1008 0f10 54A58DE5 		str	sl, [sp, #1364]
 1009 0f14 50E58DE5 		str	lr, [sp, #1360]
 1010 0f18 0C058DE5 		str	r0, [sp, #1292]
 1011 0f1c 04A59DE5 		ldr	sl, [sp, #1284]
 1012 0f20 34E69DE5 		ldr	lr, [sp, #1588]
 1013 0f24 C0049DE5 		ldr	r0, [sp, #1216]
 1014 0f28 4AA8A0E1 		mov	sl, sl, asr #16
 1015 0f2c 0EE8A0E1 		mov	lr, lr, asl #16
 1016 0f30 4008A0E1 		mov	r0, r0, asr #16
 1017 0f34 08A58DE5 		str	sl, [sp, #1288]
 1018 0f38 C8E48DE5 		str	lr, [sp, #1224]
 1019 0f3c C4048DE5 		str	r0, [sp, #1220]
 1020 0f40 3CA69DE5 		ldr	sl, [sp, #1596]
 1021 0f44 0BB8A0E1 		mov	fp, fp, asl #16
 1022 0f48 0AA8A0E1 		mov	sl, sl, asl #16
 1023 0f4c 84A48DE5 		str	sl, [sp, #1156]
 1024 0f50 7CE49DE5 		ldr	lr, [sp, #1148]
 1025 0f54 20A09DE5 		ldr	sl, [sp, #32]
 1026 0f58 54B48DE5 		str	fp, [sp, #1108]
ARM GAS  /cygdrive/c/DOCUME~1/mkwapisz/LOCALS~1/Temp/ccLlueLU.s 			page 19


 1027 0f5c 44069DE5 		ldr	r0, [sp, #1604]
 1028 0f60 4CB69DE5 		ldr	fp, [sp, #1612]
 1029 0f64 4EE8A0E1 		mov	lr, lr, asr #16
 1030 0f68 0008A0E1 		mov	r0, r0, asl #16
 1031 0f6c 4AA8A0E1 		mov	sl, sl, asr #16
 1032 0f70 0BB8A0E1 		mov	fp, fp, asl #16
 1033 0f74 80E48DE5 		str	lr, [sp, #1152]
 1034 0f78 4C048DE5 		str	r0, [sp, #1100]
 1035 0f7c 20A08DE5 		str	sl, [sp, #32]
 1036 0f80 04B48DE5 		str	fp, [sp, #1028]
 1037 0f84 FCE39DE5 		ldr	lr, [sp, #1020]
 1038 0f88 54069DE5 		ldr	r0, [sp, #1620]
 1039 0f8c ACA39DE5 		ldr	sl, [sp, #940]
 1040 0f90 5CB69DE5 		ldr	fp, [sp, #1628]
 1041 0f94 4EE8A0E1 		mov	lr, lr, asr #16
 1042 0f98 0008A0E1 		mov	r0, r0, asl #16
 1043 0f9c 4AA8A0E1 		mov	sl, sl, asr #16
 1044 0fa0 0BB8A0E1 		mov	fp, fp, asl #16
 1045 0fa4 00E48DE5 		str	lr, [sp, #1024]
 1046 0fa8 B4038DE5 		str	r0, [sp, #948]
 1047 0fac B0A38DE5 		str	sl, [sp, #944]
 1048 0fb0 78B38DE5 		str	fp, [sp, #888]
 1049 0fb4 70E39DE5 		ldr	lr, [sp, #880]
 1050 0fb8 68069DE5 		ldr	r0, [sp, #1640]
 1051 0fbc 70A69DE5 		ldr	sl, [sp, #1648]
 1052 0fc0 84B69DE5 		ldr	fp, [sp, #1668]
 1053 0fc4 4EE8A0E1 		mov	lr, lr, asr #16
 1054 0fc8 0008A0E1 		mov	r0, r0, asl #16
 1055 0fcc 0AA8A0E1 		mov	sl, sl, asl #16
 1056 0fd0 0BB8A0E1 		mov	fp, fp, asl #16
 1057 0fd4 74E38DE5 		str	lr, [sp, #884]
 1058 0fd8 60038DE5 		str	r0, [sp, #864]
 1059 0fdc 50A38DE5 		str	sl, [sp, #848]
 1060 0fe0 18B08DE5 		str	fp, [sp, #24]
 1061 0fe4 88E69DE5 		ldr	lr, [sp, #1672]
 1062 0fe8 28039DE5 		ldr	r0, [sp, #808]
 1063 0fec 90A69DE5 		ldr	sl, [sp, #1680]
 1064 0ff0 10B39DE5 		ldr	fp, [sp, #784]
 1065 0ff4 0EE8A0E1 		mov	lr, lr, asl #16
 1066 0ff8 4008A0E1 		mov	r0, r0, asr #16
 1067 0ffc 0AA8A0E1 		mov	sl, sl, asl #16
 1068 1000 4BB8A0E1 		mov	fp, fp, asr #16
 1069 1004 30E38DE5 		str	lr, [sp, #816]
 1070 1008 2C038DE5 		str	r0, [sp, #812]
 1071 100c 18A38DE5 		str	sl, [sp, #792]
 1072 1010 14B38DE5 		str	fp, [sp, #788]
 1073 1014 98E69DE5 		ldr	lr, [sp, #1688]
 1074 1018 FC029DE5 		ldr	r0, [sp, #764]
 1075 101c A0A69DE5 		ldr	sl, [sp, #1696]
 1076 1020 0EE8A0E1 		mov	lr, lr, asl #16
 1077 1024 4008A0E1 		mov	r0, r0, asr #16
 1078 1028 0AA8A0E1 		mov	sl, sl, asl #16
 1079 102c 7CB79DE5 		ldr	fp, [sp, #1916]
 1080 1030 04E38DE5 		str	lr, [sp, #772]
 1081 1034 00038DE5 		str	r0, [sp, #768]
 1082 1038 ECA28DE5 		str	sl, [sp, #748]
 1083 103c A8E29DE5 		ldr	lr, [sp, #680]
ARM GAS  /cygdrive/c/DOCUME~1/mkwapisz/LOCALS~1/Temp/ccLlueLU.s 			page 20


 1084 1040 A4079DE5 		ldr	r0, [sp, #1956]
 1085 1044 C8A79DE5 		ldr	sl, [sp, #1992]
 1086 1048 0CC8A0E1 		mov	ip, ip, asl #16
 1087 104c 0BB8A0E1 		mov	fp, fp, asl #16
 1088 1050 4CC8A0E1 		mov	ip, ip, asr #16
 1089 1054 B0B28DE5 		str	fp, [sp, #688]
 1090 1058 4EE8A0E1 		mov	lr, lr, asr #16
 1091 105c 0008A0E1 		mov	r0, r0, asl #16
 1092 1060 0AA8A0E1 		mov	sl, sl, asl #16
 1093 1064 14C08DE5 		str	ip, [sp, #20]
 1094 1068 E4B79DE5 		ldr	fp, [sp, #2020]
 1095 106c 44C29DE5 		ldr	ip, [sp, #580]
 1096 1070 ACE28DE5 		str	lr, [sp, #684]
 1097 1074 94028DE5 		str	r0, [sp, #660]
 1098 1078 80A28DE5 		str	sl, [sp, #640]
 1099 107c 3CE29DE5 		ldr	lr, [sp, #572]
 1100 1080 ECA69DE5 		ldr	sl, [sp, #1772]
 1101 1084 E8069DE5 		ldr	r0, [sp, #1768]
 1102 1088 0BB8A0E1 		mov	fp, fp, asl #16
 1103 108c 0CC8A0E1 		mov	ip, ip, asl #16
 1104 1090 0A0080E0 		add	r0, r0, sl
 1105 1094 6CB28DE5 		str	fp, [sp, #620]
 1106 1098 40C28DE5 		str	ip, [sp, #576]
 1107 109c 0EE8A0E1 		mov	lr, lr, asl #16
 1108 10a0 6FBE8DE2 		add	fp, sp, #1776
 1109 10a4 00189BE8 		ldmia	fp, {fp, ip}	@ phole ldm
 1110 10a8 38E28DE5 		str	lr, [sp, #568]
 1111 10ac 24028DE5 		str	r0, [sp, #548]
 1112 10b0 50E59DE5 		ldr	lr, [sp, #1360]
 1113 10b4 54059DE5 		ldr	r0, [sp, #1364]
 1114 10b8 0CB08BE0 		add	fp, fp, ip
 1115 10bc 1CB28DE5 		str	fp, [sp, #540]
 1116 10c0 40B86EE0 		rsb	fp, lr, r0, asr #16
 1117 10c4 D8E39FE5 		ldr	lr, .L28+56
 1118 10c8 9BAECCE0 		smull	sl, ip, fp, lr
 1119 10cc 2AAEB0E1 		movs	sl, sl, lsr #28
 1120 10d0 0CE2AAE0 		adc	lr, sl, ip, lsl #4
 1121 10d4 05AC8DE2 		add	sl, sp, #1280
 1122 10d8 B8E5CAE1 		strh	lr, [sl, #88]	@ movhi
 1123 10dc 08059DE5 		ldr	r0, [sp, #1288]
 1124 10e0 0CA59DE5 		ldr	sl, [sp, #1292]
 1125 10e4 4AB860E0 		rsb	fp, r0, sl, asr #16
 1126 10e8 B8039FE5 		ldr	r0, .L28+60
 1127 10ec 9BC0CEE0 		smull	ip, lr, fp, r0
 1128 10f0 2CCEB0E1 		movs	ip, ip, lsr #28
 1129 10f4 0E02ACE0 		adc	r0, ip, lr, lsl #4
 1130 10f8 05CC8DE2 		add	ip, sp, #1280
 1131 10fc B001CCE1 		strh	r0, [ip, #16]	@ movhi
 1132 1100 C4A49DE5 		ldr	sl, [sp, #1220]
 1133 1104 C8C49DE5 		ldr	ip, [sp, #1224]
 1134 1108 4CB86AE0 		rsb	fp, sl, ip, asr #16
 1135 110c 98A39FE5 		ldr	sl, .L28+64
 1136 1110 9BEAC0E0 		smull	lr, r0, fp, sl
 1137 1114 2EEEB0E1 		movs	lr, lr, lsr #28
 1138 1118 00A2AEE0 		adc	sl, lr, r0, lsl #4
 1139 111c 01EB8DE2 		add	lr, sp, #1024
 1140 1120 BCACCEE1 		strh	sl, [lr, #204]	@ movhi
ARM GAS  /cygdrive/c/DOCUME~1/mkwapisz/LOCALS~1/Temp/ccLlueLU.s 			page 21


 1141 1124 12CD8DE2 		add	ip, sp, #1152
 1142 1128 00509CE8 		ldmia	ip, {ip, lr}	@ phole ldm
 1143 112c 4EB86CE0 		rsb	fp, ip, lr, asr #16
 1144 1130 20E09DE5 		ldr	lr, [sp, #32]
 1145 1134 74C39FE5 		ldr	ip, .L28+68
 1146 1138 9B0CCAE0 		smull	r0, sl, fp, ip
 1147 113c 200EB0E1 		movs	r0, r0, lsr #28
 1148 1140 0AC2A0E0 		adc	ip, r0, sl, lsl #4
 1149 1144 4CA49DE5 		ldr	sl, [sp, #1100]
 1150 1148 010B8DE2 		add	r0, sp, #1024
 1151 114c B8C8C0E1 		strh	ip, [r0, #136]	@ movhi
 1152 1150 4A086EE0 		rsb	r0, lr, sl, asr #16
 1153 1154 00A49DE5 		ldr	sl, [sp, #1024]
 1154 1158 54E39FE5 		ldr	lr, .L28+72
 1155 115c 90BECCE0 		smull	fp, ip, r0, lr
 1156 1160 2BBEB0E1 		movs	fp, fp, lsr #28
 1157 1164 0CE2ABE0 		adc	lr, fp, ip, lsl #4
 1158 1168 04B49DE5 		ldr	fp, [sp, #1028]
 1159 116c 01CB8DE2 		add	ip, sp, #1024
 1160 1170 B0E5CCE1 		strh	lr, [ip, #80]	@ movhi
 1161 1174 4B086AE0 		rsb	r0, sl, fp, asr #16
 1162 1178 63EFA0E3 		mov	lr, #396	@ movhi
 1163 117c B0A39DE5 		ldr	sl, [sp, #944]
 1164 1180 90BECCE0 		smull	fp, ip, r0, lr
 1165 1184 2BBEB0E1 		movs	fp, fp, lsr #28
 1166 1188 0CE2ABE0 		adc	lr, fp, ip, lsl #4
 1167 118c B4B39DE5 		ldr	fp, [sp, #948]
 1168 1190 01CB8DE2 		add	ip, sp, #1024
 1169 1194 B8E0CCE1 		strh	lr, [ip, #8]	@ movhi
 1170 1198 4B086AE0 		rsb	r0, sl, fp, asr #16
 1171 119c 14E39FE5 		ldr	lr, .L28+76
 1172 11a0 90BECCE0 		smull	fp, ip, r0, lr
 1173 11a4 2BBEB0E1 		movs	fp, fp, lsr #28
 1174 11a8 0CE2ABE0 		adc	lr, fp, ip, lsl #4
 1175 11ac DDAF8DE2 		add	sl, sp, #884
 1176 11b0 000C9AE8 		ldmia	sl, {sl, fp}	@ phole ldm
 1177 11b4 03CC8DE2 		add	ip, sp, #768
 1178 11b8 4B086AE0 		rsb	r0, sl, fp, asr #16
 1179 11bc B8EBCCE1 		strh	lr, [ip, #184]	@ movhi
 1180 11c0 90C6CEE0 		smull	ip, lr, r0, r6
 1181 11c4 2CCEB0E1 		movs	ip, ip, lsr #28
 1182 11c8 0EA2ACE0 		adc	sl, ip, lr, lsl #4
 1183 11cc 60B39DE5 		ldr	fp, [sp, #864]
 1184 11d0 2CE39DE5 		ldr	lr, [sp, #812]
 1185 11d4 30039DE5 		ldr	r0, [sp, #816]
 1186 11d8 03CC8DE2 		add	ip, sp, #768
 1187 11dc BCA7CCE1 		strh	sl, [ip, #124]	@ movhi
 1188 11e0 4448A0E1 		mov	r4, r4, asr #16
 1189 11e4 50C39DE5 		ldr	ip, [sp, #848]
 1190 11e8 4B4864E0 		rsb	r4, r4, fp, asr #16
 1191 11ec 4558A0E1 		mov	r5, r5, asr #16
 1192 11f0 40B86EE0 		rsb	fp, lr, r0, asr #16
 1193 11f4 04039DE5 		ldr	r0, [sp, #772]
 1194 11f8 00E39DE5 		ldr	lr, [sp, #768]
 1195 11fc 4C5865E0 		rsb	r5, r5, ip, asr #16
 1196 1200 C56F8DE2 		add	r6, sp, #788
 1197 1204 401096E8 		ldmia	r6, {r6, ip}	@ phole ldm
ARM GAS  /cygdrive/c/DOCUME~1/mkwapisz/LOCALS~1/Temp/ccLlueLU.s 			page 22


 1198 1208 40E86EE0 		rsb	lr, lr, r0, asr #16
 1199 120c 4CA866E0 		rsb	sl, r6, ip, asr #16
 1200 1210 F8E28DE5 		str	lr, [sp, #760]
 1201 1214 ABCF8DE2 		add	ip, sp, #684
 1202 1218 00509CE8 		ldmia	ip, {ip, lr}	@ phole ldm
 1203 121c EC629DE5 		ldr	r6, [sp, #748]
 1204 1220 0998A0E1 		mov	r9, r9, asl #16
 1205 1224 4EC86CE0 		rsb	ip, ip, lr, asr #16
 1206 1228 4998A0E1 		mov	r9, r9, asr #16
 1207 122c 469869E0 		rsb	r9, r9, r6, asr #16
 1208 1230 A4C28DE5 		str	ip, [sp, #676]
 1209 1234 14609DE5 		ldr	r6, [sp, #20]
 1210 1238 80C29DE5 		ldr	ip, [sp, #640]
 1211 123c 94029DE5 		ldr	r0, [sp, #660]
 1212 1240 6CE29DE5 		ldr	lr, [sp, #620]
 1213 1244 0888A0E1 		mov	r8, r8, asl #16
 1214 1248 0778A0E1 		mov	r7, r7, asl #16
 1215 124c 4C6866E0 		rsb	r6, r6, ip, asr #16
 1216 1250 4888A0E1 		mov	r8, r8, asr #16
 1217 1254 4778A0E1 		mov	r7, r7, asr #16
 1218 1258 408868E0 		rsb	r8, r8, r0, asr #16
 1219 125c 4E7867E0 		rsb	r7, r7, lr, asr #16
 1220 1260 14608DE5 		str	r6, [sp, #20]
 1221 1264 54629FE5 		ldr	r6, .L28+84
 1222 1268 9406CCE0 		smull	r0, ip, r4, r6
 1223 126c 200EB0E1 		movs	r0, r0, lsr #28
 1224 1270 0CE2A0E0 		adc	lr, r0, ip, lsl #4
 1225 1274 030C8DE2 		add	r0, sp, #768
 1226 1278 B4E6C0E1 		strh	lr, [r0, #100]	@ movhi
 1227 127c 40429FE5 		ldr	r4, .L28+88
 1228 1280 9504CCE0 		smull	r0, ip, r5, r4
 1229 1284 200EB0E1 		movs	r0, r0, lsr #28
 1230 1288 0CE2A0E0 		adc	lr, r0, ip, lsl #4
 1231 128c 030C8DE2 		add	r0, sp, #768
 1232 1290 B4E5C0E1 		strh	lr, [r0, #84]	@ movhi
 1233 1294 A4C29DE5 		ldr	ip, [sp, #676]
 1234 1298 9C56C0E0 		smull	r5, r0, ip, r6
 1235 129c 255EB0E1 		movs	r5, r5, lsr #28
 1236 12a0 00C2A5E0 		adc	ip, r5, r0, lsl #4
 1237 12a4 020C8DE2 		add	r0, sp, #512
 1238 12a8 B4CBC0E1 		strh	ip, [r0, #180]	@ movhi
 1239 12ac 9854CEE0 		smull	r5, lr, r8, r4
 1240 12b0 255EB0E1 		movs	r5, r5, lsr #28
 1241 12b4 0EC2A5E0 		adc	ip, r5, lr, lsl #4
 1242 12b8 03EC8DE2 		add	lr, sp, #768
 1243 12bc B8C9C0E1 		strh	ip, [r0, #152]	@ movhi
 1244 12c0 9B56C0E0 		smull	r5, r0, fp, r6
 1245 12c4 255EB0E1 		movs	r5, r5, lsr #28
 1246 12c8 00B2A5E0 		adc	fp, r5, r0, lsl #4
 1247 12cc 9A54C0E0 		smull	r5, r0, sl, r4
 1248 12d0 255EB0E1 		movs	r5, r5, lsr #28
 1249 12d4 0082A5E0 		adc	r8, r5, r0, lsl #4
 1250 12d8 E8519FE5 		ldr	r5, .L28+92
 1251 12dc BC81CEE1 		strh	r8, [lr, #28]	@ movhi
 1252 12e0 14A09DE5 		ldr	sl, [sp, #20]
 1253 12e4 9AC5C0E0 		smull	ip, r0, sl, r5
 1254 12e8 2CCEB0E1 		movs	ip, ip, lsr #28
ARM GAS  /cygdrive/c/DOCUME~1/mkwapisz/LOCALS~1/Temp/ccLlueLU.s 			page 23


 1255 12ec 00E2ACE0 		adc	lr, ip, r0, lsl #4
 1256 12f0 02AC8DE2 		add	sl, sp, #512
 1257 12f4 B4E8CAE1 		strh	lr, [sl, #132]	@ movhi
 1258 12f8 F8E29DE5 		ldr	lr, [sp, #760]
 1259 12fc 9EC5C0E0 		smull	ip, r0, lr, r5
 1260 1300 2CCEB0E1 		movs	ip, ip, lsr #28
 1261 1304 0082ACE0 		adc	r8, ip, r0, lsl #4
 1262 1308 BC019FE5 		ldr	r0, .L28+96
 1263 130c 97A0CCE0 		smull	sl, ip, r7, r0
 1264 1310 2AAEB0E1 		movs	sl, sl, lsr #28
 1265 1314 0CE2AAE0 		adc	lr, sl, ip, lsl #4
 1266 1318 02AC8DE2 		add	sl, sp, #512
 1267 131c B0E7CAE1 		strh	lr, [sl, #112]	@ movhi
 1268 1320 9970CCE0 		smull	r7, ip, r9, r0
 1269 1324 277EB0E1 		movs	r7, r7, lsr #28
 1270 1328 0CA2A7E0 		adc	sl, r7, ip, lsl #4
 1271 132c 7CE69DE5 		ldr	lr, [sp, #1660]
 1272 1330 38C29DE5 		ldr	ip, [sp, #568]
 1273 1334 40929DE5 		ldr	r9, [sp, #576]
 1274 1338 2CC8A0E1 		mov	ip, ip, lsr #16
 1275 133c 0EE8A0E1 		mov	lr, lr, asl #16
 1276 1340 54749DE5 		ldr	r7, [sp, #1108]
 1277 1344 2998A0E1 		mov	r9, r9, lsr #16
 1278 1348 18C78DE5 		str	ip, [sp, #1816]
 1279 134c 14E08DE5 		str	lr, [sp, #20]
 1280 1350 18C09DE5 		ldr	ip, [sp, #24]
 1281 1354 03EC8DE2 		add	lr, sp, #768
 1282 1358 BCE1DEE1 		ldrh	lr, [lr, #28]
 1283 135c 14978DE5 		str	r9, [sp, #1812]
 1284 1360 0888A0E1 		mov	r8, r8, asl #16
 1285 1364 80969DE5 		ldr	r9, [sp, #1664]
 1286 1368 2778A0E1 		mov	r7, r7, lsr #16
 1287 136c 4CC8A0E1 		mov	ip, ip, asr #16
 1288 1370 10808DE5 		str	r8, [sp, #16]
 1289 1374 028C8DE2 		add	r8, sp, #512
 1290 1378 78768DE5 		str	r7, [sp, #1656]
 1291 137c 18C08DE5 		str	ip, [sp, #24]
 1292 1380 0978A0E1 		mov	r7, r9, asl #16
 1293 1384 B48BD8E1 		ldrh	r8, [r8, #180]
 1294 1388 0B98A0E1 		mov	r9, fp, asl #16
 1295 138c 02CC8DE2 		add	ip, sp, #512
 1296 1390 0EB8A0E1 		mov	fp, lr, asl #16
 1297 1394 02EC8DE2 		add	lr, sp, #512
 1298 1398 B8C9DCE1 		ldrh	ip, [ip, #152]
 1299 139c B4E8DEE1 		ldrh	lr, [lr, #132]
 1300 13a0 0888A0E1 		mov	r8, r8, asl #16
 1301 13a4 A0828DE5 		str	r8, [sp, #672]
 1302 13a8 0CC8A0E1 		mov	ip, ip, asl #16
 1303 13ac 0EE8A0E1 		mov	lr, lr, asl #16
 1304 13b0 028C8DE2 		add	r8, sp, #512
 1305 13b4 90C28DE5 		str	ip, [sp, #656]
 1306 13b8 7CE28DE5 		str	lr, [sp, #636]
 1307 13bc B087D8E1 		ldrh	r8, [r8, #112]
 1308 13c0 24C29DE5 		ldr	ip, [sp, #548]
 1309 13c4 1CE29DE5 		ldr	lr, [sp, #540]
 1310 13c8 0888A0E1 		mov	r8, r8, asl #16
 1311 13cc 0CC8A0E1 		mov	ip, ip, asl #16
ARM GAS  /cygdrive/c/DOCUME~1/mkwapisz/LOCALS~1/Temp/ccLlueLU.s 			page 24


 1312 13d0 0EE8A0E1 		mov	lr, lr, asl #16
 1313 13d4 68828DE5 		str	r8, [sp, #616]
 1314 13d8 20C28DE5 		str	ip, [sp, #544]
 1315 13dc 18E28DE5 		str	lr, [sp, #536]
 1316 13e0 1A8D8DE2 		add	r8, sp, #1664
 1317 13e4 001198E8 		ldmia	r8, {r8, ip}	@ phole ldm
 1318 13e8 0C8088E0 		add	r8, r8, ip
 1319 13ec 40838DE5 		str	r8, [sp, #832]
 1320 13f0 18809DE5 		ldr	r8, [sp, #24]
 1321 13f4 47E868E0 		rsb	lr, r8, r7, asr #16
 1322 13f8 9EC0C7E0 		smull	ip, r7, lr, r0
 1323 13fc 2CCEB0E1 		movs	ip, ip, lsr #28
 1324 1400 0782ACE0 		adc	r8, ip, r7, lsl #4
 1325 1404 03CC8DE2 		add	ip, sp, #768
 1326 1408 BC83CCE1 		strh	r8, [ip, #60]	@ movhi
 1327 140c 2BB8A0E1 		mov	fp, fp, lsr #16
 1328 1410 7CC29DE5 		ldr	ip, [sp, #636]
 1329 1414 20729DE5 		ldr	r7, [sp, #544]
 1330 1418 04B88DE5 		str	fp, [sp, #2052]
 1331 141c 0AA8A0E1 		mov	sl, sl, asl #16
 1332 1420 90B29DE5 		ldr	fp, [sp, #656]
 1333 1424 2998A0E1 		mov	r9, r9, lsr #16
 1334 1428 2AA8A0E1 		mov	sl, sl, lsr #16
 1335 142c 2CC8A0E1 		mov	ip, ip, lsr #16
 1336 1430 2778A0E1 		mov	r7, r7, lsr #16
 1337 1434 00988DE5 		str	r9, [sp, #2048]
 1338 1438 0CA88DE5 		str	sl, [sp, #2060]
 1339 143c 10909DE5 		ldr	r9, [sp, #16]
 1340 1440 A0A29DE5 		ldr	sl, [sp, #672]
 1341 1444 2BB8A0E1 		mov	fp, fp, lsr #16
 1342 1448 28C88DE5 		str	ip, [sp, #2088]
 1343 144c 68E29DE5 		ldr	lr, [sp, #616]
 1344 1450 14C09DE5 		ldr	ip, [sp, #20]
 1345 1454 2C778DE5 		str	r7, [sp, #1836]
 1346 1458 40739DE5 		ldr	r7, [sp, #832]
 1347 145c 24B88DE5 		str	fp, [sp, #2084]
 1348 1460 78B69DE5 		ldr	fp, [sp, #1656]
 1349 1464 2998A0E1 		mov	r9, r9, lsr #16
 1350 1468 180000EA 		b	.L29
 1351              	.L30:
 1352              		.align	2
 1353              	.L28:
 1354 146c F2100000 		.word	4338
 1355 1470 30FBFFFF 		.word	-1232
 1356 1474 91EFFFFF 		.word	-4207
 1357 1478 9AB4FFFF 		.word	-19302
 1358 147c 8290FFFF 		.word	-28542
 1359 1480 9DE6FFFF 		.word	-6499
 1360 1484 7ABDFFFF 		.word	-17030
 1361 1488 02440000 		.word	17410
 1362 148c C0AAFFFF 		.word	-21824
 1363 1490 0E020000 		.word	526
 1364 1494 24F0FFFF 		.word	-4060
 1365 1498 FEFBFFFF 		.word	-1026
 1366 149c 7E3F0000 		.word	16254
 1367 14a0 CDC3FFFF 		.word	-15411
 1368 14a4 D2460000 		.word	18130
ARM GAS  /cygdrive/c/DOCUME~1/mkwapisz/LOCALS~1/Temp/ccLlueLU.s 			page 25


 1369 14a8 6C7A0000 		.word	31340
 1370 14ac 36400000 		.word	16438
 1371 14b0 93790000 		.word	31123
 1372 14b4 ABA0FFFF 		.word	-24405
 1373 14b8 79590000 		.word	22905
 1374 14bc 4ED7FFFF 		.word	-10418
 1375 14c0 E84B0000 		.word	19432
 1376 14c4 08170000 		.word	5896
 1377 14c8 15B3FFFF 		.word	-19691
 1378 14cc 9D9DFFFF 		.word	-25187
 1379              	.L29:
 1380 14d0 2AA8A0E1 		mov	sl, sl, lsr #16
 1381 14d4 2EE8A0E1 		mov	lr, lr, lsr #16
 1382 14d8 4CC8A0E1 		mov	ip, ip, asr #16
 1383 14dc 0778A0E1 		mov	r7, r7, asl #16
 1384 14e0 08988DE5 		str	r9, [sp, #2056]
 1385 14e4 20A88DE5 		str	sl, [sp, #2080]
 1386 14e8 2CE88DE5 		str	lr, [sp, #2092]
 1387 14ec 18829DE5 		ldr	r8, [sp, #536]
 1388 14f0 0BE8A0E1 		mov	lr, fp, asl #16
 1389 14f4 14C08DE5 		str	ip, [sp, #20]
 1390 14f8 1C708DE5 		str	r7, [sp, #28]
 1391 14fc 70C69DE5 		ldr	ip, [sp, #1648]
 1392 1500 74769DE5 		ldr	r7, [sp, #1652]
 1393 1504 019B8DE2 		add	r9, sp, #1024
 1394 1508 03AC8DE2 		add	sl, sp, #768
 1395 150c 03BC8DE2 		add	fp, sp, #768
 1396 1510 B898D9E1 		ldrh	r9, [r9, #136]
 1397 1514 BCA7DAE1 		ldrh	sl, [sl, #124]
 1398 1518 BCB3DBE1 		ldrh	fp, [fp, #60]
 1399 151c 07C08CE0 		add	ip, ip, r7
 1400 1520 2888A0E1 		mov	r8, r8, lsr #16
 1401 1524 30878DE5 		str	r8, [sp, #1840]
 1402 1528 58C38DE5 		str	ip, [sp, #856]
 1403 152c 0988A0E1 		mov	r8, r9, asl #16
 1404 1530 7CC69DE5 		ldr	ip, [sp, #1660]
 1405 1534 0A98A0E1 		mov	r9, sl, asl #16
 1406 1538 0BA8A0E1 		mov	sl, fp, asl #16
 1407 153c 78B69DE5 		ldr	fp, [sp, #1656]
 1408 1540 0CB08BE0 		add	fp, fp, ip
 1409 1544 48B38DE5 		str	fp, [sp, #840]
 1410 1548 18B79DE5 		ldr	fp, [sp, #1816]
 1411 154c 14779DE5 		ldr	r7, [sp, #1812]
 1412 1550 2888A0E1 		mov	r8, r8, lsr #16
 1413 1554 0B7087E0 		add	r7, r7, fp
 1414 1558 BC878DE5 		str	r8, [sp, #1980]
 1415 155c 1C809DE5 		ldr	r8, [sp, #28]
 1416 1560 34728DE5 		str	r7, [sp, #564]
 1417 1564 14709DE5 		ldr	r7, [sp, #20]
 1418 1568 2888A0E1 		mov	r8, r8, lsr #16
 1419 156c 2AA8A0E1 		mov	sl, sl, lsr #16
 1420 1570 4EC867E0 		rsb	ip, r7, lr, asr #16
 1421 1574 BC868DE5 		str	r8, [sp, #1724]
 1422 1578 9CE5C7E0 		smull	lr, r7, ip, r5
 1423 157c 2EEEB0E1 		movs	lr, lr, lsr #28
 1424 1580 07B2AEE0 		adc	fp, lr, r7, lsl #4
 1425 1584 FCA78DE5 		str	sl, [sp, #2044]
ARM GAS  /cygdrive/c/DOCUME~1/mkwapisz/LOCALS~1/Temp/ccLlueLU.s 			page 26


 1426 1588 01EB8DE2 		add	lr, sp, #1024
 1427 158c 05AC8DE2 		add	sl, sp, #1280
 1428 1590 038C8DE2 		add	r8, sp, #768
 1429 1594 B0A1DAE1 		ldrh	sl, [sl, #16]
 1430 1598 B8E0DEE1 		ldrh	lr, [lr, #8]
 1431 159c B88BD8E1 		ldrh	r8, [r8, #184]
 1432 15a0 01CB8DE2 		add	ip, sp, #1024
 1433 15a4 BCCCDCE1 		ldrh	ip, [ip, #204]
 1434 15a8 2998A0E1 		mov	r9, r9, lsr #16
 1435 15ac EC978DE5 		str	r9, [sp, #2028]
 1436 15b0 0888A0E1 		mov	r8, r8, asl #16
 1437 15b4 0A98A0E1 		mov	r9, sl, asl #16
 1438 15b8 0EA8A0E1 		mov	sl, lr, asl #16
 1439 15bc 03EC8DE2 		add	lr, sp, #768
 1440 15c0 0C78A0E1 		mov	r7, ip, asl #16
 1441 15c4 14808DE5 		str	r8, [sp, #20]
 1442 15c8 58C39DE5 		ldr	ip, [sp, #856]
 1443 15cc B4E5DEE1 		ldrh	lr, [lr, #84]
 1444 15d0 48839DE5 		ldr	r8, [sp, #840]
 1445 15d4 0CC8A0E1 		mov	ip, ip, asl #16
 1446 15d8 0EE8A0E1 		mov	lr, lr, asl #16
 1447 15dc 0888A0E1 		mov	r8, r8, asl #16
 1448 15e0 18C08DE5 		str	ip, [sp, #24]
 1449 15e4 4CE38DE5 		str	lr, [sp, #844]
 1450 15e8 44838DE5 		str	r8, [sp, #836]
 1451 15ec 34C29DE5 		ldr	ip, [sp, #564]
 1452 15f0 6C869DE5 		ldr	r8, [sp, #1644]
 1453 15f4 68E69DE5 		ldr	lr, [sp, #1640]
 1454 15f8 0CC8A0E1 		mov	ip, ip, asl #16
 1455 15fc 08E08EE0 		add	lr, lr, r8
 1456 1600 30C28DE5 		str	ip, [sp, #560]
 1457 1604 6CE38DE5 		str	lr, [sp, #876]
 1458 1608 2CC79DE5 		ldr	ip, [sp, #1836]
 1459 160c 30E79DE5 		ldr	lr, [sp, #1840]
 1460 1610 0E808CE0 		add	r8, ip, lr
 1461 1614 02CB8DE2 		add	ip, sp, #2048
 1462 1618 00509CE8 		ldmia	ip, {ip, lr}	@ phole ldm
 1463 161c 0EC08CE0 		add	ip, ip, lr
 1464 1620 F8C18DE5 		str	ip, [sp, #504]
 1465 1624 0CE89DE5 		ldr	lr, [sp, #2060]
 1466 1628 08C89DE5 		ldr	ip, [sp, #2056]
 1467 162c 0EC08CE0 		add	ip, ip, lr
 1468 1630 F4C18DE5 		str	ip, [sp, #500]
 1469 1634 82CE8DE2 		add	ip, sp, #2080
 1470 1638 00509CE8 		ldmia	ip, {ip, lr}	@ phole ldm
 1471 163c 2778A0E1 		mov	r7, r7, lsr #16
 1472 1640 0EC08CE0 		add	ip, ip, lr
 1473 1644 D8C18DE5 		str	ip, [sp, #472]
 1474 1648 2AA8A0E1 		mov	sl, sl, lsr #16
 1475 164c AC778DE5 		str	r7, [sp, #1964]
 1476 1650 14709DE5 		ldr	r7, [sp, #20]
 1477 1654 2998A0E1 		mov	r9, r9, lsr #16
 1478 1658 D8A78DE5 		str	sl, [sp, #2008]
 1479 165c 4CA39DE5 		ldr	sl, [sp, #844]
 1480 1660 98978DE5 		str	r9, [sp, #1944]
 1481 1664 2778A0E1 		mov	r7, r7, lsr #16
 1482 1668 18909DE5 		ldr	r9, [sp, #24]
ARM GAS  /cygdrive/c/DOCUME~1/mkwapisz/LOCALS~1/Temp/ccLlueLU.s 			page 27


 1483 166c 0888A0E1 		mov	r8, r8, asl #16
 1484 1670 E8778DE5 		str	r7, [sp, #2024]
 1485 1674 2AA8A0E1 		mov	sl, sl, lsr #16
 1486 1678 14828DE5 		str	r8, [sp, #532]
 1487 167c 057C8DE2 		add	r7, sp, #1280
 1488 1680 018B8DE2 		add	r8, sp, #1024
 1489 1684 2CE89DE5 		ldr	lr, [sp, #2092]
 1490 1688 28C89DE5 		ldr	ip, [sp, #2088]
 1491 168c 2998A0E1 		mov	r9, r9, lsr #16
 1492 1690 F4A78DE5 		str	sl, [sp, #2036]
 1493 1694 B875D7E1 		ldrh	r7, [r7, #88]
 1494 1698 B085D8E1 		ldrh	r8, [r8, #80]
 1495 169c 03AC8DE2 		add	sl, sp, #768
 1496 16a0 B4968DE5 		str	r9, [sp, #1716]
 1497 16a4 B4A6DAE1 		ldrh	sl, [sl, #100]
 1498 16a8 6C939DE5 		ldr	r9, [sp, #876]
 1499 16ac 0EC08CE0 		add	ip, ip, lr
 1500 16b0 0778A0E1 		mov	r7, r7, asl #16
 1501 16b4 30E29DE5 		ldr	lr, [sp, #560]
 1502 16b8 0888A0E1 		mov	r8, r8, asl #16
 1503 16bc 0BB8A0E1 		mov	fp, fp, asl #16
 1504 16c0 D4C18DE5 		str	ip, [sp, #468]
 1505 16c4 2BB8A0E1 		mov	fp, fp, lsr #16
 1506 16c8 44C39DE5 		ldr	ip, [sp, #836]
 1507 16cc 48758DE5 		str	r7, [sp, #1352]
 1508 16d0 48848DE5 		str	r8, [sp, #1096]
 1509 16d4 EC779DE5 		ldr	r7, [sp, #2028]
 1510 16d8 F8819DE5 		ldr	r8, [sp, #504]
 1511 16dc 0998A0E1 		mov	r9, r9, asl #16
 1512 16e0 0AA8A0E1 		mov	sl, sl, asl #16
 1513 16e4 F8B78DE5 		str	fp, [sp, #2040]
 1514 16e8 2EE8A0E1 		mov	lr, lr, lsr #16
 1515 16ec BCB79DE5 		ldr	fp, [sp, #1980]
 1516 16f0 68938DE5 		str	r9, [sp, #872]
 1517 16f4 5CA38DE5 		str	sl, [sp, #860]
 1518 16f8 F4919DE5 		ldr	r9, [sp, #500]
 1519 16fc D8A19DE5 		ldr	sl, [sp, #472]
 1520 1700 2CC8A0E1 		mov	ip, ip, lsr #16
 1521 1704 64E68DE5 		str	lr, [sp, #1636]
 1522 1708 07E8A0E1 		mov	lr, r7, asl #16
 1523 170c 0878A0E1 		mov	r7, r8, asl #16
 1524 1710 D4819DE5 		ldr	r8, [sp, #468]
 1525 1714 B8C68DE5 		str	ip, [sp, #1720]
 1526 1718 0BC8A0E1 		mov	ip, fp, asl #16
 1527 171c 09B8A0E1 		mov	fp, r9, asl #16
 1528 1720 0A98A0E1 		mov	r9, sl, asl #16
 1529 1724 BCA69DE5 		ldr	sl, [sp, #1724]
 1530 1728 0888A0E1 		mov	r8, r8, asl #16
 1531 172c D0818DE5 		str	r8, [sp, #464]
 1532 1730 0A88A0E1 		mov	r8, sl, asl #16
 1533 1734 FCA79DE5 		ldr	sl, [sp, #2044]
 1534 1738 0AA8A0E1 		mov	sl, sl, asl #16
 1535 173c 38A18DE5 		str	sl, [sp, #312]
 1536 1740 48A59DE5 		ldr	sl, [sp, #1352]
 1537 1744 2AA8A0E1 		mov	sl, sl, lsr #16
 1538 1748 84A78DE5 		str	sl, [sp, #1924]
 1539 174c 48A49DE5 		ldr	sl, [sp, #1096]
ARM GAS  /cygdrive/c/DOCUME~1/mkwapisz/LOCALS~1/Temp/ccLlueLU.s 			page 28


 1540 1750 2AA8A0E1 		mov	sl, sl, lsr #16
 1541 1754 CCA78DE5 		str	sl, [sp, #1996]
 1542 1758 68A39DE5 		ldr	sl, [sp, #872]
 1543 175c 2AA8A0E1 		mov	sl, sl, lsr #16
 1544 1760 B0A68DE5 		str	sl, [sp, #1712]
 1545 1764 5CA39DE5 		ldr	sl, [sp, #860]
 1546 1768 2BB8A0E1 		mov	fp, fp, lsr #16
 1547 176c 2AA8A0E1 		mov	sl, sl, lsr #16
 1548 1770 4CC8A0E1 		mov	ip, ip, asr #16
 1549 1774 F0A78DE5 		str	sl, [sp, #2032]
 1550 1778 2778A0E1 		mov	r7, r7, lsr #16
 1551 177c 44B78DE5 		str	fp, [sp, #1860]
 1552 1780 ACA79DE5 		ldr	sl, [sp, #1964]
 1553 1784 D0B19DE5 		ldr	fp, [sp, #464]
 1554 1788 14C08DE5 		str	ip, [sp, #20]
 1555 178c E8C79DE5 		ldr	ip, [sp, #2024]
 1556 1790 40778DE5 		str	r7, [sp, #1856]
 1557 1794 98779DE5 		ldr	r7, [sp, #1944]
 1558 1798 2998A0E1 		mov	r9, r9, lsr #16
 1559 179c 2BB8A0E1 		mov	fp, fp, lsr #16
 1560 17a0 0AA8A0E1 		mov	sl, sl, asl #16
 1561 17a4 0CC8A0E1 		mov	ip, ip, asl #16
 1562 17a8 4EE8A0E1 		mov	lr, lr, asr #16
 1563 17ac 54978DE5 		str	r9, [sp, #1876]
 1564 17b0 58B78DE5 		str	fp, [sp, #1880]
 1565 17b4 0798A0E1 		mov	r9, r7, asl #16
 1566 17b8 D4A28DE5 		str	sl, [sp, #724]
 1567 17bc 14729DE5 		ldr	r7, [sp, #532]
 1568 17c0 D8B79DE5 		ldr	fp, [sp, #2008]
 1569 17c4 C0C28DE5 		str	ip, [sp, #704]
 1570 17c8 18E08DE5 		str	lr, [sp, #24]
 1571 17cc B4A69DE5 		ldr	sl, [sp, #1716]
 1572 17d0 64E69DE5 		ldr	lr, [sp, #1636]
 1573 17d4 F4C79DE5 		ldr	ip, [sp, #2036]
 1574 17d8 C7E76EE0 		rsb	lr, lr, r7, asr #15
 1575 17dc 0BB8A0E1 		mov	fp, fp, asl #16
 1576 17e0 0AA8A0E1 		mov	sl, sl, asl #16
 1577 17e4 0CC8A0E1 		mov	ip, ip, asl #16
 1578 17e8 1CB08DE5 		str	fp, [sp, #28]
 1579 17ec 10E28DE5 		str	lr, [sp, #528]
 1580 17f0 BCA18DE5 		str	sl, [sp, #444]
 1581 17f4 B8B69DE5 		ldr	fp, [sp, #1720]
 1582 17f8 40C18DE5 		str	ip, [sp, #320]
 1583 17fc F8E79DE5 		ldr	lr, [sp, #2040]
 1584 1800 BCC79DE5 		ldr	ip, [sp, #1980]
 1585 1804 ACA79DE5 		ldr	sl, [sp, #1964]
 1586 1808 38719DE5 		ldr	r7, [sp, #312]
 1587 180c 0CA08AE0 		add	sl, sl, ip
 1588 1810 0BB8A0E1 		mov	fp, fp, asl #16
 1589 1814 0EE8A0E1 		mov	lr, lr, asl #16
 1590 1818 B4B18DE5 		str	fp, [sp, #436]
 1591 181c 3CE18DE5 		str	lr, [sp, #316]
 1592 1820 47B8A0E1 		mov	fp, r7, asr #16
 1593 1824 E0A28DE5 		str	sl, [sp, #736]
 1594 1828 EC779DE5 		ldr	r7, [sp, #2028]
 1595 182c E8E79DE5 		ldr	lr, [sp, #2024]
 1596 1830 07E08EE0 		add	lr, lr, r7
ARM GAS  /cygdrive/c/DOCUME~1/mkwapisz/LOCALS~1/Temp/ccLlueLU.s 			page 29


 1597 1834 C8E28DE5 		str	lr, [sp, #712]
 1598 1838 BCC69DE5 		ldr	ip, [sp, #1724]
 1599 183c FC779DE5 		ldr	r7, [sp, #2044]
 1600 1840 B8A69DE5 		ldr	sl, [sp, #1720]
 1601 1844 F8E79DE5 		ldr	lr, [sp, #2040]
 1602 1848 0CA08AE0 		add	sl, sl, ip
 1603 184c 07E08EE0 		add	lr, lr, r7
 1604 1850 60A28DE5 		str	sl, [sp, #608]
 1605 1854 00E28DE5 		str	lr, [sp, #512]
 1606 1858 14A09DE5 		ldr	sl, [sp, #20]
 1607 185c D4E29DE5 		ldr	lr, [sp, #724]
 1608 1860 4EC86AE0 		rsb	ip, sl, lr, asr #16
 1609 1864 9C74CAE0 		smull	r7, sl, ip, r4
 1610 1868 277EB0E1 		movs	r7, r7, lsr #28
 1611 186c 0AE2A7E0 		adc	lr, r7, sl, lsl #4
 1612 1870 027C8DE2 		add	r7, sp, #512
 1613 1874 B8EDC7E1 		strh	lr, [r7, #216]	@ movhi
 1614 1878 18409DE5 		ldr	r4, [sp, #24]
 1615 187c C0729DE5 		ldr	r7, [sp, #704]
 1616 1880 47E864E0 		rsb	lr, r4, r7, asr #16
 1617 1884 9EC0CAE0 		smull	ip, sl, lr, r0
 1618 1888 2CCEB0E1 		movs	ip, ip, lsr #28
 1619 188c 0AE2ACE0 		adc	lr, ip, sl, lsl #4
 1620 1890 02AC8DE2 		add	sl, sp, #512
 1621 1894 B8ADDAE1 		ldrh	sl, [sl, #216]
 1622 1898 B4C19DE5 		ldr	ip, [sp, #436]
 1623 189c 3C019DE5 		ldr	r0, [sp, #316]
 1624 18a0 0AA8A0E1 		mov	sl, sl, asl #16
 1625 18a4 84479DE5 		ldr	r4, [sp, #1924]
 1626 18a8 E0729DE5 		ldr	r7, [sp, #736]
 1627 18ac D0A28DE5 		str	sl, [sp, #720]
 1628 18b0 4888A0E1 		mov	r8, r8, asr #16
 1629 18b4 C8A29DE5 		ldr	sl, [sp, #712]
 1630 18b8 4C8868E0 		rsb	r8, r8, ip, asr #16
 1631 18bc 40B86BE0 		rsb	fp, fp, r0, asr #16
 1632 18c0 CCC79DE5 		ldr	ip, [sp, #1996]
 1633 18c4 1C009DE5 		ldr	r0, [sp, #28]
 1634 18c8 0448A0E1 		mov	r4, r4, asl #16
 1635 18cc 0778A0E1 		mov	r7, r7, asl #16
 1636 18d0 0AA8A0E1 		mov	sl, sl, asl #16
 1637 18d4 0EE8A0E1 		mov	lr, lr, asl #16
 1638 18d8 E4428DE5 		str	r4, [sp, #740]
 1639 18dc DC728DE5 		str	r7, [sp, #732]
 1640 18e0 0C48A0E1 		mov	r4, ip, asl #16
 1641 18e4 4078A0E1 		mov	r7, r0, asr #16
 1642 18e8 C4A28DE5 		str	sl, [sp, #708]
 1643 18ec BCE28DE5 		str	lr, [sp, #700]
 1644 18f0 60C29DE5 		ldr	ip, [sp, #608]
 1645 18f4 10E29DE5 		ldr	lr, [sp, #528]
 1646 18f8 00029DE5 		ldr	r0, [sp, #512]
 1647 18fc B0A69DE5 		ldr	sl, [sp, #1712]
 1648 1900 0CC8A0E1 		mov	ip, ip, asl #16
 1649 1904 0EE8A0E1 		mov	lr, lr, asl #16
 1650 1908 0008A0E1 		mov	r0, r0, asl #16
 1651 190c 0AA8A0E1 		mov	sl, sl, asl #16
 1652 1910 5CC28DE5 		str	ip, [sp, #604]
 1653 1914 0CE28DE5 		str	lr, [sp, #524]
ARM GAS  /cygdrive/c/DOCUME~1/mkwapisz/LOCALS~1/Temp/ccLlueLU.s 			page 30


 1654 1918 FC018DE5 		str	r0, [sp, #508]
 1655 191c 18A08DE5 		str	sl, [sp, #24]
 1656 1920 BCC19DE5 		ldr	ip, [sp, #444]
 1657 1924 F0E79DE5 		ldr	lr, [sp, #2032]
 1658 1928 40019DE5 		ldr	r0, [sp, #320]
 1659 192c 4CC8A0E1 		mov	ip, ip, asr #16
 1660 1930 0EE8A0E1 		mov	lr, lr, asl #16
 1661 1934 4008A0E1 		mov	r0, r0, asr #16
 1662 1938 C0C18DE5 		str	ip, [sp, #448]
 1663 193c 20E08DE5 		str	lr, [sp, #32]
 1664 1940 B8CFDFE1 		ldrh	ip, .L31
 1665 1944 44018DE5 		str	r0, [sp, #324]
 1666 1948 98ACCEE0 		smull	sl, lr, r8, ip
 1667 194c 2AAEB0E1 		movs	sl, sl, lsr #28
 1668 1950 0E02AAE0 		adc	r0, sl, lr, lsl #4
 1669 1954 01AC8DE2 		add	sl, sp, #256
 1670 1958 B80BCAE1 		strh	r0, [sl, #184]	@ movhi
 1671 195c 9BACC8E0 		smull	sl, r8, fp, ip
 1672 1960 2AAEB0E1 		movs	sl, sl, lsr #28
 1673 1964 08B2AAE0 		adc	fp, sl, r8, lsl #4
 1674 1968 01EC8DE2 		add	lr, sp, #256
 1675 196c 98879DE5 		ldr	r8, [sp, #1944]
 1676 1970 B8EBDEE1 		ldrh	lr, [lr, #184]	@ movhi
 1677 1974 84079DE5 		ldr	r0, [sp, #1924]
 1678 1978 0BB8A0E1 		mov	fp, fp, asl #16
 1679 197c 080080E0 		add	r0, r0, r8
 1680 1980 0EE8A0E1 		mov	lr, lr, asl #16
 1681 1984 34B18DE5 		str	fp, [sp, #308]
 1682 1988 CCA79DE5 		ldr	sl, [sp, #1996]
 1683 198c D8B79DE5 		ldr	fp, [sp, #2008]
 1684 1990 B0E18DE5 		str	lr, [sp, #432]
 1685 1994 E8028DE5 		str	r0, [sp, #744]
 1686 1998 B0E69DE5 		ldr	lr, [sp, #1712]
 1687 199c B4069DE5 		ldr	r0, [sp, #1716]
 1688 19a0 0BA08AE0 		add	sl, sl, fp
 1689 19a4 00E08EE0 		add	lr, lr, r0
 1690 19a8 CCA28DE5 		str	sl, [sp, #716]
 1691 19ac 7F8E8DE2 		add	r8, sp, #2032
 1692 19b0 000598E8 		ldmia	r8, {r8, sl}	@ phole ldm
 1693 19b4 44079DE5 		ldr	r0, [sp, #1860]
 1694 19b8 64E28DE5 		str	lr, [sp, #612]
 1695 19bc 40E79DE5 		ldr	lr, [sp, #1856]
 1696 19c0 0A8088E0 		add	r8, r8, sl
 1697 19c4 00B08EE0 		add	fp, lr, r0
 1698 19c8 08828DE5 		str	r8, [sp, #520]
 1699 19cc 58E79DE5 		ldr	lr, [sp, #1880]
 1700 19d0 54879DE5 		ldr	r8, [sp, #1876]
 1701 19d4 E4029DE5 		ldr	r0, [sp, #740]
 1702 19d8 4998A0E1 		mov	r9, r9, asr #16
 1703 19dc 0EA088E0 		add	sl, r8, lr
 1704 19e0 409869E0 		rsb	r9, r9, r0, asr #16
 1705 19e4 447867E0 		rsb	r7, r7, r4, asr #16
 1706 19e8 9986CEE0 		smull	r8, lr, r9, r6
 1707 19ec 288EB0E1 		movs	r8, r8, lsr #28
 1708 19f0 0E92A8E0 		adc	r9, r8, lr, lsl #4
 1709 19f4 9705C4E0 		smull	r0, r4, r7, r5
 1710 19f8 200EB0E1 		movs	r0, r0, lsr #28
ARM GAS  /cygdrive/c/DOCUME~1/mkwapisz/LOCALS~1/Temp/ccLlueLU.s 			page 31


 1711 19fc 0462A0E0 		adc	r6, r0, r4, lsl #4
 1712 1a00 C0419DE5 		ldr	r4, [sp, #448]
 1713 1a04 18509DE5 		ldr	r5, [sp, #24]
 1714 1a08 45E864E0 		rsb	lr, r4, r5, asr #16
 1715 1a0c DC429DE5 		ldr	r4, [sp, #732]
 1716 1a10 2448A0E1 		mov	r4, r4, lsr #16
 1717 1a14 44719DE5 		ldr	r7, [sp, #324]
 1718 1a18 20009DE5 		ldr	r0, [sp, #32]
 1719 1a1c D8468DE5 		str	r4, [sp, #1752]
 1720 1a20 D0529DE5 		ldr	r5, [sp, #720]
 1721 1a24 0AA8A0E1 		mov	sl, sl, asl #16
 1722 1a28 408867E0 		rsb	r8, r7, r0, asr #16
 1723 1a2c 2558A0E1 		mov	r5, r5, lsr #16
 1724 1a30 C4729DE5 		ldr	r7, [sp, #708]
 1725 1a34 BC029DE5 		ldr	r0, [sp, #700]
 1726 1a38 CCA18DE5 		str	sl, [sp, #460]
 1727 1a3c 040000EA 		b	.L32
 1728              	.L33:
 1729              		.align	2
 1730              	.L31:
 1731 1a40 AA780000 		.word	30890
 1732 1a44 334F0000 		.word	20275
 1733 1a48 E8350000 		.word	13800
 1734 1a4c AA780000 		.word	30890
 1735 1a50 E8350000 		.word	13800
 1736              	.L32:
 1737 1a54 B0A19DE5 		ldr	sl, [sp, #432]
 1738 1a58 14588DE5 		str	r5, [sp, #2068]
 1739 1a5c 5C429DE5 		ldr	r4, [sp, #604]
 1740 1a60 0C529DE5 		ldr	r5, [sp, #524]
 1741 1a64 2778A0E1 		mov	r7, r7, lsr #16
 1742 1a68 2008A0E1 		mov	r0, r0, lsr #16
 1743 1a6c 0BB8A0E1 		mov	fp, fp, asl #16
 1744 1a70 2AA8A0E1 		mov	sl, sl, lsr #16
 1745 1a74 E0768DE5 		str	r7, [sp, #1760]
 1746 1a78 1C088DE5 		str	r0, [sp, #2076]
 1747 1a7c 2448A0E1 		mov	r4, r4, lsr #16
 1748 1a80 2558A0E1 		mov	r5, r5, lsr #16
 1749 1a84 FC719DE5 		ldr	r7, [sp, #508]
 1750 1a88 F0B18DE5 		str	fp, [sp, #496]
 1751 1a8c 38A88DE5 		str	sl, [sp, #2104]
 1752 1a90 34B19DE5 		ldr	fp, [sp, #308]
 1753 1a94 E8029DE5 		ldr	r0, [sp, #744]
 1754 1a98 09A8A0E1 		mov	sl, r9, asl #16
 1755 1a9c 0698A0E1 		mov	r9, r6, asl #16
 1756 1aa0 08629DE5 		ldr	r6, [sp, #520]
 1757 1aa4 10478DE5 		str	r4, [sp, #1808]
 1758 1aa8 A4568DE5 		str	r5, [sp, #1700]
 1759 1aac CC429DE5 		ldr	r4, [sp, #716]
 1760 1ab0 64529DE5 		ldr	r5, [sp, #612]
 1761 1ab4 2778A0E1 		mov	r7, r7, lsr #16
 1762 1ab8 2BB8A0E1 		mov	fp, fp, lsr #16
 1763 1abc 0008A0E1 		mov	r0, r0, asl #16
 1764 1ac0 0668A0E1 		mov	r6, r6, asl #16
 1765 1ac4 00008DE5 		str	r0, [sp, #0]
 1766 1ac8 3C778DE5 		str	r7, [sp, #1852]
 1767 1acc 74B88DE5 		str	fp, [sp, #2164]
ARM GAS  /cygdrive/c/DOCUME~1/mkwapisz/LOCALS~1/Temp/ccLlueLU.s 			page 32


 1768 1ad0 0478A0E1 		mov	r7, r4, asl #16
 1769 1ad4 05B8A0E1 		mov	fp, r5, asl #16
 1770 1ad8 04628DE5 		str	r6, [sp, #516]
 1771 1adc C4069DE5 		ldr	r0, [sp, #1732]
 1772 1ae0 CC469DE5 		ldr	r4, [sp, #1740]
 1773 1ae4 EC569DE5 		ldr	r5, [sp, #1772]
 1774 1ae8 F4669DE5 		ldr	r6, [sp, #1780]
 1775 1aec 0008A0E1 		mov	r0, r0, asl #16
 1776 1af0 0448A0E1 		mov	r4, r4, asl #16
 1777 1af4 0558A0E1 		mov	r5, r5, asl #16
 1778 1af8 0668A0E1 		mov	r6, r6, asl #16
 1779 1afc 98018DE5 		str	r0, [sp, #408]
 1780 1b00 84418DE5 		str	r4, [sp, #388]
 1781 1b04 BC0B5FE1 		ldrh	r0, .L31+16
 1782 1b08 5C518DE5 		str	r5, [sp, #348]
 1783 1b0c 4C618DE5 		str	r6, [sp, #332]
 1784 1b10 9E40C5E0 		smull	r4, r5, lr, r0
 1785 1b14 244EB0E1 		movs	r4, r4, lsr #28
 1786 1b18 0562A4E0 		adc	r6, r4, r5, lsl #4
 1787 1b1c 9840CEE0 		smull	r4, lr, r8, r0
 1788 1b20 244EB0E1 		movs	r4, r4, lsr #28
 1789 1b24 0E82A4E0 		adc	r8, r4, lr, lsl #4
 1790 1b28 06E8A0E1 		mov	lr, r6, asl #16
 1791 1b2c 00609DE5 		ldr	r6, [sp, #0]
 1792 1b30 2778A0E1 		mov	r7, r7, lsr #16
 1793 1b34 2668A0E1 		mov	r6, r6, lsr #16
 1794 1b38 D4668DE5 		str	r6, [sp, #1748]
 1795 1b3c DC768DE5 		str	r7, [sp, #1756]
 1796 1b40 04729DE5 		ldr	r7, [sp, #516]
 1797 1b44 0848A0E1 		mov	r4, r8, asl #16
 1798 1b48 2AA8A0E1 		mov	sl, sl, lsr #16
 1799 1b4c 2998A0E1 		mov	r9, r9, lsr #16
 1800 1b50 2778A0E1 		mov	r7, r7, lsr #16
 1801 1b54 2EE8A0E1 		mov	lr, lr, lsr #16
 1802 1b58 2448A0E1 		mov	r4, r4, lsr #16
 1803 1b5c 10A88DE5 		str	sl, [sp, #2064]
 1804 1b60 18988DE5 		str	r9, [sp, #2072]
 1805 1b64 F0A19DE5 		ldr	sl, [sp, #496]
 1806 1b68 2BB8A0E1 		mov	fp, fp, lsr #16
 1807 1b6c 38778DE5 		str	r7, [sp, #1848]
 1808 1b70 30E88DE5 		str	lr, [sp, #2096]
 1809 1b74 6C488DE5 		str	r4, [sp, #2156]
 1810 1b78 A4969DE5 		ldr	r9, [sp, #1700]
 1811 1b7c C0E69DE5 		ldr	lr, [sp, #1728]
 1812 1b80 98419DE5 		ldr	r4, [sp, #408]
 1813 1b84 D8769DE5 		ldr	r7, [sp, #1752]
 1814 1b88 0CB78DE5 		str	fp, [sp, #1804]
 1815 1b8c 38B89DE5 		ldr	fp, [sp, #2104]
 1816 1b90 CA9769E0 		rsb	r9, r9, sl, asr #15
 1817 1b94 0EE8A0E1 		mov	lr, lr, asl #16
 1818 1b98 4448A0E1 		mov	r4, r4, asr #16
 1819 1b9c 0778A0E1 		mov	r7, r7, asl #16
 1820 1ba0 10879DE5 		ldr	r8, [sp, #1808]
 1821 1ba4 EC918DE5 		str	r9, [sp, #492]
 1822 1ba8 A0E18DE5 		str	lr, [sp, #416]
 1823 1bac 0B98A0E1 		mov	r9, fp, asl #16
 1824 1bb0 9C418DE5 		str	r4, [sp, #412]
ARM GAS  /cygdrive/c/DOCUME~1/mkwapisz/LOCALS~1/Temp/ccLlueLU.s 			page 33


 1825 1bb4 C8569DE5 		ldr	r5, [sp, #1736]
 1826 1bb8 84619DE5 		ldr	r6, [sp, #388]
 1827 1bbc 24708DE5 		str	r7, [sp, #36]
 1828 1bc0 E8A69DE5 		ldr	sl, [sp, #1768]
 1829 1bc4 5CB19DE5 		ldr	fp, [sp, #348]
 1830 1bc8 F0E69DE5 		ldr	lr, [sp, #1776]
 1831 1bcc 4C419DE5 		ldr	r4, [sp, #332]
 1832 1bd0 74789DE5 		ldr	r7, [sp, #2164]
 1833 1bd4 0888A0E1 		mov	r8, r8, asl #16
 1834 1bd8 0558A0E1 		mov	r5, r5, asl #16
 1835 1bdc 4668A0E1 		mov	r6, r6, asr #16
 1836 1be0 0AA8A0E1 		mov	sl, sl, asl #16
 1837 1be4 4BB8A0E1 		mov	fp, fp, asr #16
 1838 1be8 0EE8A0E1 		mov	lr, lr, asl #16
 1839 1bec 4448A0E1 		mov	r4, r4, asr #16
 1840 1bf0 0778A0E1 		mov	r7, r7, asl #16
 1841 1bf4 4C828DE5 		str	r8, [sp, #588]
 1842 1bf8 8C518DE5 		str	r5, [sp, #396]
 1843 1bfc E0869DE5 		ldr	r8, [sp, #1760]
 1844 1c00 3C579DE5 		ldr	r5, [sp, #1852]
 1845 1c04 88618DE5 		str	r6, [sp, #392]
 1846 1c08 64A18DE5 		str	sl, [sp, #356]
 1847 1c0c 60B18DE5 		str	fp, [sp, #352]
 1848 1c10 54E18DE5 		str	lr, [sp, #340]
 1849 1c14 50418DE5 		str	r4, [sp, #336]
 1850 1c18 18718DE5 		str	r7, [sp, #280]
 1851 1c1c 04A89DE5 		ldr	sl, [sp, #2052]
 1852 1c20 0CB89DE5 		ldr	fp, [sp, #2060]
 1853 1c24 14489DE5 		ldr	r4, [sp, #2068]
 1854 1c28 0AA8A0E1 		mov	sl, sl, asl #16
 1855 1c2c 0BB8A0E1 		mov	fp, fp, asl #16
 1856 1c30 0868A0E1 		mov	r6, r8, asl #16
 1857 1c34 04A18DE5 		str	sl, [sp, #260]
 1858 1c38 0588A0E1 		mov	r8, r5, asl #16
 1859 1c3c F4B08DE5 		str	fp, [sp, #244]
 1860 1c40 1C589DE5 		ldr	r5, [sp, #2076]
 1861 1c44 0448A0E1 		mov	r4, r4, asl #16
 1862 1c48 24A89DE5 		ldr	sl, [sp, #2084]
 1863 1c4c 2CB89DE5 		ldr	fp, [sp, #2092]
 1864 1c50 00408DE5 		str	r4, [sp, #0]
 1865 1c54 CC419DE5 		ldr	r4, [sp, #460]
 1866 1c58 0578A0E1 		mov	r7, r5, asl #16
 1867 1c5c 0AA8A0E1 		mov	sl, sl, asl #16
 1868 1c60 14529DE5 		ldr	r5, [sp, #532]
 1869 1c64 0BB8A0E1 		mov	fp, fp, asl #16
 1870 1c68 98A08DE5 		str	sl, [sp, #152]
 1871 1c6c 90B08DE5 		str	fp, [sp, #144]
 1872 1c70 9CA19DE5 		ldr	sl, [sp, #412]
 1873 1c74 C4B7A0E1 		mov	fp, r4, asr #15
 1874 1c78 A0419DE5 		ldr	r4, [sp, #416]
 1875 1c7c 25B84BE0 		sub	fp, fp, r5, lsr #16
 1876 1c80 C8B18DE5 		str	fp, [sp, #456]
 1877 1c84 44B86AE0 		rsb	fp, sl, r4, asr #16
 1878 1c88 9B50CAE0 		smull	r5, sl, fp, r0
 1879 1c8c 255EB0E1 		movs	r5, r5, lsr #28
 1880 1c90 0A42A5E0 		adc	r4, r5, sl, lsl #4
 1881 1c94 015C8DE2 		add	r5, sp, #256
ARM GAS  /cygdrive/c/DOCUME~1/mkwapisz/LOCALS~1/Temp/ccLlueLU.s 			page 34


 1882 1c98 B44AC5E1 		strh	r4, [r5, #164]	@ movhi
 1883 1c9c 625F8DE2 		add	r5, sp, #392
 1884 1ca0 200495E8 		ldmia	r5, {r5, sl}	@ phole ldm
 1885 1ca4 4AB865E0 		rsb	fp, r5, sl, asr #16
 1886 1ca8 9B4CC5E0 		smull	r4, r5, fp, ip
 1887 1cac 244EB0E1 		movs	r4, r4, lsr #28
 1888 1cb0 05A2A4E0 		adc	sl, r4, r5, lsl #4
 1889 1cb4 014C8DE2 		add	r4, sp, #256
 1890 1cb8 B0A9C4E1 		strh	sl, [r4, #144]	@ movhi
 1891 1cbc 164E8DE2 		add	r4, sp, #352
 1892 1cc0 300094E8 		ldmia	r4, {r4, r5}	@ phole ldm
 1893 1cc4 45B864E0 		rsb	fp, r4, r5, asr #16
 1894 1cc8 9BA0C4E0 		smull	sl, r4, fp, r0
 1895 1ccc 2AAEB0E1 		movs	sl, sl, lsr #28
 1896 1cd0 0452AAE0 		adc	r5, sl, r4, lsl #4
 1897 1cd4 01AC8DE2 		add	sl, sp, #256
 1898 1cd8 B856CAE1 		strh	r5, [sl, #104]	@ movhi
 1899 1cdc 54419DE5 		ldr	r4, [sp, #340]
 1900 1ce0 50A19DE5 		ldr	sl, [sp, #336]
 1901 1ce4 44B86AE0 		rsb	fp, sl, r4, asr #16
 1902 1ce8 0C479DE5 		ldr	r4, [sp, #1804]
 1903 1cec 9B5CCAE0 		smull	r5, sl, fp, ip
 1904 1cf0 255EB0E1 		movs	r5, r5, lsr #28
 1905 1cf4 0AB2A5E0 		adc	fp, r5, sl, lsl #4
 1906 1cf8 0448A0E1 		mov	r4, r4, asl #16
 1907 1cfc 44E79DE5 		ldr	lr, [sp, #1860]
 1908 1d00 54428DE5 		str	r4, [sp, #596]
 1909 1d04 4C529DE5 		ldr	r5, [sp, #588]
 1910 1d08 ECA19DE5 		ldr	sl, [sp, #492]
 1911 1d0c 30489DE5 		ldr	r4, [sp, #2096]
 1912 1d10 0EE8A0E1 		mov	lr, lr, asl #16
 1913 1d14 4558A0E1 		mov	r5, r5, asr #16
 1914 1d18 0AA8A0E1 		mov	sl, sl, asl #16
 1915 1d1c 0448A0E1 		mov	r4, r4, asl #16
 1916 1d20 E4E08DE5 		str	lr, [sp, #228]
 1917 1d24 50528DE5 		str	r5, [sp, #592]
 1918 1d28 E8A18DE5 		str	sl, [sp, #488]
 1919 1d2c 015C8DE2 		add	r5, sp, #256
 1920 1d30 A8418DE5 		str	r4, [sp, #424]
 1921 1d34 01AC8DE2 		add	sl, sp, #256
 1922 1d38 D4469DE5 		ldr	r4, [sp, #1748]
 1923 1d3c B45AD5E1 		ldrh	r5, [r5, #164]
 1924 1d40 B0A9DAE1 		ldrh	sl, [sl, #144]
 1925 1d44 0448A0E1 		mov	r4, r4, asl #16
 1926 1d48 0558A0E1 		mov	r5, r5, asl #16
 1927 1d4c 0AA8A0E1 		mov	sl, sl, asl #16
 1928 1d50 78418DE5 		str	r4, [sp, #376]
 1929 1d54 014C8DE2 		add	r4, sp, #256
 1930 1d58 94518DE5 		str	r5, [sp, #404]
 1931 1d5c 80A18DE5 		str	sl, [sp, #384]
 1932 1d60 24509DE5 		ldr	r5, [sp, #36]
 1933 1d64 DCA69DE5 		ldr	sl, [sp, #1756]
 1934 1d68 B846D4E1 		ldrh	r4, [r4, #104]
 1935 1d6c 4558A0E1 		mov	r5, r5, asr #16
 1936 1d70 0AA8A0E1 		mov	sl, sl, asl #16
 1937 1d74 4668A0E1 		mov	r6, r6, asr #16
 1938 1d78 0448A0E1 		mov	r4, r4, asl #16
ARM GAS  /cygdrive/c/DOCUME~1/mkwapisz/LOCALS~1/Temp/ccLlueLU.s 			page 35


 1939 1d7c 0BB8A0E1 		mov	fp, fp, asl #16
 1940 1d80 24508DE5 		str	r5, [sp, #36]
 1941 1d84 70A18DE5 		str	sl, [sp, #368]
 1942 1d88 04608DE5 		str	r6, [sp, #4]
 1943 1d8c 58418DE5 		str	r4, [sp, #344]
 1944 1d90 48B18DE5 		str	fp, [sp, #328]
 1945 1d94 38579DE5 		ldr	r5, [sp, #1848]
 1946 1d98 6C689DE5 		ldr	r6, [sp, #2156]
 1947 1d9c 18A19DE5 		ldr	sl, [sp, #280]
 1948 1da0 00B89DE5 		ldr	fp, [sp, #2048]
 1949 1da4 04419DE5 		ldr	r4, [sp, #260]
 1950 1da8 0558A0E1 		mov	r5, r5, asl #16
 1951 1dac 0668A0E1 		mov	r6, r6, asl #16
 1952 1db0 4AA8A0E1 		mov	sl, sl, asr #16
 1953 1db4 0BB8A0E1 		mov	fp, fp, asl #16
 1954 1db8 4448A0E1 		mov	r4, r4, asr #16
 1955 1dbc 2C518DE5 		str	r5, [sp, #300]
 1956 1dc0 20618DE5 		str	r6, [sp, #288]
 1957 1dc4 1CA18DE5 		str	sl, [sp, #284]
 1958 1dc8 0CB18DE5 		str	fp, [sp, #268]
 1959 1dcc 08418DE5 		str	r4, [sp, #264]
 1960 1dd0 08589DE5 		ldr	r5, [sp, #2056]
 1961 1dd4 F4609DE5 		ldr	r6, [sp, #244]
 1962 1dd8 40A79DE5 		ldr	sl, [sp, #1856]
 1963 1ddc E4B09DE5 		ldr	fp, [sp, #228]
 1964 1de0 10489DE5 		ldr	r4, [sp, #2064]
 1965 1de4 0558A0E1 		mov	r5, r5, asl #16
 1966 1de8 4668A0E1 		mov	r6, r6, asr #16
 1967 1dec 0AA8A0E1 		mov	sl, sl, asl #16
 1968 1df0 4BB8A0E1 		mov	fp, fp, asr #16
 1969 1df4 0448A0E1 		mov	r4, r4, asl #16
 1970 1df8 FC508DE5 		str	r5, [sp, #252]
 1971 1dfc F8608DE5 		str	r6, [sp, #248]
 1972 1e00 ECA08DE5 		str	sl, [sp, #236]
 1973 1e04 E8B08DE5 		str	fp, [sp, #232]
 1974 1e08 D8408DE5 		str	r4, [sp, #216]
 1975 1e0c 18689DE5 		ldr	r6, [sp, #2072]
 1976 1e10 20A89DE5 		ldr	sl, [sp, #2080]
 1977 1e14 00509DE5 		ldr	r5, [sp, #0]
 1978 1e18 0668A0E1 		mov	r6, r6, asl #16
 1979 1e1c 0AA8A0E1 		mov	sl, sl, asl #16
 1980 1e20 4558A0E1 		mov	r5, r5, asr #16
 1981 1e24 CC608DE5 		str	r6, [sp, #204]
 1982 1e28 A0A08DE5 		str	sl, [sp, #160]
 1983 1e2c 98B09DE5 		ldr	fp, [sp, #152]
 1984 1e30 54A29DE5 		ldr	sl, [sp, #596]
 1985 1e34 28489DE5 		ldr	r4, [sp, #2088]
 1986 1e38 50629DE5 		ldr	r6, [sp, #592]
 1987 1e3c 00508DE5 		str	r5, [sp, #0]
 1988 1e40 90509DE5 		ldr	r5, [sp, #144]
 1989 1e44 4A6866E0 		rsb	r6, r6, sl, asr #16
 1990 1e48 4BB8A0E1 		mov	fp, fp, asr #16
 1991 1e4c 0448A0E1 		mov	r4, r4, asl #16
 1992 1e50 9CB08DE5 		str	fp, [sp, #156]
 1993 1e54 94408DE5 		str	r4, [sp, #148]
 1994 1e58 45B8A0E1 		mov	fp, r5, asr #16
 1995 1e5c A8419DE5 		ldr	r4, [sp, #424]
ARM GAS  /cygdrive/c/DOCUME~1/mkwapisz/LOCALS~1/Temp/ccLlueLU.s 			page 36


 1996 1e60 24509DE5 		ldr	r5, [sp, #36]
 1997 1e64 48628DE5 		str	r6, [sp, #584]
 1998 1e68 78619DE5 		ldr	r6, [sp, #376]
 1999 1e6c 4998A0E1 		mov	r9, r9, asr #16
 2000 1e70 449869E0 		rsb	r9, r9, r4, asr #16
 2001 1e74 464865E0 		rsb	r4, r5, r6, asr #16
 2002 1e78 94A0C5E0 		smull	sl, r5, r4, r0
 2003 1e7c 2AAEB0E1 		movs	sl, sl, lsr #28
 2004 1e80 0562AAE0 		adc	r6, sl, r5, lsl #4
 2005 1e84 01AC8DE2 		add	sl, sp, #256
 2006 1e88 BC67CAE1 		strh	r6, [sl, #124]	@ movhi
 2007 1e8c 70419DE5 		ldr	r4, [sp, #368]
 2008 1e90 04A09DE5 		ldr	sl, [sp, #4]
 2009 1e94 44686AE0 		rsb	r6, sl, r4, asr #16
 2010 1e98 965CC4E0 		smull	r5, r4, r6, ip
 2011 1e9c 255EB0E1 		movs	r5, r5, lsr #28
 2012 1ea0 04A2A5E0 		adc	sl, r5, r4, lsl #4
 2013 1ea4 015C8DE2 		add	r5, sp, #256
 2014 1ea8 B4A7C5E1 		strh	sl, [r5, #116]	@ movhi
 2015 1eac 475F8DE2 		add	r5, sp, #284
 2016 1eb0 600095E8 		ldmia	r5, {r5, r6}	@ phole ldm
 2017 1eb4 465865E0 		rsb	r5, r5, r6, asr #16
 2018 1eb8 2C419DE5 		ldr	r4, [sp, #300]
 2019 1ebc 08A19DE5 		ldr	sl, [sp, #264]
 2020 1ec0 14518DE5 		str	r5, [sp, #276]
 2021 1ec4 0C519DE5 		ldr	r5, [sp, #268]
 2022 1ec8 4888A0E1 		mov	r8, r8, asr #16
 2023 1ecc 448868E0 		rsb	r8, r8, r4, asr #16
 2024 1ed0 45486AE0 		rsb	r4, sl, r5, asr #16
 2025 1ed4 9460CAE0 		smull	r6, sl, r4, r0
 2026 1ed8 266EB0E1 		movs	r6, r6, lsr #28
 2027 1edc 0A52A6E0 		adc	r5, r6, sl, lsl #4
 2028 1ee0 01AC8DE2 		add	sl, sp, #256
 2029 1ee4 B051CAE1 		strh	r5, [sl, #16]	@ movhi
 2030 1ee8 FC409DE5 		ldr	r4, [sp, #252]
 2031 1eec F8A09DE5 		ldr	sl, [sp, #248]
 2032 1ef0 44686AE0 		rsb	r6, sl, r4, asr #16
 2033 1ef4 965CC4E0 		smull	r5, r4, r6, ip
 2034 1ef8 255EB0E1 		movs	r5, r5, lsr #28
 2035 1efc 04A2A5E0 		adc	sl, r5, r4, lsl #4
 2036 1f00 015C8DE2 		add	r5, sp, #256
 2037 1f04 B0A0C5E1 		strh	sl, [r5, #0]	@ movhi
 2038 1f08 E8408DE2 		add	r4, sp, #232
 2039 1f0c 300094E8 		ldmia	r4, {r4, r5}	@ phole ldm
 2040 1f10 454864E0 		rsb	r4, r4, r5, asr #16
 2041 1f14 E0408DE5 		str	r4, [sp, #224]
 2042 1f18 00609DE5 		ldr	r6, [sp, #0]
 2043 1f1c D8A09DE5 		ldr	sl, [sp, #216]
 2044 1f20 4A5866E0 		rsb	r5, r6, sl, asr #16
 2045 1f24 9540C6E0 		smull	r4, r6, r5, r0
 2046 1f28 244EB0E1 		movs	r4, r4, lsr #28
 2047 1f2c 06A2A4E0 		adc	sl, r4, r6, lsl #4
 2048 1f30 9C408DE2 		add	r4, sp, #156
 2049 1f34 300094E8 		ldmia	r4, {r4, r5}	@ phole ldm
 2050 1f38 456864E0 		rsb	r6, r4, r5, asr #16
 2051 1f3c C8419DE5 		ldr	r4, [sp, #456]
 2052 1f40 CC009DE5 		ldr	r0, [sp, #204]
ARM GAS  /cygdrive/c/DOCUME~1/mkwapisz/LOCALS~1/Temp/ccLlueLU.s 			page 37


 2053 1f44 BCADCDE1 		strh	sl, [sp, #220]	@ movhi
 2054 1f48 94A09DE5 		ldr	sl, [sp, #148]
 2055 1f4c 0448A0E1 		mov	r4, r4, asl #16
 2056 1f50 4778A0E1 		mov	r7, r7, asr #16
 2057 1f54 407867E0 		rsb	r7, r7, r0, asr #16
 2058 1f58 4AB86BE0 		rsb	fp, fp, sl, asr #16
 2059 1f5c C4418DE5 		str	r4, [sp, #452]
 2060 1f60 E8019DE5 		ldr	r0, [sp, #488]
 2061 1f64 94519DE5 		ldr	r5, [sp, #404]
 2062 1f68 80A19DE5 		ldr	sl, [sp, #384]
 2063 1f6c 48419DE5 		ldr	r4, [sp, #328]
 2064 1f70 2008A0E1 		mov	r0, r0, lsr #16
 2065 1f74 2558A0E1 		mov	r5, r5, lsr #16
 2066 1f78 2AA8A0E1 		mov	sl, sl, lsr #16
 2067 1f7c 2448A0E1 		mov	r4, r4, lsr #16
 2068 1f80 44E51FE5 		ldr	lr, .L31+4
 2069 1f84 AC068DE5 		str	r0, [sp, #1708]
 2070 1f88 40588DE5 		str	r5, [sp, #2112]
 2071 1f8c 48A88DE5 		str	sl, [sp, #2120]
 2072 1f90 68488DE5 		str	r4, [sp, #2152]
 2073 1f94 58019DE5 		ldr	r0, [sp, #344]
 2074 1f98 48429DE5 		ldr	r4, [sp, #584]
 2075 1f9c 945ECAE0 		smull	r5, sl, r4, lr
 2076 1fa0 255EB0E1 		movs	r5, r5, lsr #28
 2077 1fa4 0A42A5E0 		adc	r4, r5, sl, lsl #4
 2078 1fa8 02AC8DE2 		add	sl, sp, #512
 2079 1fac BA45CAE1 		strh	r4, [sl, #90]	@ movhi
 2080 1fb0 995ECAE0 		smull	r5, sl, r9, lr
 2081 1fb4 255EB0E1 		movs	r5, r5, lsr #28
 2082 1fb8 0A42A5E0 		adc	r4, r5, sl, lsl #4
 2083 1fbc 01AC8DE2 		add	sl, sp, #256
 2084 1fc0 BC4ACAE1 		strh	r4, [sl, #172]	@ movhi
 2085 1fc4 985EC4E0 		smull	r5, r4, r8, lr
 2086 1fc8 255EB0E1 		movs	r5, r5, lsr #28
 2087 1fcc 0492A5E0 		adc	r9, r5, r4, lsl #4
 2088 1fd0 2008A0E1 		mov	r0, r0, lsr #16
 2089 1fd4 B093CAE1 		strh	r9, [sl, #48]	@ movhi
 2090 1fd8 14819DE5 		ldr	r8, [sp, #276]
 2091 1fdc 985EC4E0 		smull	r5, r4, r8, lr
 2092 1fe0 255EB0E1 		movs	r5, r5, lsr #28
 2093 1fe4 0482A5E0 		adc	r8, r5, r4, lsl #4
 2094 1fe8 E0909DE5 		ldr	r9, [sp, #224]
 2095 1fec 995EC4E0 		smull	r5, r4, r9, lr
 2096 1ff0 255EB0E1 		movs	r5, r5, lsr #28
 2097 1ff4 0492A5E0 		adc	r9, r5, r4, lsl #4
 2098 1ff8 B482CAE1 		strh	r8, [sl, #36]	@ movhi
 2099 1ffc 974CCAE0 		smull	r4, sl, r7, ip
 2100 2000 244EB0E1 		movs	r4, r4, lsr #28
 2101 2004 0A52A4E0 		adc	r5, r4, sl, lsl #4
 2102 2008 B09FCDE1 		strh	r9, [sp, #240]	@ movhi
 2103 200c C4A19DE5 		ldr	sl, [sp, #452]
 2104 2010 AC969DE5 		ldr	r9, [sp, #1708]
 2105 2014 5C088DE5 		str	r0, [sp, #2140]
 2106 2018 B05DCDE1 		strh	r5, [sp, #208]	@ movhi
 2107 201c DC751FE5 		ldr	r7, .L31+8
 2108 2020 9647CCE0 		smull	r4, ip, r6, r7
 2109 2024 244EB0E1 		movs	r4, r4, lsr #28
ARM GAS  /cygdrive/c/DOCUME~1/mkwapisz/LOCALS~1/Temp/ccLlueLU.s 			page 38


 2110 2028 0C52A4E0 		adc	r5, r4, ip, lsl #4
 2111 202c E8851FE5 		ldr	r8, .L31+12
 2112 2030 9B48CCE0 		smull	r4, ip, fp, r8
 2113 2034 244EB0E1 		movs	r4, r4, lsr #28
 2114 2038 0C72A4E0 		adc	r7, r4, ip, lsl #4
 2115 203c 5C689DE5 		ldr	r6, [sp, #2140]
 2116 2040 CAC769E0 		rsb	ip, r9, sl, asr #15
 2117 2044 68989DE5 		ldr	r9, [sp, #2152]
 2118 2048 098086E0 		add	r8, r6, r9
 2119 204c 0C98A0E1 		mov	r9, ip, asl #16
 2120 2050 01CC8DE2 		add	ip, sp, #256
 2121 2054 40B89DE5 		ldr	fp, [sp, #2112]
 2122 2058 B0C0DCE1 		ldrh	ip, [ip, #0]
 2123 205c 0548A0E1 		mov	r4, r5, asl #16
 2124 2060 48589DE5 		ldr	r5, [sp, #2120]
 2125 2064 2448A0E1 		mov	r4, r4, lsr #16
 2126 2068 90488DE5 		str	r4, [sp, #2192]
 2127 206c 01AC8DE2 		add	sl, sp, #256
 2128 2070 05408BE0 		add	r4, fp, r5
 2129 2074 0C58A0E1 		mov	r5, ip, asl #16
 2130 2078 B0A1DAE1 		ldrh	sl, [sl, #16]
 2131 207c 90689DE5 		ldr	r6, [sp, #2192]
 2132 2080 2998A0E1 		mov	r9, r9, lsr #16
 2133 2084 04B8A0E1 		mov	fp, r4, asl #16
 2134 2088 2558A0E1 		mov	r5, r5, lsr #16
 2135 208c 0778A0E1 		mov	r7, r7, asl #16
 2136 2090 D0968DE5 		str	r9, [sp, #1744]
 2137 2094 4BB8A0E1 		mov	fp, fp, asr #16
 2138 2098 7C588DE5 		str	r5, [sp, #2172]
 2139 209c 2778A0E1 		mov	r7, r7, lsr #16
 2140 20a0 0888A0E1 		mov	r8, r8, asl #16
 2141 20a4 8B5069E0 		rsb	r5, r9, fp, asl #1
 2142 20a8 07C086E0 		add	ip, r6, r7
 2143 20ac 7C989DE5 		ldr	r9, [sp, #2172]
 2144 20b0 0A48A0E1 		mov	r4, sl, asl #16
 2145 20b4 4888A0E1 		mov	r8, r8, asr #16
 2146 20b8 C4A19DE5 		ldr	sl, [sp, #452]
 2147 20bc 2448A0E1 		mov	r4, r4, lsr #16
 2148 20c0 0C68A0E1 		mov	r6, ip, asl #16
 2149 20c4 88C0A0E1 		mov	ip, r8, asl #1
 2150 20c8 78488DE5 		str	r4, [sp, #2168]
 2151 20cc 2AC84CE0 		sub	ip, ip, sl, lsr #16
 2152 20d0 094084E0 		add	r4, r4, r9
 2153 20d4 0598A0E1 		mov	r9, r5, asl #16
 2154 20d8 2998A0E1 		mov	r9, r9, lsr #16
 2155 20dc 0CC8A0E1 		mov	ip, ip, asl #16
 2156 20e0 08B68DE5 		str	fp, [sp, #1544]
 2157 20e4 4668A0E1 		mov	r6, r6, asr #16
 2158 20e8 CCB19DE5 		ldr	fp, [sp, #460]
 2159 20ec 0458A0E1 		mov	r5, r4, asl #16
 2160 20f0 18668DE5 		str	r6, [sp, #1560]
 2161 20f4 CC4769E0 		rsb	r4, r9, ip, asr #15
 2162 20f8 F8968DE5 		str	r9, [sp, #1784]
 2163 20fc 4558A0E1 		mov	r5, r5, asr #16
 2164 2100 F0919DE5 		ldr	r9, [sp, #496]
 2165 2104 8660A0E1 		mov	r6, r6, asl #1
 2166 2108 2B6846E0 		sub	r6, r6, fp, lsr #16
ARM GAS  /cygdrive/c/DOCUME~1/mkwapisz/LOCALS~1/Temp/ccLlueLU.s 			page 39


 2167 210c 10568DE5 		str	r5, [sp, #1552]
 2168 2110 8550A0E1 		mov	r5, r5, asl #1
 2169 2114 0668A0E1 		mov	r6, r6, asl #16
 2170 2118 295845E0 		sub	r5, r5, r9, lsr #16
 2171 211c 0498A0E1 		mov	r9, r4, asl #16
 2172 2120 2998A0E1 		mov	r9, r9, lsr #16
 2173 2124 0558A0E1 		mov	r5, r5, asl #16
 2174 2128 C647A0E1 		mov	r4, r6, asr #15
 2175 212c 2C4844E0 		sub	r4, r4, ip, lsr #16
 2176 2130 C5C769E0 		rsb	ip, r9, r5, asr #15
 2177 2134 0CC8A0E1 		mov	ip, ip, asl #16
 2178 2138 2CC8A0E1 		mov	ip, ip, lsr #16
 2179 213c 08C78DE5 		str	ip, [sp, #1800]
 2180 2140 0448A0E1 		mov	r4, r4, asl #16
 2181 2144 08A79DE5 		ldr	sl, [sp, #1800]
 2182 2148 2448A0E1 		mov	r4, r4, lsr #16
 2183 214c 04C8A0E1 		mov	ip, r4, asl #16
 2184 2150 CCB76AE0 		rsb	fp, sl, ip, asr #15
 2185 2154 18C79DE5 		ldr	ip, [sp, #1816]
 2186 2158 0CC8A0E1 		mov	ip, ip, asl #16
 2187 215c 80C08DE5 		str	ip, [sp, #128]
 2188 2160 D4A69DE5 		ldr	sl, [sp, #1748]
 2189 2164 D8C69DE5 		ldr	ip, [sp, #1752]
 2190 2168 00978DE5 		str	r9, [sp, #1792]
 2191 216c 0C908AE0 		add	r9, sl, ip
 2192 2170 E0C69DE5 		ldr	ip, [sp, #1760]
 2193 2174 DCA69DE5 		ldr	sl, [sp, #1756]
 2194 2178 0998A0E1 		mov	r9, r9, asl #16
 2195 217c 0CA08AE0 		add	sl, sl, ip
 2196 2180 2C928DE5 		str	r9, [sp, #556]
 2197 2184 0BB8A0E1 		mov	fp, fp, asl #16
 2198 2188 0A98A0E1 		mov	r9, sl, asl #16
 2199 218c 30A79DE5 		ldr	sl, [sp, #1840]
 2200 2190 88B08DE5 		str	fp, [sp, #136]
 2201 2194 14B79DE5 		ldr	fp, [sp, #1812]
 2202 2198 0AA8A0E1 		mov	sl, sl, asl #16
 2203 219c 28928DE5 		str	r9, [sp, #552]
 2204 21a0 8CA08DE5 		str	sl, [sp, #140]
 2205 21a4 0B98A0E1 		mov	r9, fp, asl #16
 2206 21a8 80C09DE5 		ldr	ip, [sp, #128]
 2207 21ac 81AE8DE2 		add	sl, sp, #2064
 2208 21b0 000C9AE8 		ldmia	sl, {sl, fp}	@ phole ldm
 2209 21b4 4CC8A0E1 		mov	ip, ip, asr #16
 2210 21b8 0BA08AE0 		add	sl, sl, fp
 2211 21bc 14C08DE5 		str	ip, [sp, #20]
 2212 21c0 08A08DE5 		str	sl, [sp, #8]
 2213 21c4 18C89DE5 		ldr	ip, [sp, #2072]
 2214 21c8 1CA89DE5 		ldr	sl, [sp, #2076]
 2215 21cc 14B09DE5 		ldr	fp, [sp, #20]
 2216 21d0 0AC08CE0 		add	ip, ip, sl
 2217 21d4 E0C18DE5 		str	ip, [sp, #480]
 2218 21d8 49C86BE0 		rsb	ip, fp, r9, asr #16
 2219 21dc 9C9ECAE0 		smull	r9, sl, ip, lr
 2220 21e0 299EB0E1 		movs	r9, r9, lsr #28
 2221 21e4 0AB2A9E0 		adc	fp, r9, sl, lsl #4
 2222 21e8 B4B8CDE1 		strh	fp, [sp, #132]	@ movhi
 2223 21ec 88A09DE5 		ldr	sl, [sp, #136]
ARM GAS  /cygdrive/c/DOCUME~1/mkwapisz/LOCALS~1/Temp/ccLlueLU.s 			page 40


 2224 21f0 2CC29DE5 		ldr	ip, [sp, #556]
 2225 21f4 08B09DE5 		ldr	fp, [sp, #8]
 2226 21f8 28929DE5 		ldr	r9, [sp, #552]
 2227 21fc 2AA8A0E1 		mov	sl, sl, lsr #16
 2228 2200 1CA78DE5 		str	sl, [sp, #1820]
 2229 2204 2CC8A0E1 		mov	ip, ip, lsr #16
 2230 2208 2CA79DE5 		ldr	sl, [sp, #1836]
 2231 220c 20C78DE5 		str	ip, [sp, #1824]
 2232 2210 2998A0E1 		mov	r9, r9, lsr #16
 2233 2214 0BB8A0E1 		mov	fp, fp, asl #16
 2234 2218 E0C19DE5 		ldr	ip, [sp, #480]
 2235 221c 24978DE5 		str	r9, [sp, #1828]
 2236 2220 E4B18DE5 		str	fp, [sp, #484]
 2237 2224 0A98A0E1 		mov	r9, sl, asl #16
 2238 2228 8CB09DE5 		ldr	fp, [sp, #140]
 2239 222c B4A8DDE1 		ldrh	sl, [sp, #132]
 2240 2230 0CC8A0E1 		mov	ip, ip, asl #16
 2241 2234 DCC18DE5 		str	ip, [sp, #476]
 2242 2238 4BC8A0E1 		mov	ip, fp, asr #16
 2243 223c 0AB8A0E1 		mov	fp, sl, asl #16
 2244 2240 58A79DE5 		ldr	sl, [sp, #1880]
 2245 2244 0AA8A0E1 		mov	sl, sl, asl #16
 2246 2248 58A08DE5 		str	sl, [sp, #88]
 2247 224c 49C86CE0 		rsb	ip, ip, r9, asr #16
 2248 2250 9CAEC9E0 		smull	sl, r9, ip, lr
 2249 2254 2AAEB0E1 		movs	sl, sl, lsr #28
 2250 2258 09C2AAE0 		adc	ip, sl, r9, lsl #4
 2251 225c 1C979DE5 		ldr	r9, [sp, #1820]
 2252 2260 E4A19DE5 		ldr	sl, [sp, #484]
 2253 2264 CBB769E0 		rsb	fp, r9, fp, asr #15
 2254 2268 0CC8A0E1 		mov	ip, ip, asl #16
 2255 226c 7CB08DE5 		str	fp, [sp, #124]
 2256 2270 14C08DE5 		str	ip, [sp, #20]
 2257 2274 DCB19DE5 		ldr	fp, [sp, #476]
 2258 2278 54C79DE5 		ldr	ip, [sp, #1876]
 2259 227c 2AA8A0E1 		mov	sl, sl, lsr #16
 2260 2280 4CA78DE5 		str	sl, [sp, #1868]
 2261 2284 2BB8A0E1 		mov	fp, fp, lsr #16
 2262 2288 58A09DE5 		ldr	sl, [sp, #88]
 2263 228c 0CC8A0E1 		mov	ip, ip, asl #16
 2264 2290 5CC08DE5 		str	ip, [sp, #92]
 2265 2294 50B78DE5 		str	fp, [sp, #1872]
 2266 2298 72BE8DE2 		add	fp, sp, #1824
 2267 229c 00189BE8 		ldmia	fp, {fp, ip}	@ phole ldm
 2268 22a0 4A98A0E1 		mov	r9, sl, asr #16
 2269 22a4 5CA09DE5 		ldr	sl, [sp, #92]
 2270 22a8 0CB08BE0 		add	fp, fp, ip
 2271 22ac 08B08DE5 		str	fp, [sp, #8]
 2272 22b0 4A9869E0 		rsb	r9, r9, sl, asr #16
 2273 22b4 99BECCE0 		smull	fp, ip, r9, lr
 2274 22b8 2BBEB0E1 		movs	fp, fp, lsr #28
 2275 22bc 0CA2ABE0 		adc	sl, fp, ip, lsl #4
 2276 22c0 B0A6CDE1 		strh	sl, [sp, #96]	@ movhi
 2277 22c4 01AC8DE2 		add	sl, sp, #256
 2278 22c8 B4A7DAE1 		ldrh	sl, [sl, #116]
 2279 22cc 01CC8DE2 		add	ip, sp, #256
 2280 22d0 08B09DE5 		ldr	fp, [sp, #8]
ARM GAS  /cygdrive/c/DOCUME~1/mkwapisz/LOCALS~1/Temp/ccLlueLU.s 			page 41


 2281 22d4 BCC7DCE1 		ldrh	ip, [ip, #124]
 2282 22d8 0AA8A0E1 		mov	sl, sl, asl #16
 2283 22dc 6CA18DE5 		str	sl, [sp, #364]
 2284 22e0 B0ADDDE1 		ldrh	sl, [sp, #208]
 2285 22e4 0B98A0E1 		mov	r9, fp, asl #16
 2286 22e8 0CB8A0E1 		mov	fp, ip, asl #16
 2287 22ec BCCDDDE1 		ldrh	ip, [sp, #220]
 2288 22f0 0AA8A0E1 		mov	sl, sl, asl #16
 2289 22f4 C8A08DE5 		str	sl, [sp, #200]
 2290 22f8 0CC8A0E1 		mov	ip, ip, asl #16
 2291 22fc 7CA09DE5 		ldr	sl, [sp, #124]
 2292 2300 D4C08DE5 		str	ip, [sp, #212]
 2293 2304 14C09DE5 		ldr	ip, [sp, #20]
 2294 2308 0AA8A0E1 		mov	sl, sl, asl #16
 2295 230c 78A08DE5 		str	sl, [sp, #120]
 2296 2310 CC4764E0 		rsb	r4, r4, ip, asr #15
 2297 2314 B0A6DDE1 		ldrh	sl, [sp, #96]
 2298 2318 B0CFDDE1 		ldrh	ip, [sp, #240]
 2299 231c 0AA8A0E1 		mov	sl, sl, asl #16
 2300 2320 0CC8A0E1 		mov	ip, ip, asl #16
 2301 2324 70C08DE5 		str	ip, [sp, #112]
 2302 2328 54A08DE5 		str	sl, [sp, #84]
 2303 232c 4CC79DE5 		ldr	ip, [sp, #1868]
 2304 2330 50A79DE5 		ldr	sl, [sp, #1872]
 2305 2334 2BB8A0E1 		mov	fp, fp, lsr #16
 2306 2338 0AC08CE0 		add	ip, ip, sl
 2307 233c C8A09DE5 		ldr	sl, [sp, #200]
 2308 2340 50B88DE5 		str	fp, [sp, #2128]
 2309 2344 2998A0E1 		mov	r9, r9, lsr #16
 2310 2348 6CB19DE5 		ldr	fp, [sp, #364]
 2311 234c A8968DE5 		str	r9, [sp, #1704]
 2312 2350 2AA8A0E1 		mov	sl, sl, lsr #16
 2313 2354 D4909DE5 		ldr	r9, [sp, #212]
 2314 2358 84A88DE5 		str	sl, [sp, #2180]
 2315 235c 2BB8A0E1 		mov	fp, fp, lsr #16
 2316 2360 70A09DE5 		ldr	sl, [sp, #112]
 2317 2364 54B88DE5 		str	fp, [sp, #2132]
 2318 2368 2998A0E1 		mov	r9, r9, lsr #16
 2319 236c 78B09DE5 		ldr	fp, [sp, #120]
 2320 2370 80988DE5 		str	r9, [sp, #2176]
 2321 2374 CA97A0E1 		mov	r9, sl, asr #15
 2322 2378 54A09DE5 		ldr	sl, [sp, #84]
 2323 237c 2BB8A0E1 		mov	fp, fp, lsr #16
 2324 2380 34B78DE5 		str	fp, [sp, #1844]
 2325 2384 CAB7A0E1 		mov	fp, sl, asr #15
 2326 2388 26B84BE0 		sub	fp, fp, r6, lsr #16
 2327 238c 50B08DE5 		str	fp, [sp, #80]
 2328 2390 A8B69DE5 		ldr	fp, [sp, #1704]
 2329 2394 259849E0 		sub	r9, r9, r5, lsr #16
 2330 2398 14C08DE5 		str	ip, [sp, #20]
 2331 239c 0CC8A0E1 		mov	ip, ip, asl #16
 2332 23a0 6C908DE5 		str	r9, [sp, #108]
 2333 23a4 50A89DE5 		ldr	sl, [sp, #2128]
 2334 23a8 CC976BE0 		rsb	r9, fp, ip, asr #15
 2335 23ac 34579DE5 		ldr	r5, [sp, #1844]
 2336 23b0 54B89DE5 		ldr	fp, [sp, #2132]
 2337 23b4 0448A0E1 		mov	r4, r4, asl #16
ARM GAS  /cygdrive/c/DOCUME~1/mkwapisz/LOCALS~1/Temp/ccLlueLU.s 			page 42


 2338 23b8 C45765E0 		rsb	r5, r5, r4, asr #15
 2339 23bc 0B608AE0 		add	r6, sl, fp
 2340 23c0 22AD8DE2 		add	sl, sp, #2176
 2341 23c4 000C9AE8 		ldmia	sl, {sl, fp}	@ phole ldm
 2342 23c8 74508DE5 		str	r5, [sp, #116]
 2343 23cc 0B508AE0 		add	r5, sl, fp
 2344 23d0 74A09DE5 		ldr	sl, [sp, #116]
 2345 23d4 09B8A0E1 		mov	fp, r9, asl #16
 2346 23d8 0598A0E1 		mov	r9, r5, asl #16
 2347 23dc 0A58A0E1 		mov	r5, sl, asl #16
 2348 23e0 6CA09DE5 		ldr	sl, [sp, #108]
 2349 23e4 2BB8A0E1 		mov	fp, fp, lsr #16
 2350 23e8 0AA8A0E1 		mov	sl, sl, asl #16
 2351 23ec 68A08DE5 		str	sl, [sp, #104]
 2352 23f0 E4B68DE5 		str	fp, [sp, #1764]
 2353 23f4 50A09DE5 		ldr	sl, [sp, #80]
 2354 23f8 68B09DE5 		ldr	fp, [sp, #104]
 2355 23fc 0AA8A0E1 		mov	sl, sl, asl #16
 2356 2400 2558A0E1 		mov	r5, r5, lsr #16
 2357 2404 4BB8A0E1 		mov	fp, fp, asr #16
 2358 2408 48578DE5 		str	r5, [sp, #1864]
 2359 240c 1CB68DE5 		str	fp, [sp, #1564]
 2360 2410 4A58A0E1 		mov	r5, sl, asr #16
 2361 2414 20568DE5 		str	r5, [sp, #1568]
 2362 2418 4CA08DE5 		str	sl, [sp, #76]
 2363 241c 1C569DE5 		ldr	r5, [sp, #1564]
 2364 2420 48A79DE5 		ldr	sl, [sp, #1864]
 2365 2424 4998A0E1 		mov	r9, r9, asr #16
 2366 2428 14968DE5 		str	r9, [sp, #1556]
 2367 242c 85A06AE0 		rsb	sl, sl, r5, asl #1
 2368 2430 E4969DE5 		ldr	r9, [sp, #1764]
 2369 2434 64A08DE5 		str	sl, [sp, #100]
 2370 2438 0668A0E1 		mov	r6, r6, asl #16
 2371 243c 14A69DE5 		ldr	sl, [sp, #1556]
 2372 2440 4668A0E1 		mov	r6, r6, asr #16
 2373 2444 86B069E0 		rsb	fp, r9, r6, asl #1
 2374 2448 8A90A0E1 		mov	r9, sl, asl #1
 2375 244c 20A69DE5 		ldr	sl, [sp, #1568]
 2376 2450 2C9849E0 		sub	r9, r9, ip, lsr #16
 2377 2454 0BC8A0E1 		mov	ip, fp, asl #16
 2378 2458 64B09DE5 		ldr	fp, [sp, #100]
 2379 245c 8A50A0E1 		mov	r5, sl, asl #1
 2380 2460 245845E0 		sub	r5, r5, r4, lsr #16
 2381 2464 0B48A0E1 		mov	r4, fp, asl #16
 2382 2468 2CC8A0E1 		mov	ip, ip, lsr #16
 2383 246c 2448A0E1 		mov	r4, r4, lsr #16
 2384 2470 68A89DE5 		ldr	sl, [sp, #2152]
 2385 2474 04C78DE5 		str	ip, [sp, #1796]
 2386 2478 5C478DE5 		str	r4, [sp, #1884]
 2387 247c 0558A0E1 		mov	r5, r5, asl #16
 2388 2480 50C79DE5 		ldr	ip, [sp, #1872]
 2389 2484 48489DE5 		ldr	r4, [sp, #2120]
 2390 2488 48508DE5 		str	r5, [sp, #72]
 2391 248c 5C589DE5 		ldr	r5, [sp, #2140]
 2392 2490 0AB8A0E1 		mov	fp, sl, asl #16
 2393 2494 0CC8A0E1 		mov	ip, ip, asl #16
 2394 2498 0448A0E1 		mov	r4, r4, asl #16
ARM GAS  /cygdrive/c/DOCUME~1/mkwapisz/LOCALS~1/Temp/ccLlueLU.s 			page 43


 2395 249c B8C08DE5 		str	ip, [sp, #184]
 2396 24a0 38408DE5 		str	r4, [sp, #56]
 2397 24a4 4BC8A0E1 		mov	ip, fp, asr #16
 2398 24a8 0548A0E1 		mov	r4, r5, asl #16
 2399 24ac 44C86CE0 		rsb	ip, ip, r4, asr #16
 2400 24b0 04B79DE5 		ldr	fp, [sp, #1796]
 2401 24b4 9C5ECAE0 		smull	r5, sl, ip, lr
 2402 24b8 255EB0E1 		movs	r5, r5, lsr #28
 2403 24bc 0A42A5E0 		adc	r4, r5, sl, lsl #4
 2404 24c0 24C79DE5 		ldr	ip, [sp, #1828]
 2405 24c4 0998A0E1 		mov	r9, r9, asl #16
 2406 24c8 4C579DE5 		ldr	r5, [sp, #1868]
 2407 24cc B8A09DE5 		ldr	sl, [sp, #184]
 2408 24d0 C9B76BE0 		rsb	fp, fp, r9, asr #15
 2409 24d4 0CC8A0E1 		mov	ip, ip, asl #16
 2410 24d8 C4B08DE5 		str	fp, [sp, #196]
 2411 24dc BCC08DE5 		str	ip, [sp, #188]
 2412 24e0 5CB79DE5 		ldr	fp, [sp, #1884]
 2413 24e4 05C8A0E1 		mov	ip, r5, asl #16
 2414 24e8 4A58A0E1 		mov	r5, sl, asr #16
 2415 24ec 48A09DE5 		ldr	sl, [sp, #72]
 2416 24f0 CAB76BE0 		rsb	fp, fp, sl, asr #15
 2417 24f4 44B08DE5 		str	fp, [sp, #68]
 2418 24f8 40B89DE5 		ldr	fp, [sp, #2112]
 2419 24fc 0BB8A0E1 		mov	fp, fp, asl #16
 2420 2500 3CB08DE5 		str	fp, [sp, #60]
 2421 2504 38A09DE5 		ldr	sl, [sp, #56]
 2422 2508 4C5865E0 		rsb	r5, r5, ip, asr #16
 2423 250c 4AB8A0E1 		mov	fp, sl, asr #16
 2424 2510 95AECCE0 		smull	sl, ip, r5, lr
 2425 2514 2AAEB0E1 		movs	sl, sl, lsr #28
 2426 2518 0C52AAE0 		adc	r5, sl, ip, lsl #4
 2427 251c 3CA09DE5 		ldr	sl, [sp, #60]
 2428 2520 0448A0E1 		mov	r4, r4, asl #16
 2429 2524 4AC86BE0 		rsb	ip, fp, sl, asr #16
 2430 2528 9CBECAE0 		smull	fp, sl, ip, lr
 2431 252c 2BBEB0E1 		movs	fp, fp, lsr #28
 2432 2530 0AC2ABE0 		adc	ip, fp, sl, lsl #4
 2433 2534 C4B09DE5 		ldr	fp, [sp, #196]
 2434 2538 BCA09DE5 		ldr	sl, [sp, #188]
 2435 253c C48768E0 		rsb	r8, r8, r4, asr #15
 2436 2540 20479DE5 		ldr	r4, [sp, #1824]
 2437 2544 0BB8A0E1 		mov	fp, fp, asl #16
 2438 2548 C0B08DE5 		str	fp, [sp, #192]
 2439 254c 04B8A0E1 		mov	fp, r4, asl #16
 2440 2550 4A48A0E1 		mov	r4, sl, asr #16
 2441 2554 44A09DE5 		ldr	sl, [sp, #68]
 2442 2558 0AA8A0E1 		mov	sl, sl, asl #16
 2443 255c 40A08DE5 		str	sl, [sp, #64]
 2444 2560 4B4864E0 		rsb	r4, r4, fp, asr #16
 2445 2564 94BECAE0 		smull	fp, sl, r4, lr
 2446 2568 2BBEB0E1 		movs	fp, fp, lsr #28
 2447 256c 0A42ABE0 		adc	r4, fp, sl, lsl #4
 2448 2570 08B69DE5 		ldr	fp, [sp, #1544]
 2449 2574 0CC8A0E1 		mov	ip, ip, asl #16
 2450 2578 CC076BE0 		rsb	r0, fp, ip, asr #15
 2451 257c 40A09DE5 		ldr	sl, [sp, #64]
ARM GAS  /cygdrive/c/DOCUME~1/mkwapisz/LOCALS~1/Temp/ccLlueLU.s 			page 44


 2452 2580 C0C09DE5 		ldr	ip, [sp, #192]
 2453 2584 0558A0E1 		mov	r5, r5, asl #16
 2454 2588 2CC8A0E1 		mov	ip, ip, lsr #16
 2455 258c 2AA8A0E1 		mov	sl, sl, lsr #16
 2456 2590 0448A0E1 		mov	r4, r4, asl #16
 2457 2594 C557A0E1 		mov	r5, r5, asr #15
 2458 2598 48B09DE5 		ldr	fp, [sp, #72]
 2459 259c 28C78DE5 		str	ip, [sp, #1832]
 2460 25a0 60A78DE5 		str	sl, [sp, #1888]
 2461 25a4 C4476CE0 		rsb	r4, ip, r4, asr #15
 2462 25a8 295845E0 		sub	r5, r5, r9, lsr #16
 2463 25ac 80C06AE0 		rsb	ip, sl, r0, asl #1
 2464 25b0 38979DE5 		ldr	r9, [sp, #1848]
 2465 25b4 3CA79DE5 		ldr	sl, [sp, #1852]
 2466 25b8 8880A0E1 		mov	r8, r8, asl #1
 2467 25bc 0A0089E0 		add	r0, r9, sl
 2468 25c0 2B8848E0 		sub	r8, r8, fp, lsr #16
 2469 25c4 74A89DE5 		ldr	sl, [sp, #2164]
 2470 25c8 6CB89DE5 		ldr	fp, [sp, #2156]
 2471 25cc 0A908BE0 		add	r9, fp, sl
 2472 25d0 09B8A0E1 		mov	fp, r9, asl #16
 2473 25d4 0008A0E1 		mov	r0, r0, asl #16
 2474 25d8 7CA89DE5 		ldr	sl, [sp, #2172]
 2475 25dc 2008A0E1 		mov	r0, r0, lsr #16
 2476 25e0 4BB8A0E1 		mov	fp, fp, asr #16
 2477 25e4 FC068DE5 		str	r0, [sp, #1788]
 2478 25e8 0CB68DE5 		str	fp, [sp, #1548]
 2479 25ec 78089DE5 		ldr	r0, [sp, #2168]
 2480 25f0 54B89DE5 		ldr	fp, [sp, #2132]
 2481 25f4 0CC8A0E1 		mov	ip, ip, asl #16
 2482 25f8 0A98A0E1 		mov	r9, sl, asl #16
 2483 25fc 2CC8A0E1 		mov	ip, ip, lsr #16
 2484 2600 68C78DE5 		str	ip, [sp, #1896]
 2485 2604 0BB8A0E1 		mov	fp, fp, asl #16
 2486 2608 00C8A0E1 		mov	ip, r0, asl #16
 2487 260c 0448A0E1 		mov	r4, r4, asl #16
 2488 2610 4908A0E1 		mov	r0, r9, asr #16
 2489 2614 0558A0E1 		mov	r5, r5, asl #16
 2490 2618 2448A0E1 		mov	r4, r4, lsr #16
 2491 261c ACB08DE5 		str	fp, [sp, #172]
 2492 2620 4558A0E1 		mov	r5, r5, asr #16
 2493 2624 FCB69DE5 		ldr	fp, [sp, #1788]
 2494 2628 4C0860E0 		rsb	r0, r0, ip, asr #16
 2495 262c 909ECAE0 		smull	r9, sl, r0, lr
 2496 2630 299EB0E1 		movs	r9, r9, lsr #28
 2497 2634 0AC2A9E0 		adc	ip, r9, sl, lsl #4
 2498 2638 0C069DE5 		ldr	r0, [sp, #1548]
 2499 263c 85A064E0 		rsb	sl, r4, r5, asl #1
 2500 2640 80906BE0 		rsb	r9, fp, r0, asl #1
 2501 2644 B4A08DE5 		str	sl, [sp, #180]
 2502 2648 50089DE5 		ldr	r0, [sp, #2128]
 2503 264c ACA09DE5 		ldr	sl, [sp, #172]
 2504 2650 00B8A0E1 		mov	fp, r0, asl #16
 2505 2654 0888A0E1 		mov	r8, r8, asl #16
 2506 2658 4A08A0E1 		mov	r0, sl, asr #16
 2507 265c 68A79DE5 		ldr	sl, [sp, #1896]
 2508 2660 4888A0E1 		mov	r8, r8, asr #16
ARM GAS  /cygdrive/c/DOCUME~1/mkwapisz/LOCALS~1/Temp/ccLlueLU.s 			page 45


 2509 2664 88A06AE0 		rsb	sl, sl, r8, asl #1
 2510 2668 34A08DE5 		str	sl, [sp, #52]
 2511 266c 4B0860E0 		rsb	r0, r0, fp, asr #16
 2512 2670 90BECAE0 		smull	fp, sl, r0, lr
 2513 2674 2BBEB0E1 		movs	fp, fp, lsr #28
 2514 2678 0A02ABE0 		adc	r0, fp, sl, lsl #4
 2515 267c B4A09DE5 		ldr	sl, [sp, #180]
 2516 2680 0AA8A0E1 		mov	sl, sl, asl #16
 2517 2684 10B69DE5 		ldr	fp, [sp, #1552]
 2518 2688 B0A08DE5 		str	sl, [sp, #176]
 2519 268c 34A09DE5 		ldr	sl, [sp, #52]
 2520 2690 0CC8A0E1 		mov	ip, ip, asl #16
 2521 2694 CCC76BE0 		rsb	ip, fp, ip, asr #15
 2522 2698 0008A0E1 		mov	r0, r0, asl #16
 2523 269c 84B89DE5 		ldr	fp, [sp, #2180]
 2524 26a0 0AA8A0E1 		mov	sl, sl, asl #16
 2525 26a4 30A08DE5 		str	sl, [sp, #48]
 2526 26a8 C06766E0 		rsb	r6, r6, r0, asr #15
 2527 26ac 90A89DE5 		ldr	sl, [sp, #2192]
 2528 26b0 1C069DE5 		ldr	r0, [sp, #1564]
 2529 26b4 0BB8A0E1 		mov	fp, fp, asl #16
 2530 26b8 0778A0E1 		mov	r7, r7, asl #16
 2531 26bc A8B08DE5 		str	fp, [sp, #168]
 2532 26c0 8CC060E0 		rsb	ip, r0, ip, asl #1
 2533 26c4 0AB8A0E1 		mov	fp, sl, asl #16
 2534 26c8 4778A0E1 		mov	r7, r7, asr #16
 2535 26cc 2CC08DE5 		str	ip, [sp, #44]
 2536 26d0 4B7867E0 		rsb	r7, r7, fp, asr #16
 2537 26d4 B0B09DE5 		ldr	fp, [sp, #176]
 2538 26d8 97AEC0E0 		smull	sl, r0, r7, lr
 2539 26dc 2AAEB0E1 		movs	sl, sl, lsr #28
 2540 26e0 00C2AAE0 		adc	ip, sl, r0, lsl #4
 2541 26e4 30009DE5 		ldr	r0, [sp, #48]
 2542 26e8 017C8DE2 		add	r7, sp, #256
 2543 26ec B073D7E1 		ldrh	r7, [r7, #48]
 2544 26f0 80A89DE5 		ldr	sl, [sp, #2176]
 2545 26f4 2BB8A0E1 		mov	fp, fp, lsr #16
 2546 26f8 2008A0E1 		mov	r0, r0, lsr #16
 2547 26fc 0998A0E1 		mov	r9, r9, asl #16
 2548 2700 2998A0E1 		mov	r9, r9, lsr #16
 2549 2704 64B78DE5 		str	fp, [sp, #1892]
 2550 2708 70078DE5 		str	r0, [sp, #1904]
 2551 270c 0AB8A0E1 		mov	fp, sl, asl #16
 2552 2710 0708A0E1 		mov	r0, r7, asl #16
 2553 2714 A8A09DE5 		ldr	sl, [sp, #168]
 2554 2718 C00769E0 		rsb	r0, r9, r0, asr #15
 2555 271c 28018DE5 		str	r0, [sp, #296]
 2556 2720 4A78A0E1 		mov	r7, sl, asr #16
 2557 2724 64079DE5 		ldr	r0, [sp, #1892]
 2558 2728 4BB867E0 		rsb	fp, r7, fp, asr #16
 2559 272c 866060E0 		rsb	r6, r0, r6, asl #1
 2560 2730 A4B08DE5 		str	fp, [sp, #164]
 2561 2734 9B7ECAE0 		smull	r7, sl, fp, lr
 2562 2738 277EB0E1 		movs	r7, r7, lsr #28
 2563 273c 0A02A7E0 		adc	r0, r7, sl, lsl #4
 2564 2740 70B79DE5 		ldr	fp, [sp, #1904]
 2565 2744 2CE09DE5 		ldr	lr, [sp, #44]
ARM GAS  /cygdrive/c/DOCUME~1/mkwapisz/LOCALS~1/Temp/ccLlueLU.s 			page 46


 2566 2748 18769DE5 		ldr	r7, [sp, #1560]
 2567 274c 8EA06BE0 		rsb	sl, fp, lr, asl #1
 2568 2750 30B89DE5 		ldr	fp, [sp, #2096]
 2569 2754 38E89DE5 		ldr	lr, [sp, #2104]
 2570 2758 0CC8A0E1 		mov	ip, ip, asl #16
 2571 275c CCC767E0 		rsb	ip, r7, ip, asr #15
 2572 2760 0E708BE0 		add	r7, fp, lr
 2573 2764 14E69DE5 		ldr	lr, [sp, #1556]
 2574 2768 0008A0E1 		mov	r0, r0, asl #16
 2575 276c C0B76EE0 		rsb	fp, lr, r0, asr #15
 2576 2770 20069DE5 		ldr	r0, [sp, #1568]
 2577 2774 07E8A0E1 		mov	lr, r7, asl #16
 2578 2778 8CC060E0 		rsb	ip, r0, ip, asl #1
 2579 277c 28719DE5 		ldr	r7, [sp, #296]
 2580 2780 010C8DE2 		add	r0, sp, #256
 2581 2784 B402D0E1 		ldrh	r0, [r0, #36]
 2582 2788 20C08DE5 		str	ip, [sp, #32]
 2583 278c 0668A0E1 		mov	r6, r6, asl #16
 2584 2790 07C8A0E1 		mov	ip, r7, asl #16
 2585 2794 8B5065E0 		rsb	r5, r5, fp, asl #1
 2586 2798 0078A0E1 		mov	r7, r0, asl #16
 2587 279c 2CC8A0E1 		mov	ip, ip, lsr #16
 2588 27a0 0C069DE5 		ldr	r0, [sp, #1548]
 2589 27a4 2668A0E1 		mov	r6, r6, lsr #16
 2590 27a8 0AA8A0E1 		mov	sl, sl, asl #16
 2591 27ac 20B09DE5 		ldr	fp, [sp, #32]
 2592 27b0 6CC78DE5 		str	ip, [sp, #1900]
 2593 27b4 2AA8A0E1 		mov	sl, sl, lsr #16
 2594 27b8 855066E0 		rsb	r5, r6, r5, asl #1
 2595 27bc 01CC8DE2 		add	ip, sp, #256
 2596 27c0 C77760E0 		rsb	r7, r0, r7, asr #15
 2597 27c4 BCCADCE1 		ldrh	ip, [ip, #172]
 2598 27c8 6C079DE5 		ldr	r0, [sp, #1900]
 2599 27cc 74A78DE5 		str	sl, [sp, #1908]
 2600 27d0 00508DE5 		str	r5, [sp, #0]
 2601 27d4 74579DE5 		ldr	r5, [sp, #1908]
 2602 27d8 8B8068E0 		rsb	r8, r8, fp, asl #1
 2603 27dc 87A060E0 		rsb	sl, r0, r7, asl #1
 2604 27e0 888065E0 		rsb	r8, r5, r8, asl #1
 2605 27e4 0C779DE5 		ldr	r7, [sp, #1804]
 2606 27e8 10579DE5 		ldr	r5, [sp, #1808]
 2607 27ec 8110A0E1 		mov	r1, r1, asl #1
 2608 27f0 030081E0 		add	r0, r1, r3
 2609 27f4 057087E0 		add	r7, r7, r5
 2610 27f8 B07FC0E1 		strh	r7, [r0, #240]	@ movhi
 2611 27fc 1C708DE5 		str	r7, [sp, #28]
 2612 2800 027C8DE2 		add	r7, sp, #512
 2613 2804 BA75D7E1 		ldrh	r7, [r7, #90]
 2614 2808 0CB8A0E1 		mov	fp, ip, asl #16
 2615 280c B27081E1 		strh	r7, [r1, r2]	@ movhi
 2616 2810 02C081E0 		add	ip, r1, r2
 2617 2814 062C8DE2 		add	r2, sp, #1536
 2618 2818 B426D2E1 		ldrh	r2, [r2, #100]
 2619 281c 065C8DE2 		add	r5, sp, #1536
 2620 2820 B02EC0E1 		strh	r2, [r0, #224]	@ movhi
 2621 2824 067C8DE2 		add	r7, sp, #1536
 2622 2828 062C8DE2 		add	r2, sp, #1536
ARM GAS  /cygdrive/c/DOCUME~1/mkwapisz/LOCALS~1/Temp/ccLlueLU.s 			page 47


 2623 282c B85AD5E1 		ldrh	r5, [r5, #168]
 2624 2830 B47AD7E1 		ldrh	r7, [r7, #164]
 2625 2834 BC2FD2E1 		ldrh	r2, [r2, #252]
 2626 2838 B05DC0E1 		strh	r5, [r0, #208]	@ movhi
 2627 283c B07CC0E1 		strh	r7, [r0, #192]	@ movhi
 2628 2840 B02BC0E1 		strh	r2, [r0, #176]	@ movhi
 2629 2844 065C8DE2 		add	r5, sp, #1536
 2630 2848 067C8DE2 		add	r7, sp, #1536
 2631 284c 062C8DE2 		add	r2, sp, #1536
 2632 2850 2EE8A0E1 		mov	lr, lr, lsr #16
 2633 2854 BC5AD5E1 		ldrh	r5, [r5, #172]
 2634 2858 B47ED7E1 		ldrh	r7, [r7, #228]
 2635 285c B02DD2E1 		ldrh	r2, [r2, #208]
 2636 2860 CBB76EE0 		rsb	fp, lr, fp, asr #15
 2637 2864 B05AC0E1 		strh	r5, [r0, #160]	@ movhi
 2638 2868 B079C0E1 		strh	r7, [r0, #144]	@ movhi
 2639 286c B028C0E1 		strh	r2, [r0, #128]	@ movhi
 2640 2870 B0E7C0E1 		strh	lr, [r0, #112]	@ movhi
 2641 2874 065C8DE2 		add	r5, sp, #1536
 2642 2878 B0B8CCE1 		strh	fp, [ip, #128]	@ movhi
 2643 287c 077C8DE2 		add	r7, sp, #1792
 2644 2880 07BC8DE2 		add	fp, sp, #1792
 2645 2884 B85FD5E1 		ldrh	r5, [r5, #248]
 2646 2888 B470D7E1 		ldrh	r7, [r7, #4]
 2647 288c B0B0DBE1 		ldrh	fp, [fp, #0]
 2648 2890 07EC8DE2 		add	lr, sp, #1792
 2649 2894 072C8DE2 		add	r2, sp, #1792
 2650 2898 BCE6DEE1 		ldrh	lr, [lr, #108]
 2651 289c B822D2E1 		ldrh	r2, [r2, #40]
 2652 28a0 B056C0E1 		strh	r5, [r0, #96]	@ movhi
 2653 28a4 B075C0E1 		strh	r7, [r0, #80]	@ movhi
 2654 28a8 B0B4C0E1 		strh	fp, [r0, #64]	@ movhi
 2655 28ac B093C0E1 		strh	r9, [r0, #48]	@ movhi
 2656 28b0 075C8DE2 		add	r5, sp, #1792
 2657 28b4 B0ACCCE1 		strh	sl, [ip, #192]	@ movhi
 2658 28b8 079C8DE2 		add	r9, sp, #1792
 2659 28bc 07AC8DE2 		add	sl, sp, #1792
 2660 28c0 B0E4CCE1 		strh	lr, [ip, #64]	@ movhi
 2661 28c4 B021C0E1 		strh	r2, [r0, #16]	@ movhi
 2662 28c8 B850D5E1 		ldrh	r5, [r5, #8]
 2663 28cc 00709DE5 		ldr	r7, [sp, #0]
 2664 28d0 B496D9E1 		ldrh	r9, [r9, #100]
 2665 28d4 BCA1DAE1 		ldrh	sl, [sl, #28]
 2666 28d8 B052C0E1 		strh	r5, [r0, #32]	@ movhi
 2667 28dc 07BC8DE2 		add	fp, sp, #1792
 2668 28e0 B042CCE1 		strh	r4, [ip, #32]	@ movhi
 2669 28e4 B07ECCE1 		strh	r7, [ip, #224]	@ movhi
 2670 28e8 B096CCE1 		strh	r9, [ip, #96]	@ movhi
 2671 28ec B06ACCE1 		strh	r6, [ip, #160]	@ movhi
 2672 28f0 07EC8DE2 		add	lr, sp, #1792
 2673 28f4 B3A081E1 		strh	sl, [r1, r3]	@ movhi
 2674 28f8 070C8DE2 		add	r0, sp, #1792
 2675 28fc 072C8DE2 		add	r2, sp, #1792
 2676 2900 073C8DE2 		add	r3, sp, #1792
 2677 2904 074C8DE2 		add	r4, sp, #1792
 2678 2908 075C8DE2 		add	r5, sp, #1792
 2679 290c B4B3DBE1 		ldrh	fp, [fp, #52]
ARM GAS  /cygdrive/c/DOCUME~1/mkwapisz/LOCALS~1/Temp/ccLlueLU.s 			page 48


 2680 2910 B8E4DEE1 		ldrh	lr, [lr, #72]
 2681 2914 BC05D0E1 		ldrh	r0, [r0, #92]
 2682 2918 B026D2E1 		ldrh	r2, [r2, #96]
 2683 291c B836D3E1 		ldrh	r3, [r3, #104]
 2684 2920 B047D4E1 		ldrh	r4, [r4, #112]
 2685 2924 B457D5E1 		ldrh	r5, [r5, #116]
 2686 2928 B08FCCE1 		strh	r8, [ip, #240]	@ movhi
 2687 292c B0B1CCE1 		strh	fp, [ip, #16]	@ movhi
 2688 2930 B0E3CCE1 		strh	lr, [ip, #48]	@ movhi
 2689 2934 B005CCE1 		strh	r0, [ip, #80]	@ movhi
 2690 2938 B027CCE1 		strh	r2, [ip, #112]	@ movhi
 2691 293c B039CCE1 		strh	r3, [ip, #144]	@ movhi
 2692 2940 B04BCCE1 		strh	r4, [ip, #176]	@ movhi
 2693 2944 B05DCCE1 		strh	r5, [ip, #208]	@ movhi
 2694 2948 8ADE8DE2 		add	sp, sp, #2208
 2695 294c F04FBDE8 		ldmfd	sp!, {r4, r5, r6, r7, r8, r9, sl, fp, lr}
 2696 2950 1EFF2FE1 		bx	lr
 2697              		.size	dct32, .-dct32
 2698              		.align	2
 2699              		.global	mad_synth_frame
 2700              		.type	mad_synth_frame, %function
 2701              	mad_synth_frame:
 2702              		@ Function supports interworking.
 2703              		@ args = 0, pretend = 0, frame = 0
 2704              		@ frame_needed = 0, uses_anonymous_args = 0
 2705 2954 0C0091E8 		ldmia	r1, {r2, r3}	@ phole ldm
 2706 2958 000053E3 		cmp	r3, #0
 2707 295c F0402DE9 		stmfd	sp!, {r4, r5, r6, r7, lr}
 2708 2960 0170A003 		moveq	r7, #1
 2709 2964 0270A013 		movne	r7, #2
 2710 2968 010052E3 		cmp	r2, #1
 2711 296c 0150A0E1 		mov	r5, r1
 2712 2970 0C60A0E3 		mov	r6, #12
 2713 2974 0040A0E1 		mov	r4, r0
 2714 2978 0500000A 		beq	.L40
 2715 297c 030052E3 		cmp	r2, #3
 2716 2980 2460A0E3 		mov	r6, #36
 2717 2984 0200001A 		bne	.L40
 2718 2988 1C3091E5 		ldr	r3, [r1, #28]
 2719 298c 010A13E3 		tst	r3, #4096
 2720 2990 1260A013 		movne	r6, #18
 2721              	.L40:
 2722 2994 140095E5 		ldr	r0, [r5, #20]
 2723 2998 040884E5 		str	r0, [r4, #2052]
 2724 299c FEFFFFEB 		bl	set_dac_sample_rate
 2725 29a0 2C3095E5 		ldr	r3, [r5, #44]
 2726 29a4 68209FE5 		ldr	r2, .L48
 2727 29a8 020013E3 		tst	r3, #2
 2728 29ac 8632A0E1 		mov	r3, r6, asl #5
 2729 29b0 B23084E1 		strh	r3, [r4, r2]	@ movhi
 2730 29b4 5C309FE5 		ldr	r3, .L48+4
 2731 29b8 5CC09FE5 		ldr	ip, .L48+8
 2732 29bc B37084E1 		strh	r7, [r4, r3]	@ movhi
 2733 29c0 0700000A 		beq	.L46
 2734 29c4 040894E5 		ldr	r0, [r4, #2052]
 2735 29c8 B23094E1 		ldrh	r3, [r4, r2]
 2736 29cc A000A0E1 		mov	r0, r0, lsr #1
ARM GAS  /cygdrive/c/DOCUME~1/mkwapisz/LOCALS~1/Temp/ccLlueLU.s 			page 49


 2737 29d0 A330A0E1 		mov	r3, r3, lsr #1
 2738 29d4 B23084E1 		strh	r3, [r4, r2]	@ movhi
 2739 29d8 040884E5 		str	r0, [r4, #2052]
 2740 29dc FEFFFFEB 		bl	set_dac_sample_rate
 2741 29e0 38C09FE5 		ldr	ip, .L48+12
 2742              	.L46:
 2743 29e4 0630A0E1 		mov	r3, r6
 2744 29e8 0510A0E1 		mov	r1, r5
 2745 29ec 0720A0E1 		mov	r2, r7
 2746 29f0 0400A0E1 		mov	r0, r4
 2747 29f4 0FE0A0E1 		mov	lr, pc
 2748 29f8 1CFF2FE1 		bx	ip
 2749 29fc 003894E5 		ldr	r3, [r4, #2048]
 2750 2a00 033086E0 		add	r3, r6, r3
 2751 2a04 0F3003E2 		and	r3, r3, #15
 2752 2a08 003884E5 		str	r3, [r4, #2048]
 2753 2a0c F040BDE8 		ldmfd	sp!, {r4, r5, r6, r7, lr}
 2754 2a10 1EFF2FE1 		bx	lr
 2755              	.L49:
 2756              		.align	2
 2757              	.L48:
 2758 2a14 0A080000 		.word	2058
 2759 2a18 08080000 		.word	2056
 2760 2a1c 58340000 		.word	synth_full
 2761 2a20 242A0000 		.word	synth_half
 2762              		.size	mad_synth_frame, .-mad_synth_frame
 2763              		.align	2
 2764              		.type	synth_half, %function
 2765              	synth_half:
 2766              		@ Function supports interworking.
 2767              		@ args = 0, pretend = 0, frame = 208
 2768              		@ frame_needed = 0, uses_anonymous_args = 0
 2769 2a24 F04F2DE9 		stmfd	sp!, {r4, r5, r6, r7, r8, r9, sl, fp, lr}
 2770 2a28 D0D04DE2 		sub	sp, sp, #208
 2771 2a2c 18008DE5 		str	r0, [sp, #24]
 2772 2a30 000890E5 		ldr	r0, [r0, #2048]
 2773 2a34 14108DE5 		str	r1, [sp, #20]
 2774 2a38 0010A0E3 		mov	r1, #0
 2775 2a3c 48008DE5 		str	r0, [sp, #72]
 2776 2a40 10208DE5 		str	r2, [sp, #16]
 2777 2a44 0C308DE5 		str	r3, [sp, #12]
 2778 2a48 50108DE5 		str	r1, [sp, #80]
 2779 2a4c 740200EA 		b	.L51
 2780              	.L52:
 2781 2a50 0010A0E3 		mov	r1, #0
 2782 2a54 2020A0E3 		mov	r2, #32
 2783 2a58 B0008DE2 		add	r0, sp, #176
 2784 2a5c FEFFFFEB 		bl	memset
 2785 2a60 48209DE5 		ldr	r2, [sp, #72]
 2786 2a64 013042E2 		sub	r3, r2, #1
 2787 2a68 0F3003E2 		and	r3, r3, #15
 2788 2a6c 013083E3 		orr	r3, r3, #1
 2789 2a70 8330A0E1 		mov	r3, r3, asl #1
 2790 2a74 24308DE5 		str	r3, [sp, #36]
 2791 2a78 24609DE5 		ldr	r6, [sp, #36]
 2792 2a7c BC199FE5 		ldr	r1, .L62
 2793 2a80 0120C2E3 		bic	r2, r2, #1
ARM GAS  /cygdrive/c/DOCUME~1/mkwapisz/LOCALS~1/Temp/ccLlueLU.s 			page 50


 2794 2a84 8220A0E1 		mov	r2, r2, asl #1
 2795 2a88 48409DE5 		ldr	r4, [sp, #72]
 2796 2a8c 015082E0 		add	r5, r2, r1
 2797 2a90 011086E0 		add	r1, r6, r1
 2798 2a94 58108DE5 		str	r1, [sp, #88]
 2799 2a98 14809DE5 		ldr	r8, [sp, #20]
 2800 2a9c 50A09DE5 		ldr	sl, [sp, #80]
 2801 2aa0 0430E0E1 		mvn	r3, r4
 2802 2aa4 58C09DE5 		ldr	ip, [sp, #88]
 2803 2aa8 0A1388E0 		add	r1, r8, sl, asl #6
 2804 2aac 44208DE5 		str	r2, [sp, #68]
 2805 2ab0 013003E2 		and	r3, r3, #1
 2806 2ab4 012004E2 		and	r2, r4, #1
 2807 2ab8 6C508DE5 		str	r5, [sp, #108]
 2808 2abc 0224A0E1 		mov	r2, r2, asl #8
 2809 2ac0 0334A0E1 		mov	r3, r3, asl #8
 2810 2ac4 301081E2 		add	r1, r1, #48
 2811 2ac8 1CC08CE2 		add	ip, ip, #28
 2812 2acc 1C208DE5 		str	r2, [sp, #28]
 2813 2ad0 20308DE5 		str	r3, [sp, #32]
 2814 2ad4 04108DE5 		str	r1, [sp, #4]
 2815 2ad8 28C08DE5 		str	ip, [sp, #40]
 2816 2adc 58E09DE5 		ldr	lr, [sp, #88]
 2817 2ae0 58009DE5 		ldr	r0, [sp, #88]
 2818 2ae4 58109DE5 		ldr	r1, [sp, #88]
 2819 2ae8 58209DE5 		ldr	r2, [sp, #88]
 2820 2aec 58309DE5 		ldr	r3, [sp, #88]
 2821 2af0 58409DE5 		ldr	r4, [sp, #88]
 2822 2af4 6C609DE5 		ldr	r6, [sp, #108]
 2823 2af8 6C809DE5 		ldr	r8, [sp, #108]
 2824 2afc 6CA09DE5 		ldr	sl, [sp, #108]
 2825 2b00 6CC09DE5 		ldr	ip, [sp, #108]
 2826 2b04 18E08EE2 		add	lr, lr, #24
 2827 2b08 140080E2 		add	r0, r0, #20
 2828 2b0c 101081E2 		add	r1, r1, #16
 2829 2b10 0C2082E2 		add	r2, r2, #12
 2830 2b14 083083E2 		add	r3, r3, #8
 2831 2b18 044084E2 		add	r4, r4, #4
 2832 2b1c 1C5085E2 		add	r5, r5, #28
 2833 2b20 186086E2 		add	r6, r6, #24
 2834 2b24 148088E2 		add	r8, r8, #20
 2835 2b28 10A08AE2 		add	sl, sl, #16
 2836 2b2c 0CC08CE2 		add	ip, ip, #12
 2837 2b30 2CE08DE5 		str	lr, [sp, #44]
 2838 2b34 30008DE5 		str	r0, [sp, #48]
 2839 2b38 34108DE5 		str	r1, [sp, #52]
 2840 2b3c 38208DE5 		str	r2, [sp, #56]
 2841 2b40 3C308DE5 		str	r3, [sp, #60]
 2842 2b44 40408DE5 		str	r4, [sp, #64]
 2843 2b48 70508DE5 		str	r5, [sp, #112]
 2844 2b4c 74608DE5 		str	r6, [sp, #116]
 2845 2b50 78808DE5 		str	r8, [sp, #120]
 2846 2b54 7CA08DE5 		str	sl, [sp, #124]
 2847 2b58 80C08DE5 		str	ip, [sp, #128]
 2848 2b5c 6CE09DE5 		ldr	lr, [sp, #108]
 2849 2b60 6C009DE5 		ldr	r0, [sp, #108]
 2850 2b64 18209DE5 		ldr	r2, [sp, #24]
ARM GAS  /cygdrive/c/DOCUME~1/mkwapisz/LOCALS~1/Temp/ccLlueLU.s 			page 51


 2851 2b68 08E08EE2 		add	lr, lr, #8
 2852 2b6c 040080E2 		add	r0, r0, #4
 2853 2b70 0010A0E3 		mov	r1, #0
 2854 2b74 84E08DE5 		str	lr, [sp, #132]
 2855 2b78 88008DE5 		str	r0, [sp, #136]
 2856 2b7c 4C108DE5 		str	r1, [sp, #76]
 2857 2b80 00208DE5 		str	r2, [sp, #0]
 2858 2b84 170200EA 		b	.L53
 2859              	.L54:
 2860 2b88 00309DE5 		ldr	r3, [sp, #0]
 2861 2b8c 1C408DE2 		add	r4, sp, #28
 2862 2b90 100194E8 		ldmia	r4, {r4, r8}	@ phole ldm
 2863 2b94 48A09DE5 		ldr	sl, [sp, #72]
 2864 2b98 045083E0 		add	r5, r3, r4
 2865 2b9c 086083E0 		add	r6, r3, r8
 2866 2ba0 AA10A0E1 		mov	r1, sl, lsr #1
 2867 2ba4 04009DE5 		ldr	r0, [sp, #4]
 2868 2ba8 0520A0E1 		mov	r2, r5
 2869 2bac 023C85E2 		add	r3, r5, #512
 2870 2bb0 48F5FFEB 		bl	dct32
 2871 2bb4 28C09DE5 		ldr	ip, [sp, #40]
 2872 2bb8 B220D6E1 		ldrh	r2, [r6, #2]
 2873 2bbc B030DCE1 		ldrh	r3, [ip, #0]
 2874 2bc0 92E3C1E0 		smull	lr, r1, r2, r3
 2875 2bc4 2EE8B0E1 		movs	lr, lr, lsr #16
 2876 2bc8 0108AEE0 		adc	r0, lr, r1, lsl #16
 2877 2bcc 2C409DE5 		ldr	r4, [sp, #44]
 2878 2bd0 00C09DE5 		ldr	ip, [sp, #0]
 2879 2bd4 20109DE5 		ldr	r1, [sp, #32]
 2880 2bd8 B420D6E1 		ldrh	r2, [r6, #4]
 2881 2bdc B030D4E1 		ldrh	r3, [r4, #0]
 2882 2be0 9283CAE0 		smull	r8, sl, r2, r3
 2883 2be4 2888B0E1 		movs	r8, r8, lsr #16
 2884 2be8 0AE8A8E0 		adc	lr, r8, sl, lsl #16
 2885 2bec 58409DE5 		ldr	r4, [sp, #88]
 2886 2bf0 B1209CE1 		ldrh	r2, [ip, r1]
 2887 2bf4 30C09DE5 		ldr	ip, [sp, #48]
 2888 2bf8 B030D4E1 		ldrh	r3, [r4, #0]
 2889 2bfc 9283CAE0 		smull	r8, sl, r2, r3
 2890 2c00 2888B0E1 		movs	r8, r8, lsr #16
 2891 2c04 0A18A8E0 		adc	r1, r8, sl, lsl #16
 2892 2c08 0008A0E1 		mov	r0, r0, asl #16
 2893 2c0c B620D6E1 		ldrh	r2, [r6, #6]
 2894 2c10 B030DCE1 		ldrh	r3, [ip, #0]
 2895 2c14 92C3C4E0 		smull	ip, r4, r2, r3
 2896 2c18 2CC8B0E1 		movs	ip, ip, lsr #16
 2897 2c1c 0438ACE0 		adc	r3, ip, r4, lsl #16
 2898 2c20 34809DE5 		ldr	r8, [sp, #52]
 2899 2c24 38409DE5 		ldr	r4, [sp, #56]
 2900 2c28 0EE8A0E1 		mov	lr, lr, asl #16
 2901 2c2c 0118A0E1 		mov	r1, r1, asl #16
 2902 2c30 0338A0E1 		mov	r3, r3, asl #16
 2903 2c34 4008A0E1 		mov	r0, r0, asr #16
 2904 2c38 4EE8A0E1 		mov	lr, lr, asr #16
 2905 2c3c B820D6E1 		ldrh	r2, [r6, #8]
 2906 2c40 410880E0 		add	r0, r0, r1, asr #16
 2907 2c44 43E88EE0 		add	lr, lr, r3, asr #16
ARM GAS  /cygdrive/c/DOCUME~1/mkwapisz/LOCALS~1/Temp/ccLlueLU.s 			page 52


 2908 2c48 B030D8E1 		ldrh	r3, [r8, #0]
 2909 2c4c 92A3CCE0 		smull	sl, ip, r2, r3
 2910 2c50 2AA8B0E1 		movs	sl, sl, lsr #16
 2911 2c54 0C18AAE0 		adc	r1, sl, ip, lsl #16
 2912 2c58 BA20D6E1 		ldrh	r2, [r6, #10]
 2913 2c5c B030D4E1 		ldrh	r3, [r4, #0]
 2914 2c60 92C3C8E0 		smull	ip, r8, r2, r3
 2915 2c64 2CC8B0E1 		movs	ip, ip, lsr #16
 2916 2c68 0838ACE0 		adc	r3, ip, r8, lsl #16
 2917 2c6c 3CA09DE5 		ldr	sl, [sp, #60]
 2918 2c70 40809DE5 		ldr	r8, [sp, #64]
 2919 2c74 0118A0E1 		mov	r1, r1, asl #16
 2920 2c78 0338A0E1 		mov	r3, r3, asl #16
 2921 2c7c BC20D6E1 		ldrh	r2, [r6, #12]
 2922 2c80 410880E0 		add	r0, r0, r1, asr #16
 2923 2c84 43E88EE0 		add	lr, lr, r3, asr #16
 2924 2c88 B030DAE1 		ldrh	r3, [sl, #0]
 2925 2c8c 92C3C1E0 		smull	ip, r1, r2, r3
 2926 2c90 2CC8B0E1 		movs	ip, ip, lsr #16
 2927 2c94 0148ACE0 		adc	r4, ip, r1, lsl #16
 2928 2c98 BE20D6E1 		ldrh	r2, [r6, #14]
 2929 2c9c B030D8E1 		ldrh	r3, [r8, #0]
 2930 2ca0 92A3CCE0 		smull	sl, ip, r2, r3
 2931 2ca4 2AA8B0E1 		movs	sl, sl, lsr #16
 2932 2ca8 0C18AAE0 		adc	r1, sl, ip, lsl #16
 2933 2cac 0118A0E1 		mov	r1, r1, asl #16
 2934 2cb0 41E88EE0 		add	lr, lr, r1, asr #16
 2935 2cb4 00309DE5 		ldr	r3, [sp, #0]
 2936 2cb8 1C809DE5 		ldr	r8, [sp, #28]
 2937 2cbc 6CA09DE5 		ldr	sl, [sp, #108]
 2938 2cc0 70109DE5 		ldr	r1, [sp, #112]
 2939 2cc4 0448A0E1 		mov	r4, r4, asl #16
 2940 2cc8 B82093E1 		ldrh	r2, [r3, r8]
 2941 2ccc 440880E0 		add	r0, r0, r4, asr #16
 2942 2cd0 B030DAE1 		ldrh	r3, [sl, #0]
 2943 2cd4 9283CAE0 		smull	r8, sl, r2, r3
 2944 2cd8 2888B0E1 		movs	r8, r8, lsr #16
 2945 2cdc 0AC8A8E0 		adc	ip, r8, sl, lsl #16
 2946 2ce0 B220D5E1 		ldrh	r2, [r5, #2]
 2947 2ce4 B030D1E1 		ldrh	r3, [r1, #0]
 2948 2ce8 9213C4E0 		smull	r1, r4, r2, r3
 2949 2cec 2118B0E1 		movs	r1, r1, lsr #16
 2950 2cf0 0438A1E0 		adc	r3, r1, r4, lsl #16
 2951 2cf4 74809DE5 		ldr	r8, [sp, #116]
 2952 2cf8 78409DE5 		ldr	r4, [sp, #120]
 2953 2cfc 0CC8A0E1 		mov	ip, ip, asl #16
 2954 2d00 0338A0E1 		mov	r3, r3, asl #16
 2955 2d04 4CC8A0E1 		mov	ip, ip, asr #16
 2956 2d08 B420D5E1 		ldrh	r2, [r5, #4]
 2957 2d0c 0E0080E0 		add	r0, r0, lr
 2958 2d10 43C88CE0 		add	ip, ip, r3, asr #16
 2959 2d14 B030D8E1 		ldrh	r3, [r8, #0]
 2960 2d18 92A3CEE0 		smull	sl, lr, r2, r3
 2961 2d1c 2AA8B0E1 		movs	sl, sl, lsr #16
 2962 2d20 0E18AAE0 		adc	r1, sl, lr, lsl #16
 2963 2d24 B620D5E1 		ldrh	r2, [r5, #6]
 2964 2d28 B030D4E1 		ldrh	r3, [r4, #0]
ARM GAS  /cygdrive/c/DOCUME~1/mkwapisz/LOCALS~1/Temp/ccLlueLU.s 			page 53


 2965 2d2c 92E3C8E0 		smull	lr, r8, r2, r3
 2966 2d30 2EE8B0E1 		movs	lr, lr, lsr #16
 2967 2d34 0838AEE0 		adc	r3, lr, r8, lsl #16
 2968 2d38 7CA09DE5 		ldr	sl, [sp, #124]
 2969 2d3c 80809DE5 		ldr	r8, [sp, #128]
 2970 2d40 0118A0E1 		mov	r1, r1, asl #16
 2971 2d44 0338A0E1 		mov	r3, r3, asl #16
 2972 2d48 B820D5E1 		ldrh	r2, [r5, #8]
 2973 2d4c 410860E0 		rsb	r0, r0, r1, asr #16
 2974 2d50 43C88CE0 		add	ip, ip, r3, asr #16
 2975 2d54 B030DAE1 		ldrh	r3, [sl, #0]
 2976 2d58 92E3C4E0 		smull	lr, r4, r2, r3
 2977 2d5c 2EE8B0E1 		movs	lr, lr, lsr #16
 2978 2d60 0418AEE0 		adc	r1, lr, r4, lsl #16
 2979 2d64 BA20D5E1 		ldrh	r2, [r5, #10]
 2980 2d68 B030D8E1 		ldrh	r3, [r8, #0]
 2981 2d6c 92E3CAE0 		smull	lr, sl, r2, r3
 2982 2d70 2EE8B0E1 		movs	lr, lr, lsr #16
 2983 2d74 0A38AEE0 		adc	r3, lr, sl, lsl #16
 2984 2d78 84E09DE5 		ldr	lr, [sp, #132]
 2985 2d7c 88A09DE5 		ldr	sl, [sp, #136]
 2986 2d80 0118A0E1 		mov	r1, r1, asl #16
 2987 2d84 0338A0E1 		mov	r3, r3, asl #16
 2988 2d88 BC20D5E1 		ldrh	r2, [r5, #12]
 2989 2d8c 410880E0 		add	r0, r0, r1, asr #16
 2990 2d90 43C88CE0 		add	ip, ip, r3, asr #16
 2991 2d94 B030DEE1 		ldrh	r3, [lr, #0]
 2992 2d98 9243C8E0 		smull	r4, r8, r2, r3
 2993 2d9c 2448B0E1 		movs	r4, r4, lsr #16
 2994 2da0 0818A4E0 		adc	r1, r4, r8, lsl #16
 2995 2da4 BE20D5E1 		ldrh	r2, [r5, #14]
 2996 2da8 B030DAE1 		ldrh	r3, [sl, #0]
 2997 2dac 92E3C4E0 		smull	lr, r4, r2, r3
 2998 2db0 2EE8B0E1 		movs	lr, lr, lsr #16
 2999 2db4 0438AEE0 		adc	r3, lr, r4, lsl #16
 3000 2db8 0118A0E1 		mov	r1, r1, asl #16
 3001 2dbc 0338A0E1 		mov	r3, r3, asl #16
 3002 2dc0 43C88CE0 		add	ip, ip, r3, asr #16
 3003 2dc4 410880E0 		add	r0, r0, r1, asr #16
 3004 2dc8 0C0080E0 		add	r0, r0, ip
 3005 2dcc 0008A0E1 		mov	r0, r0, asl #16
 3006 2dd0 4008A0E1 		mov	r0, r0, asr #16
 3007 2dd4 89F4FFEB 		bl	scale
 3008 2dd8 68608DE5 		str	r6, [sp, #104]
 3009 2ddc B03BDDE1 		ldrh	r3, [sp, #176]
 3010 2de0 68C09DE5 		ldr	ip, [sp, #104]
 3011 2de4 54869FE5 		ldr	r8, .L62
 3012 2de8 1CA087E2 		add	sl, r7, #28
 3013 2dec 003083E0 		add	r3, r3, r0
 3014 2df0 026C86E2 		add	r6, r6, #512
 3015 2df4 047087E2 		add	r7, r7, #4
 3016 2df8 83CF8CE2 		add	ip, ip, #524
 3017 2dfc B03BCDE1 		strh	r3, [sp, #176]	@ movhi
 3018 2e00 AC808DE5 		str	r8, [sp, #172]
 3019 2e04 60508DE5 		str	r5, [sp, #96]
 3020 2e08 64A08DE5 		str	sl, [sp, #100]
 3021 2e0c 54608DE5 		str	r6, [sp, #84]
ARM GAS  /cygdrive/c/DOCUME~1/mkwapisz/LOCALS~1/Temp/ccLlueLU.s 			page 54


 3022 2e10 5C708DE5 		str	r7, [sp, #92]
 3023 2e14 08C08DE5 		str	ip, [sp, #8]
 3024              	.L55:
 3025 2e18 68209DE5 		ldr	r2, [sp, #104]
 3026 2e1c 20369FE5 		ldr	r3, .L62+4
 3027 2e20 B33092E1 		ldrh	r3, [r2, r3]
 3028 2e24 A4308DE5 		str	r3, [sp, #164]
 3029 2e28 08309DE5 		ldr	r3, [sp, #8]
 3030 2e2c ACE09DE5 		ldr	lr, [sp, #172]
 3031 2e30 24009DE5 		ldr	r0, [sp, #36]
 3032 2e34 B83053E1 		ldrh	r3, [r3, #-8]
 3033 2e38 40E08EE2 		add	lr, lr, #64
 3034 2e3c 00108EE0 		add	r1, lr, r0
 3035 2e40 A0308DE5 		str	r3, [sp, #160]
 3036 2e44 ACE08DE5 		str	lr, [sp, #172]
 3037 2e48 BC31D1E1 		ldrh	r3, [r1, #28]
 3038 2e4c A4509DE5 		ldr	r5, [sp, #164]
 3039 2e50 9523C4E0 		smull	r2, r4, r5, r3
 3040 2e54 2228B0E1 		movs	r2, r2, lsr #16
 3041 2e58 0408A2E0 		adc	r0, r2, r4, lsl #16
 3042 2e5c A0809DE5 		ldr	r8, [sp, #160]
 3043 2e60 B831D1E1 		ldrh	r3, [r1, #24]
 3044 2e64 9823C6E0 		smull	r2, r6, r8, r3
 3045 2e68 2228B0E1 		movs	r2, r2, lsr #16
 3046 2e6c 06C8A2E0 		adc	ip, r2, r6, lsl #16
 3047 2e70 68A09DE5 		ldr	sl, [sp, #104]
 3048 2e74 08E09DE5 		ldr	lr, [sp, #8]
 3049 2e78 C8359FE5 		ldr	r3, .L62+8
 3050 2e7c BCE05EE1 		ldrh	lr, [lr, #-12]
 3051 2e80 B3309AE1 		ldrh	r3, [sl, r3]
 3052 2e84 AC609DE5 		ldr	r6, [sp, #172]
 3053 2e88 24809DE5 		ldr	r8, [sp, #36]
 3054 2e8c 9C308DE5 		str	r3, [sp, #156]
 3055 2e90 A8E08DE5 		str	lr, [sp, #168]
 3056 2e94 0008A0E1 		mov	r0, r0, asl #16
 3057 2e98 B431D1E1 		ldrh	r3, [r1, #20]
 3058 2e9c 9C509DE5 		ldr	r5, [sp, #156]
 3059 2ea0 95E3C4E0 		smull	lr, r4, r5, r3
 3060 2ea4 2EE8B0E1 		movs	lr, lr, lsr #16
 3061 2ea8 0428AEE0 		adc	r2, lr, r4, lsl #16
 3062 2eac A8A09DE5 		ldr	sl, [sp, #168]
 3063 2eb0 B83096E1 		ldrh	r3, [r6, r8]
 3064 2eb4 9A43CEE0 		smull	r4, lr, sl, r3
 3065 2eb8 2448B0E1 		movs	r4, r4, lsr #16
 3066 2ebc 0E38A4E0 		adc	r3, r4, lr, lsl #16
 3067 2ec0 4008A0E1 		mov	r0, r0, asr #16
 3068 2ec4 0338A0E1 		mov	r3, r3, asl #16
 3069 2ec8 68E09DE5 		ldr	lr, [sp, #104]
 3070 2ecc 430880E0 		add	r0, r0, r3, asr #16
 3071 2ed0 74359FE5 		ldr	r3, .L62+12
 3072 2ed4 B3309EE1 		ldrh	r3, [lr, r3]
 3073 2ed8 94308DE5 		str	r3, [sp, #148]
 3074 2edc 08309DE5 		ldr	r3, [sp, #8]
 3075 2ee0 0CC8A0E1 		mov	ip, ip, asl #16
 3076 2ee4 B43053E1 		ldrh	r3, [r3, #-4]
 3077 2ee8 0228A0E1 		mov	r2, r2, asl #16
 3078 2eec 4CC8A0E1 		mov	ip, ip, asr #16
ARM GAS  /cygdrive/c/DOCUME~1/mkwapisz/LOCALS~1/Temp/ccLlueLU.s 			page 55


 3079 2ef0 42C88CE0 		add	ip, ip, r2, asr #16
 3080 2ef4 44209DE5 		ldr	r2, [sp, #68]
 3081 2ef8 98308DE5 		str	r3, [sp, #152]
 3082 2efc 024086E0 		add	r4, r6, r2
 3083 2f00 B031D1E1 		ldrh	r3, [r1, #16]
 3084 2f04 98609DE5 		ldr	r6, [sp, #152]
 3085 2f08 96E3C5E0 		smull	lr, r5, r6, r3
 3086 2f0c 2EE8B0E1 		movs	lr, lr, lsr #16
 3087 2f10 0528AEE0 		adc	r2, lr, r5, lsl #16
 3088 2f14 94809DE5 		ldr	r8, [sp, #148]
 3089 2f18 BC30D1E1 		ldrh	r3, [r1, #12]
 3090 2f1c 9853CEE0 		smull	r5, lr, r8, r3
 3091 2f20 2558B0E1 		movs	r5, r5, lsr #16
 3092 2f24 0E38A5E0 		adc	r3, r5, lr, lsl #16
 3093 2f28 0338A0E1 		mov	r3, r3, asl #16
 3094 2f2c 68A09DE5 		ldr	sl, [sp, #104]
 3095 2f30 43C88CE0 		add	ip, ip, r3, asr #16
 3096 2f34 14359FE5 		ldr	r3, .L62+16
 3097 2f38 B3309AE1 		ldrh	r3, [sl, r3]
 3098 2f3c 8C308DE5 		str	r3, [sp, #140]
 3099 2f40 08A09DE5 		ldr	sl, [sp, #8]
 3100 2f44 0228A0E1 		mov	r2, r2, asl #16
 3101 2f48 B430D1E1 		ldrh	r3, [r1, #4]
 3102 2f4c 60809DE5 		ldr	r8, [sp, #96]
 3103 2f50 420880E0 		add	r0, r0, r2, asr #16
 3104 2f54 8C609DE5 		ldr	r6, [sp, #140]
 3105 2f58 9623C5E0 		smull	r2, r5, r6, r3
 3106 2f5c 2228B0E1 		movs	r2, r2, lsr #16
 3107 2f60 05E8A2E0 		adc	lr, r2, r5, lsl #16
 3108 2f64 B021DAE0 		ldrh	r2, [sl], #16
 3109 2f68 BEB1D8E1 		ldrh	fp, [r8, #30]
 3110 2f6c B830D1E1 		ldrh	r3, [r1, #8]
 3111 2f70 0EE8A0E1 		mov	lr, lr, asl #16
 3112 2f74 90208DE5 		str	r2, [sp, #144]
 3113 2f78 9213C5E0 		smull	r1, r5, r2, r3
 3114 2f7c 2118B0E1 		movs	r1, r1, lsr #16
 3115 2f80 0528A1E0 		adc	r2, r1, r5, lsl #16
 3116 2f84 B430D4E1 		ldrh	r3, [r4, #4]
 3117 2f88 9B53C6E0 		smull	r5, r6, fp, r3
 3118 2f8c 2558B0E1 		movs	r5, r5, lsr #16
 3119 2f90 0618A5E0 		adc	r1, r5, r6, lsl #16
 3120 2f94 0228A0E1 		mov	r2, r2, asl #16
 3121 2f98 0118A0E1 		mov	r1, r1, asl #16
 3122 2f9c BC91D8E1 		ldrh	r9, [r8, #28]
 3123 2fa0 B830D4E1 		ldrh	r3, [r4, #8]
 3124 2fa4 4EC88CE0 		add	ip, ip, lr, asr #16
 3125 2fa8 420880E0 		add	r0, r0, r2, asr #16
 3126 2fac 4118A0E1 		mov	r1, r1, asr #16
 3127 2fb0 99E3C2E0 		smull	lr, r2, r9, r3
 3128 2fb4 2EE8B0E1 		movs	lr, lr, lsr #16
 3129 2fb8 0238AEE0 		adc	r3, lr, r2, lsl #16
 3130 2fbc 0338A0E1 		mov	r3, r3, asl #16
 3131 2fc0 08A08DE5 		str	sl, [sp, #8]
 3132 2fc4 0C0080E0 		add	r0, r0, ip
 3133 2fc8 BAA1D8E1 		ldrh	sl, [r8, #26]
 3134 2fcc 431881E0 		add	r1, r1, r3, asr #16
 3135 2fd0 BC30D4E1 		ldrh	r3, [r4, #12]
ARM GAS  /cygdrive/c/DOCUME~1/mkwapisz/LOCALS~1/Temp/ccLlueLU.s 			page 56


 3136 2fd4 9AC3CEE0 		smull	ip, lr, sl, r3
 3137 2fd8 2CC8B0E1 		movs	ip, ip, lsr #16
 3138 2fdc 0E28ACE0 		adc	r2, ip, lr, lsl #16
 3139 2fe0 0228A0E1 		mov	r2, r2, asl #16
 3140 2fe4 420860E0 		rsb	r0, r0, r2, asr #16
 3141 2fe8 60209DE5 		ldr	r2, [sp, #96]
 3142 2fec B881D8E1 		ldrh	r8, [r8, #24]
 3143 2ff0 B031D4E1 		ldrh	r3, [r4, #16]
 3144 2ff4 98E3CCE0 		smull	lr, ip, r8, r3
 3145 2ff8 2EE8B0E1 		movs	lr, lr, lsr #16
 3146 2ffc 0C38AEE0 		adc	r3, lr, ip, lsl #16
 3147 3000 0338A0E1 		mov	r3, r3, asl #16
 3148 3004 B461D2E1 		ldrh	r6, [r2, #20]
 3149 3008 B671D2E1 		ldrh	r7, [r2, #22]
 3150 300c 431881E0 		add	r1, r1, r3, asr #16
 3151 3010 B431D4E1 		ldrh	r3, [r4, #20]
 3152 3014 97C3C5E0 		smull	ip, r5, r7, r3
 3153 3018 2CC8B0E1 		movs	ip, ip, lsr #16
 3154 301c 0528ACE0 		adc	r2, ip, r5, lsl #16
 3155 3020 B831D4E1 		ldrh	r3, [r4, #24]
 3156 3024 96E3CCE0 		smull	lr, ip, r6, r3
 3157 3028 2EE8B0E1 		movs	lr, lr, lsr #16
 3158 302c 0C38AEE0 		adc	r3, lr, ip, lsl #16
 3159 3030 60C09DE5 		ldr	ip, [sp, #96]
 3160 3034 0228A0E1 		mov	r2, r2, asl #16
 3161 3038 0338A0E1 		mov	r3, r3, asl #16
 3162 303c 420880E0 		add	r0, r0, r2, asr #16
 3163 3040 431881E0 		add	r1, r1, r3, asr #16
 3164 3044 BC31D4E1 		ldrh	r3, [r4, #28]
 3165 3048 B241DCE1 		ldrh	r4, [ip, #18]
 3166 304c 94C3CEE0 		smull	ip, lr, r4, r3
 3167 3050 2CC8B0E1 		movs	ip, ip, lsr #16
 3168 3054 0E28ACE0 		adc	r2, ip, lr, lsl #16
 3169 3058 60309DE5 		ldr	r3, [sp, #96]
 3170 305c ACC09DE5 		ldr	ip, [sp, #172]
 3171 3060 B051F3E1 		ldrh	r5, [r3, #16]!
 3172 3064 44E09DE5 		ldr	lr, [sp, #68]
 3173 3068 0228A0E1 		mov	r2, r2, asl #16
 3174 306c 60308DE5 		str	r3, [sp, #96]
 3175 3070 BE309CE1 		ldrh	r3, [ip, lr]
 3176 3074 95E3CCE0 		smull	lr, ip, r5, r3
 3177 3078 2EE8B0E1 		movs	lr, lr, lsr #16
 3178 307c 0C38AEE0 		adc	r3, lr, ip, lsl #16
 3179 3080 0338A0E1 		mov	r3, r3, asl #16
 3180 3084 431881E0 		add	r1, r1, r3, asr #16
 3181 3088 420880E0 		add	r0, r0, r2, asr #16
 3182 308c 010080E0 		add	r0, r0, r1
 3183 3090 0008A0E1 		mov	r0, r0, asl #16
 3184 3094 4008A0E1 		mov	r0, r0, asr #16
 3185 3098 D8F3FFEB 		bl	scale
 3186 309c AC109DE5 		ldr	r1, [sp, #172]
 3187 30a0 44209DE5 		ldr	r2, [sp, #68]
 3188 30a4 01E062E0 		rsb	lr, r2, r1
 3189 30a8 B232DEE1 		ldrh	r3, [lr, #34]
 3190 30ac 9423CCE0 		smull	r2, ip, r4, r3
 3191 30b0 2228B0E1 		movs	r2, r2, lsr #16
 3192 30b4 0C18A2E0 		adc	r1, r2, ip, lsl #16
ARM GAS  /cygdrive/c/DOCUME~1/mkwapisz/LOCALS~1/Temp/ccLlueLU.s 			page 57


 3193 30b8 B632DEE1 		ldrh	r3, [lr, #38]
 3194 30bc 9623C4E0 		smull	r2, r4, r6, r3
 3195 30c0 2228B0E1 		movs	r2, r2, lsr #16
 3196 30c4 04C8A2E0 		adc	ip, r2, r4, lsl #16
 3197 30c8 0118A0E1 		mov	r1, r1, asl #16
 3198 30cc 0CC8A0E1 		mov	ip, ip, asl #16
 3199 30d0 BE31DEE1 		ldrh	r3, [lr, #30]
 3200 30d4 9543C6E0 		smull	r4, r6, r5, r3
 3201 30d8 2448B0E1 		movs	r4, r4, lsr #16
 3202 30dc 0628A4E0 		adc	r2, r4, r6, lsl #16
 3203 30e0 4118A0E1 		mov	r1, r1, asr #16
 3204 30e4 BA32DEE1 		ldrh	r3, [lr, #42]
 3205 30e8 9753C4E0 		smull	r5, r4, r7, r3
 3206 30ec 2558B0E1 		movs	r5, r5, lsr #16
 3207 30f0 0438A5E0 		adc	r3, r5, r4, lsl #16
 3208 30f4 0228A0E1 		mov	r2, r2, asl #16
 3209 30f8 0338A0E1 		mov	r3, r3, asl #16
 3210 30fc 4CC8A0E1 		mov	ip, ip, asr #16
 3211 3100 421881E0 		add	r1, r1, r2, asr #16
 3212 3104 43C88CE0 		add	ip, ip, r3, asr #16
 3213 3108 BE32DEE1 		ldrh	r3, [lr, #46]
 3214 310c 9843C5E0 		smull	r4, r5, r8, r3
 3215 3110 2448B0E1 		movs	r4, r4, lsr #16
 3216 3114 0528A4E0 		adc	r2, r4, r5, lsl #16
 3217 3118 B233DEE1 		ldrh	r3, [lr, #50]
 3218 311c 9A53C4E0 		smull	r5, r4, sl, r3
 3219 3120 2558B0E1 		movs	r5, r5, lsr #16
 3220 3124 0438A5E0 		adc	r3, r5, r4, lsl #16
 3221 3128 AC809DE5 		ldr	r8, [sp, #172]
 3222 312c 24A09DE5 		ldr	sl, [sp, #36]
 3223 3130 0228A0E1 		mov	r2, r2, asl #16
 3224 3134 0338A0E1 		mov	r3, r3, asl #16
 3225 3138 421881E0 		add	r1, r1, r2, asr #16
 3226 313c 43C88CE0 		add	ip, ip, r3, asr #16
 3227 3140 BA33DEE1 		ldrh	r3, [lr, #58]
 3228 3144 9B43C6E0 		smull	r4, r6, fp, r3
 3229 3148 2448B0E1 		movs	r4, r4, lsr #16
 3230 314c 0628A4E0 		adc	r2, r4, r6, lsl #16
 3231 3150 08406AE0 		rsb	r4, sl, r8
 3232 3154 B633DEE1 		ldrh	r3, [lr, #54]
 3233 3158 9953CEE0 		smull	r5, lr, r9, r3
 3234 315c 2558B0E1 		movs	r5, r5, lsr #16
 3235 3160 0E38A5E0 		adc	r3, r5, lr, lsl #16
 3236 3164 0228A0E1 		mov	r2, r2, asl #16
 3237 3168 0338A0E1 		mov	r3, r3, asl #16
 3238 316c 431881E0 		add	r1, r1, r3, asr #16
 3239 3170 42C88CE0 		add	ip, ip, r2, asr #16
 3240 3174 BA33D4E1 		ldrh	r3, [r4, #58]
 3241 3178 8C609DE5 		ldr	r6, [sp, #140]
 3242 317c 96E3C5E0 		smull	lr, r5, r6, r3
 3243 3180 2EE8B0E1 		movs	lr, lr, lsr #16
 3244 3184 0528AEE0 		adc	r2, lr, r5, lsl #16
 3245 3188 90809DE5 		ldr	r8, [sp, #144]
 3246 318c B633D4E1 		ldrh	r3, [r4, #54]
 3247 3190 9853CEE0 		smull	r5, lr, r8, r3
 3248 3194 2558B0E1 		movs	r5, r5, lsr #16
 3249 3198 0E38A5E0 		adc	r3, r5, lr, lsl #16
ARM GAS  /cygdrive/c/DOCUME~1/mkwapisz/LOCALS~1/Temp/ccLlueLU.s 			page 58


 3250 319c 0228A0E1 		mov	r2, r2, asl #16
 3251 31a0 0338A0E1 		mov	r3, r3, asl #16
 3252 31a4 421881E0 		add	r1, r1, r2, asr #16
 3253 31a8 43C88CE0 		add	ip, ip, r3, asr #16
 3254 31ac 94509DE5 		ldr	r5, [sp, #148]
 3255 31b0 B233D4E1 		ldrh	r3, [r4, #50]
 3256 31b4 95E3CAE0 		smull	lr, sl, r5, r3
 3257 31b8 2EE8B0E1 		movs	lr, lr, lsr #16
 3258 31bc 0A28AEE0 		adc	r2, lr, sl, lsl #16
 3259 31c0 98609DE5 		ldr	r6, [sp, #152]
 3260 31c4 BE32D4E1 		ldrh	r3, [r4, #46]
 3261 31c8 9653CEE0 		smull	r5, lr, r6, r3
 3262 31cc 2558B0E1 		movs	r5, r5, lsr #16
 3263 31d0 0E38A5E0 		adc	r3, r5, lr, lsl #16
 3264 31d4 0228A0E1 		mov	r2, r2, asl #16
 3265 31d8 0338A0E1 		mov	r3, r3, asl #16
 3266 31dc 421881E0 		add	r1, r1, r2, asr #16
 3267 31e0 43C88CE0 		add	ip, ip, r3, asr #16
 3268 31e4 9CA09DE5 		ldr	sl, [sp, #156]
 3269 31e8 BA32D4E1 		ldrh	r3, [r4, #42]
 3270 31ec 9AE3C8E0 		smull	lr, r8, sl, r3
 3271 31f0 2EE8B0E1 		movs	lr, lr, lsr #16
 3272 31f4 0828AEE0 		adc	r2, lr, r8, lsl #16
 3273 31f8 A0609DE5 		ldr	r6, [sp, #160]
 3274 31fc B632D4E1 		ldrh	r3, [r4, #38]
 3275 3200 9653CEE0 		smull	r5, lr, r6, r3
 3276 3204 2558B0E1 		movs	r5, r5, lsr #16
 3277 3208 0E38A5E0 		adc	r3, r5, lr, lsl #16
 3278 320c 0228A0E1 		mov	r2, r2, asl #16
 3279 3210 5C609DE5 		ldr	r6, [sp, #92]
 3280 3214 0338A0E1 		mov	r3, r3, asl #16
 3281 3218 421881E0 		add	r1, r1, r2, asr #16
 3282 321c 43C88CE0 		add	ip, ip, r3, asr #16
 3283 3220 A8A09DE5 		ldr	sl, [sp, #168]
 3284 3224 BE31D4E1 		ldrh	r3, [r4, #30]
 3285 3228 9AE3C8E0 		smull	lr, r8, sl, r3
 3286 322c 2EE8B0E1 		movs	lr, lr, lsr #16
 3287 3230 0828AEE0 		adc	r2, lr, r8, lsl #16
 3288 3234 A4509DE5 		ldr	r5, [sp, #164]
 3289 3238 0228A0E1 		mov	r2, r2, asl #16
 3290 323c B232D4E1 		ldrh	r3, [r4, #34]
 3291 3240 9543CEE0 		smull	r4, lr, r5, r3
 3292 3244 2448B0E1 		movs	r4, r4, lsr #16
 3293 3248 0E38A4E0 		adc	r3, r4, lr, lsl #16
 3294 324c 0338A0E1 		mov	r3, r3, asl #16
 3295 3250 42C88CE0 		add	ip, ip, r2, asr #16
 3296 3254 431881E0 		add	r1, r1, r3, asr #16
 3297 3258 B23056E1 		ldrh	r3, [r6, #-2]
 3298 325c 0C1081E0 		add	r1, r1, ip
 3299 3260 003083E0 		add	r3, r3, r0
 3300 3264 0118A0E1 		mov	r1, r1, asl #16
 3301 3268 B23046E1 		strh	r3, [r6, #-2]	@ movhi
 3302 326c 4108A0E1 		mov	r0, r1, asr #16
 3303 3270 62F3FFEB 		bl	scale
 3304 3274 64809DE5 		ldr	r8, [sp, #100]
 3305 3278 B230D8E1 		ldrh	r3, [r8, #2]
 3306 327c 68C09DE5 		ldr	ip, [sp, #104]
ARM GAS  /cygdrive/c/DOCUME~1/mkwapisz/LOCALS~1/Temp/ccLlueLU.s 			page 59


 3307 3280 CC219FE5 		ldr	r2, .L62+20
 3308 3284 ACA09DE5 		ldr	sl, [sp, #172]
 3309 3288 003083E0 		add	r3, r3, r0
 3310 328c B230C8E1 		strh	r3, [r8, #2]	@ movhi
 3311 3290 026086E2 		add	r6, r6, #2
 3312 3294 028048E2 		sub	r8, r8, #2
 3313 3298 10C08CE2 		add	ip, ip, #16
 3314 329c 02005AE1 		cmp	sl, r2
 3315 32a0 5C608DE5 		str	r6, [sp, #92]
 3316 32a4 64808DE5 		str	r8, [sp, #100]
 3317 32a8 68C08DE5 		str	ip, [sp, #104]
 3318 32ac D9FEFF1A 		bne	.L55
 3319 32b0 24E09DE5 		ldr	lr, [sp, #36]
 3320 32b4 54009DE5 		ldr	r0, [sp, #84]
 3321 32b8 40108AE2 		add	r1, sl, #64
 3322 32bc 01408EE0 		add	r4, lr, r1
 3323 32c0 F0E080E2 		add	lr, r0, #240
 3324 32c4 B220DEE1 		ldrh	r2, [lr, #2]
 3325 32c8 BC31D4E1 		ldrh	r3, [r4, #28]
 3326 32cc 9253C6E0 		smull	r5, r6, r2, r3
 3327 32d0 2558B0E1 		movs	r5, r5, lsr #16
 3328 32d4 0608A5E0 		adc	r0, r5, r6, lsl #16
 3329 32d8 B420DEE1 		ldrh	r2, [lr, #4]
 3330 32dc B831D4E1 		ldrh	r3, [r4, #24]
 3331 32e0 9283CAE0 		smull	r8, sl, r2, r3
 3332 32e4 2888B0E1 		movs	r8, r8, lsr #16
 3333 32e8 0AC8A8E0 		adc	ip, r8, sl, lsl #16
 3334 32ec 54509DE5 		ldr	r5, [sp, #84]
 3335 32f0 24309DE5 		ldr	r3, [sp, #36]
 3336 32f4 0008A0E1 		mov	r0, r0, asl #16
 3337 32f8 0CC8A0E1 		mov	ip, ip, asl #16
 3338 32fc B12093E1 		ldrh	r2, [r3, r1]
 3339 3300 4008A0E1 		mov	r0, r0, asr #16
 3340 3304 B03FD5E1 		ldrh	r3, [r5, #240]
 3341 3308 9362C8E0 		smull	r6, r8, r3, r2
 3342 330c 2668B0E1 		movs	r6, r6, lsr #16
 3343 3310 0818A6E0 		adc	r1, r6, r8, lsl #16
 3344 3314 4CC8A0E1 		mov	ip, ip, asr #16
 3345 3318 B620DEE1 		ldrh	r2, [lr, #6]
 3346 331c 0118A0E1 		mov	r1, r1, asl #16
 3347 3320 B431D4E1 		ldrh	r3, [r4, #20]
 3348 3324 9253CAE0 		smull	r5, sl, r2, r3
 3349 3328 2558B0E1 		movs	r5, r5, lsr #16
 3350 332c 0A38A5E0 		adc	r3, r5, sl, lsl #16
 3351 3330 0338A0E1 		mov	r3, r3, asl #16
 3352 3334 B820DEE1 		ldrh	r2, [lr, #8]
 3353 3338 410880E0 		add	r0, r0, r1, asr #16
 3354 333c 43C88CE0 		add	ip, ip, r3, asr #16
 3355 3340 B031D4E1 		ldrh	r3, [r4, #16]
 3356 3344 9253C6E0 		smull	r5, r6, r2, r3
 3357 3348 2558B0E1 		movs	r5, r5, lsr #16
 3358 334c 0618A5E0 		adc	r1, r5, r6, lsl #16
 3359 3350 BA20DEE1 		ldrh	r2, [lr, #10]
 3360 3354 0118A0E1 		mov	r1, r1, asl #16
 3361 3358 BC30D4E1 		ldrh	r3, [r4, #12]
 3362 335c 9253C8E0 		smull	r5, r8, r2, r3
 3363 3360 2558B0E1 		movs	r5, r5, lsr #16
ARM GAS  /cygdrive/c/DOCUME~1/mkwapisz/LOCALS~1/Temp/ccLlueLU.s 			page 60


 3364 3364 0838A5E0 		adc	r3, r5, r8, lsl #16
 3365 3368 0338A0E1 		mov	r3, r3, asl #16
 3366 336c BE20DEE1 		ldrh	r2, [lr, #14]
 3367 3370 410880E0 		add	r0, r0, r1, asr #16
 3368 3374 43C88CE0 		add	ip, ip, r3, asr #16
 3369 3378 B430D4E1 		ldrh	r3, [r4, #4]
 3370 337c 92A3C5E0 		smull	sl, r5, r2, r3
 3371 3380 2AA8B0E1 		movs	sl, sl, lsr #16
 3372 3384 0518AAE0 		adc	r1, sl, r5, lsl #16
 3373 3388 BC20DEE1 		ldrh	r2, [lr, #12]
 3374 338c 0118A0E1 		mov	r1, r1, asl #16
 3375 3390 B830D4E1 		ldrh	r3, [r4, #8]
 3376 3394 92E3C6E0 		smull	lr, r6, r2, r3
 3377 3398 2EE8B0E1 		movs	lr, lr, lsr #16
 3378 339c 0638AEE0 		adc	r3, lr, r6, lsl #16
 3379 33a0 0338A0E1 		mov	r3, r3, asl #16
 3380 33a4 430880E0 		add	r0, r0, r3, asr #16
 3381 33a8 41C88CE0 		add	ip, ip, r1, asr #16
 3382 33ac 0C0080E0 		add	r0, r0, ip
 3383 33b0 000060E2 		rsb	r0, r0, #0
 3384 33b4 0008A0E1 		mov	r0, r0, asl #16
 3385 33b8 4008A0E1 		mov	r0, r0, asr #16
 3386 33bc 0FF3FFEB 		bl	scale
 3387 33c0 B03DDDE1 		ldrh	r3, [sp, #208]
 3388 33c4 4C809DE5 		ldr	r8, [sp, #76]
 3389 33c8 00149DE8 		ldmia	sp, {sl, ip}	@ phole ldm
 3390 33cc 003083E0 		add	r3, r3, r0
 3391 33d0 018088E2 		add	r8, r8, #1
 3392 33d4 01AB8AE2 		add	sl, sl, #1024
 3393 33d8 09CC8CE2 		add	ip, ip, #2304
 3394 33dc B03DCDE1 		strh	r3, [sp, #208]	@ movhi
 3395 33e0 4C808DE5 		str	r8, [sp, #76]
 3396 33e4 00148DE8 		stmia	sp, {sl, ip}	@ phole stm
 3397              	.L53:
 3398 33e8 4CE09DE5 		ldr	lr, [sp, #76]
 3399 33ec 10009DE5 		ldr	r0, [sp, #16]
 3400 33f0 00005EE1 		cmp	lr, r0
 3401 33f4 B0708DE2 		add	r7, sp, #176
 3402 33f8 E2FDFF1A 		bne	.L54
 3403 33fc 1010A0E3 		mov	r1, #16
 3404 3400 0700A0E1 		mov	r0, r7
 3405 3404 FEFFFFEB 		bl	render_sample_block
 3406 3408 48109DE5 		ldr	r1, [sp, #72]
 3407 340c 50209DE5 		ldr	r2, [sp, #80]
 3408 3410 013081E2 		add	r3, r1, #1
 3409 3414 0F3003E2 		and	r3, r3, #15
 3410 3418 012082E2 		add	r2, r2, #1
 3411 341c 48308DE5 		str	r3, [sp, #72]
 3412 3420 50208DE5 		str	r2, [sp, #80]
 3413              	.L51:
 3414 3424 50309DE5 		ldr	r3, [sp, #80]
 3415 3428 0C409DE5 		ldr	r4, [sp, #12]
 3416 342c 040053E1 		cmp	r3, r4
 3417 3430 86FDFF1A 		bne	.L52
 3418 3434 D0D08DE2 		add	sp, sp, #208
 3419 3438 F04FBDE8 		ldmfd	sp!, {r4, r5, r6, r7, r8, r9, sl, fp, lr}
 3420 343c 1EFF2FE1 		bx	lr
ARM GAS  /cygdrive/c/DOCUME~1/mkwapisz/LOCALS~1/Temp/ccLlueLU.s 			page 61


 3421              	.L63:
 3422              		.align	2
 3423              	.L62:
 3424 3440 00000000 		.word	D
 3425 3444 02020000 		.word	514
 3426 3448 06020000 		.word	518
 3427 344c 0A020000 		.word	522
 3428 3450 0E020000 		.word	526
 3429 3454 C0030000 		.word	D+960
 3430              		.size	synth_half, .-synth_half
 3431              		.align	2
 3432              		.type	synth_full, %function
 3433              	synth_full:
 3434              		@ Function supports interworking.
 3435              		@ args = 0, pretend = 0, frame = 224
 3436              		@ frame_needed = 0, uses_anonymous_args = 0
 3437 3458 F04F2DE9 		stmfd	sp!, {r4, r5, r6, r7, r8, r9, sl, fp, lr}
 3438 345c E0D04DE2 		sub	sp, sp, #224
 3439 3460 24008DE5 		str	r0, [sp, #36]
 3440 3464 000890E5 		ldr	r0, [r0, #2048]
 3441 3468 20108DE5 		str	r1, [sp, #32]
 3442 346c 0010A0E3 		mov	r1, #0
 3443 3470 58008DE5 		str	r0, [sp, #88]
 3444 3474 1C208DE5 		str	r2, [sp, #28]
 3445 3478 18308DE5 		str	r3, [sp, #24]
 3446 347c 720200EA 		b	.L76
 3447              	.L66:
 3448 3480 0010A0E3 		mov	r1, #0
 3449 3484 4020A0E3 		mov	r2, #64
 3450 3488 A0008DE2 		add	r0, sp, #160
 3451 348c FEFFFFEB 		bl	memset
 3452 3490 58209DE5 		ldr	r2, [sp, #88]
 3453 3494 013042E2 		sub	r3, r2, #1
 3454 3498 0F3003E2 		and	r3, r3, #15
 3455 349c 013083E3 		orr	r3, r3, #1
 3456 34a0 0120C2E3 		bic	r2, r2, #1
 3457 34a4 8330A0E1 		mov	r3, r3, asl #1
 3458 34a8 8220A0E1 		mov	r2, r2, asl #1
 3459 34ac 34308DE5 		str	r3, [sp, #52]
 3460 34b0 54208DE5 		str	r2, [sp, #84]
 3461 34b4 58309DE5 		ldr	r3, [sp, #88]
 3462 34b8 34509DE5 		ldr	r5, [sp, #52]
 3463 34bc A8199FE5 		ldr	r1, .L77
 3464 34c0 54409DE5 		ldr	r4, [sp, #84]
 3465 34c4 0320E0E1 		mvn	r2, r3
 3466 34c8 60609DE5 		ldr	r6, [sp, #96]
 3467 34cc 014084E0 		add	r4, r4, r1
 3468 34d0 012002E2 		and	r2, r2, #1
 3469 34d4 011085E0 		add	r1, r5, r1
 3470 34d8 78408DE5 		str	r4, [sp, #120]
 3471 34dc 64108DE5 		str	r1, [sp, #100]
 3472 34e0 1C8081E2 		add	r8, r1, #28
 3473 34e4 18A081E2 		add	sl, r1, #24
 3474 34e8 14C081E2 		add	ip, r1, #20
 3475 34ec 0224A0E1 		mov	r2, r2, asl #8
 3476 34f0 0663A0E1 		mov	r6, r6, asl #6
 3477 34f4 0C0081E2 		add	r0, r1, #12
ARM GAS  /cygdrive/c/DOCUME~1/mkwapisz/LOCALS~1/Temp/ccLlueLU.s 			page 62


 3478 34f8 30208DE5 		str	r2, [sp, #48]
 3479 34fc 28608DE5 		str	r6, [sp, #40]
 3480 3500 38808DE5 		str	r8, [sp, #56]
 3481 3504 3CA08DE5 		str	sl, [sp, #60]
 3482 3508 40C08DE5 		str	ip, [sp, #64]
 3483 350c 64209DE5 		ldr	r2, [sp, #100]
 3484 3510 78509DE5 		ldr	r5, [sp, #120]
 3485 3514 78609DE5 		ldr	r6, [sp, #120]
 3486 3518 78809DE5 		ldr	r8, [sp, #120]
 3487 351c 78A09DE5 		ldr	sl, [sp, #120]
 3488 3520 78C09DE5 		ldr	ip, [sp, #120]
 3489 3524 013003E2 		and	r3, r3, #1
 3490 3528 10E081E2 		add	lr, r1, #16
 3491 352c 0334A0E1 		mov	r3, r3, asl #8
 3492 3530 48008DE5 		str	r0, [sp, #72]
 3493 3534 24009DE5 		ldr	r0, [sp, #36]
 3494 3538 2C308DE5 		str	r3, [sp, #44]
 3495 353c 44E08DE5 		str	lr, [sp, #68]
 3496 3540 1C3084E2 		add	r3, r4, #28
 3497 3544 081081E2 		add	r1, r1, #8
 3498 3548 042082E2 		add	r2, r2, #4
 3499 354c 184084E2 		add	r4, r4, #24
 3500 3550 145085E2 		add	r5, r5, #20
 3501 3554 106086E2 		add	r6, r6, #16
 3502 3558 0C8088E2 		add	r8, r8, #12
 3503 355c 08A08AE2 		add	sl, sl, #8
 3504 3560 04C08CE2 		add	ip, ip, #4
 3505 3564 00E0A0E3 		mov	lr, #0
 3506 3568 4C108DE5 		str	r1, [sp, #76]
 3507 356c 50208DE5 		str	r2, [sp, #80]
 3508 3570 7C308DE5 		str	r3, [sp, #124]
 3509 3574 80408DE5 		str	r4, [sp, #128]
 3510 3578 84508DE5 		str	r5, [sp, #132]
 3511 357c 88608DE5 		str	r6, [sp, #136]
 3512 3580 8C808DE5 		str	r8, [sp, #140]
 3513 3584 90A08DE5 		str	sl, [sp, #144]
 3514 3588 94C08DE5 		str	ip, [sp, #148]
 3515 358c 5CE08DE5 		str	lr, [sp, #92]
 3516 3590 00008DE5 		str	r0, [sp, #0]
 3517 3594 1E0200EA 		b	.L67
 3518              	.L68:
 3519 3598 5C009DE5 		ldr	r0, [sp, #92]
 3520 359c 093CA0E3 		mov	r3, #2304
 3521 35a0 930000E0 		mul	r0, r3, r0
 3522 35a4 00209DE5 		ldr	r2, [sp, #0]
 3523 35a8 20109DE5 		ldr	r1, [sp, #32]
 3524 35ac 2C309DE5 		ldr	r3, [sp, #44]
 3525 35b0 28409DE5 		ldr	r4, [sp, #40]
 3526 35b4 30809DE5 		ldr	r8, [sp, #48]
 3527 35b8 58A09DE5 		ldr	sl, [sp, #88]
 3528 35bc 300080E2 		add	r0, r0, #48
 3529 35c0 035082E0 		add	r5, r2, r3
 3530 35c4 000081E0 		add	r0, r1, r0
 3531 35c8 086082E0 		add	r6, r2, r8
 3532 35cc 040080E0 		add	r0, r0, r4
 3533 35d0 AA10A0E1 		mov	r1, sl, lsr #1
 3534 35d4 0520A0E1 		mov	r2, r5
ARM GAS  /cygdrive/c/DOCUME~1/mkwapisz/LOCALS~1/Temp/ccLlueLU.s 			page 63


 3535 35d8 023C85E2 		add	r3, r5, #512
 3536 35dc BDF2FFEB 		bl	dct32
 3537 35e0 38C09DE5 		ldr	ip, [sp, #56]
 3538 35e4 B220D6E1 		ldrh	r2, [r6, #2]
 3539 35e8 B030DCE1 		ldrh	r3, [ip, #0]
 3540 35ec 92E3C1E0 		smull	lr, r1, r2, r3
 3541 35f0 2EE8B0E1 		movs	lr, lr, lsr #16
 3542 35f4 0108AEE0 		adc	r0, lr, r1, lsl #16
 3543 35f8 3C409DE5 		ldr	r4, [sp, #60]
 3544 35fc 00C09DE5 		ldr	ip, [sp, #0]
 3545 3600 30109DE5 		ldr	r1, [sp, #48]
 3546 3604 B420D6E1 		ldrh	r2, [r6, #4]
 3547 3608 B030D4E1 		ldrh	r3, [r4, #0]
 3548 360c 9283CAE0 		smull	r8, sl, r2, r3
 3549 3610 2888B0E1 		movs	r8, r8, lsr #16
 3550 3614 0AE8A8E0 		adc	lr, r8, sl, lsl #16
 3551 3618 64409DE5 		ldr	r4, [sp, #100]
 3552 361c B1209CE1 		ldrh	r2, [ip, r1]
 3553 3620 40C09DE5 		ldr	ip, [sp, #64]
 3554 3624 B030D4E1 		ldrh	r3, [r4, #0]
 3555 3628 9283CAE0 		smull	r8, sl, r2, r3
 3556 362c 2888B0E1 		movs	r8, r8, lsr #16
 3557 3630 0A18A8E0 		adc	r1, r8, sl, lsl #16
 3558 3634 0008A0E1 		mov	r0, r0, asl #16
 3559 3638 B620D6E1 		ldrh	r2, [r6, #6]
 3560 363c B030DCE1 		ldrh	r3, [ip, #0]
 3561 3640 92C3C4E0 		smull	ip, r4, r2, r3
 3562 3644 2CC8B0E1 		movs	ip, ip, lsr #16
 3563 3648 0438ACE0 		adc	r3, ip, r4, lsl #16
 3564 364c 44809DE5 		ldr	r8, [sp, #68]
 3565 3650 48409DE5 		ldr	r4, [sp, #72]
 3566 3654 0EE8A0E1 		mov	lr, lr, asl #16
 3567 3658 0118A0E1 		mov	r1, r1, asl #16
 3568 365c 0338A0E1 		mov	r3, r3, asl #16
 3569 3660 4008A0E1 		mov	r0, r0, asr #16
 3570 3664 4EE8A0E1 		mov	lr, lr, asr #16
 3571 3668 B820D6E1 		ldrh	r2, [r6, #8]
 3572 366c 410880E0 		add	r0, r0, r1, asr #16
 3573 3670 43E88EE0 		add	lr, lr, r3, asr #16
 3574 3674 B030D8E1 		ldrh	r3, [r8, #0]
 3575 3678 92A3CCE0 		smull	sl, ip, r2, r3
 3576 367c 2AA8B0E1 		movs	sl, sl, lsr #16
 3577 3680 0C18AAE0 		adc	r1, sl, ip, lsl #16
 3578 3684 BA20D6E1 		ldrh	r2, [r6, #10]
 3579 3688 B030D4E1 		ldrh	r3, [r4, #0]
 3580 368c 92C3C8E0 		smull	ip, r8, r2, r3
 3581 3690 2CC8B0E1 		movs	ip, ip, lsr #16
 3582 3694 0838ACE0 		adc	r3, ip, r8, lsl #16
 3583 3698 4CA09DE5 		ldr	sl, [sp, #76]
 3584 369c 50809DE5 		ldr	r8, [sp, #80]
 3585 36a0 0118A0E1 		mov	r1, r1, asl #16
 3586 36a4 0338A0E1 		mov	r3, r3, asl #16
 3587 36a8 BC20D6E1 		ldrh	r2, [r6, #12]
 3588 36ac 410880E0 		add	r0, r0, r1, asr #16
 3589 36b0 43E88EE0 		add	lr, lr, r3, asr #16
 3590 36b4 B030DAE1 		ldrh	r3, [sl, #0]
 3591 36b8 92C3C1E0 		smull	ip, r1, r2, r3
ARM GAS  /cygdrive/c/DOCUME~1/mkwapisz/LOCALS~1/Temp/ccLlueLU.s 			page 64


 3592 36bc 2CC8B0E1 		movs	ip, ip, lsr #16
 3593 36c0 0148ACE0 		adc	r4, ip, r1, lsl #16
 3594 36c4 BE20D6E1 		ldrh	r2, [r6, #14]
 3595 36c8 B030D8E1 		ldrh	r3, [r8, #0]
 3596 36cc 92A3CCE0 		smull	sl, ip, r2, r3
 3597 36d0 2AA8B0E1 		movs	sl, sl, lsr #16
 3598 36d4 0C18AAE0 		adc	r1, sl, ip, lsl #16
 3599 36d8 0118A0E1 		mov	r1, r1, asl #16
 3600 36dc 41E88EE0 		add	lr, lr, r1, asr #16
 3601 36e0 00309DE5 		ldr	r3, [sp, #0]
 3602 36e4 2C809DE5 		ldr	r8, [sp, #44]
 3603 36e8 78A09DE5 		ldr	sl, [sp, #120]
 3604 36ec 7C109DE5 		ldr	r1, [sp, #124]
 3605 36f0 0448A0E1 		mov	r4, r4, asl #16
 3606 36f4 B82093E1 		ldrh	r2, [r3, r8]
 3607 36f8 440880E0 		add	r0, r0, r4, asr #16
 3608 36fc B030DAE1 		ldrh	r3, [sl, #0]
 3609 3700 9283CAE0 		smull	r8, sl, r2, r3
 3610 3704 2888B0E1 		movs	r8, r8, lsr #16
 3611 3708 0AC8A8E0 		adc	ip, r8, sl, lsl #16
 3612 370c B220D5E1 		ldrh	r2, [r5, #2]
 3613 3710 B030D1E1 		ldrh	r3, [r1, #0]
 3614 3714 9213C4E0 		smull	r1, r4, r2, r3
 3615 3718 2118B0E1 		movs	r1, r1, lsr #16
 3616 371c 0438A1E0 		adc	r3, r1, r4, lsl #16
 3617 3720 80809DE5 		ldr	r8, [sp, #128]
 3618 3724 84409DE5 		ldr	r4, [sp, #132]
 3619 3728 0CC8A0E1 		mov	ip, ip, asl #16
 3620 372c 0338A0E1 		mov	r3, r3, asl #16
 3621 3730 4CC8A0E1 		mov	ip, ip, asr #16
 3622 3734 B420D5E1 		ldrh	r2, [r5, #4]
 3623 3738 0E0080E0 		add	r0, r0, lr
 3624 373c 43C88CE0 		add	ip, ip, r3, asr #16
 3625 3740 B030D8E1 		ldrh	r3, [r8, #0]
 3626 3744 92A3CEE0 		smull	sl, lr, r2, r3
 3627 3748 2AA8B0E1 		movs	sl, sl, lsr #16
 3628 374c 0E18AAE0 		adc	r1, sl, lr, lsl #16
 3629 3750 B620D5E1 		ldrh	r2, [r5, #6]
 3630 3754 B030D4E1 		ldrh	r3, [r4, #0]
 3631 3758 92E3C8E0 		smull	lr, r8, r2, r3
 3632 375c 2EE8B0E1 		movs	lr, lr, lsr #16
 3633 3760 0838AEE0 		adc	r3, lr, r8, lsl #16
 3634 3764 88A09DE5 		ldr	sl, [sp, #136]
 3635 3768 8C809DE5 		ldr	r8, [sp, #140]
 3636 376c 0118A0E1 		mov	r1, r1, asl #16
 3637 3770 0338A0E1 		mov	r3, r3, asl #16
 3638 3774 B820D5E1 		ldrh	r2, [r5, #8]
 3639 3778 410860E0 		rsb	r0, r0, r1, asr #16
 3640 377c 43C88CE0 		add	ip, ip, r3, asr #16
 3641 3780 B030DAE1 		ldrh	r3, [sl, #0]
 3642 3784 92E3C4E0 		smull	lr, r4, r2, r3
 3643 3788 2EE8B0E1 		movs	lr, lr, lsr #16
 3644 378c 0418AEE0 		adc	r1, lr, r4, lsl #16
 3645 3790 BA20D5E1 		ldrh	r2, [r5, #10]
 3646 3794 B030D8E1 		ldrh	r3, [r8, #0]
 3647 3798 92E3CAE0 		smull	lr, sl, r2, r3
 3648 379c 2EE8B0E1 		movs	lr, lr, lsr #16
ARM GAS  /cygdrive/c/DOCUME~1/mkwapisz/LOCALS~1/Temp/ccLlueLU.s 			page 65


 3649 37a0 0A38AEE0 		adc	r3, lr, sl, lsl #16
 3650 37a4 90E09DE5 		ldr	lr, [sp, #144]
 3651 37a8 94A09DE5 		ldr	sl, [sp, #148]
 3652 37ac 0118A0E1 		mov	r1, r1, asl #16
 3653 37b0 0338A0E1 		mov	r3, r3, asl #16
 3654 37b4 BC20D5E1 		ldrh	r2, [r5, #12]
 3655 37b8 410880E0 		add	r0, r0, r1, asr #16
 3656 37bc 43C88CE0 		add	ip, ip, r3, asr #16
 3657 37c0 B030DEE1 		ldrh	r3, [lr, #0]
 3658 37c4 9243C8E0 		smull	r4, r8, r2, r3
 3659 37c8 2448B0E1 		movs	r4, r4, lsr #16
 3660 37cc 0818A4E0 		adc	r1, r4, r8, lsl #16
 3661 37d0 BE20D5E1 		ldrh	r2, [r5, #14]
 3662 37d4 B030DAE1 		ldrh	r3, [sl, #0]
 3663 37d8 92E3C4E0 		smull	lr, r4, r2, r3
 3664 37dc 2EE8B0E1 		movs	lr, lr, lsr #16
 3665 37e0 0438AEE0 		adc	r3, lr, r4, lsl #16
 3666 37e4 0118A0E1 		mov	r1, r1, asl #16
 3667 37e8 0338A0E1 		mov	r3, r3, asl #16
 3668 37ec 43C88CE0 		add	ip, ip, r3, asr #16
 3669 37f0 410880E0 		add	r0, r0, r1, asr #16
 3670 37f4 0C0080E0 		add	r0, r0, ip
 3671 37f8 0008A0E1 		mov	r0, r0, asl #16
 3672 37fc 4008A0E1 		mov	r0, r0, asr #16
 3673 3800 FEF1FFEB 		bl	scale
 3674 3804 74608DE5 		str	r6, [sp, #116]
 3675 3808 B03ADDE1 		ldrh	r3, [sp, #160]
 3676 380c 74C09DE5 		ldr	ip, [sp, #116]
 3677 3810 54869FE5 		ldr	r8, .L77
 3678 3814 3CA087E2 		add	sl, r7, #60
 3679 3818 003083E0 		add	r3, r3, r0
 3680 381c 026C86E2 		add	r6, r6, #512
 3681 3820 047087E2 		add	r7, r7, #4
 3682 3824 83CF8CE2 		add	ip, ip, #524
 3683 3828 B03ACDE1 		strh	r3, [sp, #160]	@ movhi
 3684 382c 98808DE5 		str	r8, [sp, #152]
 3685 3830 6C508DE5 		str	r5, [sp, #108]
 3686 3834 70A08DE5 		str	sl, [sp, #112]
 3687 3838 9C608DE5 		str	r6, [sp, #156]
 3688 383c 68708DE5 		str	r7, [sp, #104]
 3689 3840 04C08DE5 		str	ip, [sp, #4]
 3690              	.L69:
 3691 3844 74209DE5 		ldr	r2, [sp, #116]
 3692 3848 20369FE5 		ldr	r3, .L77+4
 3693 384c B33092E1 		ldrh	r3, [r2, r3]
 3694 3850 B431CDE1 		strh	r3, [sp, #20]	@ movhi
 3695 3854 04309DE5 		ldr	r3, [sp, #4]
 3696 3858 98E09DE5 		ldr	lr, [sp, #152]
 3697 385c B83053E1 		ldrh	r3, [r3, #-8]
 3698 3860 34009DE5 		ldr	r0, [sp, #52]
 3699 3864 40E08EE2 		add	lr, lr, #64
 3700 3868 B231CDE1 		strh	r3, [sp, #18]	@ movhi
 3701 386c 00108EE0 		add	r1, lr, r0
 3702 3870 BC31D1E1 		ldrh	r3, [r1, #28]
 3703 3874 98E08DE5 		str	lr, [sp, #152]
 3704 3878 B451DDE1 		ldrh	r5, [sp, #20]
 3705 387c 9523C4E0 		smull	r2, r4, r5, r3
ARM GAS  /cygdrive/c/DOCUME~1/mkwapisz/LOCALS~1/Temp/ccLlueLU.s 			page 66


 3706 3880 2228B0E1 		movs	r2, r2, lsr #16
 3707 3884 0408A2E0 		adc	r0, r2, r4, lsl #16
 3708 3888 B281DDE1 		ldrh	r8, [sp, #18]
 3709 388c B831D1E1 		ldrh	r3, [r1, #24]
 3710 3890 9823C6E0 		smull	r2, r6, r8, r3
 3711 3894 2228B0E1 		movs	r2, r2, lsr #16
 3712 3898 06C8A2E0 		adc	ip, r2, r6, lsl #16
 3713 389c 74A09DE5 		ldr	sl, [sp, #116]
 3714 38a0 04E09DE5 		ldr	lr, [sp, #4]
 3715 38a4 C8359FE5 		ldr	r3, .L77+8
 3716 38a8 BCE05EE1 		ldrh	lr, [lr, #-12]
 3717 38ac B3309AE1 		ldrh	r3, [sl, r3]
 3718 38b0 98609DE5 		ldr	r6, [sp, #152]
 3719 38b4 B031CDE1 		strh	r3, [sp, #16]	@ movhi
 3720 38b8 B6E1CDE1 		strh	lr, [sp, #22]	@ movhi
 3721 38bc 34809DE5 		ldr	r8, [sp, #52]
 3722 38c0 0008A0E1 		mov	r0, r0, asl #16
 3723 38c4 B431D1E1 		ldrh	r3, [r1, #20]
 3724 38c8 B051DDE1 		ldrh	r5, [sp, #16]
 3725 38cc 95E3C4E0 		smull	lr, r4, r5, r3
 3726 38d0 2EE8B0E1 		movs	lr, lr, lsr #16
 3727 38d4 0428AEE0 		adc	r2, lr, r4, lsl #16
 3728 38d8 B6A1DDE1 		ldrh	sl, [sp, #22]
 3729 38dc B83096E1 		ldrh	r3, [r6, r8]
 3730 38e0 9A43CEE0 		smull	r4, lr, sl, r3
 3731 38e4 2448B0E1 		movs	r4, r4, lsr #16
 3732 38e8 0E38A4E0 		adc	r3, r4, lr, lsl #16
 3733 38ec 4008A0E1 		mov	r0, r0, asr #16
 3734 38f0 0338A0E1 		mov	r3, r3, asl #16
 3735 38f4 74E09DE5 		ldr	lr, [sp, #116]
 3736 38f8 430880E0 		add	r0, r0, r3, asr #16
 3737 38fc 74359FE5 		ldr	r3, .L77+12
 3738 3900 B3309EE1 		ldrh	r3, [lr, r3]
 3739 3904 BC30CDE1 		strh	r3, [sp, #12]	@ movhi
 3740 3908 04309DE5 		ldr	r3, [sp, #4]
 3741 390c 0CC8A0E1 		mov	ip, ip, asl #16
 3742 3910 B43053E1 		ldrh	r3, [r3, #-4]
 3743 3914 0228A0E1 		mov	r2, r2, asl #16
 3744 3918 4CC8A0E1 		mov	ip, ip, asr #16
 3745 391c BE30CDE1 		strh	r3, [sp, #14]	@ movhi
 3746 3920 42C88CE0 		add	ip, ip, r2, asr #16
 3747 3924 54209DE5 		ldr	r2, [sp, #84]
 3748 3928 B031D1E1 		ldrh	r3, [r1, #16]
 3749 392c 024086E0 		add	r4, r6, r2
 3750 3930 BC80DDE1 		ldrh	r8, [sp, #12]
 3751 3934 BE60DDE1 		ldrh	r6, [sp, #14]
 3752 3938 96E3C5E0 		smull	lr, r5, r6, r3
 3753 393c 2EE8B0E1 		movs	lr, lr, lsr #16
 3754 3940 0528AEE0 		adc	r2, lr, r5, lsl #16
 3755 3944 BC30D1E1 		ldrh	r3, [r1, #12]
 3756 3948 9853CEE0 		smull	r5, lr, r8, r3
 3757 394c 2558B0E1 		movs	r5, r5, lsr #16
 3758 3950 0E38A5E0 		adc	r3, r5, lr, lsl #16
 3759 3954 0338A0E1 		mov	r3, r3, asl #16
 3760 3958 74A09DE5 		ldr	sl, [sp, #116]
 3761 395c 43C88CE0 		add	ip, ip, r3, asr #16
 3762 3960 14359FE5 		ldr	r3, .L77+16
ARM GAS  /cygdrive/c/DOCUME~1/mkwapisz/LOCALS~1/Temp/ccLlueLU.s 			page 67


 3763 3964 B3309AE1 		ldrh	r3, [sl, r3]
 3764 3968 B830CDE1 		strh	r3, [sp, #8]	@ movhi
 3765 396c 04A09DE5 		ldr	sl, [sp, #4]
 3766 3970 0228A0E1 		mov	r2, r2, asl #16
 3767 3974 B430D1E1 		ldrh	r3, [r1, #4]
 3768 3978 420880E0 		add	r0, r0, r2, asr #16
 3769 397c B860DDE1 		ldrh	r6, [sp, #8]
 3770 3980 9623C5E0 		smull	r2, r5, r6, r3
 3771 3984 2228B0E1 		movs	r2, r2, lsr #16
 3772 3988 05E8A2E0 		adc	lr, r2, r5, lsl #16
 3773 398c B021DAE0 		ldrh	r2, [sl], #16
 3774 3990 6C809DE5 		ldr	r8, [sp, #108]
 3775 3994 BA20CDE1 		strh	r2, [sp, #10]	@ movhi
 3776 3998 BEB1D8E1 		ldrh	fp, [r8, #30]
 3777 399c B830D1E1 		ldrh	r3, [r1, #8]
 3778 39a0 0EE8A0E1 		mov	lr, lr, asl #16
 3779 39a4 BA20DDE1 		ldrh	r2, [sp, #10]	@ movhi
 3780 39a8 9213C5E0 		smull	r1, r5, r2, r3
 3781 39ac 2118B0E1 		movs	r1, r1, lsr #16
 3782 39b0 0528A1E0 		adc	r2, r1, r5, lsl #16
 3783 39b4 B430D4E1 		ldrh	r3, [r4, #4]
 3784 39b8 9B53C6E0 		smull	r5, r6, fp, r3
 3785 39bc 2558B0E1 		movs	r5, r5, lsr #16
 3786 39c0 0618A5E0 		adc	r1, r5, r6, lsl #16
 3787 39c4 0228A0E1 		mov	r2, r2, asl #16
 3788 39c8 0118A0E1 		mov	r1, r1, asl #16
 3789 39cc BC91D8E1 		ldrh	r9, [r8, #28]
 3790 39d0 B830D4E1 		ldrh	r3, [r4, #8]
 3791 39d4 4EC88CE0 		add	ip, ip, lr, asr #16
 3792 39d8 420880E0 		add	r0, r0, r2, asr #16
 3793 39dc 4118A0E1 		mov	r1, r1, asr #16
 3794 39e0 99E3C2E0 		smull	lr, r2, r9, r3
 3795 39e4 2EE8B0E1 		movs	lr, lr, lsr #16
 3796 39e8 0238AEE0 		adc	r3, lr, r2, lsl #16
 3797 39ec 0338A0E1 		mov	r3, r3, asl #16
 3798 39f0 04A08DE5 		str	sl, [sp, #4]
 3799 39f4 0C0080E0 		add	r0, r0, ip
 3800 39f8 BAA1D8E1 		ldrh	sl, [r8, #26]
 3801 39fc 431881E0 		add	r1, r1, r3, asr #16
 3802 3a00 BC30D4E1 		ldrh	r3, [r4, #12]
 3803 3a04 9AC3CEE0 		smull	ip, lr, sl, r3
 3804 3a08 2CC8B0E1 		movs	ip, ip, lsr #16
 3805 3a0c 0E28ACE0 		adc	r2, ip, lr, lsl #16
 3806 3a10 0228A0E1 		mov	r2, r2, asl #16
 3807 3a14 420860E0 		rsb	r0, r0, r2, asr #16
 3808 3a18 6C209DE5 		ldr	r2, [sp, #108]
 3809 3a1c B881D8E1 		ldrh	r8, [r8, #24]
 3810 3a20 B031D4E1 		ldrh	r3, [r4, #16]
 3811 3a24 98E3CCE0 		smull	lr, ip, r8, r3
 3812 3a28 2EE8B0E1 		movs	lr, lr, lsr #16
 3813 3a2c 0C38AEE0 		adc	r3, lr, ip, lsl #16
 3814 3a30 0338A0E1 		mov	r3, r3, asl #16
 3815 3a34 B461D2E1 		ldrh	r6, [r2, #20]
 3816 3a38 B671D2E1 		ldrh	r7, [r2, #22]
 3817 3a3c 431881E0 		add	r1, r1, r3, asr #16
 3818 3a40 B431D4E1 		ldrh	r3, [r4, #20]
 3819 3a44 97C3C5E0 		smull	ip, r5, r7, r3
ARM GAS  /cygdrive/c/DOCUME~1/mkwapisz/LOCALS~1/Temp/ccLlueLU.s 			page 68


 3820 3a48 2CC8B0E1 		movs	ip, ip, lsr #16
 3821 3a4c 0528ACE0 		adc	r2, ip, r5, lsl #16
 3822 3a50 B831D4E1 		ldrh	r3, [r4, #24]
 3823 3a54 96E3CCE0 		smull	lr, ip, r6, r3
 3824 3a58 2EE8B0E1 		movs	lr, lr, lsr #16
 3825 3a5c 0C38AEE0 		adc	r3, lr, ip, lsl #16
 3826 3a60 6CC09DE5 		ldr	ip, [sp, #108]
 3827 3a64 0228A0E1 		mov	r2, r2, asl #16
 3828 3a68 0338A0E1 		mov	r3, r3, asl #16
 3829 3a6c 420880E0 		add	r0, r0, r2, asr #16
 3830 3a70 431881E0 		add	r1, r1, r3, asr #16
 3831 3a74 BC31D4E1 		ldrh	r3, [r4, #28]
 3832 3a78 B241DCE1 		ldrh	r4, [ip, #18]
 3833 3a7c 94C3CEE0 		smull	ip, lr, r4, r3
 3834 3a80 2CC8B0E1 		movs	ip, ip, lsr #16
 3835 3a84 0E28ACE0 		adc	r2, ip, lr, lsl #16
 3836 3a88 6C309DE5 		ldr	r3, [sp, #108]
 3837 3a8c 98C09DE5 		ldr	ip, [sp, #152]
 3838 3a90 B051F3E1 		ldrh	r5, [r3, #16]!
 3839 3a94 54E09DE5 		ldr	lr, [sp, #84]
 3840 3a98 0228A0E1 		mov	r2, r2, asl #16
 3841 3a9c 6C308DE5 		str	r3, [sp, #108]
 3842 3aa0 BE309CE1 		ldrh	r3, [ip, lr]
 3843 3aa4 95E3CCE0 		smull	lr, ip, r5, r3
 3844 3aa8 2EE8B0E1 		movs	lr, lr, lsr #16
 3845 3aac 0C38AEE0 		adc	r3, lr, ip, lsl #16
 3846 3ab0 0338A0E1 		mov	r3, r3, asl #16
 3847 3ab4 431881E0 		add	r1, r1, r3, asr #16
 3848 3ab8 420880E0 		add	r0, r0, r2, asr #16
 3849 3abc 010080E0 		add	r0, r0, r1
 3850 3ac0 0008A0E1 		mov	r0, r0, asl #16
 3851 3ac4 4008A0E1 		mov	r0, r0, asr #16
 3852 3ac8 4CF1FFEB 		bl	scale
 3853 3acc 98109DE5 		ldr	r1, [sp, #152]
 3854 3ad0 54209DE5 		ldr	r2, [sp, #84]
 3855 3ad4 01E062E0 		rsb	lr, r2, r1
 3856 3ad8 B232DEE1 		ldrh	r3, [lr, #34]
 3857 3adc 9423CCE0 		smull	r2, ip, r4, r3
 3858 3ae0 2228B0E1 		movs	r2, r2, lsr #16
 3859 3ae4 0C18A2E0 		adc	r1, r2, ip, lsl #16
 3860 3ae8 B632DEE1 		ldrh	r3, [lr, #38]
 3861 3aec 9623C4E0 		smull	r2, r4, r6, r3
 3862 3af0 2228B0E1 		movs	r2, r2, lsr #16
 3863 3af4 04C8A2E0 		adc	ip, r2, r4, lsl #16
 3864 3af8 0118A0E1 		mov	r1, r1, asl #16
 3865 3afc 0CC8A0E1 		mov	ip, ip, asl #16
 3866 3b00 BE31DEE1 		ldrh	r3, [lr, #30]
 3867 3b04 9543C6E0 		smull	r4, r6, r5, r3
 3868 3b08 2448B0E1 		movs	r4, r4, lsr #16
 3869 3b0c 0628A4E0 		adc	r2, r4, r6, lsl #16
 3870 3b10 4118A0E1 		mov	r1, r1, asr #16
 3871 3b14 BA32DEE1 		ldrh	r3, [lr, #42]
 3872 3b18 9753C4E0 		smull	r5, r4, r7, r3
 3873 3b1c 2558B0E1 		movs	r5, r5, lsr #16
 3874 3b20 0438A5E0 		adc	r3, r5, r4, lsl #16
 3875 3b24 0228A0E1 		mov	r2, r2, asl #16
 3876 3b28 0338A0E1 		mov	r3, r3, asl #16
ARM GAS  /cygdrive/c/DOCUME~1/mkwapisz/LOCALS~1/Temp/ccLlueLU.s 			page 69


 3877 3b2c 4CC8A0E1 		mov	ip, ip, asr #16
 3878 3b30 421881E0 		add	r1, r1, r2, asr #16
 3879 3b34 43C88CE0 		add	ip, ip, r3, asr #16
 3880 3b38 BE32DEE1 		ldrh	r3, [lr, #46]
 3881 3b3c 9843C5E0 		smull	r4, r5, r8, r3
 3882 3b40 2448B0E1 		movs	r4, r4, lsr #16
 3883 3b44 0528A4E0 		adc	r2, r4, r5, lsl #16
 3884 3b48 B233DEE1 		ldrh	r3, [lr, #50]
 3885 3b4c 9A53C4E0 		smull	r5, r4, sl, r3
 3886 3b50 2558B0E1 		movs	r5, r5, lsr #16
 3887 3b54 0438A5E0 		adc	r3, r5, r4, lsl #16
 3888 3b58 98809DE5 		ldr	r8, [sp, #152]
 3889 3b5c 34A09DE5 		ldr	sl, [sp, #52]
 3890 3b60 0228A0E1 		mov	r2, r2, asl #16
 3891 3b64 0338A0E1 		mov	r3, r3, asl #16
 3892 3b68 421881E0 		add	r1, r1, r2, asr #16
 3893 3b6c 43C88CE0 		add	ip, ip, r3, asr #16
 3894 3b70 BA33DEE1 		ldrh	r3, [lr, #58]
 3895 3b74 9B43C6E0 		smull	r4, r6, fp, r3
 3896 3b78 2448B0E1 		movs	r4, r4, lsr #16
 3897 3b7c 0628A4E0 		adc	r2, r4, r6, lsl #16
 3898 3b80 08406AE0 		rsb	r4, sl, r8
 3899 3b84 B633DEE1 		ldrh	r3, [lr, #54]
 3900 3b88 9953CEE0 		smull	r5, lr, r9, r3
 3901 3b8c 2558B0E1 		movs	r5, r5, lsr #16
 3902 3b90 0E38A5E0 		adc	r3, r5, lr, lsl #16
 3903 3b94 0228A0E1 		mov	r2, r2, asl #16
 3904 3b98 0338A0E1 		mov	r3, r3, asl #16
 3905 3b9c 431881E0 		add	r1, r1, r3, asr #16
 3906 3ba0 42C88CE0 		add	ip, ip, r2, asr #16
 3907 3ba4 BA33D4E1 		ldrh	r3, [r4, #58]
 3908 3ba8 B860DDE1 		ldrh	r6, [sp, #8]
 3909 3bac 96E3C5E0 		smull	lr, r5, r6, r3
 3910 3bb0 2EE8B0E1 		movs	lr, lr, lsr #16
 3911 3bb4 0528AEE0 		adc	r2, lr, r5, lsl #16
 3912 3bb8 BA80DDE1 		ldrh	r8, [sp, #10]
 3913 3bbc B633D4E1 		ldrh	r3, [r4, #54]
 3914 3bc0 9853CEE0 		smull	r5, lr, r8, r3
 3915 3bc4 2558B0E1 		movs	r5, r5, lsr #16
 3916 3bc8 0E38A5E0 		adc	r3, r5, lr, lsl #16
 3917 3bcc 0228A0E1 		mov	r2, r2, asl #16
 3918 3bd0 0338A0E1 		mov	r3, r3, asl #16
 3919 3bd4 421881E0 		add	r1, r1, r2, asr #16
 3920 3bd8 43C88CE0 		add	ip, ip, r3, asr #16
 3921 3bdc BC50DDE1 		ldrh	r5, [sp, #12]
 3922 3be0 B233D4E1 		ldrh	r3, [r4, #50]
 3923 3be4 95E3CAE0 		smull	lr, sl, r5, r3
 3924 3be8 2EE8B0E1 		movs	lr, lr, lsr #16
 3925 3bec 0A28AEE0 		adc	r2, lr, sl, lsl #16
 3926 3bf0 BE60DDE1 		ldrh	r6, [sp, #14]
 3927 3bf4 BE32D4E1 		ldrh	r3, [r4, #46]
 3928 3bf8 9653CEE0 		smull	r5, lr, r6, r3
 3929 3bfc 2558B0E1 		movs	r5, r5, lsr #16
 3930 3c00 0E38A5E0 		adc	r3, r5, lr, lsl #16
 3931 3c04 0228A0E1 		mov	r2, r2, asl #16
 3932 3c08 0338A0E1 		mov	r3, r3, asl #16
 3933 3c0c 421881E0 		add	r1, r1, r2, asr #16
ARM GAS  /cygdrive/c/DOCUME~1/mkwapisz/LOCALS~1/Temp/ccLlueLU.s 			page 70


 3934 3c10 43C88CE0 		add	ip, ip, r3, asr #16
 3935 3c14 B0A1DDE1 		ldrh	sl, [sp, #16]
 3936 3c18 BA32D4E1 		ldrh	r3, [r4, #42]
 3937 3c1c 9AE3C8E0 		smull	lr, r8, sl, r3
 3938 3c20 2EE8B0E1 		movs	lr, lr, lsr #16
 3939 3c24 0828AEE0 		adc	r2, lr, r8, lsl #16
 3940 3c28 B261DDE1 		ldrh	r6, [sp, #18]
 3941 3c2c B632D4E1 		ldrh	r3, [r4, #38]
 3942 3c30 9653CEE0 		smull	r5, lr, r6, r3
 3943 3c34 2558B0E1 		movs	r5, r5, lsr #16
 3944 3c38 0E38A5E0 		adc	r3, r5, lr, lsl #16
 3945 3c3c 0228A0E1 		mov	r2, r2, asl #16
 3946 3c40 68609DE5 		ldr	r6, [sp, #104]
 3947 3c44 0338A0E1 		mov	r3, r3, asl #16
 3948 3c48 421881E0 		add	r1, r1, r2, asr #16
 3949 3c4c 43C88CE0 		add	ip, ip, r3, asr #16
 3950 3c50 B6A1DDE1 		ldrh	sl, [sp, #22]
 3951 3c54 BE31D4E1 		ldrh	r3, [r4, #30]
 3952 3c58 9AE3C8E0 		smull	lr, r8, sl, r3
 3953 3c5c 2EE8B0E1 		movs	lr, lr, lsr #16
 3954 3c60 0828AEE0 		adc	r2, lr, r8, lsl #16
 3955 3c64 B451DDE1 		ldrh	r5, [sp, #20]
 3956 3c68 0228A0E1 		mov	r2, r2, asl #16
 3957 3c6c B232D4E1 		ldrh	r3, [r4, #34]
 3958 3c70 9543CEE0 		smull	r4, lr, r5, r3
 3959 3c74 2448B0E1 		movs	r4, r4, lsr #16
 3960 3c78 0E38A4E0 		adc	r3, r4, lr, lsl #16
 3961 3c7c 0338A0E1 		mov	r3, r3, asl #16
 3962 3c80 42C88CE0 		add	ip, ip, r2, asr #16
 3963 3c84 431881E0 		add	r1, r1, r3, asr #16
 3964 3c88 B23056E1 		ldrh	r3, [r6, #-2]
 3965 3c8c 0C1081E0 		add	r1, r1, ip
 3966 3c90 003083E0 		add	r3, r3, r0
 3967 3c94 0118A0E1 		mov	r1, r1, asl #16
 3968 3c98 B23046E1 		strh	r3, [r6, #-2]	@ movhi
 3969 3c9c 4108A0E1 		mov	r0, r1, asr #16
 3970 3ca0 D6F0FFEB 		bl	scale
 3971 3ca4 70809DE5 		ldr	r8, [sp, #112]
 3972 3ca8 B230D8E1 		ldrh	r3, [r8, #2]
 3973 3cac 74C09DE5 		ldr	ip, [sp, #116]
 3974 3cb0 C8219FE5 		ldr	r2, .L77+20
 3975 3cb4 98A09DE5 		ldr	sl, [sp, #152]
 3976 3cb8 003083E0 		add	r3, r3, r0
 3977 3cbc B230C8E1 		strh	r3, [r8, #2]	@ movhi
 3978 3cc0 026086E2 		add	r6, r6, #2
 3979 3cc4 028048E2 		sub	r8, r8, #2
 3980 3cc8 10C08CE2 		add	ip, ip, #16
 3981 3ccc 02005AE1 		cmp	sl, r2
 3982 3cd0 68608DE5 		str	r6, [sp, #104]
 3983 3cd4 70808DE5 		str	r8, [sp, #112]
 3984 3cd8 74C08DE5 		str	ip, [sp, #116]
 3985 3cdc D8FEFF1A 		bne	.L69
 3986 3ce0 34E09DE5 		ldr	lr, [sp, #52]
 3987 3ce4 9C009DE5 		ldr	r0, [sp, #156]
 3988 3ce8 40108AE2 		add	r1, sl, #64
 3989 3cec 01408EE0 		add	r4, lr, r1
 3990 3cf0 F0E080E2 		add	lr, r0, #240
ARM GAS  /cygdrive/c/DOCUME~1/mkwapisz/LOCALS~1/Temp/ccLlueLU.s 			page 71


 3991 3cf4 B220DEE1 		ldrh	r2, [lr, #2]
 3992 3cf8 BC31D4E1 		ldrh	r3, [r4, #28]
 3993 3cfc 9253C6E0 		smull	r5, r6, r2, r3
 3994 3d00 2558B0E1 		movs	r5, r5, lsr #16
 3995 3d04 0608A5E0 		adc	r0, r5, r6, lsl #16
 3996 3d08 B420DEE1 		ldrh	r2, [lr, #4]
 3997 3d0c B831D4E1 		ldrh	r3, [r4, #24]
 3998 3d10 9283CAE0 		smull	r8, sl, r2, r3
 3999 3d14 2888B0E1 		movs	r8, r8, lsr #16
 4000 3d18 0AC8A8E0 		adc	ip, r8, sl, lsl #16
 4001 3d1c 9C509DE5 		ldr	r5, [sp, #156]
 4002 3d20 34309DE5 		ldr	r3, [sp, #52]
 4003 3d24 0008A0E1 		mov	r0, r0, asl #16
 4004 3d28 0CC8A0E1 		mov	ip, ip, asl #16
 4005 3d2c B12093E1 		ldrh	r2, [r3, r1]
 4006 3d30 4008A0E1 		mov	r0, r0, asr #16
 4007 3d34 B03FD5E1 		ldrh	r3, [r5, #240]
 4008 3d38 9362C8E0 		smull	r6, r8, r3, r2
 4009 3d3c 2668B0E1 		movs	r6, r6, lsr #16
 4010 3d40 0818A6E0 		adc	r1, r6, r8, lsl #16
 4011 3d44 4CC8A0E1 		mov	ip, ip, asr #16
 4012 3d48 B620DEE1 		ldrh	r2, [lr, #6]
 4013 3d4c 0118A0E1 		mov	r1, r1, asl #16
 4014 3d50 B431D4E1 		ldrh	r3, [r4, #20]
 4015 3d54 9253CAE0 		smull	r5, sl, r2, r3
 4016 3d58 2558B0E1 		movs	r5, r5, lsr #16
 4017 3d5c 0A38A5E0 		adc	r3, r5, sl, lsl #16
 4018 3d60 0338A0E1 		mov	r3, r3, asl #16
 4019 3d64 B820DEE1 		ldrh	r2, [lr, #8]
 4020 3d68 410880E0 		add	r0, r0, r1, asr #16
 4021 3d6c 43C88CE0 		add	ip, ip, r3, asr #16
 4022 3d70 B031D4E1 		ldrh	r3, [r4, #16]
 4023 3d74 9253C6E0 		smull	r5, r6, r2, r3
 4024 3d78 2558B0E1 		movs	r5, r5, lsr #16
 4025 3d7c 0618A5E0 		adc	r1, r5, r6, lsl #16
 4026 3d80 BA20DEE1 		ldrh	r2, [lr, #10]
 4027 3d84 0118A0E1 		mov	r1, r1, asl #16
 4028 3d88 BC30D4E1 		ldrh	r3, [r4, #12]
 4029 3d8c 9253C8E0 		smull	r5, r8, r2, r3
 4030 3d90 2558B0E1 		movs	r5, r5, lsr #16
 4031 3d94 0838A5E0 		adc	r3, r5, r8, lsl #16
 4032 3d98 0338A0E1 		mov	r3, r3, asl #16
 4033 3d9c BE20DEE1 		ldrh	r2, [lr, #14]
 4034 3da0 410880E0 		add	r0, r0, r1, asr #16
 4035 3da4 43C88CE0 		add	ip, ip, r3, asr #16
 4036 3da8 B430D4E1 		ldrh	r3, [r4, #4]
 4037 3dac 92A3C5E0 		smull	sl, r5, r2, r3
 4038 3db0 2AA8B0E1 		movs	sl, sl, lsr #16
 4039 3db4 0518AAE0 		adc	r1, sl, r5, lsl #16
 4040 3db8 BC20DEE1 		ldrh	r2, [lr, #12]
 4041 3dbc 0118A0E1 		mov	r1, r1, asl #16
 4042 3dc0 B830D4E1 		ldrh	r3, [r4, #8]
 4043 3dc4 92E3C6E0 		smull	lr, r6, r2, r3
 4044 3dc8 2EE8B0E1 		movs	lr, lr, lsr #16
 4045 3dcc 0638AEE0 		adc	r3, lr, r6, lsl #16
 4046 3dd0 0338A0E1 		mov	r3, r3, asl #16
 4047 3dd4 430880E0 		add	r0, r0, r3, asr #16
ARM GAS  /cygdrive/c/DOCUME~1/mkwapisz/LOCALS~1/Temp/ccLlueLU.s 			page 72


 4048 3dd8 41C88CE0 		add	ip, ip, r1, asr #16
 4049 3ddc 0C0080E0 		add	r0, r0, ip
 4050 3de0 000060E2 		rsb	r0, r0, #0
 4051 3de4 0008A0E1 		mov	r0, r0, asl #16
 4052 3de8 4008A0E1 		mov	r0, r0, asr #16
 4053 3dec 83F0FFEB 		bl	scale
 4054 3df0 B03CDDE1 		ldrh	r3, [sp, #192]
 4055 3df4 5C809DE5 		ldr	r8, [sp, #92]
 4056 3df8 00A09DE5 		ldr	sl, [sp, #0]
 4057 3dfc 003083E0 		add	r3, r3, r0
 4058 3e00 018088E2 		add	r8, r8, #1
 4059 3e04 01AB8AE2 		add	sl, sl, #1024
 4060 3e08 B03CCDE1 		strh	r3, [sp, #192]	@ movhi
 4061 3e0c 5C808DE5 		str	r8, [sp, #92]
 4062 3e10 00A08DE5 		str	sl, [sp, #0]
 4063              	.L67:
 4064 3e14 5CC09DE5 		ldr	ip, [sp, #92]
 4065 3e18 1CE09DE5 		ldr	lr, [sp, #28]
 4066 3e1c 0E005CE1 		cmp	ip, lr
 4067 3e20 A0708DE2 		add	r7, sp, #160
 4068 3e24 DBFDFF1A 		bne	.L68
 4069 3e28 2010A0E3 		mov	r1, #32
 4070 3e2c 0700A0E1 		mov	r0, r7
 4071 3e30 FEFFFFEB 		bl	render_sample_block
 4072 3e34 58009DE5 		ldr	r0, [sp, #88]
 4073 3e38 013080E2 		add	r3, r0, #1
 4074 3e3c 0F3003E2 		and	r3, r3, #15
 4075 3e40 60109DE5 		ldr	r1, [sp, #96]
 4076 3e44 58308DE5 		str	r3, [sp, #88]
 4077 3e48 011081E2 		add	r1, r1, #1
 4078              	.L76:
 4079 3e4c 60108DE5 		str	r1, [sp, #96]
 4080 3e50 60209DE5 		ldr	r2, [sp, #96]
 4081 3e54 18309DE5 		ldr	r3, [sp, #24]
 4082 3e58 030052E1 		cmp	r2, r3
 4083 3e5c 87FDFF1A 		bne	.L66
 4084 3e60 E0D08DE2 		add	sp, sp, #224
 4085 3e64 F04FBDE8 		ldmfd	sp!, {r4, r5, r6, r7, r8, r9, sl, fp, lr}
 4086 3e68 1EFF2FE1 		bx	lr
 4087              	.L78:
 4088              		.align	2
 4089              	.L77:
 4090 3e6c 00000000 		.word	D
 4091 3e70 02020000 		.word	514
 4092 3e74 06020000 		.word	518
 4093 3e78 0A020000 		.word	522
 4094 3e7c 0E020000 		.word	526
 4095 3e80 C0030000 		.word	D+960
 4096              		.size	synth_full, .-synth_full
 4097              		.section	.rodata
 4098              		.align	1
 4099              		.type	D, %object
 4100              		.size	D, 1088
 4101              	D:
 4102 0000 0000     		.short	0
 4103 0002 0300     		.short	3
 4104 0004 0500     		.short	5
ARM GAS  /cygdrive/c/DOCUME~1/mkwapisz/LOCALS~1/Temp/ccLlueLU.s 			page 73


 4105 0006 0500     		.short	5
 4106 0008 0500     		.short	5
 4107 000a FFFF     		.short	-1
 4108 000c FEFF     		.short	-2
 4109 000e FFFF     		.short	-1
 4110 0010 FEFF     		.short	-2
 4111 0012 0100     		.short	1
 4112 0014 FEFF     		.short	-2
 4113 0016 0100     		.short	1
 4114 0018 0500     		.short	5
 4115 001a FBFF     		.short	-5
 4116 001c 0500     		.short	5
 4117 001e FDFF     		.short	-3
 4118 0020 0000     		.short	0
 4119 0022 0300     		.short	3
 4120 0024 0500     		.short	5
 4121 0026 0500     		.short	5
 4122 0028 0500     		.short	5
 4123 002a FFFF     		.short	-1
 4124 002c FEFF     		.short	-2
 4125 002e FFFF     		.short	-1
 4126 0030 FEFF     		.short	-2
 4127 0032 0100     		.short	1
 4128 0034 FEFF     		.short	-2
 4129 0036 0100     		.short	1
 4130 0038 0500     		.short	5
 4131 003a FBFF     		.short	-5
 4132 003c 0500     		.short	5
 4133 003e FDFF     		.short	-3
 4134 0040 FFFF     		.short	-1
 4135 0042 0100     		.short	1
 4136 0044 FAFF     		.short	-6
 4137 0046 F9FF     		.short	-7
 4138 0048 0000     		.short	0
 4139 004a 0300     		.short	3
 4140 004c 0700     		.short	7
 4141 004e 0800     		.short	8
 4142 0050 0000     		.short	0
 4143 0052 F8FF     		.short	-8
 4144 0054 FEFF     		.short	-2
 4145 0056 0400     		.short	4
 4146 0058 FFFF     		.short	-1
 4147 005a 0100     		.short	1
 4148 005c 0000     		.short	0
 4149 005e FAFF     		.short	-6
 4150 0060 FFFF     		.short	-1
 4151 0062 0100     		.short	1
 4152 0064 FAFF     		.short	-6
 4153 0066 F9FF     		.short	-7
 4154 0068 0000     		.short	0
 4155 006a 0300     		.short	3
 4156 006c 0700     		.short	7
 4157 006e 0800     		.short	8
 4158 0070 0000     		.short	0
 4159 0072 F8FF     		.short	-8
 4160 0074 FEFF     		.short	-2
 4161 0076 0400     		.short	4
ARM GAS  /cygdrive/c/DOCUME~1/mkwapisz/LOCALS~1/Temp/ccLlueLU.s 			page 74


 4162 0078 FFFF     		.short	-1
 4163 007a 0100     		.short	1
 4164 007c 0000     		.short	0
 4165 007e FAFF     		.short	-6
 4166 0080 FFFF     		.short	-1
 4167 0082 FDFF     		.short	-3
 4168 0084 FEFF     		.short	-2
 4169 0086 FBFF     		.short	-5
 4170 0088 0000     		.short	0
 4171 008a F9FF     		.short	-7
 4172 008c F8FF     		.short	-8
 4173 008e 0800     		.short	8
 4174 0090 F8FF     		.short	-8
 4175 0092 FFFF     		.short	-1
 4176 0094 F8FF     		.short	-8
 4177 0096 F9FF     		.short	-7
 4178 0098 0000     		.short	0
 4179 009a FBFF     		.short	-5
 4180 009c FAFF     		.short	-6
 4181 009e F8FF     		.short	-8
 4182 00a0 FFFF     		.short	-1
 4183 00a2 FDFF     		.short	-3
 4184 00a4 FEFF     		.short	-2
 4185 00a6 FBFF     		.short	-5
 4186 00a8 0000     		.short	0
 4187 00aa F9FF     		.short	-7
 4188 00ac F8FF     		.short	-8
 4189 00ae 0800     		.short	8
 4190 00b0 F8FF     		.short	-8
 4191 00b2 FFFF     		.short	-1
 4192 00b4 F8FF     		.short	-8
 4193 00b6 F9FF     		.short	-7
 4194 00b8 0000     		.short	0
 4195 00ba FBFF     		.short	-5
 4196 00bc FAFF     		.short	-6
 4197 00be F8FF     		.short	-8
 4198 00c0 FFFF     		.short	-1
 4199 00c2 FAFF     		.short	-6
 4200 00c4 0100     		.short	1
 4201 00c6 FBFF     		.short	-5
 4202 00c8 0500     		.short	5
 4203 00ca 0300     		.short	3
 4204 00cc 0100     		.short	1
 4205 00ce 0200     		.short	2
 4206 00d0 0600     		.short	6
 4207 00d2 FBFF     		.short	-5
 4208 00d4 FCFF     		.short	-4
 4209 00d6 FFFF     		.short	-1
 4210 00d8 0700     		.short	7
 4211 00da 0600     		.short	6
 4212 00dc 0400     		.short	4
 4213 00de 0500     		.short	5
 4214 00e0 FFFF     		.short	-1
 4215 00e2 FAFF     		.short	-6
 4216 00e4 0100     		.short	1
 4217 00e6 FBFF     		.short	-5
 4218 00e8 0500     		.short	5
ARM GAS  /cygdrive/c/DOCUME~1/mkwapisz/LOCALS~1/Temp/ccLlueLU.s 			page 75


 4219 00ea 0300     		.short	3
 4220 00ec 0100     		.short	1
 4221 00ee 0200     		.short	2
 4222 00f0 0600     		.short	6
 4223 00f2 FBFF     		.short	-5
 4224 00f4 FCFF     		.short	-4
 4225 00f6 FFFF     		.short	-1
 4226 00f8 0700     		.short	7
 4227 00fa 0600     		.short	6
 4228 00fc 0400     		.short	4
 4229 00fe 0500     		.short	5
 4230 0100 FFFF     		.short	-1
 4231 0102 0700     		.short	7
 4232 0104 0300     		.short	3
 4233 0106 F9FF     		.short	-7
 4234 0108 FEFF     		.short	-2
 4235 010a 0300     		.short	3
 4236 010c 0000     		.short	0
 4237 010e FBFF     		.short	-5
 4238 0110 F9FF     		.short	-7
 4239 0112 0000     		.short	0
 4240 0114 FCFF     		.short	-4
 4241 0116 F9FF     		.short	-7
 4242 0118 0500     		.short	5
 4243 011a 0400     		.short	4
 4244 011c FEFF     		.short	-2
 4245 011e 0300     		.short	3
 4246 0120 FFFF     		.short	-1
 4247 0122 0700     		.short	7
 4248 0124 0300     		.short	3
 4249 0126 F9FF     		.short	-7
 4250 0128 FEFF     		.short	-2
 4251 012a 0300     		.short	3
 4252 012c 0000     		.short	0
 4253 012e FBFF     		.short	-5
 4254 0130 F9FF     		.short	-7
 4255 0132 0000     		.short	0
 4256 0134 FCFF     		.short	-4
 4257 0136 F9FF     		.short	-7
 4258 0138 0500     		.short	5
 4259 013a 0400     		.short	4
 4260 013c FEFF     		.short	-2
 4261 013e 0300     		.short	3
 4262 0140 FFFF     		.short	-1
 4263 0142 0300     		.short	3
 4264 0144 0400     		.short	4
 4265 0146 0500     		.short	5
 4266 0148 FBFF     		.short	-5
 4267 014a F9FF     		.short	-7
 4268 014c 0700     		.short	7
 4269 014e 0700     		.short	7
 4270 0150 0400     		.short	4
 4271 0152 0100     		.short	1
 4272 0154 F8FF     		.short	-8
 4273 0156 0700     		.short	7
 4274 0158 FBFF     		.short	-5
 4275 015a 0500     		.short	5
ARM GAS  /cygdrive/c/DOCUME~1/mkwapisz/LOCALS~1/Temp/ccLlueLU.s 			page 76


 4276 015c 0700     		.short	7
 4277 015e 0100     		.short	1
 4278 0160 FFFF     		.short	-1
 4279 0162 0300     		.short	3
 4280 0164 0400     		.short	4
 4281 0166 0500     		.short	5
 4282 0168 FBFF     		.short	-5
 4283 016a F9FF     		.short	-7
 4284 016c 0700     		.short	7
 4285 016e 0700     		.short	7
 4286 0170 0400     		.short	4
 4287 0172 0100     		.short	1
 4288 0174 F8FF     		.short	-8
 4289 0176 0700     		.short	7
 4290 0178 FBFF     		.short	-5
 4291 017a 0500     		.short	5
 4292 017c 0700     		.short	7
 4293 017e 0100     		.short	1
 4294 0180 FFFF     		.short	-1
 4295 0182 FFFF     		.short	-1
 4296 0184 0400     		.short	4
 4297 0186 0000     		.short	0
 4298 0188 FCFF     		.short	-4
 4299 018a F9FF     		.short	-7
 4300 018c 0500     		.short	5
 4301 018e FAFF     		.short	-6
 4302 0190 0700     		.short	7
 4303 0192 0200     		.short	2
 4304 0194 0300     		.short	3
 4305 0196 FCFF     		.short	-4
 4306 0198 F9FF     		.short	-7
 4307 019a F9FF     		.short	-7
 4308 019c 0000     		.short	0
 4309 019e 0000     		.short	0
 4310 01a0 FFFF     		.short	-1
 4311 01a2 FFFF     		.short	-1
 4312 01a4 0400     		.short	4
 4313 01a6 0000     		.short	0
 4314 01a8 FCFF     		.short	-4
 4315 01aa F9FF     		.short	-7
 4316 01ac 0500     		.short	5
 4317 01ae FAFF     		.short	-6
 4318 01b0 0700     		.short	7
 4319 01b2 0200     		.short	2
 4320 01b4 0300     		.short	3
 4321 01b6 FCFF     		.short	-4
 4322 01b8 F9FF     		.short	-7
 4323 01ba F9FF     		.short	-7
 4324 01bc 0000     		.short	0
 4325 01be 0000     		.short	0
 4326 01c0 FEFF     		.short	-2
 4327 01c2 FBFF     		.short	-5
 4328 01c4 0300     		.short	3
 4329 01c6 F9FF     		.short	-7
 4330 01c8 FFFF     		.short	-1
 4331 01ca 0300     		.short	3
 4332 01cc FAFF     		.short	-6
ARM GAS  /cygdrive/c/DOCUME~1/mkwapisz/LOCALS~1/Temp/ccLlueLU.s 			page 77


 4333 01ce 0700     		.short	7
 4334 01d0 0300     		.short	3
 4335 01d2 0600     		.short	6
 4336 01d4 FDFF     		.short	-3
 4337 01d6 0700     		.short	7
 4338 01d8 0000     		.short	0
 4339 01da FFFF     		.short	-1
 4340 01dc F9FF     		.short	-7
 4341 01de FEFF     		.short	-2
 4342 01e0 FEFF     		.short	-2
 4343 01e2 FBFF     		.short	-5
 4344 01e4 0300     		.short	3
 4345 01e6 F9FF     		.short	-7
 4346 01e8 FFFF     		.short	-1
 4347 01ea 0300     		.short	3
 4348 01ec FAFF     		.short	-6
 4349 01ee 0700     		.short	7
 4350 01f0 0300     		.short	3
 4351 01f2 0600     		.short	6
 4352 01f4 FDFF     		.short	-3
 4353 01f6 0700     		.short	7
 4354 01f8 0000     		.short	0
 4355 01fa FFFF     		.short	-1
 4356 01fc F9FF     		.short	-7
 4357 01fe FEFF     		.short	-2
 4358 0200 FEFF     		.short	-2
 4359 0202 0600     		.short	6
 4360 0204 0000     		.short	0
 4361 0206 0100     		.short	1
 4362 0208 0600     		.short	6
 4363 020a FAFF     		.short	-6
 4364 020c 0600     		.short	6
 4365 020e 0300     		.short	3
 4366 0210 F9FF     		.short	-7
 4367 0212 0100     		.short	1
 4368 0214 F8FF     		.short	-8
 4369 0216 FAFF     		.short	-6
 4370 0218 0100     		.short	1
 4371 021a F8FF     		.short	-8
 4372 021c 0100     		.short	1
 4373 021e FDFF     		.short	-3
 4374 0220 FEFF     		.short	-2
 4375 0222 0600     		.short	6
 4376 0224 0000     		.short	0
 4377 0226 0100     		.short	1
 4378 0228 0600     		.short	6
 4379 022a FAFF     		.short	-6
 4380 022c 0600     		.short	6
 4381 022e 0300     		.short	3
 4382 0230 F9FF     		.short	-7
 4383 0232 0100     		.short	1
 4384 0234 F8FF     		.short	-8
 4385 0236 FAFF     		.short	-6
 4386 0238 0100     		.short	1
 4387 023a F8FF     		.short	-8
 4388 023c 0100     		.short	1
 4389 023e FDFF     		.short	-3
ARM GAS  /cygdrive/c/DOCUME~1/mkwapisz/LOCALS~1/Temp/ccLlueLU.s 			page 78


 4390 0240 FEFF     		.short	-2
 4391 0242 0100     		.short	1
 4392 0244 FDFF     		.short	-3
 4393 0246 0800     		.short	8
 4394 0248 0000     		.short	0
 4395 024a FFFF     		.short	-1
 4396 024c FAFF     		.short	-6
 4397 024e 0200     		.short	2
 4398 0250 FCFF     		.short	-4
 4399 0252 0500     		.short	5
 4400 0254 0600     		.short	6
 4401 0256 0600     		.short	6
 4402 0258 FAFF     		.short	-6
 4403 025a 0400     		.short	4
 4404 025c FAFF     		.short	-6
 4405 025e FBFF     		.short	-5
 4406 0260 FEFF     		.short	-2
 4407 0262 0100     		.short	1
 4408 0264 FDFF     		.short	-3
 4409 0266 0800     		.short	8
 4410 0268 0000     		.short	0
 4411 026a FFFF     		.short	-1
 4412 026c FAFF     		.short	-6
 4413 026e 0200     		.short	2
 4414 0270 FCFF     		.short	-4
 4415 0272 0500     		.short	5
 4416 0274 0600     		.short	6
 4417 0276 0600     		.short	6
 4418 0278 FAFF     		.short	-6
 4419 027a 0400     		.short	4
 4420 027c FAFF     		.short	-6
 4421 027e FBFF     		.short	-5
 4422 0280 FEFF     		.short	-2
 4423 0282 FCFF     		.short	-4
 4424 0284 0700     		.short	7
 4425 0286 FFFF     		.short	-1
 4426 0288 FBFF     		.short	-5
 4427 028a 0500     		.short	5
 4428 028c 0600     		.short	6
 4429 028e 0600     		.short	6
 4430 0290 FEFF     		.short	-2
 4431 0292 0600     		.short	6
 4432 0294 0700     		.short	7
 4433 0296 FCFF     		.short	-4
 4434 0298 FFFF     		.short	-1
 4435 029a 0200     		.short	2
 4436 029c 0300     		.short	3
 4437 029e FAFF     		.short	-6
 4438 02a0 FEFF     		.short	-2
 4439 02a2 FCFF     		.short	-4
 4440 02a4 0700     		.short	7
 4441 02a6 FFFF     		.short	-1
 4442 02a8 FBFF     		.short	-5
 4443 02aa 0500     		.short	5
 4444 02ac 0600     		.short	6
 4445 02ae 0600     		.short	6
 4446 02b0 FEFF     		.short	-2
ARM GAS  /cygdrive/c/DOCUME~1/mkwapisz/LOCALS~1/Temp/ccLlueLU.s 			page 79


 4447 02b2 0600     		.short	6
 4448 02b4 0700     		.short	7
 4449 02b6 FCFF     		.short	-4
 4450 02b8 FFFF     		.short	-1
 4451 02ba 0200     		.short	2
 4452 02bc 0300     		.short	3
 4453 02be FAFF     		.short	-6
 4454 02c0 FDFF     		.short	-3
 4455 02c2 0700     		.short	7
 4456 02c4 0000     		.short	0
 4457 02c6 0600     		.short	6
 4458 02c8 FAFF     		.short	-6
 4459 02ca FDFF     		.short	-3
 4460 02cc FCFF     		.short	-4
 4461 02ce 0600     		.short	6
 4462 02d0 FFFF     		.short	-1
 4463 02d2 0700     		.short	7
 4464 02d4 FFFF     		.short	-1
 4465 02d6 FCFF     		.short	-4
 4466 02d8 FEFF     		.short	-2
 4467 02da 0300     		.short	3
 4468 02dc FBFF     		.short	-5
 4469 02de F9FF     		.short	-7
 4470 02e0 FDFF     		.short	-3
 4471 02e2 0700     		.short	7
 4472 02e4 0000     		.short	0
 4473 02e6 0600     		.short	6
 4474 02e8 FAFF     		.short	-6
 4475 02ea FDFF     		.short	-3
 4476 02ec FCFF     		.short	-4
 4477 02ee 0600     		.short	6
 4478 02f0 FFFF     		.short	-1
 4479 02f2 0700     		.short	7
 4480 02f4 FFFF     		.short	-1
 4481 02f6 FCFF     		.short	-4
 4482 02f8 FEFF     		.short	-2
 4483 02fa 0300     		.short	3
 4484 02fc FBFF     		.short	-5
 4485 02fe F9FF     		.short	-7
 4486 0300 FDFF     		.short	-3
 4487 0302 0100     		.short	1
 4488 0304 F8FF     		.short	-8
 4489 0306 FDFF     		.short	-3
 4490 0308 FAFF     		.short	-6
 4491 030a FAFF     		.short	-6
 4492 030c FBFF     		.short	-5
 4493 030e 0300     		.short	3
 4494 0310 0400     		.short	4
 4495 0312 FBFF     		.short	-5
 4496 0314 FEFF     		.short	-2
 4497 0316 0700     		.short	7
 4498 0318 F9FF     		.short	-7
 4499 031a 0700     		.short	7
 4500 031c 0400     		.short	4
 4501 031e F8FF     		.short	-8
 4502 0320 FDFF     		.short	-3
 4503 0322 0100     		.short	1
ARM GAS  /cygdrive/c/DOCUME~1/mkwapisz/LOCALS~1/Temp/ccLlueLU.s 			page 80


 4504 0324 F8FF     		.short	-8
 4505 0326 FDFF     		.short	-3
 4506 0328 FAFF     		.short	-6
 4507 032a FAFF     		.short	-6
 4508 032c FBFF     		.short	-5
 4509 032e 0300     		.short	3
 4510 0330 0400     		.short	4
 4511 0332 FBFF     		.short	-5
 4512 0334 FEFF     		.short	-2
 4513 0336 0700     		.short	7
 4514 0338 F9FF     		.short	-7
 4515 033a 0700     		.short	7
 4516 033c 0400     		.short	4
 4517 033e F8FF     		.short	-8
 4518 0340 FCFF     		.short	-4
 4519 0342 FBFF     		.short	-5
 4520 0344 FDFF     		.short	-3
 4521 0346 0400     		.short	4
 4522 0348 FDFF     		.short	-3
 4523 034a FDFF     		.short	-3
 4524 034c 0600     		.short	6
 4525 034e 0200     		.short	2
 4526 0350 FDFF     		.short	-3
 4527 0352 0400     		.short	4
 4528 0354 0700     		.short	7
 4529 0356 FEFF     		.short	-2
 4530 0358 FFFF     		.short	-1
 4531 035a FDFF     		.short	-3
 4532 035c FDFF     		.short	-3
 4533 035e 0700     		.short	7
 4534 0360 FCFF     		.short	-4
 4535 0362 FBFF     		.short	-5
 4536 0364 FDFF     		.short	-3
 4537 0366 0400     		.short	4
 4538 0368 FDFF     		.short	-3
 4539 036a FDFF     		.short	-3
 4540 036c 0600     		.short	6
 4541 036e 0200     		.short	2
 4542 0370 FDFF     		.short	-3
 4543 0372 0400     		.short	4
 4544 0374 0700     		.short	7
 4545 0376 FEFF     		.short	-2
 4546 0378 FFFF     		.short	-1
 4547 037a FDFF     		.short	-3
 4548 037c FDFF     		.short	-3
 4549 037e 0700     		.short	7
 4550 0380 FCFF     		.short	-4
 4551 0382 0500     		.short	5
 4552 0384 0100     		.short	1
 4553 0386 FCFF     		.short	-4
 4554 0388 0200     		.short	2
 4555 038a 0800     		.short	8
 4556 038c FEFF     		.short	-2
 4557 038e 0700     		.short	7
 4558 0390 FEFF     		.short	-2
 4559 0392 0400     		.short	4
 4560 0394 FCFF     		.short	-4
ARM GAS  /cygdrive/c/DOCUME~1/mkwapisz/LOCALS~1/Temp/ccLlueLU.s 			page 81


 4561 0396 0100     		.short	1
 4562 0398 0200     		.short	2
 4563 039a 0600     		.short	6
 4564 039c 0500     		.short	5
 4565 039e 0700     		.short	7
 4566 03a0 FCFF     		.short	-4
 4567 03a2 0500     		.short	5
 4568 03a4 0100     		.short	1
 4569 03a6 FCFF     		.short	-4
 4570 03a8 0200     		.short	2
 4571 03aa 0800     		.short	8
 4572 03ac FEFF     		.short	-2
 4573 03ae 0700     		.short	7
 4574 03b0 FEFF     		.short	-2
 4575 03b2 0400     		.short	4
 4576 03b4 FCFF     		.short	-4
 4577 03b6 0100     		.short	1
 4578 03b8 0200     		.short	2
 4579 03ba 0600     		.short	6
 4580 03bc 0500     		.short	5
 4581 03be 0700     		.short	7
 4582 03c0 FBFF     		.short	-5
 4583 03c2 FFFF     		.short	-1
 4584 03c4 0300     		.short	3
 4585 03c6 0600     		.short	6
 4586 03c8 F9FF     		.short	-7
 4587 03ca FFFF     		.short	-1
 4588 03cc 0400     		.short	4
 4589 03ce 0400     		.short	4
 4590 03d0 FAFF     		.short	-6
 4591 03d2 FFFF     		.short	-1
 4592 03d4 FEFF     		.short	-2
 4593 03d6 0000     		.short	0
 4594 03d8 0200     		.short	2
 4595 03da 0100     		.short	1
 4596 03dc FFFF     		.short	-1
 4597 03de 0600     		.short	6
 4598 03e0 FBFF     		.short	-5
 4599 03e2 FFFF     		.short	-1
 4600 03e4 0300     		.short	3
 4601 03e6 0600     		.short	6
 4602 03e8 F9FF     		.short	-7
 4603 03ea FFFF     		.short	-1
 4604 03ec 0400     		.short	4
 4605 03ee 0400     		.short	4
 4606 03f0 FAFF     		.short	-6
 4607 03f2 FFFF     		.short	-1
 4608 03f4 FEFF     		.short	-2
 4609 03f6 0000     		.short	0
 4610 03f8 0200     		.short	2
 4611 03fa 0100     		.short	1
 4612 03fc FFFF     		.short	-1
 4613 03fe 0600     		.short	6
 4614 0400 FBFF     		.short	-5
 4615 0402 0800     		.short	8
 4616 0404 0200     		.short	2
 4617 0406 0100     		.short	1
ARM GAS  /cygdrive/c/DOCUME~1/mkwapisz/LOCALS~1/Temp/ccLlueLU.s 			page 82


 4618 0408 0300     		.short	3
 4619 040a 0100     		.short	1
 4620 040c F9FF     		.short	-7
 4621 040e FDFF     		.short	-3
 4622 0410 0300     		.short	3
 4623 0412 0700     		.short	7
 4624 0414 FFFF     		.short	-1
 4625 0416 FDFF     		.short	-3
 4626 0418 FFFF     		.short	-1
 4627 041a FEFF     		.short	-2
 4628 041c F8FF     		.short	-8
 4629 041e 0500     		.short	5
 4630 0420 FBFF     		.short	-5
 4631 0422 0800     		.short	8
 4632 0424 0200     		.short	2
 4633 0426 0100     		.short	1
 4634 0428 0300     		.short	3
 4635 042a 0100     		.short	1
 4636 042c F9FF     		.short	-7
 4637 042e FDFF     		.short	-3
 4638 0430 0300     		.short	3
 4639 0432 0700     		.short	7
 4640 0434 FFFF     		.short	-1
 4641 0436 FDFF     		.short	-3
 4642 0438 FFFF     		.short	-1
 4643 043a FEFF     		.short	-2
 4644 043c F8FF     		.short	-8
 4645 043e 0500     		.short	5
 4646              		.ident	"GCC: (GNU) 4.1.1"
ARM GAS  /cygdrive/c/DOCUME~1/mkwapisz/LOCALS~1/Temp/ccLlueLU.s 			page 83

