ARM GAS  /cygdrive/c/DOCUME~1/mkwapisz/LOCALS~1/Temp/cc1OEM1Z.s 			page 1


   1              		.file	"synth_stereo.c"
   8 0000 0B0A0000 		.text
   8      02005100 
   8      00000201 
   8      FB0E0D00 
   8      01010101 
   9              	.Ltext0:
  10              		.align	2
  11              		.type	scale, %function
  12              	scale:
  13              	.LFB2:
  14              		.file 1 "synth_stereo.c"
   1:synth_stereo.c **** /*
   2:synth_stereo.c ****  * libmad - MPEG audio decoder library
   3:synth_stereo.c ****  * Copyright (C) 2000-2004 Underbit Technologies, Inc.
   4:synth_stereo.c ****  *
   5:synth_stereo.c ****  * This program is free software; you can redistribute it and/or modify
   6:synth_stereo.c ****  * it under the terms of the GNU General Public License as published by
   7:synth_stereo.c ****  * the Free Software Foundation; either version 2 of the License, or
   8:synth_stereo.c ****  * (at your option) any later version.
   9:synth_stereo.c ****  *
  10:synth_stereo.c ****  * This program is distributed in the hope that it will be useful,
  11:synth_stereo.c ****  * but WITHOUT ANY WARRANTY; without even the implied warranty of
  12:synth_stereo.c ****  * MERCHANTABILITY or FITNESS FOR A PARTICULAR PURPOSE.  See the
  13:synth_stereo.c ****  * GNU General Public License for more details.
  14:synth_stereo.c ****  *
  15:synth_stereo.c ****  * You should have received a copy of the GNU General Public License
  16:synth_stereo.c ****  * along with this program; if not, write to the Free Software
  17:synth_stereo.c ****  * Foundation, Inc., 59 Temple Place, Suite 330, Boston, MA  02111-1307  USA
  18:synth_stereo.c ****  *
  19:synth_stereo.c ****  * $Id: synth.c,v 1.25 2004/01/23 09:41:33 rob Exp $
  20:synth_stereo.c ****  */
  21:synth_stereo.c **** 
  22:synth_stereo.c **** # ifdef HAVE_CONFIG_H
  23:synth_stereo.c **** #  include "config.h"
  24:synth_stereo.c **** # endif
  25:synth_stereo.c **** 
  26:synth_stereo.c **** # include "global.h"
  27:synth_stereo.c **** 
  28:synth_stereo.c **** # include "fixed.h"
  29:synth_stereo.c **** # include "frame.h"
  30:synth_stereo.c **** # include "synth.h"
  31:synth_stereo.c **** # include "string.h"
  32:synth_stereo.c **** # include "../filesys/ioman.h"
  33:synth_stereo.c **** 
  34:synth_stereo.c **** 
  35:synth_stereo.c **** // #define SAVED_SAMPLE_BUFF_LEN   240000
  36:synth_stereo.c **** // unsigned int saved_idx = 0;
  37:synth_stereo.c **** // short int saved_samples[SAVED_SAMPLE_BUFF_LEN];
  38:synth_stereo.c **** 
  39:synth_stereo.c **** /*
ARM GAS  /cygdrive/c/DOCUME~1/mkwapisz/LOCALS~1/Temp/cc1OEM1Z.s 			page 2


  40:synth_stereo.c ****  * The following utility routine performs simple rounding, clipping, and
  41:synth_stereo.c ****  * scaling of MAD's high-resolution samples down to 16 bits. It does not
  42:synth_stereo.c ****  * perform any dithering or noise shaping, which would be recommended to
  43:synth_stereo.c ****  * obtain any exceptional audio quality. It is therefore not recommended to
  44:synth_stereo.c ****  * use this routine if high-quality output is desired.
  45:synth_stereo.c ****  */
  46:synth_stereo.c **** 
  47:synth_stereo.c **** static inline
  48:synth_stereo.c **** signed int scale(mad_fixed_t sample)
  49:synth_stereo.c **** {
  15              		.loc 1 49 0
  16              		@ Function supports interworking.
  17              		@ args = 0, pretend = 0, frame = 0
  18              		@ frame_needed = 0, uses_anonymous_args = 0
  19              		@ link register save eliminated.
  20              	.LVL0:
  50:synth_stereo.c ****   /* round */
  51:synth_stereo.c ****   sample += (1L << (MAD_F_FRACBITS - 16));
  21              		.loc 1 51 0
  22 0000 010A80E2 		add	r0, r0, #4096
  23              	.LVL1:
  24 0004 0F0250E3 		cmp	r0, #-268435456
  25 0008 0F02A0B3 		movlt	r0, #-268435456
  26              	.LVL2:
  27 000c 0F32E0E3 		mvn	r3, #-268435456
  28 0010 030050E1 		cmp	r0, r3
  29 0014 0300A0A1 		movge	r0, r3
  30              	.LVL3:
  52:synth_stereo.c **** 
  53:synth_stereo.c ****   /* clip */
  54:synth_stereo.c ****   if (sample >= MAD_F_ONE)
  55:synth_stereo.c ****     sample = MAD_F_ONE - 1;
  56:synth_stereo.c ****   else if (sample < -MAD_F_ONE)
  57:synth_stereo.c ****     sample = -MAD_F_ONE;
  58:synth_stereo.c **** 
  59:synth_stereo.c ****   /* quantize */
  60:synth_stereo.c ****   return sample >> (MAD_F_FRACBITS + 1 - 16);
  61:synth_stereo.c **** }
  31              		.loc 1 61 0
  32 0018 C006A0E1 		mov	r0, r0, asr #13
  33              		.loc 1 49 0
  34              		@ lr needed for prologue
  35              		.loc 1 61 0
  36 001c 1EFF2FE1 		bx	lr
  37              	.LFE2:
  38              		.size	scale, .-scale
  39              		.align	2
  40              		.global	mad_synth_mute
  41              		.type	mad_synth_mute, %function
  42              	mad_synth_mute:
  43              	.LFB4:
  62:synth_stereo.c **** /*
  63:synth_stereo.c ****  * NAME:	synth->init()
  64:synth_stereo.c ****  * DESCRIPTION:	initialize synth struct
  65:synth_stereo.c ****  */
  66:synth_stereo.c **** void mad_synth_init(struct mad_synth *synth)
  67:synth_stereo.c **** {
ARM GAS  /cygdrive/c/DOCUME~1/mkwapisz/LOCALS~1/Temp/cc1OEM1Z.s 			page 3


  68:synth_stereo.c ****   mad_synth_mute(synth);
  69:synth_stereo.c **** 
  70:synth_stereo.c ****   synth->phase = 0;
  71:synth_stereo.c **** 
  72:synth_stereo.c ****   synth->pcm.samplerate = 0;
  73:synth_stereo.c ****   synth->pcm.channels   = 0;
  74:synth_stereo.c ****   synth->pcm.length     = 0;  
  75:synth_stereo.c **** }
  76:synth_stereo.c **** 
  77:synth_stereo.c **** /*
  78:synth_stereo.c ****  * NAME:	synth->mute()
  79:synth_stereo.c ****  * DESCRIPTION:	zero all polyphase filterbank values, resetting synthesis
  80:synth_stereo.c ****  */
  81:synth_stereo.c **** void mad_synth_mute(struct mad_synth *synth)
  82:synth_stereo.c **** {
  44              		.loc 1 82 0
  45              		@ Function supports interworking.
  46              		@ args = 0, pretend = 0, frame = 0
  47              		@ frame_needed = 0, uses_anonymous_args = 0
  48              	.LVL4:
  49 0020 04E02DE5 		str	lr, [sp, #-4]!
  50              	.LCFI0:
  51              		.loc 1 82 0
  52 0024 00E0A0E3 		mov	lr, #0
  53              	.LVL5:
  54 0028 150000EA 		b	.L4
  55              	.LVL6:
  56              	.L5:
  83:synth_stereo.c ****   unsigned int ch, s, v;
  84:synth_stereo.c **** 
  85:synth_stereo.c ****   for (ch = 0; ch < 2; ++ch) {
  86:synth_stereo.c ****     for (s = 0; s < 16; ++s) {
  87:synth_stereo.c ****       for (v = 0; v < 8; ++v) {
  57              		.loc 1 87 0
  58 002c 011081E2 		add	r1, r1, #1
  88:synth_stereo.c ****             synth->filter[ch][0][0][s][v] = synth->filter[ch][0][1][s][v] =
  59              		.loc 1 88 0
  60 0030 0030A0E3 		mov	r3, #0
  61              		.loc 1 87 0
  62 0034 080051E3 		cmp	r1, #8
  63              		.loc 1 88 0
  64 0038 003602E5 		str	r3, [r2, #-1536]
  65 003c 003082E5 		str	r3, [r2, #0]
  66 0040 003202E5 		str	r3, [r2, #-512]
  67 0044 003402E5 		str	r3, [r2, #-1024]
  68              		.loc 1 87 0
  69 0048 042082E2 		add	r2, r2, #4
  70 004c F6FFFF1A 		bne	.L5
  71              		.loc 1 86 0
  72 0050 01C08CE2 		add	ip, ip, #1
  73 0054 10005CE3 		cmp	ip, #16
  74 0058 0300001A 		bne	.L7
  75              		.loc 1 85 0
  76 005c 01E08EE2 		add	lr, lr, #1
  77 0060 02005EE3 		cmp	lr, #2
  78 0064 0800000A 		beq	.L16
  79 0068 050000EA 		b	.L4
ARM GAS  /cygdrive/c/DOCUME~1/mkwapisz/LOCALS~1/Temp/cc1OEM1Z.s 			page 4


  80              	.L7:
  89:synth_stereo.c **** 	    synth->filter[ch][1][0][s][v] = synth->filter[ch][1][1][s][v] = 0;
  90:synth_stereo.c ****       }
  91:synth_stereo.c ****     }
  92:synth_stereo.c ****   }
  93:synth_stereo.c **** }
  81              		.loc 1 93 0
  82 006c 0E338CE0 		add	r3, ip, lr, asl #6
  83 0070 8332A0E1 		mov	r3, r3, asl #5
  84 0074 063C83E2 		add	r3, r3, #1536
  85 0078 032080E0 		add	r2, r0, r3
  86 007c 0010A0E3 		mov	r1, #0
  87 0080 E9FFFFEA 		b	.L5
  88              	.L4:
  89 0084 00C0A0E3 		mov	ip, #0
  90 0088 F7FFFFEA 		b	.L7
  91              	.L16:
  92 008c 04E09DE4 		ldr	lr, [sp], #4
  93 0090 1EFF2FE1 		bx	lr
  94              	.LFE4:
  95              		.size	mad_synth_mute, .-mad_synth_mute
  96              		.align	2
  97              		.global	mad_synth_init
  98              		.type	mad_synth_init, %function
  99              	mad_synth_init:
 100              	.LFB3:
 101              		.loc 1 67 0
 102              		@ Function supports interworking.
 103              		@ args = 0, pretend = 0, frame = 0
 104              		@ frame_needed = 0, uses_anonymous_args = 0
 105              	.LVL7:
 106 0094 10402DE9 		stmfd	sp!, {r4, lr}
 107              	.LCFI1:
 108              		.loc 1 67 0
 109 0098 0040A0E1 		mov	r4, r0
 110              		.loc 1 68 0
 111 009c FEFFFFEB 		bl	mad_synth_mute
 112              	.LVL8:
 113              		.loc 1 74 0
 114 00a0 24309FE5 		ldr	r3, .L19
 115              		.loc 1 70 0
 116 00a4 0020A0E3 		mov	r2, #0
 117              		.loc 1 74 0
 118 00a8 B32084E1 		strh	r2, [r4, r3]	@ movhi
 119              		.loc 1 70 0
 120 00ac 013AA0E3 		mov	r3, #4096
 121 00b0 032084E7 		str	r2, [r4, r3]
 122              		.loc 1 72 0
 123 00b4 043083E2 		add	r3, r3, #4
 124 00b8 032084E7 		str	r2, [r4, r3]
 125              		.loc 1 73 0
 126 00bc 043083E2 		add	r3, r3, #4
 127 00c0 B32084E1 		strh	r2, [r4, r3]	@ movhi
 128              		.loc 1 75 0
 129 00c4 1040BDE8 		ldmfd	sp!, {r4, lr}
 130 00c8 1EFF2FE1 		bx	lr
 131              	.L20:
ARM GAS  /cygdrive/c/DOCUME~1/mkwapisz/LOCALS~1/Temp/cc1OEM1Z.s 			page 5


 132              		.align	2
 133              	.L19:
 134 00cc 0A100000 		.word	4106
 135              	.LFE3:
 136              		.size	mad_synth_init, .-mad_synth_init
 137              		.align	2
 138              		.global	mad_synth_frame
 139              		.type	mad_synth_frame, %function
 140              	mad_synth_frame:
 141              	.LFB8:
  94:synth_stereo.c **** 
  95:synth_stereo.c **** /*
  96:synth_stereo.c ****  * An optional optimization called here the Subband Synthesis Optimization
  97:synth_stereo.c ****  * (SSO) improves the performance of subband synthesis at the expense of
  98:synth_stereo.c ****  * accuracy.
  99:synth_stereo.c ****  *
 100:synth_stereo.c ****  * The idea is to simplify 32x32->64-bit multiplication to 32x32->32 such
 101:synth_stereo.c ****  * that extra scaling and rounding are not necessary. This often allows the
 102:synth_stereo.c ****  * compiler to use faster 32-bit multiply-accumulate instructions instead of
 103:synth_stereo.c ****  * explicit 64-bit multiply, shift, and add instructions.
 104:synth_stereo.c ****  *
 105:synth_stereo.c ****  * SSO works like this: a full 32x32->64-bit multiply of two mad_fixed_t
 106:synth_stereo.c ****  * values requires the result to be right-shifted 28 bits to be properly
 107:synth_stereo.c ****  * scaled to the same fixed-point format. Right shifts can be applied at any
 108:synth_stereo.c ****  * time to either operand or to the result, so the optimization involves
 109:synth_stereo.c ****  * careful placement of these shifts to minimize the loss of accuracy.
 110:synth_stereo.c ****  *
 111:synth_stereo.c ****  * First, a 14-bit shift is applied with rounding at compile-time to the D[]
 112:synth_stereo.c ****  * table of coefficients for the subband synthesis window. This only loses 2
 113:synth_stereo.c ****  * bits of accuracy because the lower 12 bits are always zero. A second
 114:synth_stereo.c ****  * 12-bit shift occurs after the DCT calculation. This loses 12 bits of
 115:synth_stereo.c ****  * accuracy. Finally, a third 2-bit shift occurs just before the sample is
 116:synth_stereo.c ****  * saved in the PCM buffer. 14 + 12 + 2 == 28 bits.
 117:synth_stereo.c ****  */
 118:synth_stereo.c **** 
 119:synth_stereo.c **** /* FPM_DEFAULT without OPT_SSO will actually lose accuracy and performance */
 120:synth_stereo.c **** 
 121:synth_stereo.c **** # if defined(FPM_DEFAULT) && !defined(OPT_SSO)
 122:synth_stereo.c **** #  define OPT_SSO
 123:synth_stereo.c **** # endif
 124:synth_stereo.c **** 
 125:synth_stereo.c **** /* second SSO shift, with rounding */
 126:synth_stereo.c **** 
 127:synth_stereo.c **** # if defined(OPT_SSO)
 128:synth_stereo.c **** #  define SHIFT(x)  (((x) + (1L << 11)) >> 12)
 129:synth_stereo.c **** # else
 130:synth_stereo.c **** #  define SHIFT(x)  (x)
 131:synth_stereo.c **** # endif
 132:synth_stereo.c **** 
 133:synth_stereo.c **** /* possible DCT speed optimization */
 134:synth_stereo.c **** 
 135:synth_stereo.c **** # if defined(OPT_SPEED) && defined(MAD_F_MLX)
 136:synth_stereo.c **** #  define OPT_DCTO
 137:synth_stereo.c **** #  define MUL(x, y)  \
 138:synth_stereo.c ****     ({ mad_fixed64hi_t hi;  \
 139:synth_stereo.c ****        mad_fixed64lo_t lo;  \
 140:synth_stereo.c ****        MAD_F_MLX(hi, lo, (x), (y));  \
ARM GAS  /cygdrive/c/DOCUME~1/mkwapisz/LOCALS~1/Temp/cc1OEM1Z.s 			page 6


 141:synth_stereo.c ****        hi << (32 - MAD_F_SCALEBITS - 3);  \
 142:synth_stereo.c ****     })
 143:synth_stereo.c **** # else
 144:synth_stereo.c **** #  undef OPT_DCTO
 145:synth_stereo.c **** #  define MUL(x, y)  mad_f_mul((x), (y))
 146:synth_stereo.c **** # endif
 147:synth_stereo.c **** 
 148:synth_stereo.c **** /*
 149:synth_stereo.c ****  * NAME:	dct32()
 150:synth_stereo.c ****  * DESCRIPTION:	perform fast in[32]->out[32] DCT
 151:synth_stereo.c ****  */
 152:synth_stereo.c **** static
 153:synth_stereo.c **** void dct32(mad_fixed_t const in[32], unsigned int slot,
 154:synth_stereo.c **** 	   mad_fixed_t lo[16][8], mad_fixed_t hi[16][8])
 155:synth_stereo.c **** {
 156:synth_stereo.c **** 	/*
 157:synth_stereo.c ****   mad_fixed_t t0,   t1,   t2,   t3,   t4,   t5,   t6,   t7;
 158:synth_stereo.c ****   mad_fixed_t t8,   t9,   t10,  t11,  t12,  t13,  t14,  t15;
 159:synth_stereo.c ****   mad_fixed_t t16,  t17,  t18,  t19,  t20,  t21,  t22,  t23;
 160:synth_stereo.c ****   mad_fixed_t t24,  t25,  t26,  t27,  t28,  t29,  t30,  t31;
 161:synth_stereo.c ****   mad_fixed_t t32,  t33,  t34,  t35,  t36,  t37,  t38,  t39;
 162:synth_stereo.c ****   mad_fixed_t t40,  t41,  t42,  t43,  t44,  t45,  t46,  t47;
 163:synth_stereo.c ****   mad_fixed_t t48,  t49,  t50,  t51,  t52,  t53,  t54,  t55;
 164:synth_stereo.c ****   mad_fixed_t t56,  t57,  t58,  t59,  t60,  t61,  t62,  t63;
 165:synth_stereo.c ****   mad_fixed_t t64,  t65,  t66,  t67,  t68,  t69,  t70,  t71;
 166:synth_stereo.c ****   mad_fixed_t t72,  t73,  t74,  t75,  t76,  t77,  t78,  t79;
 167:synth_stereo.c ****   mad_fixed_t t80,  t81,  t82,  t83,  t84,  t85,  t86,  t87;
 168:synth_stereo.c ****   mad_fixed_t t88,  t89,  t90,  t91,  t92,  t93,  t94,  t95;
 169:synth_stereo.c ****   mad_fixed_t t96,  t97,  t98,  t99,  t100, t101, t102, t103;
 170:synth_stereo.c ****   mad_fixed_t t104, t105, t106, t107, t108, t109, t110, t111;
 171:synth_stereo.c ****   mad_fixed_t t112, t113, t114, t115, t116, t117, t118, t119;
 172:synth_stereo.c ****   mad_fixed_t t120, t121, t122, t123, t124, t125, t126, t127;
 173:synth_stereo.c ****   mad_fixed_t t128, t129, t130, t131, t132, t133, t134, t135;
 174:synth_stereo.c ****   mad_fixed_t t136, t137, t138, t139, t140, t141, t142, t143;
 175:synth_stereo.c ****   mad_fixed_t t144, t145, t146, t147, t148, t149, t150, t151;
 176:synth_stereo.c ****   mad_fixed_t t152, t153, t154, t155, t156, t157, t158, t159;
 177:synth_stereo.c ****   mad_fixed_t t160, t161, t162, t163, t164, t165, t166, t167;
 178:synth_stereo.c ****   mad_fixed_t t168, t169, t170, t171, t172, t173, t174, t175;
 179:synth_stereo.c ****   mad_fixed_t t176;
 180:synth_stereo.c ****   */
 181:synth_stereo.c **** 
 182:synth_stereo.c ****   /* costab[i] = cos(PI / (2 * 32) * i) */
 183:synth_stereo.c **** 
 184:synth_stereo.c **** # if defined(OPT_DCTO)
 185:synth_stereo.c **** #  define costab1	MAD_F(0x7fd8878e)
 186:synth_stereo.c **** #  define costab2	MAD_F(0x7f62368f)
 187:synth_stereo.c **** #  define costab3	MAD_F(0x7e9d55fc)
 188:synth_stereo.c **** #  define costab4	MAD_F(0x7d8a5f40)
 189:synth_stereo.c **** #  define costab5	MAD_F(0x7c29fbee)
 190:synth_stereo.c **** #  define costab6	MAD_F(0x7a7d055b)
 191:synth_stereo.c **** #  define costab7	MAD_F(0x78848414)
 192:synth_stereo.c **** #  define costab8	MAD_F(0x7641af3d)
 193:synth_stereo.c **** #  define costab9	MAD_F(0x73b5ebd1)
 194:synth_stereo.c **** #  define costab10	MAD_F(0x70e2cbc6)
 195:synth_stereo.c **** #  define costab11	MAD_F(0x6dca0d14)
 196:synth_stereo.c **** #  define costab12	MAD_F(0x6a6d98a4)
 197:synth_stereo.c **** #  define costab13	MAD_F(0x66cf8120)
ARM GAS  /cygdrive/c/DOCUME~1/mkwapisz/LOCALS~1/Temp/cc1OEM1Z.s 			page 7


 198:synth_stereo.c **** #  define costab14	MAD_F(0x62f201ac)
 199:synth_stereo.c **** #  define costab15	MAD_F(0x5ed77c8a)
 200:synth_stereo.c **** #  define costab16	MAD_F(0x5a82799a)
 201:synth_stereo.c **** #  define costab17	MAD_F(0x55f5a4d2)
 202:synth_stereo.c **** #  define costab18	MAD_F(0x5133cc94)
 203:synth_stereo.c **** #  define costab19	MAD_F(0x4c3fdff4)
 204:synth_stereo.c **** #  define costab20	MAD_F(0x471cece7)
 205:synth_stereo.c **** #  define costab21	MAD_F(0x41ce1e65)
 206:synth_stereo.c **** #  define costab22	MAD_F(0x3c56ba70)
 207:synth_stereo.c **** #  define costab23	MAD_F(0x36ba2014)
 208:synth_stereo.c **** #  define costab24	MAD_F(0x30fbc54d)
 209:synth_stereo.c **** #  define costab25	MAD_F(0x2b1f34eb)
 210:synth_stereo.c **** #  define costab26	MAD_F(0x25280c5e)
 211:synth_stereo.c **** #  define costab27	MAD_F(0x1f19f97b)
 212:synth_stereo.c **** #  define costab28	MAD_F(0x18f8b83c)
 213:synth_stereo.c **** #  define costab29	MAD_F(0x12c8106f)
 214:synth_stereo.c **** #  define costab30	MAD_F(0x0c8bd35e)
 215:synth_stereo.c **** #  define costab31	MAD_F(0x0647d97c)
 216:synth_stereo.c **** # else
 217:synth_stereo.c **** #  define costab1	MAD_F(0x0ffb10f2)  /* 0.998795456 */
 218:synth_stereo.c **** #  define costab2	MAD_F(0x0fec46d2)  /* 0.995184727 */
 219:synth_stereo.c **** #  define costab3	MAD_F(0x0fd3aac0)  /* 0.989176510 */
 220:synth_stereo.c **** #  define costab4	MAD_F(0x0fb14be8)  /* 0.980785280 */
 221:synth_stereo.c **** #  define costab5	MAD_F(0x0f853f7e)  /* 0.970031253 */
 222:synth_stereo.c **** #  define costab6	MAD_F(0x0f4fa0ab)  /* 0.956940336 */
 223:synth_stereo.c **** #  define costab7	MAD_F(0x0f109082)  /* 0.941544065 */
 224:synth_stereo.c **** #  define costab8	MAD_F(0x0ec835e8)  /* 0.923879533 */
 225:synth_stereo.c **** #  define costab9	MAD_F(0x0e76bd7a)  /* 0.903989293 */
 226:synth_stereo.c **** #  define costab10	MAD_F(0x0e1c5979)  /* 0.881921264 */
 227:synth_stereo.c **** #  define costab11	MAD_F(0x0db941a3)  /* 0.857728610 */
 228:synth_stereo.c **** #  define costab12	MAD_F(0x0d4db315)  /* 0.831469612 */
 229:synth_stereo.c **** #  define costab13	MAD_F(0x0cd9f024)  /* 0.803207531 */
 230:synth_stereo.c **** #  define costab14	MAD_F(0x0c5e4036)  /* 0.773010453 */
 231:synth_stereo.c **** #  define costab15	MAD_F(0x0bdaef91)  /* 0.740951125 */
 232:synth_stereo.c **** #  define costab16	MAD_F(0x0b504f33)  /* 0.707106781 */
 233:synth_stereo.c **** #  define costab17	MAD_F(0x0abeb49a)  /* 0.671558955 */
 234:synth_stereo.c **** #  define costab18	MAD_F(0x0a267993)  /* 0.634393284 */
 235:synth_stereo.c **** #  define costab19	MAD_F(0x0987fbfe)  /* 0.595699304 */
 236:synth_stereo.c **** #  define costab20	MAD_F(0x08e39d9d)  /* 0.555570233 */
 237:synth_stereo.c **** #  define costab21	MAD_F(0x0839c3cd)  /* 0.514102744 */
 238:synth_stereo.c **** #  define costab22	MAD_F(0x078ad74e)  /* 0.471396737 */
 239:synth_stereo.c **** #  define costab23	MAD_F(0x06d74402)  /* 0.427555093 */
 240:synth_stereo.c **** #  define costab24	MAD_F(0x061f78aa)  /* 0.382683432 */
 241:synth_stereo.c **** #  define costab25	MAD_F(0x0563e69d)  /* 0.336889853 */
 242:synth_stereo.c **** #  define costab26	MAD_F(0x04a5018c)  /* 0.290284677 */
 243:synth_stereo.c **** #  define costab27	MAD_F(0x03e33f2f)  /* 0.242980180 */
 244:synth_stereo.c **** #  define costab28	MAD_F(0x031f1708)  /* 0.195090322 */
 245:synth_stereo.c **** #  define costab29	MAD_F(0x0259020e)  /* 0.146730474 */
 246:synth_stereo.c **** #  define costab30	MAD_F(0x01917a6c)  /* 0.098017140 */
 247:synth_stereo.c **** #  define costab31	MAD_F(0x00c8fb30)  /* 0.049067674 */
 248:synth_stereo.c **** # endif
 249:synth_stereo.c **** 
 250:synth_stereo.c ****   const mad_fixed_t t0   = in[0]  + in[31];  const mad_fixed_t t16  = MUL(in[0]  - in[31], costab1)
 251:synth_stereo.c ****   const mad_fixed_t t1   = in[15] + in[16];  const mad_fixed_t t17  = MUL(in[15] - in[16], costab31
 252:synth_stereo.c **** 
 253:synth_stereo.c ****   const mad_fixed_t t41  = t16 + t17;
 254:synth_stereo.c ****   const mad_fixed_t t59  = MUL(t16 - t17, costab2);
ARM GAS  /cygdrive/c/DOCUME~1/mkwapisz/LOCALS~1/Temp/cc1OEM1Z.s 			page 8


 255:synth_stereo.c ****   const mad_fixed_t t33  = t0  + t1;
 256:synth_stereo.c ****   const mad_fixed_t t50  = MUL(t0  - t1,  costab2);
 257:synth_stereo.c **** 
 258:synth_stereo.c ****   const mad_fixed_t t2   = in[7]  + in[24];  const mad_fixed_t t18  = MUL(in[7]  - in[24], costab15
 259:synth_stereo.c ****   const mad_fixed_t t3   = in[8]  + in[23];  const mad_fixed_t t19  = MUL(in[8]  - in[23], costab17
 260:synth_stereo.c **** 
 261:synth_stereo.c ****   const mad_fixed_t t42  = t18 + t19;
 262:synth_stereo.c ****   const mad_fixed_t t60  = MUL(t18 - t19, costab30);
 263:synth_stereo.c ****   const mad_fixed_t t34  = t2  + t3;
 264:synth_stereo.c ****   const mad_fixed_t t51  = MUL(t2  - t3,  costab30);
 265:synth_stereo.c **** 
 266:synth_stereo.c ****   const mad_fixed_t t4   = in[3]  + in[28];  const mad_fixed_t t20  = MUL(in[3]  - in[28], costab7)
 267:synth_stereo.c ****   const mad_fixed_t t5   = in[12] + in[19];  const mad_fixed_t t21  = MUL(in[12] - in[19], costab25
 268:synth_stereo.c **** 
 269:synth_stereo.c ****   const mad_fixed_t t43  = t20 + t21;
 270:synth_stereo.c ****   const mad_fixed_t t61  = MUL(t20 - t21, costab14);
 271:synth_stereo.c ****   const mad_fixed_t t35  = t4  + t5;
 272:synth_stereo.c ****   const mad_fixed_t t52  = MUL(t4  - t5,  costab14);
 273:synth_stereo.c **** 
 274:synth_stereo.c ****   const mad_fixed_t t6   = in[4]  + in[27];  const mad_fixed_t t22  = MUL(in[4]  - in[27], costab9)
 275:synth_stereo.c ****   const mad_fixed_t t7   = in[11] + in[20];  const mad_fixed_t t23  = MUL(in[11] - in[20], costab23
 276:synth_stereo.c **** 
 277:synth_stereo.c ****   const mad_fixed_t t44  = t22 + t23;
 278:synth_stereo.c ****   const mad_fixed_t t62  = MUL(t22 - t23, costab18);
 279:synth_stereo.c ****   const mad_fixed_t t36  = t6  + t7;
 280:synth_stereo.c ****   const mad_fixed_t t53  = MUL(t6  - t7,  costab18);
 281:synth_stereo.c **** 
 282:synth_stereo.c ****   const mad_fixed_t t8   = in[1]  + in[30];  const mad_fixed_t t24  = MUL(in[1]  - in[30], costab3)
 283:synth_stereo.c ****   const mad_fixed_t t9   = in[14] + in[17];  const mad_fixed_t t25  = MUL(in[14] - in[17], costab29
 284:synth_stereo.c **** 
 285:synth_stereo.c ****   const mad_fixed_t t45  = t24 + t25;
 286:synth_stereo.c ****   const mad_fixed_t t63  = MUL(t24 - t25, costab6);
 287:synth_stereo.c ****   const mad_fixed_t t37  = t8  + t9;
 288:synth_stereo.c ****   const mad_fixed_t t54  = MUL(t8  - t9,  costab6);
 289:synth_stereo.c **** 
 290:synth_stereo.c ****   const mad_fixed_t t10  = in[6]  + in[25];  const mad_fixed_t t26  = MUL(in[6]  - in[25], costab13
 291:synth_stereo.c ****   const mad_fixed_t t11  = in[9]  + in[22];  const mad_fixed_t t27  = MUL(in[9]  - in[22], costab19
 292:synth_stereo.c **** 
 293:synth_stereo.c ****   const mad_fixed_t t46  = t26 + t27;
 294:synth_stereo.c ****   const mad_fixed_t t64  = MUL(t26 - t27, costab26);
 295:synth_stereo.c ****   const mad_fixed_t t38  = t10 + t11;
 296:synth_stereo.c ****   const mad_fixed_t t55  = MUL(t10 - t11, costab26);
 297:synth_stereo.c **** 
 298:synth_stereo.c ****   const mad_fixed_t t12  = in[2]  + in[29];  const mad_fixed_t t28  = MUL(in[2]  - in[29], costab5)
 299:synth_stereo.c ****   const mad_fixed_t t13  = in[13] + in[18];  const mad_fixed_t t29  = MUL(in[13] - in[18], costab27
 300:synth_stereo.c **** 
 301:synth_stereo.c ****   const mad_fixed_t t47  = t28 + t29;
 302:synth_stereo.c ****   const mad_fixed_t t65  = MUL(t28 - t29, costab10);
 303:synth_stereo.c ****   const mad_fixed_t t39  = t12 + t13;
 304:synth_stereo.c ****   const mad_fixed_t t56  = MUL(t12 - t13, costab10);
 305:synth_stereo.c **** 
 306:synth_stereo.c ****   const mad_fixed_t t14  = in[5]  + in[26];  const mad_fixed_t t30  = MUL(in[5]  - in[26], costab11
 307:synth_stereo.c ****   const mad_fixed_t t15  = in[10] + in[21];  const mad_fixed_t t31  = MUL(in[10] - in[21], costab21
 308:synth_stereo.c **** 
 309:synth_stereo.c ****   const mad_fixed_t t48  = t30 + t31;
 310:synth_stereo.c ****   const mad_fixed_t t66  = MUL(t30 - t31, costab22);
 311:synth_stereo.c ****   const mad_fixed_t t40  = t14 + t15;
ARM GAS  /cygdrive/c/DOCUME~1/mkwapisz/LOCALS~1/Temp/cc1OEM1Z.s 			page 9


 312:synth_stereo.c ****   const mad_fixed_t t57  = MUL(t14 - t15, costab22);
 313:synth_stereo.c **** 
 314:synth_stereo.c ****   const mad_fixed_t t69  = t33 + t34; const mad_fixed_t  t89  = MUL(t33 - t34, costab4);
 315:synth_stereo.c ****   const mad_fixed_t t70  = t35 + t36; const mad_fixed_t  t90  = MUL(t35 - t36, costab28);
 316:synth_stereo.c ****   const mad_fixed_t t71  = t37 + t38; const mad_fixed_t  t91  = MUL(t37 - t38, costab12);
 317:synth_stereo.c ****   const mad_fixed_t t72  = t39 + t40; const mad_fixed_t  t92  = MUL(t39 - t40, costab20);
 318:synth_stereo.c ****   const mad_fixed_t t73  = t41 + t42; const mad_fixed_t  t94  = MUL(t41 - t42, costab4);
 319:synth_stereo.c ****   const mad_fixed_t t74  = t43 + t44; const mad_fixed_t  t95  = MUL(t43 - t44, costab28);
 320:synth_stereo.c ****   const mad_fixed_t  t75  = t45 + t46; const mad_fixed_t  t96  = MUL(t45 - t46, costab12);
 321:synth_stereo.c ****   const mad_fixed_t  t76  = t47 + t48; const mad_fixed_t  t97  = MUL(t47 - t48, costab20);
 322:synth_stereo.c **** 
 323:synth_stereo.c ****   const mad_fixed_t t78  = t50 + t51;  const mad_fixed_t t100 = MUL(t50 - t51, costab4);
 324:synth_stereo.c ****   const mad_fixed_t t79  = t52 + t53;  const mad_fixed_t t101 = MUL(t52 - t53, costab28);
 325:synth_stereo.c ****   const mad_fixed_t t80  = t54 + t55;  const mad_fixed_t t102 = MUL(t54 - t55, costab12);
 326:synth_stereo.c ****   const mad_fixed_t t81  = t56 + t57;  const mad_fixed_t t103 = MUL(t56 - t57, costab20);
 327:synth_stereo.c **** 
 328:synth_stereo.c ****   const mad_fixed_t t83  = t59 + t60;  const mad_fixed_t t106 = MUL(t59 - t60, costab4);
 329:synth_stereo.c ****   const mad_fixed_t t84  = t61 + t62;  const mad_fixed_t t107 = MUL(t61 - t62, costab28);
 330:synth_stereo.c ****   const mad_fixed_t t85  = t63 + t64;  const mad_fixed_t t108 = MUL(t63 - t64, costab12);
 331:synth_stereo.c ****   const mad_fixed_t t86  = t65 + t66;  const mad_fixed_t t109 = MUL(t65 - t66, costab20);
 332:synth_stereo.c **** 
 333:synth_stereo.c ****   const mad_fixed_t t113 = t69  + t70;
 334:synth_stereo.c ****   const mad_fixed_t t114 = t71  + t72;
 335:synth_stereo.c **** 
 336:synth_stereo.c ****   /*  0 */ hi[15][slot] = SHIFT(t113 + t114);
 337:synth_stereo.c ****   /* 16 */ lo[ 0][slot] = SHIFT(MUL(t113 - t114, costab16));
 338:synth_stereo.c **** 
 339:synth_stereo.c ****   const mad_fixed_t t115 = t73  + t74;
 340:synth_stereo.c ****   const mad_fixed_t t116 = t75  + t76;
 341:synth_stereo.c **** 
 342:synth_stereo.c ****   const mad_fixed_t t32  = t115 + t116;
 343:synth_stereo.c **** 
 344:synth_stereo.c ****   /*  1 */ hi[14][slot] = SHIFT(t32);
 345:synth_stereo.c **** 
 346:synth_stereo.c ****   const mad_fixed_t t118 = t78  + t79;
 347:synth_stereo.c ****   const mad_fixed_t t119 = t80  + t81;
 348:synth_stereo.c **** 
 349:synth_stereo.c ****   const mad_fixed_t t58  = t118 + t119;
 350:synth_stereo.c **** 
 351:synth_stereo.c ****   /*  2 */ hi[13][slot] = SHIFT(t58);
 352:synth_stereo.c **** 
 353:synth_stereo.c ****   const mad_fixed_t t121 = t83  + t84;
 354:synth_stereo.c ****   const mad_fixed_t t122 = t85  + t86;
 355:synth_stereo.c **** 
 356:synth_stereo.c ****   const mad_fixed_t  t67  = t121 + t122;
 357:synth_stereo.c **** 
 358:synth_stereo.c ****   const mad_fixed_t t49  = (t67 * 2) - t32;
 359:synth_stereo.c **** 
 360:synth_stereo.c ****   /*  3 */ hi[12][slot] = SHIFT(t49);
 361:synth_stereo.c **** 
 362:synth_stereo.c ****   const mad_fixed_t t125 = t89  + t90;
 363:synth_stereo.c ****   const mad_fixed_t t126 = t91  + t92;
 364:synth_stereo.c **** 
 365:synth_stereo.c ****   const mad_fixed_t t93  = t125 + t126;
 366:synth_stereo.c **** 
 367:synth_stereo.c ****   /*  4 */ hi[11][slot] = SHIFT(t93);
 368:synth_stereo.c **** 
ARM GAS  /cygdrive/c/DOCUME~1/mkwapisz/LOCALS~1/Temp/cc1OEM1Z.s 			page 10


 369:synth_stereo.c ****   const mad_fixed_t t128 = t94  + t95;
 370:synth_stereo.c ****   const mad_fixed_t t129 = t96  + t97;
 371:synth_stereo.c **** 
 372:synth_stereo.c ****   const mad_fixed_t t98  = t128 + t129;
 373:synth_stereo.c **** 
 374:synth_stereo.c ****   const mad_fixed_t t68  = (t98 * 2) - t49;
 375:synth_stereo.c **** 
 376:synth_stereo.c ****   /*  5 */ hi[10][slot] = SHIFT(t68);
 377:synth_stereo.c **** 
 378:synth_stereo.c ****   const mad_fixed_t t132 = t100 + t101;
 379:synth_stereo.c ****   const mad_fixed_t t133 = t102 + t103;
 380:synth_stereo.c **** 
 381:synth_stereo.c ****   const mad_fixed_t t104 = t132 + t133;
 382:synth_stereo.c **** 
 383:synth_stereo.c ****   const mad_fixed_t t82  = (t104 * 2) - t58;
 384:synth_stereo.c **** 
 385:synth_stereo.c ****   /*  6 */ hi[ 9][slot] = SHIFT(t82);
 386:synth_stereo.c **** 
 387:synth_stereo.c ****   const mad_fixed_t t136 = t106 + t107;
 388:synth_stereo.c ****   const mad_fixed_t t137 = t108 + t109;
 389:synth_stereo.c **** 
 390:synth_stereo.c ****   const mad_fixed_t t110 = t136 + t137;
 391:synth_stereo.c **** 
 392:synth_stereo.c ****   const mad_fixed_t t87  = (t110 * 2) - t67;
 393:synth_stereo.c **** 
 394:synth_stereo.c ****   const mad_fixed_t t77  = (t87 * 2) - t68;
 395:synth_stereo.c **** 
 396:synth_stereo.c ****   /*  7 */ hi[ 8][slot] = SHIFT(t77);
 397:synth_stereo.c **** 
 398:synth_stereo.c ****   const mad_fixed_t t141 = MUL(t69 - t70, costab8);
 399:synth_stereo.c ****   const mad_fixed_t t142 = MUL(t71 - t72, costab24);
 400:synth_stereo.c ****   const mad_fixed_t t143 = t141 + t142;
 401:synth_stereo.c **** 
 402:synth_stereo.c ****   /*  8 */ hi[ 7][slot] = SHIFT(t143);
 403:synth_stereo.c ****   /* 24 */ lo[ 8][slot] =
 404:synth_stereo.c **** 	     SHIFT((MUL(t141 - t142, costab16) * 2) - t143);
 405:synth_stereo.c **** 
 406:synth_stereo.c ****   const mad_fixed_t t144 = MUL(t73 - t74, costab8);
 407:synth_stereo.c ****   const mad_fixed_t t145 = MUL(t75 - t76, costab24);
 408:synth_stereo.c ****   const mad_fixed_t t146 = t144 + t145;
 409:synth_stereo.c **** 
 410:synth_stereo.c ****   const mad_fixed_t t88  = (t146 * 2) - t77;
 411:synth_stereo.c **** 
 412:synth_stereo.c ****   /*  9 */ hi[ 6][slot] = SHIFT(t88);
 413:synth_stereo.c **** 
 414:synth_stereo.c ****   const mad_fixed_t t148 = MUL(t78 - t79, costab8);
 415:synth_stereo.c ****   const mad_fixed_t t149 = MUL(t80 - t81, costab24);
 416:synth_stereo.c ****   const mad_fixed_t t150 = t148 + t149;
 417:synth_stereo.c **** 
 418:synth_stereo.c ****   const mad_fixed_t t105 = (t150 * 2) - t82;
 419:synth_stereo.c **** 
 420:synth_stereo.c ****   /* 10 */ hi[ 5][slot] = SHIFT(t105);
 421:synth_stereo.c **** 
 422:synth_stereo.c ****   const mad_fixed_t t152 = MUL(t83 - t84, costab8);
 423:synth_stereo.c ****   const mad_fixed_t t153 = MUL(t85 - t86, costab24);
 424:synth_stereo.c ****   const mad_fixed_t t154 = t152 + t153;
 425:synth_stereo.c **** 
ARM GAS  /cygdrive/c/DOCUME~1/mkwapisz/LOCALS~1/Temp/cc1OEM1Z.s 			page 11


 426:synth_stereo.c ****   const mad_fixed_t t111 = (t154 * 2) - t87;
 427:synth_stereo.c **** 
 428:synth_stereo.c ****   const mad_fixed_t t99  = (t111 * 2) - t88;
 429:synth_stereo.c **** 
 430:synth_stereo.c ****   /* 11 */ hi[ 4][slot] = SHIFT(t99);
 431:synth_stereo.c **** 
 432:synth_stereo.c ****   const mad_fixed_t t157 = MUL(t89 - t90, costab8);
 433:synth_stereo.c ****   const mad_fixed_t t158 = MUL(t91 - t92, costab24);
 434:synth_stereo.c ****   const mad_fixed_t t159 = t157 + t158;
 435:synth_stereo.c **** 
 436:synth_stereo.c ****   const mad_fixed_t  t127 = (t159 * 2) - t93;
 437:synth_stereo.c **** 
 438:synth_stereo.c ****   /* 12 */ hi[ 3][slot] = SHIFT(t127);
 439:synth_stereo.c **** 
 440:synth_stereo.c ****   const mad_fixed_t t160 = (MUL(t125 - t126, costab16) * 2) - t127;
 441:synth_stereo.c **** 
 442:synth_stereo.c ****   /* 20 */ lo[ 4][slot] = SHIFT(t160);
 443:synth_stereo.c ****   /* 28 */ lo[12][slot] =
 444:synth_stereo.c **** 	     SHIFT((((MUL(t157 - t158, costab16) * 2) - t159) * 2) - t160);
 445:synth_stereo.c **** 
 446:synth_stereo.c ****   const mad_fixed_t t161 = MUL(t94 - t95, costab8);
 447:synth_stereo.c ****   const mad_fixed_t t162 = MUL(t96 - t97, costab24);
 448:synth_stereo.c ****   const mad_fixed_t t163 = t161 + t162;
 449:synth_stereo.c **** 
 450:synth_stereo.c ****   const mad_fixed_t t130 = (t163 * 2) - t98;
 451:synth_stereo.c **** 
 452:synth_stereo.c ****   const mad_fixed_t t112 = (t130 * 2) - t99;
 453:synth_stereo.c **** 
 454:synth_stereo.c ****   /* 13 */ hi[ 2][slot] = SHIFT(t112);
 455:synth_stereo.c **** 
 456:synth_stereo.c ****   const mad_fixed_t t164 = (MUL(t128 - t129, costab16) * 2) - t130;
 457:synth_stereo.c **** 
 458:synth_stereo.c ****   const mad_fixed_t t166 = MUL(t100 - t101, costab8);
 459:synth_stereo.c ****   const mad_fixed_t t167 = MUL(t102 - t103, costab24);
 460:synth_stereo.c ****   const mad_fixed_t t168 = t166 + t167;
 461:synth_stereo.c **** 
 462:synth_stereo.c ****   const mad_fixed_t t134 = (t168 * 2) - t104;
 463:synth_stereo.c **** 
 464:synth_stereo.c ****   const mad_fixed_t t120 = (t134 * 2) - t105;
 465:synth_stereo.c **** 
 466:synth_stereo.c ****   /* 14 */ hi[ 1][slot] = SHIFT(t120);
 467:synth_stereo.c **** 
 468:synth_stereo.c ****   const mad_fixed_t t135 = (MUL(t118 - t119, costab16) * 2) - t120;
 469:synth_stereo.c **** 
 470:synth_stereo.c ****   /* 18 */ lo[ 2][slot] = SHIFT(t135);
 471:synth_stereo.c **** 
 472:synth_stereo.c ****   const mad_fixed_t t169 = (MUL(t132 - t133, costab16) * 2) - t134;
 473:synth_stereo.c **** 
 474:synth_stereo.c ****   const mad_fixed_t  t151 = (t169 * 2) - t135;
 475:synth_stereo.c **** 
 476:synth_stereo.c ****   /* 22 */ lo[ 6][slot] = SHIFT(t151);
 477:synth_stereo.c **** 
 478:synth_stereo.c ****   const mad_fixed_t t170 = (((MUL(t148 - t149, costab16) * 2) - t150) * 2) - t151;
 479:synth_stereo.c **** 
 480:synth_stereo.c ****   /* 26 */ lo[10][slot] = SHIFT(t170);
 481:synth_stereo.c ****   /* 30 */ lo[14][slot] =
 482:synth_stereo.c **** 	     SHIFT((((((MUL(t166 - t167, costab16) * 2) -
ARM GAS  /cygdrive/c/DOCUME~1/mkwapisz/LOCALS~1/Temp/cc1OEM1Z.s 			page 12


 483:synth_stereo.c **** 		       t168) * 2) - t169) * 2) - t170);
 484:synth_stereo.c **** 
 485:synth_stereo.c ****   const mad_fixed_t t171 = MUL(t106 - t107, costab8);
 486:synth_stereo.c ****   const mad_fixed_t t172 = MUL(t108 - t109, costab24);
 487:synth_stereo.c ****   const mad_fixed_t t173 = t171 + t172;
 488:synth_stereo.c **** 
 489:synth_stereo.c ****   const mad_fixed_t t138 = (t173 * 2) - t110;
 490:synth_stereo.c **** 
 491:synth_stereo.c ****   const mad_fixed_t t123 = (t138 * 2) - t111;
 492:synth_stereo.c **** 
 493:synth_stereo.c ****   const mad_fixed_t t139 = (MUL(t121 - t122, costab16) * 2) - t123;
 494:synth_stereo.c **** 
 495:synth_stereo.c ****   const mad_fixed_t t117 = (t123 * 2) - t112;
 496:synth_stereo.c **** 
 497:synth_stereo.c ****   /* 15 */ hi[ 0][slot] = SHIFT(t117);
 498:synth_stereo.c **** 
 499:synth_stereo.c ****   const mad_fixed_t t124 = (MUL(t115 - t116, costab16) * 2) - t117;
 500:synth_stereo.c **** 
 501:synth_stereo.c ****   /* 17 */ lo[ 1][slot] = SHIFT(t124);
 502:synth_stereo.c **** 
 503:synth_stereo.c ****   const mad_fixed_t t131 = (t139 * 2) - t124;
 504:synth_stereo.c **** 
 505:synth_stereo.c ****   /* 19 */ lo[ 3][slot] = SHIFT(t131);
 506:synth_stereo.c **** 
 507:synth_stereo.c ****   const mad_fixed_t t140 = (t164 * 2) - t131;
 508:synth_stereo.c **** 
 509:synth_stereo.c ****   /* 21 */ lo[ 5][slot] = SHIFT(t140);
 510:synth_stereo.c **** 
 511:synth_stereo.c ****   const mad_fixed_t t174 = (MUL(t136 - t137, costab16) * 2) - t138;
 512:synth_stereo.c **** 
 513:synth_stereo.c ****   const mad_fixed_t t155 = (t174 * 2) - t139;
 514:synth_stereo.c **** 
 515:synth_stereo.c ****   const mad_fixed_t t147 = (t155 * 2) - t140;
 516:synth_stereo.c **** 
 517:synth_stereo.c ****   /* 23 */ lo[ 7][slot] = SHIFT(t147);
 518:synth_stereo.c **** 
 519:synth_stereo.c ****   const mad_fixed_t t156 = (((MUL(t144 - t145, costab16) * 2) - t146) * 2) - t147;
 520:synth_stereo.c **** 
 521:synth_stereo.c ****   /* 25 */ lo[ 9][slot] = SHIFT(t156);
 522:synth_stereo.c **** 
 523:synth_stereo.c ****   const mad_fixed_t t175 = (((MUL(t152 - t153, costab16) * 2) - t154) * 2) - t155;
 524:synth_stereo.c **** 
 525:synth_stereo.c ****   const mad_fixed_t t165 = (t175 * 2) - t156;
 526:synth_stereo.c **** 
 527:synth_stereo.c ****   /* 27 */ lo[11][slot] = SHIFT(t165);
 528:synth_stereo.c **** 
 529:synth_stereo.c ****   const mad_fixed_t t176 = (((((MUL(t161 - t162, costab16) * 2) -
 530:synth_stereo.c **** 	     t163) * 2) - t164) * 2) - t165;
 531:synth_stereo.c **** 
 532:synth_stereo.c ****   /* 29 */ lo[13][slot] = SHIFT(t176);
 533:synth_stereo.c ****   /* 31 */ lo[15][slot] =
 534:synth_stereo.c **** 	     SHIFT((((((((MUL(t171 - t172, costab16) * 2) -
 535:synth_stereo.c **** 			 t173) * 2) - t174) * 2) - t175) * 2) - t176);
 536:synth_stereo.c **** 
 537:synth_stereo.c ****   /*
 538:synth_stereo.c ****    * Totals:
 539:synth_stereo.c ****    *  80 multiplies
ARM GAS  /cygdrive/c/DOCUME~1/mkwapisz/LOCALS~1/Temp/cc1OEM1Z.s 			page 13


 540:synth_stereo.c ****    *  80 additions
 541:synth_stereo.c ****    * 119 subtractions
 542:synth_stereo.c ****    *  49 shifts (not counting SSO)
 543:synth_stereo.c ****    */
 544:synth_stereo.c **** }
 545:synth_stereo.c **** 
 546:synth_stereo.c **** # undef MUL
 547:synth_stereo.c **** # undef SHIFT
 548:synth_stereo.c **** 
 549:synth_stereo.c **** /* third SSO shift and/or D[] optimization preshift */
 550:synth_stereo.c **** 
 551:synth_stereo.c **** # if defined(OPT_SSO)
 552:synth_stereo.c **** #  if MAD_F_FRACBITS != 28
 553:synth_stereo.c **** #   error "MAD_F_FRACBITS must be 28 to use OPT_SSO"
 554:synth_stereo.c **** #  endif
 555:synth_stereo.c **** #  define ML0(hi, lo, x, y)	((lo)  = (x) * (y))
 556:synth_stereo.c **** #  define MLA(hi, lo, x, y)	((lo) += (x) * (y))
 557:synth_stereo.c **** #  define MLN(hi, lo)		((lo)  = -(lo))
 558:synth_stereo.c **** #  define MLZ(hi, lo)		((void) (hi), (mad_fixed_t) (lo))
 559:synth_stereo.c **** #  define SHIFT(x)		((x) >> 2)
 560:synth_stereo.c **** #  define PRESHIFT(x)		((MAD_F(x) + (1L << 13)) >> 14)
 561:synth_stereo.c **** # else
 562:synth_stereo.c **** #  define ML0(hi, lo, x, y)	MAD_F_ML0((hi), (lo), (x), (y))
 563:synth_stereo.c **** #  define MLA(hi, lo, x, y)	MAD_F_MLA((hi), (lo), (x), (y))
 564:synth_stereo.c **** #  define MLN(hi, lo)		MAD_F_MLN((hi), (lo))
 565:synth_stereo.c **** #  define MLZ(hi, lo)		MAD_F_MLZ((hi), (lo))
 566:synth_stereo.c **** #  define SHIFT(x)		(x)
 567:synth_stereo.c **** #  if defined(MAD_F_SCALEBITS)
 568:synth_stereo.c **** #   undef  MAD_F_SCALEBITS
 569:synth_stereo.c **** #   define MAD_F_SCALEBITS	(MAD_F_FRACBITS - 12)
 570:synth_stereo.c **** #   define PRESHIFT(x)		(MAD_F(x) >> 12)
 571:synth_stereo.c **** #  else
 572:synth_stereo.c **** #   define PRESHIFT(x)		MAD_F(x)
 573:synth_stereo.c **** #  endif
 574:synth_stereo.c **** # endif
 575:synth_stereo.c **** 
 576:synth_stereo.c **** static
 577:synth_stereo.c **** mad_fixed_t const D[17][32] = {
 578:synth_stereo.c **** # include "D.dat"
 579:synth_stereo.c **** };
 580:synth_stereo.c **** 
 581:synth_stereo.c **** # if defined(ASO_SYNTH)
 582:synth_stereo.c **** void synth_full(struct mad_synth *, struct mad_frame const *,
 583:synth_stereo.c **** 		unsigned int, unsigned int);
 584:synth_stereo.c **** # else
 585:synth_stereo.c **** /*
 586:synth_stereo.c ****  * NAME:	synth->full()
 587:synth_stereo.c ****  * DESCRIPTION:	perform full frequency PCM synthesis
 588:synth_stereo.c ****  */
 589:synth_stereo.c **** static
 590:synth_stereo.c **** void synth_full(struct mad_synth *synth, struct mad_frame const *frame,
 591:synth_stereo.c **** 		unsigned int nch, unsigned int ns)
 592:synth_stereo.c **** {
 593:synth_stereo.c ****   unsigned int phase, ch, s, sb, pe, po;
 594:synth_stereo.c ****   short int *pcm1, *pcm2;
 595:synth_stereo.c ****   mad_fixed_t (*filter)[2][2][16][8];
 596:synth_stereo.c ****   mad_fixed_t (*sbsample)[36][32];
ARM GAS  /cygdrive/c/DOCUME~1/mkwapisz/LOCALS~1/Temp/cc1OEM1Z.s 			page 14


 597:synth_stereo.c ****   register mad_fixed_t (*fe)[8], (*fx)[8], (*fo)[8];
 598:synth_stereo.c ****   register mad_fixed_t const (*Dptr)[32], *ptr ;
 599:synth_stereo.c ****   register mad_fixed64hi_t hi;
 600:synth_stereo.c ****   register mad_fixed64lo_t lo;
 601:synth_stereo.c ****   mad_fixed_t raw_sample;
 602:synth_stereo.c ****   short int short_sample_buff[2][32];
 603:synth_stereo.c **** 
 604:synth_stereo.c ****   phase = synth->phase;
 605:synth_stereo.c **** 
 606:synth_stereo.c ****   if (nch > 2)
 607:synth_stereo.c ****    return;
 608:synth_stereo.c **** 
 609:synth_stereo.c ****   for (s = 0; s < ns; ++s)
 610:synth_stereo.c ****   {
 611:synth_stereo.c ****     memset (short_sample_buff[0], 0x00, sizeof(short_sample_buff[0]));
 612:synth_stereo.c ****     memset (short_sample_buff[1], 0x00, sizeof(short_sample_buff[0]));
 613:synth_stereo.c **** 
 614:synth_stereo.c ****     for (ch = 0; ch < nch; ++ch)
 615:synth_stereo.c ****     {
 616:synth_stereo.c ****       sbsample = &frame->sbsample[ch];
 617:synth_stereo.c ****       filter   = &synth->filter[ch];
 618:synth_stereo.c ****       pcm1     = short_sample_buff[ch];
 619:synth_stereo.c **** 
 620:synth_stereo.c ****       dct32((*sbsample)[s], phase >> 1,
 621:synth_stereo.c **** 	    (*filter)[0][phase & 1], (*filter)[1][phase & 1]);
 622:synth_stereo.c **** 
 623:synth_stereo.c ****       pe = phase & ~1;
 624:synth_stereo.c ****       po = ((phase - 1) & 0xf) | 1;
 625:synth_stereo.c **** 
 626:synth_stereo.c ****       /* calculate 16 samples */
 627:synth_stereo.c **** 
 628:synth_stereo.c ****       fe = &(*filter)[0][ phase & 1][0];
 629:synth_stereo.c ****       fx = &(*filter)[0][~phase & 1][0];
 630:synth_stereo.c ****       fo = &(*filter)[1][~phase & 1][0];
 631:synth_stereo.c **** 
 632:synth_stereo.c ****       Dptr = &D[0];
 633:synth_stereo.c **** 
 634:synth_stereo.c ****       ptr = *Dptr + po;
 635:synth_stereo.c ****       ML0(hi, lo, (*fx)[0], ptr[ 0]);
 636:synth_stereo.c ****       MLA(hi, lo, (*fx)[1], ptr[14]);
 637:synth_stereo.c ****       MLA(hi, lo, (*fx)[2], ptr[12]);
 638:synth_stereo.c ****       MLA(hi, lo, (*fx)[3], ptr[10]);
 639:synth_stereo.c ****       MLA(hi, lo, (*fx)[4], ptr[ 8]);
 640:synth_stereo.c ****       MLA(hi, lo, (*fx)[5], ptr[ 6]);
 641:synth_stereo.c ****       MLA(hi, lo, (*fx)[6], ptr[ 4]);
 642:synth_stereo.c ****       MLA(hi, lo, (*fx)[7], ptr[ 2]);
 643:synth_stereo.c ****       MLN(hi, lo);
 644:synth_stereo.c **** 
 645:synth_stereo.c ****       ptr = *Dptr + pe;
 646:synth_stereo.c ****       MLA(hi, lo, (*fe)[0], ptr[ 0]);
 647:synth_stereo.c ****       MLA(hi, lo, (*fe)[1], ptr[14]);
 648:synth_stereo.c ****       MLA(hi, lo, (*fe)[2], ptr[12]);
 649:synth_stereo.c ****       MLA(hi, lo, (*fe)[3], ptr[10]);
 650:synth_stereo.c ****       MLA(hi, lo, (*fe)[4], ptr[ 8]);
 651:synth_stereo.c ****       MLA(hi, lo, (*fe)[5], ptr[ 6]);
 652:synth_stereo.c ****       MLA(hi, lo, (*fe)[6], ptr[ 4]);
 653:synth_stereo.c ****       MLA(hi, lo, (*fe)[7], ptr[ 2]);
ARM GAS  /cygdrive/c/DOCUME~1/mkwapisz/LOCALS~1/Temp/cc1OEM1Z.s 			page 15


 654:synth_stereo.c **** 
 655:synth_stereo.c ****       raw_sample = SHIFT(MLZ(hi, lo));
 656:synth_stereo.c ****       raw_sample = scale(raw_sample);
 657:synth_stereo.c ****       (*pcm1++) += (short int)raw_sample;
 658:synth_stereo.c ****       pcm2 = pcm1 + 30;
 659:synth_stereo.c **** 
 660:synth_stereo.c ****       for (sb = 1; sb < 16; ++sb)
 661:synth_stereo.c ****       {
 662:synth_stereo.c ****         ++fe;
 663:synth_stereo.c **** 	++Dptr;
 664:synth_stereo.c **** 
 665:synth_stereo.c **** 	/* D[32 - sb][i] == -D[sb][31 - i] */
 666:synth_stereo.c **** 
 667:synth_stereo.c **** 	ptr = *Dptr + po;
 668:synth_stereo.c **** 	ML0(hi, lo, (*fo)[0], ptr[ 0]);
 669:synth_stereo.c **** 	MLA(hi, lo, (*fo)[1], ptr[14]);
 670:synth_stereo.c **** 	MLA(hi, lo, (*fo)[2], ptr[12]);
 671:synth_stereo.c **** 	MLA(hi, lo, (*fo)[3], ptr[10]);
 672:synth_stereo.c **** 	MLA(hi, lo, (*fo)[4], ptr[ 8]);
 673:synth_stereo.c ****         MLA(hi, lo, (*fo)[5], ptr[ 6]);
 674:synth_stereo.c ****         MLA(hi, lo, (*fo)[6], ptr[ 4]);
 675:synth_stereo.c ****         MLA(hi, lo, (*fo)[7], ptr[ 2]);
 676:synth_stereo.c ****         MLN(hi, lo);
 677:synth_stereo.c **** 
 678:synth_stereo.c ****         ptr = *Dptr + pe;
 679:synth_stereo.c **** 
 680:synth_stereo.c ****         MLA(hi, lo, (*fe)[7], ptr[ 2]);
 681:synth_stereo.c ****         MLA(hi, lo, (*fe)[6], ptr[ 4]);
 682:synth_stereo.c ****         MLA(hi, lo, (*fe)[5], ptr[ 6]);
 683:synth_stereo.c ****         MLA(hi, lo, (*fe)[4], ptr[ 8]);
 684:synth_stereo.c ****         MLA(hi, lo, (*fe)[3], ptr[10]);
 685:synth_stereo.c ****         MLA(hi, lo, (*fe)[2], ptr[12]);
 686:synth_stereo.c ****         MLA(hi, lo, (*fe)[1], ptr[14]);
 687:synth_stereo.c ****         MLA(hi, lo, (*fe)[0], ptr[ 0]);
 688:synth_stereo.c **** 
 689:synth_stereo.c ****         raw_sample = SHIFT(MLZ(hi, lo));
 690:synth_stereo.c ****         raw_sample = scale(raw_sample);
 691:synth_stereo.c ****         (*pcm1++) += (short int)raw_sample;
 692:synth_stereo.c **** 
 693:synth_stereo.c ****         ptr = *Dptr - pe;
 694:synth_stereo.c ****         ML0(hi, lo, (*fe)[0], ptr[31 - 16]);
 695:synth_stereo.c ****         MLA(hi, lo, (*fe)[1], ptr[31 - 14]);
 696:synth_stereo.c ****         MLA(hi, lo, (*fe)[2], ptr[31 - 12]);
 697:synth_stereo.c ****         MLA(hi, lo, (*fe)[3], ptr[31 - 10]);
 698:synth_stereo.c ****         MLA(hi, lo, (*fe)[4], ptr[31 -  8]);
 699:synth_stereo.c ****         MLA(hi, lo, (*fe)[5], ptr[31 -  6]);
 700:synth_stereo.c ****         MLA(hi, lo, (*fe)[6], ptr[31 -  4]);
 701:synth_stereo.c ****         MLA(hi, lo, (*fe)[7], ptr[31 -  2]);
 702:synth_stereo.c **** 
 703:synth_stereo.c ****         ptr = *Dptr - po;
 704:synth_stereo.c ****         MLA(hi, lo, (*fo)[7], ptr[31 -  2]);
 705:synth_stereo.c ****         MLA(hi, lo, (*fo)[6], ptr[31 -  4]);
 706:synth_stereo.c ****         MLA(hi, lo, (*fo)[5], ptr[31 -  6]);
 707:synth_stereo.c ****         MLA(hi, lo, (*fo)[4], ptr[31 -  8]);
 708:synth_stereo.c ****         MLA(hi, lo, (*fo)[3], ptr[31 - 10]);
 709:synth_stereo.c ****         MLA(hi, lo, (*fo)[2], ptr[31 - 12]);
 710:synth_stereo.c ****         MLA(hi, lo, (*fo)[1], ptr[31 - 14]);
ARM GAS  /cygdrive/c/DOCUME~1/mkwapisz/LOCALS~1/Temp/cc1OEM1Z.s 			page 16


 711:synth_stereo.c ****         MLA(hi, lo, (*fo)[0], ptr[31 - 16]);
 712:synth_stereo.c **** 
 713:synth_stereo.c ****         raw_sample = SHIFT(MLZ(hi, lo));
 714:synth_stereo.c ****         raw_sample = scale(raw_sample);
 715:synth_stereo.c ****         (*pcm2--) += (short int)raw_sample;
 716:synth_stereo.c **** 
 717:synth_stereo.c ****         ++fo;
 718:synth_stereo.c ****       }
 719:synth_stereo.c **** 
 720:synth_stereo.c ****       Dptr++;
 721:synth_stereo.c **** 
 722:synth_stereo.c ****       ptr = *Dptr + po;
 723:synth_stereo.c ****       ML0(hi, lo, (*fo)[0], ptr[ 0]);
 724:synth_stereo.c ****       MLA(hi, lo, (*fo)[1], ptr[14]);
 725:synth_stereo.c ****       MLA(hi, lo, (*fo)[2], ptr[12]);
 726:synth_stereo.c ****       MLA(hi, lo, (*fo)[3], ptr[10]);
 727:synth_stereo.c ****       MLA(hi, lo, (*fo)[4], ptr[ 8]);
 728:synth_stereo.c ****       MLA(hi, lo, (*fo)[5], ptr[ 6]);
 729:synth_stereo.c ****       MLA(hi, lo, (*fo)[6], ptr[ 4]);
 730:synth_stereo.c ****       MLA(hi, lo, (*fo)[7], ptr[ 2]);
 731:synth_stereo.c **** 
 732:synth_stereo.c ****       raw_sample = SHIFT(-MLZ(hi, lo));
 733:synth_stereo.c ****       raw_sample = scale(raw_sample);
 734:synth_stereo.c ****       (*pcm1) += (short int)raw_sample;
 735:synth_stereo.c **** 
 736:synth_stereo.c ****     }  /* for di canale */
 737:synth_stereo.c **** 
 738:synth_stereo.c ****     /* Render di un blocco */    
 739:synth_stereo.c ****     render_sample_block(short_sample_buff[0], short_sample_buff[1], 32, nch);
 740:synth_stereo.c ****     
 741:synth_stereo.c ****     phase = (phase + 1) % 16;
 742:synth_stereo.c **** 
 743:synth_stereo.c ****   }	/* for di blocco */
 744:synth_stereo.c **** }
 745:synth_stereo.c **** #endif
 746:synth_stereo.c **** 
 747:synth_stereo.c **** /*
 748:synth_stereo.c ****  * NAME:	synth->half()
 749:synth_stereo.c ****  * DESCRIPTION:	perform half frequency PCM synthesis
 750:synth_stereo.c ****  */
 751:synth_stereo.c **** static
 752:synth_stereo.c **** void synth_half(struct mad_synth *synth, struct mad_frame const *frame,
 753:synth_stereo.c **** 		unsigned int nch, unsigned int ns)
 754:synth_stereo.c **** {
 755:synth_stereo.c ****   unsigned int phase, ch, s, sb, pe, po;
 756:synth_stereo.c ****   short int *pcm1, *pcm1v, *pcm2v;
 757:synth_stereo.c ****   mad_fixed_t (*filter)[2][2][16][8];
 758:synth_stereo.c ****   mad_fixed_t (*sbsample)[36][32];
 759:synth_stereo.c ****   register mad_fixed_t (*fe)[8], (*fx)[8], (*fo)[8];
 760:synth_stereo.c ****   register mad_fixed_t const (*Dptr)[32], *ptr ;
 761:synth_stereo.c ****   register mad_fixed64hi_t hi;
 762:synth_stereo.c ****   register mad_fixed64lo_t lo;
 763:synth_stereo.c ****   mad_fixed_t raw_sample;
 764:synth_stereo.c ****   short int short_sample_buff[2][16];
 765:synth_stereo.c **** 
 766:synth_stereo.c ****   phase = synth->phase;
 767:synth_stereo.c **** 
ARM GAS  /cygdrive/c/DOCUME~1/mkwapisz/LOCALS~1/Temp/cc1OEM1Z.s 			page 17


 768:synth_stereo.c ****   if (nch > 2)
 769:synth_stereo.c ****    return;
 770:synth_stereo.c **** 
 771:synth_stereo.c ****   for (s = 0; s < ns; ++s)
 772:synth_stereo.c ****   {
 773:synth_stereo.c ****     memset (short_sample_buff[0], 0x00, sizeof(short_sample_buff[0]));
 774:synth_stereo.c ****     memset (short_sample_buff[1], 0x00, sizeof(short_sample_buff[0]));
 775:synth_stereo.c **** 
 776:synth_stereo.c ****     for (ch = 0; ch < nch; ++ch)
 777:synth_stereo.c ****     {
 778:synth_stereo.c ****       sbsample = &frame->sbsample[ch];
 779:synth_stereo.c ****       filter   = &synth->filter[ch];
 780:synth_stereo.c ****       pcm1 = pcm1v = short_sample_buff[ch];
 781:synth_stereo.c **** 
 782:synth_stereo.c ****       dct32((*sbsample)[s], phase >> 1,
 783:synth_stereo.c **** 	    (*filter)[0][phase & 1], (*filter)[1][phase & 1]);
 784:synth_stereo.c **** 
 785:synth_stereo.c ****       pe = phase & ~1;
 786:synth_stereo.c ****       po = ((phase - 1) & 0xf) | 1;
 787:synth_stereo.c **** 
 788:synth_stereo.c ****       /* calculate 16 samples */
 789:synth_stereo.c **** 
 790:synth_stereo.c ****       fe = &(*filter)[0][ phase & 1][0];
 791:synth_stereo.c ****       fx = &(*filter)[0][~phase & 1][0];
 792:synth_stereo.c ****       fo = &(*filter)[1][~phase & 1][0];
 793:synth_stereo.c **** 
 794:synth_stereo.c ****       Dptr = &D[0];
 795:synth_stereo.c **** 
 796:synth_stereo.c ****       ptr = *Dptr + po;
 797:synth_stereo.c ****       ML0(hi, lo, (*fx)[0], ptr[ 0]);
 798:synth_stereo.c ****       MLA(hi, lo, (*fx)[1], ptr[14]);
 799:synth_stereo.c ****       MLA(hi, lo, (*fx)[2], ptr[12]);
 800:synth_stereo.c ****       MLA(hi, lo, (*fx)[3], ptr[10]);
 801:synth_stereo.c ****       MLA(hi, lo, (*fx)[4], ptr[ 8]);
 802:synth_stereo.c ****       MLA(hi, lo, (*fx)[5], ptr[ 6]);
 803:synth_stereo.c ****       MLA(hi, lo, (*fx)[6], ptr[ 4]);
 804:synth_stereo.c ****       MLA(hi, lo, (*fx)[7], ptr[ 2]);
 805:synth_stereo.c ****       MLN(hi, lo);
 806:synth_stereo.c **** 
 807:synth_stereo.c ****       ptr = *Dptr + pe;
 808:synth_stereo.c ****       MLA(hi, lo, (*fe)[0], ptr[ 0]);
 809:synth_stereo.c ****       MLA(hi, lo, (*fe)[1], ptr[14]);
 810:synth_stereo.c ****       MLA(hi, lo, (*fe)[2], ptr[12]);
 811:synth_stereo.c ****       MLA(hi, lo, (*fe)[3], ptr[10]);
 812:synth_stereo.c ****       MLA(hi, lo, (*fe)[4], ptr[ 8]);
 813:synth_stereo.c ****       MLA(hi, lo, (*fe)[5], ptr[ 6]);
 814:synth_stereo.c ****       MLA(hi, lo, (*fe)[6], ptr[ 4]);
 815:synth_stereo.c ****       MLA(hi, lo, (*fe)[7], ptr[ 2]);
 816:synth_stereo.c **** 
 817:synth_stereo.c ****       raw_sample = SHIFT(MLZ(hi, lo));
 818:synth_stereo.c ****       raw_sample = scale(raw_sample);
 819:synth_stereo.c ****       (*pcm1v++) += (short int)raw_sample;
 820:synth_stereo.c ****       pcm2v = pcm1v + 14;
 821:synth_stereo.c **** 
 822:synth_stereo.c ****       for (sb = 1; sb < 16; ++sb)
 823:synth_stereo.c ****       {
 824:synth_stereo.c ****         ++fe;
ARM GAS  /cygdrive/c/DOCUME~1/mkwapisz/LOCALS~1/Temp/cc1OEM1Z.s 			page 18


 825:synth_stereo.c **** 	++Dptr;
 826:synth_stereo.c **** 
 827:synth_stereo.c **** 	/* D[32 - sb][i] == -D[sb][31 - i] */
 828:synth_stereo.c **** 
 829:synth_stereo.c **** 	ptr = *Dptr + po;
 830:synth_stereo.c ****         ML0(hi, lo, (*fo)[0], ptr[ 0]);
 831:synth_stereo.c **** 	MLA(hi, lo, (*fo)[1], ptr[14]);
 832:synth_stereo.c **** 	MLA(hi, lo, (*fo)[2], ptr[12]);
 833:synth_stereo.c **** 	MLA(hi, lo, (*fo)[3], ptr[10]);
 834:synth_stereo.c **** 	MLA(hi, lo, (*fo)[4], ptr[ 8]);
 835:synth_stereo.c **** 	MLA(hi, lo, (*fo)[5], ptr[ 6]);
 836:synth_stereo.c **** 	MLA(hi, lo, (*fo)[6], ptr[ 4]);
 837:synth_stereo.c **** 	MLA(hi, lo, (*fo)[7], ptr[ 2]);
 838:synth_stereo.c **** 	MLN(hi, lo);
 839:synth_stereo.c **** 
 840:synth_stereo.c **** 	ptr = *Dptr + pe;
 841:synth_stereo.c **** 
 842:synth_stereo.c ****         MLA(hi, lo, (*fe)[7], ptr[ 2]);
 843:synth_stereo.c **** 	MLA(hi, lo, (*fe)[6], ptr[ 4]);
 844:synth_stereo.c **** 	MLA(hi, lo, (*fe)[5], ptr[ 6]);
 845:synth_stereo.c **** 	MLA(hi, lo, (*fe)[4], ptr[ 8]);
 846:synth_stereo.c **** 	MLA(hi, lo, (*fe)[3], ptr[10]);
 847:synth_stereo.c **** 	MLA(hi, lo, (*fe)[2], ptr[12]);
 848:synth_stereo.c **** 	MLA(hi, lo, (*fe)[1], ptr[14]);
 849:synth_stereo.c **** 	MLA(hi, lo, (*fe)[0], ptr[ 0]);
 850:synth_stereo.c **** 
 851:synth_stereo.c **** 	raw_sample = SHIFT(MLZ(hi, lo));
 852:synth_stereo.c **** 	raw_sample = scale(raw_sample);
 853:synth_stereo.c **** 	(*pcm1v++) += (short int)raw_sample;
 854:synth_stereo.c **** 
 855:synth_stereo.c **** 	ptr = *Dptr - pe;
 856:synth_stereo.c **** 	ML0(hi, lo, (*fe)[0], ptr[31 - 16]);
 857:synth_stereo.c **** 	MLA(hi, lo, (*fe)[1], ptr[31 - 14]);
 858:synth_stereo.c **** 	MLA(hi, lo, (*fe)[2], ptr[31 - 12]);
 859:synth_stereo.c **** 	MLA(hi, lo, (*fe)[3], ptr[31 - 10]);
 860:synth_stereo.c **** 	MLA(hi, lo, (*fe)[4], ptr[31 -  8]);
 861:synth_stereo.c **** 	MLA(hi, lo, (*fe)[5], ptr[31 -  6]);
 862:synth_stereo.c **** 	MLA(hi, lo, (*fe)[6], ptr[31 -  4]);
 863:synth_stereo.c **** 	MLA(hi, lo, (*fe)[7], ptr[31 -  2]);
 864:synth_stereo.c **** 
 865:synth_stereo.c **** 	ptr = *Dptr - po;
 866:synth_stereo.c **** 	MLA(hi, lo, (*fo)[7], ptr[31 -  2]);
 867:synth_stereo.c **** 	MLA(hi, lo, (*fo)[6], ptr[31 -  4]);
 868:synth_stereo.c **** 	MLA(hi, lo, (*fo)[5], ptr[31 -  6]);
 869:synth_stereo.c **** 	MLA(hi, lo, (*fo)[4], ptr[31 -  8]);
 870:synth_stereo.c **** 	MLA(hi, lo, (*fo)[3], ptr[31 - 10]);
 871:synth_stereo.c **** 	MLA(hi, lo, (*fo)[2], ptr[31 - 12]);
 872:synth_stereo.c **** 	MLA(hi, lo, (*fo)[1], ptr[31 - 14]);
 873:synth_stereo.c **** 	MLA(hi, lo, (*fo)[0], ptr[31 - 16]);
 874:synth_stereo.c **** 
 875:synth_stereo.c **** 	raw_sample = SHIFT(MLZ(hi, lo));
 876:synth_stereo.c **** 	raw_sample = scale(raw_sample);
 877:synth_stereo.c **** 	(*pcm2v--) += (short int)raw_sample;
 878:synth_stereo.c **** 
 879:synth_stereo.c ****         ++fo;
 880:synth_stereo.c ****       }
 881:synth_stereo.c **** 
ARM GAS  /cygdrive/c/DOCUME~1/mkwapisz/LOCALS~1/Temp/cc1OEM1Z.s 			page 19


 882:synth_stereo.c ****       Dptr++;
 883:synth_stereo.c **** 
 884:synth_stereo.c ****       ptr = *Dptr + po;
 885:synth_stereo.c ****       ML0(hi, lo, (*fo)[0], ptr[ 0]);
 886:synth_stereo.c ****       MLA(hi, lo, (*fo)[1], ptr[14]);
 887:synth_stereo.c ****       MLA(hi, lo, (*fo)[2], ptr[12]);
 888:synth_stereo.c ****       MLA(hi, lo, (*fo)[3], ptr[10]);
 889:synth_stereo.c ****       MLA(hi, lo, (*fo)[4], ptr[ 8]);
 890:synth_stereo.c ****       MLA(hi, lo, (*fo)[5], ptr[ 6]);
 891:synth_stereo.c ****       MLA(hi, lo, (*fo)[6], ptr[ 4]);
 892:synth_stereo.c ****       MLA(hi, lo, (*fo)[7], ptr[ 2]);
 893:synth_stereo.c **** 
 894:synth_stereo.c ****       raw_sample = SHIFT(-MLZ(hi, lo));
 895:synth_stereo.c ****       raw_sample = scale(raw_sample);
 896:synth_stereo.c ****       (*pcm1v) += (short int)raw_sample;
 897:synth_stereo.c **** 
 898:synth_stereo.c ****     }  /* for di canale */
 899:synth_stereo.c **** 
 900:synth_stereo.c ****     /* Render di un blocco */    
 901:synth_stereo.c ****     render_sample_block(short_sample_buff[0], short_sample_buff[1], 32, nch);
 902:synth_stereo.c **** 
 903:synth_stereo.c ****     pcm1 = pcm1v + 8;
 904:synth_stereo.c ****     phase = (phase + 1) % 16;
 905:synth_stereo.c **** 
 906:synth_stereo.c ****   }	/* for di blocco */
 907:synth_stereo.c **** }
 908:synth_stereo.c **** 
 909:synth_stereo.c **** /*
 910:synth_stereo.c ****  * NAME:	synth->frame()
 911:synth_stereo.c ****  * DESCRIPTION:	perform PCM synthesis of frame subband samples
 912:synth_stereo.c ****  */
 913:synth_stereo.c **** void mad_synth_frame(struct mad_synth *synth, struct mad_frame const *frame)
 914:synth_stereo.c **** {
 142              		.loc 1 914 0
 143              		@ Function supports interworking.
 144              		@ args = 0, pretend = 0, frame = 0
 145              		@ frame_needed = 0, uses_anonymous_args = 0
 146              	.LVL9:
 915:synth_stereo.c ****   unsigned int nch, ns;
 916:synth_stereo.c ****   void (*synth_frame)(struct mad_synth *, struct mad_frame const *,
 917:synth_stereo.c **** 		      unsigned int, unsigned int);
 918:synth_stereo.c **** 
 919:synth_stereo.c ****   nch = MAD_NCHANNELS(&frame->header);
 147              		.loc 1 919 0
 148 00d0 0C0091E8 		ldmia	r1, {r2, r3}	@ phole ldm
 149 00d4 000053E3 		cmp	r3, #0
 150              		.loc 1 914 0
 151 00d8 F0412DE9 		stmfd	sp!, {r4, r5, r6, r7, r8, lr}
 152              	.LCFI2:
 153              		.loc 1 919 0
 154 00dc 0180A003 		moveq	r8, #1
 155              	.LVL10:
 156 00e0 0280A013 		movne	r8, #2
 920:synth_stereo.c ****   ns  = MAD_NSBSAMPLES(&frame->header);
 157              		.loc 1 920 0
 158 00e4 010052E3 		cmp	r2, #1
 159              		.loc 1 914 0
ARM GAS  /cygdrive/c/DOCUME~1/mkwapisz/LOCALS~1/Temp/cc1OEM1Z.s 			page 20


 160 00e8 0150A0E1 		mov	r5, r1
 161              		.loc 1 920 0
 162 00ec 0C70A0E3 		mov	r7, #12
 163              	.LVL11:
 164              		.loc 1 914 0
 165 00f0 0040A0E1 		mov	r4, r0
 166              		.loc 1 920 0
 167 00f4 0500000A 		beq	.L27
 168              	.LVL12:
 169 00f8 030052E3 		cmp	r2, #3
 170 00fc 2470A0E3 		mov	r7, #36
 171 0100 0200001A 		bne	.L27
 172 0104 1C3091E5 		ldr	r3, [r1, #28]
 173 0108 010A13E3 		tst	r3, #4096
 174 010c 1270A013 		movne	r7, #18
 175              	.L27:
 921:synth_stereo.c **** 
 922:synth_stereo.c ****   synth->pcm.samplerate = frame->header.samplerate;
 176              		.loc 1 922 0
 177 0110 143095E5 		ldr	r3, [r5, #20]
 178 0114 80609FE5 		ldr	r6, .L35
 923:synth_stereo.c ****   set_dac_sample_rate(synth->pcm.samplerate);
 179              		.loc 1 923 0
 180 0118 0300A0E1 		mov	r0, r3
 181              		.loc 1 922 0
 182 011c 063084E7 		str	r3, [r4, r6]
 183              		.loc 1 923 0
 184 0120 FEFFFFEB 		bl	set_dac_sample_rate
 924:synth_stereo.c ****   synth->pcm.channels   = nch;
 925:synth_stereo.c ****   synth->pcm.length     = 32 * ns;
 926:synth_stereo.c **** 
 927:synth_stereo.c ****   synth_frame = synth_full;
 928:synth_stereo.c **** 
 929:synth_stereo.c ****   if (frame->options & MAD_OPTION_HALFSAMPLERATE) {
 185              		.loc 1 929 0
 186 0124 2C3095E5 		ldr	r3, [r5, #44]
 187              		.loc 1 925 0
 188 0128 70209FE5 		ldr	r2, .L35+4
 189              		.loc 1 929 0
 190 012c 020013E3 		tst	r3, #2
 191              		.loc 1 925 0
 192 0130 8732A0E1 		mov	r3, r7, asl #5
 193 0134 B23084E1 		strh	r3, [r4, r2]	@ movhi
 194              		.loc 1 924 0
 195 0138 64309FE5 		ldr	r3, .L35+8
 196              		.loc 1 929 0
 197 013c 64C09FE5 		ldr	ip, .L35+12
 198              	.LVL13:
 199              		.loc 1 924 0
 200 0140 B38084E1 		strh	r8, [r4, r3]	@ movhi
 201              		.loc 1 929 0
 202 0144 0700000A 		beq	.L33
 930:synth_stereo.c ****     synth->pcm.samplerate /= 2;
 203              		.loc 1 930 0
 204 0148 060094E7 		ldr	r0, [r4, r6]
 931:synth_stereo.c ****     synth->pcm.length     /= 2;
 205              		.loc 1 931 0
ARM GAS  /cygdrive/c/DOCUME~1/mkwapisz/LOCALS~1/Temp/cc1OEM1Z.s 			page 21


 206 014c B23094E1 		ldrh	r3, [r4, r2]
 207              		.loc 1 930 0
 208 0150 A000A0E1 		mov	r0, r0, lsr #1
 209              		.loc 1 931 0
 210 0154 A330A0E1 		mov	r3, r3, lsr #1
 211 0158 B23084E1 		strh	r3, [r4, r2]	@ movhi
 212              		.loc 1 930 0
 213 015c 060084E7 		str	r0, [r4, r6]
 932:synth_stereo.c ****     set_dac_sample_rate(synth->pcm.samplerate);
 214              		.loc 1 932 0
 215 0160 FEFFFFEB 		bl	set_dac_sample_rate
 216              	.LVL14:
 217 0164 40C09FE5 		ldr	ip, .L35+16
 218              	.LVL15:
 219              	.L33:
 933:synth_stereo.c ****     synth_frame = synth_half;
 934:synth_stereo.c ****   }
 935:synth_stereo.c **** 
 936:synth_stereo.c ****   synth_frame(synth, frame, nch, ns);
 220              		.loc 1 936 0
 221 0168 0820A0E1 		mov	r2, r8
 222 016c 0730A0E1 		mov	r3, r7
 223 0170 0510A0E1 		mov	r1, r5
 224 0174 0400A0E1 		mov	r0, r4
 225 0178 0FE0A0E1 		mov	lr, pc
 226 017c 1CFF2FE1 		bx	ip
 227              	.LVL16:
 937:synth_stereo.c ****   synth->phase = (synth->phase + ns) % 16;
 228              		.loc 1 937 0
 229 0180 012AA0E3 		mov	r2, #4096
 230 0184 023094E7 		ldr	r3, [r4, r2]
 231 0188 033087E0 		add	r3, r7, r3
 232 018c 0F3003E2 		and	r3, r3, #15
 233 0190 023084E7 		str	r3, [r4, r2]
 938:synth_stereo.c **** }
 234              		.loc 1 938 0
 235 0194 F041BDE8 		ldmfd	sp!, {r4, r5, r6, r7, r8, lr}
 236 0198 1EFF2FE1 		bx	lr
 237              	.L36:
 238              		.align	2
 239              	.L35:
 240 019c 04100000 		.word	4100
 241 01a0 0A100000 		.word	4106
 242 01a4 08100000 		.word	4104
 243 01a8 A81D0000 		.word	synth_full
 244 01ac C0120000 		.word	synth_half
 245              	.LFE8:
 246              		.size	mad_synth_frame, .-mad_synth_frame
 247              		.align	2
 248              		.type	dct32, %function
 249              	dct32:
 250              	.LFB5:
 251              		.loc 1 155 0
 252              		@ Function supports interworking.
 253              		@ args = 0, pretend = 0, frame = 428
 254              		@ frame_needed = 0, uses_anonymous_args = 0
 255              	.LVL17:
ARM GAS  /cygdrive/c/DOCUME~1/mkwapisz/LOCALS~1/Temp/cc1OEM1Z.s 			page 22


 256 01b0 F04F2DE9 		stmfd	sp!, {r4, r5, r6, r7, r8, r9, sl, fp, lr}
 257              	.LCFI3:
 258              		.loc 1 250 0
 259 01b4 7CC090E5 		ldr	ip, [r0, #124]
 260 01b8 00E090E5 		ldr	lr, [r0, #0]
 261              		.loc 1 155 0
 262 01bc 6BDF4DE2 		sub	sp, sp, #428
 263              	.LCFI4:
 264              		.loc 1 155 0
 265 01c0 0040A0E1 		mov	r4, r0
 266 01c4 14108DE5 		str	r1, [sp, #20]
 267 01c8 10208DE5 		str	r2, [sp, #16]
 268 01cc 0C308DE5 		str	r3, [sp, #12]
 269              	.LBB2:
 270              		.loc 1 250 0
 271 01d0 0E206CE0 		rsb	r2, ip, lr
 272              	.LVL18:
 273 01d4 0010A0E1 		mov	r1, r0
 274              	.LVL19:
 275              	.LBE2:
 276 01d8 0CE08EE0 		add	lr, lr, ip
 277              	.LBB3:
 278 01dc F43F9FE5 		ldr	r3, .L39
 279              	.LVL20:
 280              	.LBE3:
 281 01e0 18E08DE5 		str	lr, [sp, #24]
 282              	.LVL21:
 283              	.LBB4:
 284 01e4 FEFFFFEB 		bl	MAD_F_MLX
 285              	.LVL22:
 286              	.LBE4:
 287              		.loc 1 251 0
 288 01e8 3C5084E2 		add	r5, r4, #60
 289 01ec 201095E8 		ldmia	r5, {r5, ip}	@ phole ldm
 290              	.LBB5:
 291 01f0 05206CE0 		rsb	r2, ip, r5
 292              	.LBE5:
 293 01f4 0C5085E0 		add	r5, r5, ip
 294              	.LVL23:
 295              	.LBB6:
 296              		.loc 1 250 0
 297 01f8 24EEA0E1 		mov	lr, r4, lsr #28
 298              	.LBE6:
 299              		.loc 1 251 0
 300 01fc 1C508DE5 		str	r5, [sp, #28]
 301              	.LVL24:
 302              	.LBB7:
 303              		.loc 1 254 0
 304 0200 D45F9FE5 		ldr	r5, .L39+4
 305              	.LVL25:
 306              	.LBE7:
 307              	.LBB8:
 308              		.loc 1 250 0
 309 0204 04628EE1 		orr	r6, lr, r4, asl #4
 310              	.LVL26:
 311              	.LVL27:
 312              	.LBE8:
ARM GAS  /cygdrive/c/DOCUME~1/mkwapisz/LOCALS~1/Temp/cc1OEM1Z.s 			page 23


 313              	.LBB9:
 314              		.loc 1 251 0
 315 0208 0410A0E1 		mov	r1, r4
 316 020c CC3F9FE5 		ldr	r3, .L39+8
 317              	.LVL28:
 318 0210 0400A0E1 		mov	r0, r4
 319 0214 FEFFFFEB 		bl	MAD_F_MLX
 320              	.LVL29:
 321              	.LVL30:
 322              	.LBE9:
 323              	.LBB10:
 324              		.loc 1 254 0
 325 0218 062066E0 		rsb	r2, r6, r6
 326              	.LVL31:
 327 021c 0410A0E1 		mov	r1, r4
 328 0220 0530A0E1 		mov	r3, r5
 329              	.LVL32:
 330 0224 0400A0E1 		mov	r0, r4
 331              	.LVL33:
 332              	.LBE10:
 333              		.loc 1 253 0
 334 0228 066086E0 		add	r6, r6, r6
 335              	.LVL34:
 336 022c 20608DE5 		str	r6, [sp, #32]
 337              	.LVL35:
 338              	.LBB11:
 339              		.loc 1 254 0
 340 0230 FEFFFFEB 		bl	MAD_F_MLX
 341              	.LVL36:
 342              	.LBE11:
 343              	.LBB12:
 344              		.loc 1 256 0
 345 0234 18008DE2 		add	r0, sp, #24
 346 0238 030090E8 		ldmia	r0, {r0, r1}	@ phole ldm
 347              	.LVL37:
 348              	.LBE12:
 349              	.LBB13:
 350              		.loc 1 254 0
 351 023c 24CEA0E1 		mov	ip, r4, lsr #28
 352              	.LBE13:
 353              	.LBB14:
 354              		.loc 1 256 0
 355 0240 002061E0 		rsb	r2, r1, r0
 356 0244 0530A0E1 		mov	r3, r5
 357              	.LVL38:
 358 0248 0410A0E1 		mov	r1, r4
 359              	.LVL39:
 360 024c 0400A0E1 		mov	r0, r4
 361              	.LVL40:
 362              	.LBE14:
 363              	.LBB15:
 364              		.loc 1 254 0
 365 0250 04428CE1 		orr	r4, ip, r4, asl #4
 366              	.LVL41:
 367 0254 24408DE5 		str	r4, [sp, #36]
 368              	.LVL42:
 369              	.LBE15:
ARM GAS  /cygdrive/c/DOCUME~1/mkwapisz/LOCALS~1/Temp/cc1OEM1Z.s 			page 24


 370              	.LBB16:
 371              		.loc 1 256 0
 372 0258 FEFFFFEB 		bl	MAD_F_MLX
 373              	.LVL43:
 374              	.LVL44:
 375              	.LBE16:
 376              		.loc 1 258 0
 377 025c 60C094E5 		ldr	ip, [r4, #96]
 378 0260 1C5094E5 		ldr	r5, [r4, #28]
 379              	.LVL45:
 380              	.LBB17:
 381              		.loc 1 256 0
 382 0264 24EEA0E1 		mov	lr, r4, lsr #28
 383              	.LBE17:
 384              	.LBB18:
 385              		.loc 1 258 0
 386 0268 05206CE0 		rsb	r2, ip, r5
 387              	.LVL46:
 388 026c 0410A0E1 		mov	r1, r4
 389              	.LBE18:
 390 0270 0C5085E0 		add	r5, r5, ip
 391              	.LBB19:
 392 0274 683F9FE5 		ldr	r3, .L39+12
 393              	.LVL47:
 394 0278 0400A0E1 		mov	r0, r4
 395              	.LVL48:
 396              	.LBE19:
 397              	.LBB20:
 398              		.loc 1 256 0
 399 027c 04428EE1 		orr	r4, lr, r4, asl #4
 400              	.LVL49:
 401 0280 2C408DE5 		str	r4, [sp, #44]
 402              	.LVL50:
 403              	.LBE20:
 404              		.loc 1 258 0
 405 0284 30508DE5 		str	r5, [sp, #48]
 406              	.LVL51:
 407              	.LBB21:
 408 0288 FEFFFFEB 		bl	MAD_F_MLX
 409              	.LVL52:
 410              	.LVL53:
 411              	.LBE21:
 412              		.loc 1 259 0
 413 028c 5CC094E5 		ldr	ip, [r4, #92]
 414 0290 205094E5 		ldr	r5, [r4, #32]
 415              	.LVL54:
 416              	.LBB22:
 417              		.loc 1 258 0
 418 0294 24EEA0E1 		mov	lr, r4, lsr #28
 419              	.LBE22:
 420              		.loc 1 259 0
 421 0298 0CB085E0 		add	fp, r5, ip
 422              	.LVL55:
 423              	.LBB23:
 424 029c 05206CE0 		rsb	r2, ip, r5
 425              	.LBE23:
 426              	.LBB24:
ARM GAS  /cygdrive/c/DOCUME~1/mkwapisz/LOCALS~1/Temp/cc1OEM1Z.s 			page 25


 427              		.loc 1 262 0
 428 02a0 405F9FE5 		ldr	r5, .L39+16
 429              	.LVL56:
 430              	.LBE24:
 431              	.LBB25:
 432              		.loc 1 258 0
 433 02a4 04628EE1 		orr	r6, lr, r4, asl #4
 434              	.LVL57:
 435              	.LVL58:
 436              	.LBE25:
 437              	.LBB26:
 438              		.loc 1 259 0
 439 02a8 0410A0E1 		mov	r1, r4
 440 02ac 383F9FE5 		ldr	r3, .L39+20
 441              	.LVL59:
 442 02b0 0400A0E1 		mov	r0, r4
 443 02b4 FEFFFFEB 		bl	MAD_F_MLX
 444              	.LVL60:
 445              	.LVL61:
 446              	.LBE26:
 447              	.LBB27:
 448              		.loc 1 262 0
 449 02b8 062066E0 		rsb	r2, r6, r6
 450              	.LVL62:
 451 02bc 0410A0E1 		mov	r1, r4
 452 02c0 0530A0E1 		mov	r3, r5
 453              	.LVL63:
 454 02c4 0400A0E1 		mov	r0, r4
 455              	.LVL64:
 456              	.LBE27:
 457              		.loc 1 261 0
 458 02c8 066086E0 		add	r6, r6, r6
 459              	.LVL65:
 460 02cc 34608DE5 		str	r6, [sp, #52]
 461              	.LVL66:
 462              	.LBB28:
 463              		.loc 1 262 0
 464 02d0 FEFFFFEB 		bl	MAD_F_MLX
 465              	.LVL67:
 466              	.LBE28:
 467              	.LBB29:
 468              		.loc 1 264 0
 469 02d4 30309DE5 		ldr	r3, [sp, #48]
 470              	.LVL68:
 471              	.LBE29:
 472              	.LBB30:
 473              		.loc 1 262 0
 474 02d8 24CEA0E1 		mov	ip, r4, lsr #28
 475              	.LBE30:
 476              	.LBB31:
 477              		.loc 1 264 0
 478 02dc 03206BE0 		rsb	r2, fp, r3
 479              	.LVL69:
 480 02e0 0410A0E1 		mov	r1, r4
 481 02e4 0530A0E1 		mov	r3, r5
 482              	.LVL70:
 483 02e8 0400A0E1 		mov	r0, r4
ARM GAS  /cygdrive/c/DOCUME~1/mkwapisz/LOCALS~1/Temp/cc1OEM1Z.s 			page 26


 484              	.LVL71:
 485              	.LBE31:
 486              	.LBB32:
 487              		.loc 1 262 0
 488 02ec 04428CE1 		orr	r4, ip, r4, asl #4
 489              	.LVL72:
 490 02f0 38408DE5 		str	r4, [sp, #56]
 491              	.LVL73:
 492              	.LBE32:
 493              	.LBB33:
 494              		.loc 1 264 0
 495 02f4 FEFFFFEB 		bl	MAD_F_MLX
 496              	.LVL74:
 497              	.LVL75:
 498              	.LBE33:
 499              		.loc 1 266 0
 500 02f8 70C094E5 		ldr	ip, [r4, #112]
 501 02fc 0C5094E5 		ldr	r5, [r4, #12]
 502              	.LVL76:
 503              	.LBB34:
 504              		.loc 1 264 0
 505 0300 24EEA0E1 		mov	lr, r4, lsr #28
 506              	.LBE34:
 507              	.LBB35:
 508              		.loc 1 266 0
 509 0304 05206CE0 		rsb	r2, ip, r5
 510              	.LVL77:
 511 0308 0410A0E1 		mov	r1, r4
 512              	.LBE35:
 513 030c 0C5085E0 		add	r5, r5, ip
 514              	.LBB36:
 515 0310 D83E9FE5 		ldr	r3, .L39+24
 516              	.LVL78:
 517 0314 0400A0E1 		mov	r0, r4
 518              	.LVL79:
 519              	.LBE36:
 520              	.LBB37:
 521              		.loc 1 264 0
 522 0318 04428EE1 		orr	r4, lr, r4, asl #4
 523              	.LVL80:
 524 031c 40408DE5 		str	r4, [sp, #64]
 525              	.LVL81:
 526              	.LBE37:
 527              		.loc 1 266 0
 528 0320 44508DE5 		str	r5, [sp, #68]
 529              	.LVL82:
 530              	.LBB38:
 531 0324 FEFFFFEB 		bl	MAD_F_MLX
 532              	.LVL83:
 533              	.LVL84:
 534              	.LBE38:
 535              		.loc 1 267 0
 536 0328 4CC094E5 		ldr	ip, [r4, #76]
 537 032c 305094E5 		ldr	r5, [r4, #48]
 538              	.LBB39:
 539 0330 05206CE0 		rsb	r2, ip, r5
 540              	.LBE39:
ARM GAS  /cygdrive/c/DOCUME~1/mkwapisz/LOCALS~1/Temp/cc1OEM1Z.s 			page 27


 541 0334 0C5085E0 		add	r5, r5, ip
 542              	.LVL85:
 543              	.LBB40:
 544              		.loc 1 266 0
 545 0338 24EEA0E1 		mov	lr, r4, lsr #28
 546              	.LBE40:
 547              		.loc 1 267 0
 548 033c 48508DE5 		str	r5, [sp, #72]
 549              	.LVL86:
 550              	.LBB41:
 551              		.loc 1 270 0
 552 0340 AC5E9FE5 		ldr	r5, .L39+28
 553              	.LVL87:
 554              	.LBE41:
 555              	.LBB42:
 556              		.loc 1 266 0
 557 0344 04628EE1 		orr	r6, lr, r4, asl #4
 558              	.LVL88:
 559              	.LVL89:
 560              	.LBE42:
 561              	.LBB43:
 562              		.loc 1 267 0
 563 0348 0410A0E1 		mov	r1, r4
 564 034c A43E9FE5 		ldr	r3, .L39+32
 565              	.LVL90:
 566 0350 0400A0E1 		mov	r0, r4
 567 0354 FEFFFFEB 		bl	MAD_F_MLX
 568              	.LVL91:
 569              	.LVL92:
 570              	.LBE43:
 571              	.LBB44:
 572              		.loc 1 270 0
 573 0358 062066E0 		rsb	r2, r6, r6
 574              	.LVL93:
 575 035c 0410A0E1 		mov	r1, r4
 576 0360 0530A0E1 		mov	r3, r5
 577              	.LVL94:
 578 0364 0400A0E1 		mov	r0, r4
 579              	.LVL95:
 580              	.LBE44:
 581              		.loc 1 269 0
 582 0368 066086E0 		add	r6, r6, r6
 583              	.LVL96:
 584 036c 4C608DE5 		str	r6, [sp, #76]
 585              	.LVL97:
 586              	.LBB45:
 587              		.loc 1 270 0
 588 0370 FEFFFFEB 		bl	MAD_F_MLX
 589              	.LVL98:
 590              	.LBE45:
 591              	.LBB46:
 592              		.loc 1 272 0
 593 0374 44708DE2 		add	r7, sp, #68
 594 0378 800297E8 		ldmia	r7, {r7, r9}	@ phole ldm
 595              	.LVL99:
 596              	.LBE46:
 597              	.LBB47:
ARM GAS  /cygdrive/c/DOCUME~1/mkwapisz/LOCALS~1/Temp/cc1OEM1Z.s 			page 28


 598              		.loc 1 270 0
 599 037c 24CEA0E1 		mov	ip, r4, lsr #28
 600              	.LBE47:
 601              	.LBB48:
 602              		.loc 1 272 0
 603 0380 072069E0 		rsb	r2, r9, r7
 604 0384 0530A0E1 		mov	r3, r5
 605              	.LVL100:
 606 0388 0410A0E1 		mov	r1, r4
 607              	.LVL101:
 608 038c 0400A0E1 		mov	r0, r4
 609              	.LVL102:
 610              	.LBE48:
 611              	.LBB49:
 612              		.loc 1 270 0
 613 0390 04428CE1 		orr	r4, ip, r4, asl #4
 614              	.LVL103:
 615 0394 50408DE5 		str	r4, [sp, #80]
 616              	.LVL104:
 617              	.LBE49:
 618              	.LBB50:
 619              		.loc 1 272 0
 620 0398 FEFFFFEB 		bl	MAD_F_MLX
 621              	.LVL105:
 622              	.LVL106:
 623              	.LBE50:
 624              		.loc 1 274 0
 625 039c 6CC094E5 		ldr	ip, [r4, #108]
 626 03a0 105094E5 		ldr	r5, [r4, #16]
 627              	.LVL107:
 628              	.LBB51:
 629              		.loc 1 272 0
 630 03a4 24EEA0E1 		mov	lr, r4, lsr #28
 631              	.LBE51:
 632              	.LBB52:
 633              		.loc 1 274 0
 634 03a8 05206CE0 		rsb	r2, ip, r5
 635              	.LVL108:
 636 03ac 0410A0E1 		mov	r1, r4
 637              	.LBE52:
 638 03b0 0C5085E0 		add	r5, r5, ip
 639              	.LBB53:
 640 03b4 403E9FE5 		ldr	r3, .L39+36
 641              	.LVL109:
 642 03b8 0400A0E1 		mov	r0, r4
 643              	.LVL110:
 644              	.LBE53:
 645              	.LBB54:
 646              		.loc 1 272 0
 647 03bc 04428EE1 		orr	r4, lr, r4, asl #4
 648              	.LVL111:
 649 03c0 58408DE5 		str	r4, [sp, #88]
 650              	.LVL112:
 651              	.LBE54:
 652              		.loc 1 274 0
 653 03c4 5C508DE5 		str	r5, [sp, #92]
 654              	.LVL113:
ARM GAS  /cygdrive/c/DOCUME~1/mkwapisz/LOCALS~1/Temp/cc1OEM1Z.s 			page 29


 655              	.LBB55:
 656 03c8 FEFFFFEB 		bl	MAD_F_MLX
 657              	.LVL114:
 658              	.LVL115:
 659              	.LBE55:
 660              		.loc 1 275 0
 661 03cc 50C094E5 		ldr	ip, [r4, #80]
 662 03d0 2C5094E5 		ldr	r5, [r4, #44]
 663              	.LBB56:
 664 03d4 05206CE0 		rsb	r2, ip, r5
 665              	.LBE56:
 666 03d8 0C5085E0 		add	r5, r5, ip
 667              	.LVL116:
 668              	.LBB57:
 669              		.loc 1 274 0
 670 03dc 24EEA0E1 		mov	lr, r4, lsr #28
 671              	.LBE57:
 672              		.loc 1 275 0
 673 03e0 60508DE5 		str	r5, [sp, #96]
 674              	.LVL117:
 675              	.LBB58:
 676              		.loc 1 278 0
 677 03e4 145E9FE5 		ldr	r5, .L39+40
 678              	.LVL118:
 679              	.LBE58:
 680              	.LBB59:
 681              		.loc 1 274 0
 682 03e8 04628EE1 		orr	r6, lr, r4, asl #4
 683              	.LVL119:
 684              	.LVL120:
 685              	.LBE59:
 686              	.LBB60:
 687              		.loc 1 275 0
 688 03ec 0410A0E1 		mov	r1, r4
 689 03f0 0C3E9FE5 		ldr	r3, .L39+44
 690              	.LVL121:
 691 03f4 0400A0E1 		mov	r0, r4
 692 03f8 FEFFFFEB 		bl	MAD_F_MLX
 693              	.LVL122:
 694              	.LVL123:
 695              	.LBE60:
 696              	.LBB61:
 697              		.loc 1 278 0
 698 03fc 062066E0 		rsb	r2, r6, r6
 699              	.LVL124:
 700 0400 0410A0E1 		mov	r1, r4
 701 0404 0530A0E1 		mov	r3, r5
 702              	.LVL125:
 703 0408 0400A0E1 		mov	r0, r4
 704              	.LVL126:
 705              	.LBE61:
 706              		.loc 1 277 0
 707 040c 066086E0 		add	r6, r6, r6
 708              	.LVL127:
 709 0410 64608DE5 		str	r6, [sp, #100]
 710              	.LVL128:
 711              	.LBB62:
ARM GAS  /cygdrive/c/DOCUME~1/mkwapisz/LOCALS~1/Temp/cc1OEM1Z.s 			page 30


 712              		.loc 1 278 0
 713 0414 FEFFFFEB 		bl	MAD_F_MLX
 714              	.LVL129:
 715              	.LBE62:
 716              	.LBB63:
 717              		.loc 1 280 0
 718 0418 5CC08DE2 		add	ip, sp, #92
 719 041c 00509CE8 		ldmia	ip, {ip, lr}	@ phole ldm
 720 0420 0C206EE0 		rsb	r2, lr, ip
 721              	.LVL130:
 722              	.LBE63:
 723              	.LBB64:
 724              		.loc 1 278 0
 725 0424 24CEA0E1 		mov	ip, r4, lsr #28
 726              	.LBE64:
 727              	.LBB65:
 728              		.loc 1 280 0
 729 0428 0530A0E1 		mov	r3, r5
 730              	.LVL131:
 731 042c 0410A0E1 		mov	r1, r4
 732              	.LVL132:
 733 0430 0400A0E1 		mov	r0, r4
 734              	.LVL133:
 735              	.LBE65:
 736              	.LBB66:
 737              		.loc 1 278 0
 738 0434 04428CE1 		orr	r4, ip, r4, asl #4
 739              	.LVL134:
 740 0438 68408DE5 		str	r4, [sp, #104]
 741              	.LVL135:
 742              	.LBE66:
 743              	.LBB67:
 744              		.loc 1 280 0
 745 043c FEFFFFEB 		bl	MAD_F_MLX
 746              	.LVL136:
 747              	.LVL137:
 748              	.LBE67:
 749              		.loc 1 282 0
 750 0440 78C094E5 		ldr	ip, [r4, #120]
 751 0444 045094E5 		ldr	r5, [r4, #4]
 752              	.LVL138:
 753              	.LBB68:
 754              		.loc 1 280 0
 755 0448 24EEA0E1 		mov	lr, r4, lsr #28
 756              	.LBE68:
 757              	.LBB69:
 758              		.loc 1 282 0
 759 044c 05206CE0 		rsb	r2, ip, r5
 760              	.LVL139:
 761 0450 0410A0E1 		mov	r1, r4
 762              	.LBE69:
 763 0454 0C5085E0 		add	r5, r5, ip
 764              	.LBB70:
 765 0458 A83D9FE5 		ldr	r3, .L39+48
 766              	.LVL140:
 767 045c 0400A0E1 		mov	r0, r4
 768              	.LVL141:
ARM GAS  /cygdrive/c/DOCUME~1/mkwapisz/LOCALS~1/Temp/cc1OEM1Z.s 			page 31


 769              	.LBE70:
 770              	.LBB71:
 771              		.loc 1 280 0
 772 0460 04428EE1 		orr	r4, lr, r4, asl #4
 773              	.LVL142:
 774 0464 70408DE5 		str	r4, [sp, #112]
 775              	.LVL143:
 776              	.LBE71:
 777              		.loc 1 282 0
 778 0468 74508DE5 		str	r5, [sp, #116]
 779              	.LVL144:
 780              	.LBB72:
 781 046c FEFFFFEB 		bl	MAD_F_MLX
 782              	.LVL145:
 783              	.LVL146:
 784              	.LBE72:
 785              		.loc 1 283 0
 786 0470 44C094E5 		ldr	ip, [r4, #68]
 787 0474 385094E5 		ldr	r5, [r4, #56]
 788              	.LBB73:
 789 0478 05206CE0 		rsb	r2, ip, r5
 790              	.LBE73:
 791 047c 0C5085E0 		add	r5, r5, ip
 792              	.LVL147:
 793              	.LBB74:
 794              		.loc 1 282 0
 795 0480 24EEA0E1 		mov	lr, r4, lsr #28
 796              	.LBE74:
 797              		.loc 1 283 0
 798 0484 78508DE5 		str	r5, [sp, #120]
 799              	.LVL148:
 800              	.LBB75:
 801              		.loc 1 286 0
 802 0488 7C5D9FE5 		ldr	r5, .L39+52
 803              	.LVL149:
 804              	.LBE75:
 805              	.LBB76:
 806              		.loc 1 282 0
 807 048c 04628EE1 		orr	r6, lr, r4, asl #4
 808              	.LVL150:
 809              	.LVL151:
 810              	.LBE76:
 811              	.LBB77:
 812              		.loc 1 283 0
 813 0490 0410A0E1 		mov	r1, r4
 814 0494 743D9FE5 		ldr	r3, .L39+56
 815              	.LVL152:
 816 0498 0400A0E1 		mov	r0, r4
 817 049c FEFFFFEB 		bl	MAD_F_MLX
 818              	.LVL153:
 819              	.LVL154:
 820              	.LBE77:
 821              	.LBB78:
 822              		.loc 1 286 0
 823 04a0 062066E0 		rsb	r2, r6, r6
 824              	.LVL155:
 825 04a4 0410A0E1 		mov	r1, r4
ARM GAS  /cygdrive/c/DOCUME~1/mkwapisz/LOCALS~1/Temp/cc1OEM1Z.s 			page 32


 826 04a8 0530A0E1 		mov	r3, r5
 827              	.LVL156:
 828 04ac 0400A0E1 		mov	r0, r4
 829              	.LVL157:
 830              	.LBE78:
 831              		.loc 1 285 0
 832 04b0 066086E0 		add	r6, r6, r6
 833              	.LVL158:
 834 04b4 7C608DE5 		str	r6, [sp, #124]
 835              	.LVL159:
 836              	.LBB79:
 837              		.loc 1 286 0
 838 04b8 FEFFFFEB 		bl	MAD_F_MLX
 839              	.LVL160:
 840              	.LBE79:
 841              	.LBB80:
 842              		.loc 1 288 0
 843 04bc 74008DE2 		add	r0, sp, #116
 844 04c0 030090E8 		ldmia	r0, {r0, r1}	@ phole ldm
 845              	.LVL161:
 846              	.LBE80:
 847              	.LBB81:
 848              		.loc 1 286 0
 849 04c4 24CEA0E1 		mov	ip, r4, lsr #28
 850              	.LBE81:
 851              	.LBB82:
 852              		.loc 1 288 0
 853 04c8 002061E0 		rsb	r2, r1, r0
 854 04cc 0530A0E1 		mov	r3, r5
 855              	.LVL162:
 856 04d0 0410A0E1 		mov	r1, r4
 857              	.LVL163:
 858 04d4 0400A0E1 		mov	r0, r4
 859              	.LVL164:
 860              	.LBE82:
 861              	.LBB83:
 862              		.loc 1 286 0
 863 04d8 04428CE1 		orr	r4, ip, r4, asl #4
 864              	.LVL165:
 865 04dc 80408DE5 		str	r4, [sp, #128]
 866              	.LVL166:
 867              	.LBE83:
 868              	.LBB84:
 869              		.loc 1 288 0
 870 04e0 FEFFFFEB 		bl	MAD_F_MLX
 871              	.LVL167:
 872              	.LVL168:
 873              	.LBE84:
 874              		.loc 1 290 0
 875 04e4 64C094E5 		ldr	ip, [r4, #100]
 876 04e8 18A094E5 		ldr	sl, [r4, #24]
 877              	.LVL169:
 878              	.LBB85:
 879              		.loc 1 288 0
 880 04ec 24EEA0E1 		mov	lr, r4, lsr #28
 881              	.LBE85:
 882              	.LBB86:
ARM GAS  /cygdrive/c/DOCUME~1/mkwapisz/LOCALS~1/Temp/cc1OEM1Z.s 			page 33


 883              		.loc 1 290 0
 884 04f0 0A206CE0 		rsb	r2, ip, sl
 885              	.LVL170:
 886 04f4 0910A0E1 		mov	r1, r9
 887 04f8 143D9FE5 		ldr	r3, .L39+60
 888              	.LVL171:
 889 04fc 0400A0E1 		mov	r0, r4
 890              	.LVL172:
 891              	.LBE86:
 892              	.LBB87:
 893              		.loc 1 288 0
 894 0500 04428EE1 		orr	r4, lr, r4, asl #4
 895              	.LVL173:
 896              	.LBE87:
 897              		.loc 1 290 0
 898 0504 0CA08AE0 		add	sl, sl, ip
 899              	.LVL174:
 900              	.LBB88:
 901              		.loc 1 288 0
 902 0508 88408DE5 		str	r4, [sp, #136]
 903              	.LVL175:
 904              	.LBE88:
 905              	.LBB89:
 906              		.loc 1 290 0
 907 050c FEFFFFEB 		bl	MAD_F_MLX
 908              	.LVL176:
 909              	.LVL177:
 910              	.LBE89:
 911              		.loc 1 291 0
 912 0510 58C094E5 		ldr	ip, [r4, #88]
 913 0514 24E094E5 		ldr	lr, [r4, #36]
 914              	.LBB90:
 915              		.loc 1 290 0
 916 0518 299EA0E1 		mov	r9, r9, lsr #28
 917              	.LVL178:
 918              	.LBE90:
 919              	.LBB91:
 920              		.loc 1 291 0
 921 051c 0E206CE0 		rsb	r2, ip, lr
 922              	.LVL179:
 923 0520 0410A0E1 		mov	r1, r4
 924              	.LBE91:
 925 0524 0CE08EE0 		add	lr, lr, ip
 926              	.LBB92:
 927 0528 E83C9FE5 		ldr	r3, .L39+64
 928              	.LVL180:
 929 052c 0400A0E1 		mov	r0, r4
 930              	.LVL181:
 931              	.LBE92:
 932              	.LBB93:
 933              		.loc 1 290 0
 934 0530 044289E1 		orr	r4, r9, r4, asl #4
 935              	.LVL182:
 936              	.LBE93:
 937              		.loc 1 291 0
 938 0534 90E08DE5 		str	lr, [sp, #144]
 939              	.LVL183:
ARM GAS  /cygdrive/c/DOCUME~1/mkwapisz/LOCALS~1/Temp/cc1OEM1Z.s 			page 34


 940              	.LBB94:
 941              		.loc 1 290 0
 942 0538 8C408DE5 		str	r4, [sp, #140]
 943              	.LVL184:
 944              	.LBE94:
 945              	.LBB95:
 946              		.loc 1 291 0
 947 053c FEFFFFEB 		bl	MAD_F_MLX
 948              	.LVL185:
 949 0540 24CEA0E1 		mov	ip, r4, lsr #28
 950              	.LBE95:
 951              	.LBB96:
 952              		.loc 1 294 0
 953 0544 D05C9FE5 		ldr	r5, .L39+68
 954              	.LVL186:
 955              	.LBE96:
 956              	.LBB97:
 957              		.loc 1 291 0
 958 0548 04C28CE1 		orr	ip, ip, r4, asl #4
 959              	.LVL187:
 960              	.LBE97:
 961              	.LBB98:
 962              		.loc 1 294 0
 963 054c 8C409DE5 		ldr	r4, [sp, #140]
 964              	.LVL188:
 965 0550 0530A0E1 		mov	r3, r5
 966 0554 04206CE0 		rsb	r2, ip, r4
 967              	.LVL189:
 968 0558 0410A0E1 		mov	r1, r4
 969              	.LVL190:
 970              	.LBE98:
 971              		.loc 1 293 0
 972 055c 0CC084E0 		add	ip, r4, ip
 973              	.LVL191:
 974              	.LVL192:
 975              	.LBB99:
 976              		.loc 1 294 0
 977 0560 0400A0E1 		mov	r0, r4
 978              	.LBE99:
 979              		.loc 1 293 0
 980 0564 94C08DE5 		str	ip, [sp, #148]
 981              	.LVL193:
 982              	.LBB100:
 983              		.loc 1 294 0
 984 0568 FEFFFFEB 		bl	MAD_F_MLX
 985              	.LVL194:
 986              	.LBE100:
 987              	.LBB101:
 988              		.loc 1 296 0
 989 056c 90309DE5 		ldr	r3, [sp, #144]
 990              	.LVL195:
 991              	.LBE101:
 992              	.LBB102:
 993              		.loc 1 294 0
 994 0570 24CEA0E1 		mov	ip, r4, lsr #28
 995              	.LBE102:
 996              	.LBB103:
ARM GAS  /cygdrive/c/DOCUME~1/mkwapisz/LOCALS~1/Temp/cc1OEM1Z.s 			page 35


 997              		.loc 1 296 0
 998 0574 0A2063E0 		rsb	r2, r3, sl
 999              	.LVL196:
 1000 0578 0410A0E1 		mov	r1, r4
 1001 057c 0530A0E1 		mov	r3, r5
 1002              	.LVL197:
 1003 0580 0400A0E1 		mov	r0, r4
 1004              	.LVL198:
 1005              	.LBE103:
 1006              	.LBB104:
 1007              		.loc 1 294 0
 1008 0584 04428CE1 		orr	r4, ip, r4, asl #4
 1009              	.LVL199:
 1010 0588 98408DE5 		str	r4, [sp, #152]
 1011              	.LVL200:
 1012              	.LBE104:
 1013              	.LBB105:
 1014              		.loc 1 296 0
 1015 058c FEFFFFEB 		bl	MAD_F_MLX
 1016              	.LVL201:
 1017              	.LVL202:
 1018              	.LBE105:
 1019              		.loc 1 298 0
 1020 0590 74C094E5 		ldr	ip, [r4, #116]
 1021 0594 085094E5 		ldr	r5, [r4, #8]
 1022              	.LVL203:
 1023              	.LBB106:
 1024              		.loc 1 296 0
 1025 0598 24EEA0E1 		mov	lr, r4, lsr #28
 1026              	.LBE106:
 1027              	.LBB107:
 1028              		.loc 1 298 0
 1029 059c 05206CE0 		rsb	r2, ip, r5
 1030              	.LVL204:
 1031 05a0 0410A0E1 		mov	r1, r4
 1032              	.LBE107:
 1033 05a4 0C5085E0 		add	r5, r5, ip
 1034              	.LBB108:
 1035 05a8 703C9FE5 		ldr	r3, .L39+72
 1036              	.LVL205:
 1037 05ac 0400A0E1 		mov	r0, r4
 1038              	.LVL206:
 1039              	.LBE108:
 1040              	.LBB109:
 1041              		.loc 1 296 0
 1042 05b0 04428EE1 		orr	r4, lr, r4, asl #4
 1043              	.LVL207:
 1044 05b4 9C408DE5 		str	r4, [sp, #156]
 1045              	.LVL208:
 1046              	.LBE109:
 1047              		.loc 1 298 0
 1048 05b8 A0508DE5 		str	r5, [sp, #160]
 1049              	.LVL209:
 1050              	.LBB110:
 1051 05bc FEFFFFEB 		bl	MAD_F_MLX
 1052              	.LVL210:
 1053              	.LVL211:
ARM GAS  /cygdrive/c/DOCUME~1/mkwapisz/LOCALS~1/Temp/cc1OEM1Z.s 			page 36


 1054              	.LBE110:
 1055              		.loc 1 299 0
 1056 05c0 48C094E5 		ldr	ip, [r4, #72]
 1057 05c4 348094E5 		ldr	r8, [r4, #52]
 1058              	.LVL212:
 1059              	.LBB111:
 1060              		.loc 1 298 0
 1061 05c8 24EEA0E1 		mov	lr, r4, lsr #28
 1062              	.LBE111:
 1063              	.LBB112:
 1064              		.loc 1 302 0
 1065 05cc 505C9FE5 		ldr	r5, .L39+76
 1066              	.LVL213:
 1067              	.LBE112:
 1068              	.LBB113:
 1069              		.loc 1 298 0
 1070 05d0 04628EE1 		orr	r6, lr, r4, asl #4
 1071              	.LVL214:
 1072              	.LBE113:
 1073              	.LBB114:
 1074              		.loc 1 299 0
 1075 05d4 08206CE0 		rsb	r2, ip, r8
 1076              	.LVL215:
 1077 05d8 0410A0E1 		mov	r1, r4
 1078 05dc 443C9FE5 		ldr	r3, .L39+80
 1079              	.LVL216:
 1080 05e0 0400A0E1 		mov	r0, r4
 1081              	.LBE114:
 1082 05e4 0C8088E0 		add	r8, r8, ip
 1083              	.LVL217:
 1084              	.LBB115:
 1085 05e8 FEFFFFEB 		bl	MAD_F_MLX
 1086              	.LVL218:
 1087              	.LVL219:
 1088              	.LBE115:
 1089              	.LBB116:
 1090              		.loc 1 302 0
 1091 05ec 062066E0 		rsb	r2, r6, r6
 1092              	.LVL220:
 1093 05f0 0410A0E1 		mov	r1, r4
 1094 05f4 0530A0E1 		mov	r3, r5
 1095              	.LVL221:
 1096 05f8 0400A0E1 		mov	r0, r4
 1097              	.LVL222:
 1098              	.LBE116:
 1099              		.loc 1 301 0
 1100 05fc 066086E0 		add	r6, r6, r6
 1101              	.LVL223:
 1102 0600 A4608DE5 		str	r6, [sp, #164]
 1103              	.LVL224:
 1104              	.LBB117:
 1105              		.loc 1 302 0
 1106 0604 FEFFFFEB 		bl	MAD_F_MLX
 1107              	.LVL225:
 1108              	.LBE117:
 1109              	.LBB118:
 1110              		.loc 1 304 0
ARM GAS  /cygdrive/c/DOCUME~1/mkwapisz/LOCALS~1/Temp/cc1OEM1Z.s 			page 37


 1111 0608 A0709DE5 		ldr	r7, [sp, #160]
 1112              	.LVL226:
 1113              	.LBE118:
 1114              	.LBB119:
 1115              		.loc 1 302 0
 1116 060c 24CEA0E1 		mov	ip, r4, lsr #28
 1117              	.LBE119:
 1118              	.LBB120:
 1119              		.loc 1 304 0
 1120 0610 072068E0 		rsb	r2, r8, r7
 1121 0614 0530A0E1 		mov	r3, r5
 1122              	.LVL227:
 1123 0618 0410A0E1 		mov	r1, r4
 1124              	.LVL228:
 1125 061c 0400A0E1 		mov	r0, r4
 1126              	.LVL229:
 1127              	.LBE120:
 1128              	.LBB121:
 1129              		.loc 1 302 0
 1130 0620 04428CE1 		orr	r4, ip, r4, asl #4
 1131              	.LVL230:
 1132 0624 A8408DE5 		str	r4, [sp, #168]
 1133              	.LVL231:
 1134              	.LBE121:
 1135              	.LBB122:
 1136              		.loc 1 304 0
 1137 0628 FEFFFFEB 		bl	MAD_F_MLX
 1138              	.LVL232:
 1139              	.LVL233:
 1140              	.LBE122:
 1141              		.loc 1 306 0
 1142 062c 68C094E5 		ldr	ip, [r4, #104]
 1143 0630 146094E5 		ldr	r6, [r4, #20]
 1144              	.LVL234:
 1145              	.LBB123:
 1146              		.loc 1 304 0
 1147 0634 24EEA0E1 		mov	lr, r4, lsr #28
 1148              	.LBE123:
 1149              	.LBB124:
 1150              		.loc 1 306 0
 1151 0638 06206CE0 		rsb	r2, ip, r6
 1152              	.LVL235:
 1153 063c 0710A0E1 		mov	r1, r7
 1154 0640 E43B9FE5 		ldr	r3, .L39+84
 1155              	.LVL236:
 1156 0644 0400A0E1 		mov	r0, r4
 1157              	.LVL237:
 1158              	.LBE124:
 1159              	.LBB125:
 1160              		.loc 1 304 0
 1161 0648 04428EE1 		orr	r4, lr, r4, asl #4
 1162              	.LVL238:
 1163              	.LBE125:
 1164              		.loc 1 306 0
 1165 064c 0C6086E0 		add	r6, r6, ip
 1166              	.LVL239:
 1167              	.LBB126:
ARM GAS  /cygdrive/c/DOCUME~1/mkwapisz/LOCALS~1/Temp/cc1OEM1Z.s 			page 38


 1168              		.loc 1 304 0
 1169 0650 AC408DE5 		str	r4, [sp, #172]
 1170              	.LVL240:
 1171              	.LBE126:
 1172              	.LBB127:
 1173              		.loc 1 306 0
 1174 0654 FEFFFFEB 		bl	MAD_F_MLX
 1175              	.LVL241:
 1176              	.LVL242:
 1177              	.LBE127:
 1178              		.loc 1 307 0
 1179 0658 54C094E5 		ldr	ip, [r4, #84]
 1180 065c 285094E5 		ldr	r5, [r4, #40]
 1181              	.LVL243:
 1182              	.LBB128:
 1183 0660 0410A0E1 		mov	r1, r4
 1184 0664 05206CE0 		rsb	r2, ip, r5
 1185 0668 C03B9FE5 		ldr	r3, .L39+88
 1186              	.LVL244:
 1187 066c 0400A0E1 		mov	r0, r4
 1188              	.LBE128:
 1189              	.LBB129:
 1190              		.loc 1 306 0
 1191 0670 277EA0E1 		mov	r7, r7, lsr #28
 1192              	.LVL245:
 1193              	.LBE129:
 1194              		.loc 1 307 0
 1195 0674 0C5085E0 		add	r5, r5, ip
 1196              	.LVL246:
 1197              	.LVL247:
 1198              	.LBB130:
 1199              		.loc 1 306 0
 1200 0678 047287E1 		orr	r7, r7, r4, asl #4
 1201              	.LVL248:
 1202              	.LBE130:
 1203              	.LBB131:
 1204              		.loc 1 307 0
 1205 067c FEFFFFEB 		bl	MAD_F_MLX
 1206              	.LVL249:
 1207 0680 24CEA0E1 		mov	ip, r4, lsr #28
 1208              	.LBE131:
 1209              	.LBB132:
 1210              		.loc 1 310 0
 1211 0684 A84B9FE5 		ldr	r4, .L39+92
 1212              	.LVL250:
 1213              	.LVL251:
 1214              	.LBE132:
 1215              	.LBB133:
 1216              		.loc 1 307 0
 1217 0688 04C28CE1 		orr	ip, ip, r4, asl #4
 1218              	.LVL252:
 1219              	.LBE133:
 1220              	.LBB134:
 1221              		.loc 1 310 0
 1222 068c 07206CE0 		rsb	r2, ip, r7
 1223              	.LVL253:
 1224 0690 0410A0E1 		mov	r1, r4
ARM GAS  /cygdrive/c/DOCUME~1/mkwapisz/LOCALS~1/Temp/cc1OEM1Z.s 			page 39


 1225              	.LVL254:
 1226 0694 0430A0E1 		mov	r3, r4
 1227              	.LVL255:
 1228 0698 0400A0E1 		mov	r0, r4
 1229              	.LBE134:
 1230              		.loc 1 309 0
 1231 069c 0C7087E0 		add	r7, r7, ip
 1232              	.LVL256:
 1233              	.LBB135:
 1234              		.loc 1 310 0
 1235 06a0 FEFFFFEB 		bl	MAD_F_MLX
 1236              	.LVL257:
 1237              	.LBE135:
 1238              		.loc 1 255 0
 1239 06a4 1CE09DE5 		ldr	lr, [sp, #28]
 1240              		.loc 1 263 0
 1241 06a8 30009DE5 		ldr	r0, [sp, #48]
 1242              		.loc 1 255 0
 1243 06ac 18909DE5 		ldr	r9, [sp, #24]
 1244              	.LVL258:
 1245              	.LBB136:
 1246              		.loc 1 310 0
 1247 06b0 24CEA0E1 		mov	ip, r4, lsr #28
 1248              	.LBE136:
 1249              		.loc 1 255 0
 1250 06b4 0E9089E0 		add	r9, r9, lr
 1251              	.LBB137:
 1252              		.loc 1 312 0
 1253 06b8 062065E0 		rsb	r2, r5, r6
 1254              	.LVL259:
 1255 06bc 0430A0E1 		mov	r3, r4
 1256              	.LBE137:
 1257              		.loc 1 263 0
 1258 06c0 0BB080E0 		add	fp, r0, fp
 1259              	.LVL260:
 1260              	.LVL261:
 1261              	.LBB138:
 1262              		.loc 1 312 0
 1263 06c4 0410A0E1 		mov	r1, r4
 1264              	.LVL262:
 1265 06c8 0400A0E1 		mov	r0, r4
 1266              	.LVL263:
 1267              	.LBE138:
 1268              	.LBB139:
 1269              		.loc 1 310 0
 1270 06cc 04428CE1 		orr	r4, ip, r4, asl #4
 1271              	.LVL264:
 1272              	.LBE139:
 1273              		.loc 1 255 0
 1274 06d0 28908DE5 		str	r9, [sp, #40]
 1275              	.LVL265:
 1276              		.loc 1 263 0
 1277 06d4 3CB08DE5 		str	fp, [sp, #60]
 1278              	.LVL266:
 1279              	.LBB140:
 1280              		.loc 1 310 0
 1281 06d8 B0408DE5 		str	r4, [sp, #176]
ARM GAS  /cygdrive/c/DOCUME~1/mkwapisz/LOCALS~1/Temp/cc1OEM1Z.s 			page 40


 1282              	.LVL267:
 1283              	.LBE140:
 1284              	.LBB141:
 1285              		.loc 1 312 0
 1286 06dc FEFFFFEB 		bl	MAD_F_MLX
 1287              	.LVL268:
 1288              	.LBE141:
 1289              	.LBB142:
 1290              		.loc 1 314 0
 1291 06e0 3CB09DE5 		ldr	fp, [sp, #60]
 1292              	.LBE142:
 1293              		.loc 1 271 0
 1294 06e4 44108DE2 		add	r1, sp, #68
 1295 06e8 0A0091E8 		ldmia	r1, {r1, r3}	@ phole ldm
 1296              	.LBB143:
 1297              		.loc 1 314 0
 1298 06ec 09206BE0 		rsb	r2, fp, r9
 1299              	.LBE143:
 1300              		.loc 1 279 0
 1301 06f0 5C908DE2 		add	r9, sp, #92
 1302 06f4 004299E8 		ldmia	r9, {r9, lr}	@ phole ldm
 1303              	.LVL269:
 1304              	.LBB144:
 1305              		.loc 1 312 0
 1306 06f8 24CEA0E1 		mov	ip, r4, lsr #28
 1307              	.LBE144:
 1308              		.loc 1 271 0
 1309 06fc 031081E0 		add	r1, r1, r3
 1310              		.loc 1 279 0
 1311 0700 0E9089E0 		add	r9, r9, lr
 1312              		.loc 1 271 0
 1313 0704 54108DE5 		str	r1, [sp, #84]
 1314              	.LVL270:
 1315              	.LBB145:
 1316              		.loc 1 314 0
 1317 0708 283B9FE5 		ldr	r3, .L39+96
 1318              	.LVL271:
 1319 070c 0410A0E1 		mov	r1, r4
 1320              	.LVL272:
 1321 0710 0400A0E1 		mov	r0, r4
 1322              	.LVL273:
 1323              	.LBE145:
 1324              	.LBB146:
 1325              		.loc 1 312 0
 1326 0714 04428CE1 		orr	r4, ip, r4, asl #4
 1327              	.LVL274:
 1328              	.LBE146:
 1329              		.loc 1 279 0
 1330 0718 6C908DE5 		str	r9, [sp, #108]
 1331              	.LVL275:
 1332              	.LBB147:
 1333              		.loc 1 312 0
 1334 071c B4408DE5 		str	r4, [sp, #180]
 1335              	.LVL276:
 1336              	.LBE147:
 1337              	.LBB148:
 1338              		.loc 1 314 0
ARM GAS  /cygdrive/c/DOCUME~1/mkwapisz/LOCALS~1/Temp/cc1OEM1Z.s 			page 41


 1339 0720 FEFFFFEB 		bl	MAD_F_MLX
 1340              	.LVL277:
 1341              	.LBE148:
 1342              		.loc 1 287 0
 1343 0724 74108DE2 		add	r1, sp, #116
 1344 0728 0A0091E8 		ldmia	r1, {r1, r3}	@ phole ldm
 1345              	.LVL278:
 1346              	.LBB149:
 1347              		.loc 1 314 0
 1348 072c 24CEA0E1 		mov	ip, r4, lsr #28
 1349              	.LBE149:
 1350              	.LBB150:
 1351              		.loc 1 315 0
 1352 0730 54009DE5 		ldr	r0, [sp, #84]
 1353              	.LBE150:
 1354              	.LBB151:
 1355              		.loc 1 317 0
 1356 0734 004B9FE5 		ldr	r4, .L39+100
 1357              	.LVL279:
 1358              	.LBE151:
 1359              		.loc 1 287 0
 1360 0738 031081E0 		add	r1, r1, r3
 1361              	.LBB152:
 1362              		.loc 1 315 0
 1363 073c 002069E0 		rsb	r2, r9, r0
 1364              	.LBE152:
 1365              		.loc 1 287 0
 1366 0740 84108DE5 		str	r1, [sp, #132]
 1367              	.LVL280:
 1368              		.loc 1 295 0
 1369 0744 90909DE5 		ldr	r9, [sp, #144]
 1370              	.LVL281:
 1371              	.LBB153:
 1372              		.loc 1 315 0
 1373 0748 0410A0E1 		mov	r1, r4
 1374 074c EC3A9FE5 		ldr	r3, .L39+104
 1375              	.LVL282:
 1376 0750 0400A0E1 		mov	r0, r4
 1377              	.LVL283:
 1378              	.LBE153:
 1379              	.LBB154:
 1380              		.loc 1 314 0
 1381 0754 04428CE1 		orr	r4, ip, r4, asl #4
 1382              	.LVL284:
 1383 0758 B8408DE5 		str	r4, [sp, #184]
 1384              	.LVL285:
 1385              	.LBE154:
 1386              	.LBB155:
 1387              		.loc 1 315 0
 1388 075c FEFFFFEB 		bl	MAD_F_MLX
 1389              	.LVL286:
 1390              	.LBE155:
 1391              	.LBB156:
 1392              		.loc 1 316 0
 1393 0760 84C09DE5 		ldr	ip, [sp, #132]
 1394 0764 D8BA9FE5 		ldr	fp, .L39+108
 1395              	.LBE156:
ARM GAS  /cygdrive/c/DOCUME~1/mkwapisz/LOCALS~1/Temp/cc1OEM1Z.s 			page 42


 1396              		.loc 1 295 0
 1397 0768 09A08AE0 		add	sl, sl, r9
 1398              	.LVL287:
 1399              		.loc 1 303 0
 1400 076c A0E09DE5 		ldr	lr, [sp, #160]
 1401              	.LBB157:
 1402              		.loc 1 316 0
 1403 0770 0C206AE0 		rsb	r2, sl, ip
 1404              	.LVL288:
 1405              	.LBE157:
 1406              	.LBB158:
 1407              		.loc 1 315 0
 1408 0774 24CEA0E1 		mov	ip, r4, lsr #28
 1409              	.LVL289:
 1410              	.LBE158:
 1411              	.LBB159:
 1412              		.loc 1 316 0
 1413 0778 0410A0E1 		mov	r1, r4
 1414 077c 0B30A0E1 		mov	r3, fp
 1415              	.LVL290:
 1416 0780 0400A0E1 		mov	r0, r4
 1417              	.LVL291:
 1418              	.LBE159:
 1419              	.LBB160:
 1420              		.loc 1 315 0
 1421 0784 04428CE1 		orr	r4, ip, r4, asl #4
 1422              	.LVL292:
 1423              	.LBE160:
 1424              		.loc 1 303 0
 1425 0788 08808EE0 		add	r8, lr, r8
 1426              	.LVL293:
 1427              		.loc 1 311 0
 1428 078c 056086E0 		add	r6, r6, r5
 1429              	.LVL294:
 1430              	.LBB161:
 1431              		.loc 1 315 0
 1432 0790 BC408DE5 		str	r4, [sp, #188]
 1433              	.LVL295:
 1434              	.LBE161:
 1435              	.LBB162:
 1436              		.loc 1 316 0
 1437 0794 FEFFFFEB 		bl	MAD_F_MLX
 1438              	.LVL296:
 1439 0798 24CEA0E1 		mov	ip, r4, lsr #28
 1440              	.LBE162:
 1441              	.LBB163:
 1442              		.loc 1 317 0
 1443 079c 082066E0 		rsb	r2, r6, r8
 1444              	.LVL297:
 1445 07a0 0410A0E1 		mov	r1, r4
 1446              	.LVL298:
 1447 07a4 0430A0E1 		mov	r3, r4
 1448              	.LVL299:
 1449 07a8 0400A0E1 		mov	r0, r4
 1450              	.LVL300:
 1451              	.LBE163:
 1452              	.LBB164:
ARM GAS  /cygdrive/c/DOCUME~1/mkwapisz/LOCALS~1/Temp/cc1OEM1Z.s 			page 43


 1453              		.loc 1 316 0
 1454 07ac 04428CE1 		orr	r4, ip, r4, asl #4
 1455              	.LVL301:
 1456 07b0 C0408DE5 		str	r4, [sp, #192]
 1457              	.LVL302:
 1458              	.LBE164:
 1459              	.LBB165:
 1460              		.loc 1 317 0
 1461 07b4 FEFFFFEB 		bl	MAD_F_MLX
 1462              	.LVL303:
 1463              	.LBE165:
 1464              	.LBB166:
 1465              		.loc 1 318 0
 1466 07b8 20009DE5 		ldr	r0, [sp, #32]
 1467 07bc 34109DE5 		ldr	r1, [sp, #52]
 1468              	.LVL304:
 1469              	.LBE166:
 1470              	.LBB167:
 1471              		.loc 1 317 0
 1472 07c0 24CEA0E1 		mov	ip, r4, lsr #28
 1473              	.LBE167:
 1474              	.LBB168:
 1475              		.loc 1 318 0
 1476 07c4 002061E0 		rsb	r2, r1, r0
 1477 07c8 683A9FE5 		ldr	r3, .L39+96
 1478              	.LVL305:
 1479 07cc 0410A0E1 		mov	r1, r4
 1480              	.LVL306:
 1481 07d0 0400A0E1 		mov	r0, r4
 1482              	.LVL307:
 1483              	.LBE168:
 1484              	.LBB169:
 1485              		.loc 1 317 0
 1486 07d4 04428CE1 		orr	r4, ip, r4, asl #4
 1487              	.LVL308:
 1488 07d8 C4408DE5 		str	r4, [sp, #196]
 1489              	.LVL309:
 1490              	.LBE169:
 1491              	.LBB170:
 1492              		.loc 1 318 0
 1493 07dc FEFFFFEB 		bl	MAD_F_MLX
 1494              	.LVL310:
 1495              	.LBE170:
 1496              	.LBB171:
 1497              		.loc 1 319 0
 1498 07e0 4C309DE5 		ldr	r3, [sp, #76]
 1499 07e4 64509DE5 		ldr	r5, [sp, #100]
 1500              	.LVL311:
 1501              	.LVL312:
 1502              	.LBE171:
 1503              	.LBB172:
 1504              		.loc 1 318 0
 1505 07e8 24CEA0E1 		mov	ip, r4, lsr #28
 1506              	.LBE172:
 1507              	.LBB173:
 1508              		.loc 1 319 0
 1509 07ec 032065E0 		rsb	r2, r5, r3
ARM GAS  /cygdrive/c/DOCUME~1/mkwapisz/LOCALS~1/Temp/cc1OEM1Z.s 			page 44


 1510              	.LVL313:
 1511 07f0 0410A0E1 		mov	r1, r4
 1512 07f4 443A9FE5 		ldr	r3, .L39+104
 1513              	.LVL314:
 1514 07f8 0400A0E1 		mov	r0, r4
 1515              	.LVL315:
 1516              	.LBE173:
 1517              	.LBB174:
 1518              		.loc 1 318 0
 1519 07fc 04428CE1 		orr	r4, ip, r4, asl #4
 1520              	.LVL316:
 1521 0800 CC408DE5 		str	r4, [sp, #204]
 1522              	.LVL317:
 1523              	.LBE174:
 1524              	.LBB175:
 1525              		.loc 1 319 0
 1526 0804 FEFFFFEB 		bl	MAD_F_MLX
 1527              	.LVL318:
 1528              	.LBE175:
 1529              	.LBB176:
 1530              		.loc 1 320 0
 1531 0808 7C909DE5 		ldr	r9, [sp, #124]
 1532 080c 94C09DE5 		ldr	ip, [sp, #148]
 1533 0810 09206CE0 		rsb	r2, ip, r9
 1534              	.LVL319:
 1535              	.LBE176:
 1536              	.LBB177:
 1537              		.loc 1 319 0
 1538 0814 24CEA0E1 		mov	ip, r4, lsr #28
 1539              	.LVL320:
 1540              	.LBE177:
 1541              	.LBB178:
 1542              		.loc 1 320 0
 1543 0818 0410A0E1 		mov	r1, r4
 1544 081c 0B30A0E1 		mov	r3, fp
 1545              	.LVL321:
 1546 0820 0400A0E1 		mov	r0, r4
 1547              	.LVL322:
 1548              	.LBE178:
 1549              	.LBB179:
 1550              		.loc 1 319 0
 1551 0824 04428CE1 		orr	r4, ip, r4, asl #4
 1552              	.LVL323:
 1553 0828 D4408DE5 		str	r4, [sp, #212]
 1554              	.LVL324:
 1555              	.LBE179:
 1556              	.LBB180:
 1557              		.loc 1 320 0
 1558 082c FEFFFFEB 		bl	MAD_F_MLX
 1559              	.LVL325:
 1560              	.LBE180:
 1561              	.LBB181:
 1562              		.loc 1 321 0
 1563 0830 A4E09DE5 		ldr	lr, [sp, #164]
 1564              	.LVL326:
 1565              	.LBE181:
 1566              	.LBB182:
ARM GAS  /cygdrive/c/DOCUME~1/mkwapisz/LOCALS~1/Temp/cc1OEM1Z.s 			page 45


 1567              		.loc 1 320 0
 1568 0834 24CEA0E1 		mov	ip, r4, lsr #28
 1569              	.LBE182:
 1570              	.LBB183:
 1571              		.loc 1 321 0
 1572 0838 0E2067E0 		rsb	r2, r7, lr
 1573              	.LVL327:
 1574 083c 0410A0E1 		mov	r1, r4
 1575              	.LVL328:
 1576 0840 0430A0E1 		mov	r3, r4
 1577              	.LVL329:
 1578 0844 0400A0E1 		mov	r0, r4
 1579              	.LVL330:
 1580              	.LBE183:
 1581              	.LBB184:
 1582              		.loc 1 320 0
 1583 0848 04428CE1 		orr	r4, ip, r4, asl #4
 1584              	.LVL331:
 1585 084c DC408DE5 		str	r4, [sp, #220]
 1586              	.LVL332:
 1587              	.LBE184:
 1588              	.LBB185:
 1589              		.loc 1 321 0
 1590 0850 FEFFFFEB 		bl	MAD_F_MLX
 1591              	.LVL333:
 1592              	.LBE185:
 1593              	.LBB186:
 1594              		.loc 1 323 0
 1595 0854 2C009DE5 		ldr	r0, [sp, #44]
 1596 0858 40109DE5 		ldr	r1, [sp, #64]
 1597              	.LVL334:
 1598              	.LBE186:
 1599              	.LBB187:
 1600              		.loc 1 321 0
 1601 085c 24CEA0E1 		mov	ip, r4, lsr #28
 1602              	.LBE187:
 1603              	.LBB188:
 1604              		.loc 1 323 0
 1605 0860 002061E0 		rsb	r2, r1, r0
 1606 0864 CC399FE5 		ldr	r3, .L39+96
 1607              	.LVL335:
 1608 0868 0410A0E1 		mov	r1, r4
 1609              	.LVL336:
 1610 086c 0400A0E1 		mov	r0, r4
 1611              	.LVL337:
 1612              	.LBE188:
 1613              	.LBB189:
 1614              		.loc 1 321 0
 1615 0870 04428CE1 		orr	r4, ip, r4, asl #4
 1616              	.LVL338:
 1617 0874 E4408DE5 		str	r4, [sp, #228]
 1618              	.LVL339:
 1619              	.LBE189:
 1620              	.LBB190:
 1621              		.loc 1 323 0
 1622 0878 FEFFFFEB 		bl	MAD_F_MLX
 1623              	.LVL340:
ARM GAS  /cygdrive/c/DOCUME~1/mkwapisz/LOCALS~1/Temp/cc1OEM1Z.s 			page 46


 1624              	.LBE190:
 1625              	.LBB191:
 1626              		.loc 1 324 0
 1627 087c 58309DE5 		ldr	r3, [sp, #88]
 1628 0880 70509DE5 		ldr	r5, [sp, #112]
 1629              	.LVL341:
 1630              	.LBE191:
 1631              	.LBB192:
 1632              		.loc 1 323 0
 1633 0884 24CEA0E1 		mov	ip, r4, lsr #28
 1634              	.LBE192:
 1635              	.LBB193:
 1636              		.loc 1 324 0
 1637 0888 032065E0 		rsb	r2, r5, r3
 1638              	.LVL342:
 1639 088c 0410A0E1 		mov	r1, r4
 1640 0890 A8399FE5 		ldr	r3, .L39+104
 1641              	.LVL343:
 1642 0894 0400A0E1 		mov	r0, r4
 1643              	.LVL344:
 1644              	.LBE193:
 1645              	.LBB194:
 1646              		.loc 1 323 0
 1647 0898 04428CE1 		orr	r4, ip, r4, asl #4
 1648              	.LVL345:
 1649 089c EC408DE5 		str	r4, [sp, #236]
 1650              	.LVL346:
 1651              	.LBE194:
 1652              	.LBB195:
 1653              		.loc 1 324 0
 1654 08a0 FEFFFFEB 		bl	MAD_F_MLX
 1655              	.LVL347:
 1656              	.LBE195:
 1657              	.LBB196:
 1658              		.loc 1 325 0
 1659 08a4 88909DE5 		ldr	r9, [sp, #136]
 1660 08a8 9CC09DE5 		ldr	ip, [sp, #156]
 1661 08ac 09206CE0 		rsb	r2, ip, r9
 1662              	.LVL348:
 1663              	.LBE196:
 1664              	.LBB197:
 1665              		.loc 1 324 0
 1666 08b0 24CEA0E1 		mov	ip, r4, lsr #28
 1667              	.LVL349:
 1668              	.LBE197:
 1669              	.LBB198:
 1670              		.loc 1 325 0
 1671 08b4 0410A0E1 		mov	r1, r4
 1672 08b8 0B30A0E1 		mov	r3, fp
 1673              	.LVL350:
 1674 08bc 0400A0E1 		mov	r0, r4
 1675              	.LVL351:
 1676              	.LBE198:
 1677              	.LBB199:
 1678              		.loc 1 324 0
 1679 08c0 04428CE1 		orr	r4, ip, r4, asl #4
 1680              	.LVL352:
ARM GAS  /cygdrive/c/DOCUME~1/mkwapisz/LOCALS~1/Temp/cc1OEM1Z.s 			page 47


 1681 08c4 F4408DE5 		str	r4, [sp, #244]
 1682              	.LVL353:
 1683              	.LBE199:
 1684              	.LBB200:
 1685              		.loc 1 325 0
 1686 08c8 FEFFFFEB 		bl	MAD_F_MLX
 1687              	.LVL354:
 1688              	.LBE200:
 1689              	.LBB201:
 1690              		.loc 1 326 0
 1691 08cc ACE09DE5 		ldr	lr, [sp, #172]
 1692 08d0 B4009DE5 		ldr	r0, [sp, #180]
 1693              	.LVL355:
 1694              	.LBE201:
 1695              	.LBB202:
 1696              		.loc 1 325 0
 1697 08d4 24CEA0E1 		mov	ip, r4, lsr #28
 1698              	.LBE202:
 1699              	.LBB203:
 1700              		.loc 1 326 0
 1701 08d8 0E2060E0 		rsb	r2, r0, lr
 1702              	.LVL356:
 1703 08dc 0410A0E1 		mov	r1, r4
 1704              	.LVL357:
 1705 08e0 0430A0E1 		mov	r3, r4
 1706              	.LVL358:
 1707 08e4 0400A0E1 		mov	r0, r4
 1708              	.LVL359:
 1709              	.LBE203:
 1710              	.LBB204:
 1711              		.loc 1 325 0
 1712 08e8 04428CE1 		orr	r4, ip, r4, asl #4
 1713              	.LVL360:
 1714 08ec FC408DE5 		str	r4, [sp, #252]
 1715              	.LVL361:
 1716              	.LBE204:
 1717              	.LBB205:
 1718              		.loc 1 326 0
 1719 08f0 FEFFFFEB 		bl	MAD_F_MLX
 1720              	.LVL362:
 1721              	.LBE205:
 1722              	.LBB206:
 1723              		.loc 1 328 0
 1724 08f4 24109DE5 		ldr	r1, [sp, #36]
 1725 08f8 38309DE5 		ldr	r3, [sp, #56]
 1726              	.LVL363:
 1727              	.LBE206:
 1728              	.LBB207:
 1729              		.loc 1 326 0
 1730 08fc 24CEA0E1 		mov	ip, r4, lsr #28
 1731              	.LBE207:
 1732              	.LBB208:
 1733              		.loc 1 328 0
 1734 0900 012063E0 		rsb	r2, r3, r1
 1735              	.LVL364:
 1736 0904 0400A0E1 		mov	r0, r4
 1737              	.LVL365:
ARM GAS  /cygdrive/c/DOCUME~1/mkwapisz/LOCALS~1/Temp/cc1OEM1Z.s 			page 48


 1738 0908 0410A0E1 		mov	r1, r4
 1739 090c 24399FE5 		ldr	r3, .L39+96
 1740              	.LVL366:
 1741              	.LBE208:
 1742              	.LBB209:
 1743              		.loc 1 326 0
 1744 0910 04428CE1 		orr	r4, ip, r4, asl #4
 1745              	.LVL367:
 1746 0914 04418DE5 		str	r4, [sp, #260]
 1747              	.LVL368:
 1748              	.LBE209:
 1749              	.LBB210:
 1750              		.loc 1 328 0
 1751 0918 FEFFFFEB 		bl	MAD_F_MLX
 1752              	.LVL369:
 1753              	.LBE210:
 1754              	.LBB211:
 1755              		.loc 1 329 0
 1756 091c 50509DE5 		ldr	r5, [sp, #80]
 1757 0920 68909DE5 		ldr	r9, [sp, #104]
 1758              	.LVL370:
 1759              	.LBE211:
 1760              	.LBB212:
 1761              		.loc 1 328 0
 1762 0924 24CEA0E1 		mov	ip, r4, lsr #28
 1763              	.LBE212:
 1764              	.LBB213:
 1765              		.loc 1 329 0
 1766 0928 052069E0 		rsb	r2, r9, r5
 1767              	.LVL371:
 1768 092c 0410A0E1 		mov	r1, r4
 1769 0930 08399FE5 		ldr	r3, .L39+104
 1770              	.LVL372:
 1771 0934 0400A0E1 		mov	r0, r4
 1772              	.LVL373:
 1773              	.LBE213:
 1774              	.LBB214:
 1775              		.loc 1 328 0
 1776 0938 04428CE1 		orr	r4, ip, r4, asl #4
 1777              	.LVL374:
 1778 093c 0C418DE5 		str	r4, [sp, #268]
 1779              	.LVL375:
 1780              	.LBE214:
 1781              	.LBB215:
 1782              		.loc 1 329 0
 1783 0940 FEFFFFEB 		bl	MAD_F_MLX
 1784              	.LVL376:
 1785              	.LBE215:
 1786              	.LBB216:
 1787              		.loc 1 330 0
 1788 0944 80C09DE5 		ldr	ip, [sp, #128]
 1789 0948 98E09DE5 		ldr	lr, [sp, #152]
 1790 094c 0C206EE0 		rsb	r2, lr, ip
 1791              	.LVL377:
 1792              	.LBE216:
 1793              	.LBB217:
 1794              		.loc 1 329 0
ARM GAS  /cygdrive/c/DOCUME~1/mkwapisz/LOCALS~1/Temp/cc1OEM1Z.s 			page 49


 1795 0950 24CEA0E1 		mov	ip, r4, lsr #28
 1796              	.LBE217:
 1797              	.LBB218:
 1798              		.loc 1 330 0
 1799 0954 0B30A0E1 		mov	r3, fp
 1800              	.LVL378:
 1801 0958 0410A0E1 		mov	r1, r4
 1802              	.LVL379:
 1803 095c 0400A0E1 		mov	r0, r4
 1804              	.LVL380:
 1805              	.LBE218:
 1806              	.LBB219:
 1807              		.loc 1 329 0
 1808 0960 04428CE1 		orr	r4, ip, r4, asl #4
 1809              	.LVL381:
 1810 0964 14418DE5 		str	r4, [sp, #276]
 1811              	.LVL382:
 1812              	.LBE219:
 1813              	.LBB220:
 1814              		.loc 1 330 0
 1815 0968 FEFFFFEB 		bl	MAD_F_MLX
 1816              	.LVL383:
 1817              	.LBE220:
 1818              	.LBB221:
 1819              		.loc 1 331 0
 1820 096c A8009DE5 		ldr	r0, [sp, #168]
 1821 0970 B0109DE5 		ldr	r1, [sp, #176]
 1822              	.LBE221:
 1823              		.loc 1 314 0
 1824 0974 28509DE5 		ldr	r5, [sp, #40]
 1825 0978 3C909DE5 		ldr	r9, [sp, #60]
 1826              	.LBB222:
 1827              		.loc 1 331 0
 1828 097c 002061E0 		rsb	r2, r1, r0
 1829              	.LBE222:
 1830              		.loc 1 315 0
 1831 0980 54E09DE5 		ldr	lr, [sp, #84]
 1832 0984 6C009DE5 		ldr	r0, [sp, #108]
 1833              		.loc 1 316 0
 1834 0988 84109DE5 		ldr	r1, [sp, #132]
 1835              	.LVL384:
 1836              	.LBB223:
 1837              		.loc 1 330 0
 1838 098c 24CEA0E1 		mov	ip, r4, lsr #28
 1839              	.LVL385:
 1840              	.LBE223:
 1841              	.LBB224:
 1842              		.loc 1 331 0
 1843 0990 0430A0E1 		mov	r3, r4
 1844              	.LBE224:
 1845              		.loc 1 314 0
 1846 0994 094085E0 		add	r4, r5, r9
 1847              	.LVL386:
 1848              		.loc 1 316 0
 1849 0998 0AB081E0 		add	fp, r1, sl
 1850              	.LVL387:
 1851              		.loc 1 315 0
ARM GAS  /cygdrive/c/DOCUME~1/mkwapisz/LOCALS~1/Temp/cc1OEM1Z.s 			page 50


 1852 099c 00508EE0 		add	r5, lr, r0
 1853              	.LVL388:
 1854              	.LVL389:
 1855              	.LBB225:
 1856              		.loc 1 331 0
 1857 09a0 0410A0E1 		mov	r1, r4
 1858              	.LVL390:
 1859 09a4 0400A0E1 		mov	r0, r4
 1860              	.LVL391:
 1861              	.LBE225:
 1862              	.LBB226:
 1863              		.loc 1 330 0
 1864 09a8 04428CE1 		orr	r4, ip, r4, asl #4
 1865              	.LVL392:
 1866 09ac 1C418DE5 		str	r4, [sp, #284]
 1867              	.LVL393:
 1868              	.LBE226:
 1869              	.LBB227:
 1870              		.loc 1 331 0
 1871 09b0 FEFFFFEB 		bl	MAD_F_MLX
 1872              	.LVL394:
 1873              	.LBE227:
 1874              		.loc 1 336 0
 1875 09b4 14309DE5 		ldr	r3, [sp, #20]
 1876 09b8 0C909DE5 		ldr	r9, [sp, #12]
 1877 09bc 0331A0E1 		mov	r3, r3, asl #2
 1878              		.loc 1 318 0
 1879 09c0 34E09DE5 		ldr	lr, [sp, #52]
 1880 09c4 20C09DE5 		ldr	ip, [sp, #32]
 1881              		.loc 1 317 0
 1882 09c8 066088E0 		add	r6, r8, r6
 1883              	.LVL395:
 1884              		.loc 1 336 0
 1885 09cc 04308DE5 		str	r3, [sp, #4]
 1886 09d0 098083E0 		add	r8, r3, r9
 1887              	.LVL396:
 1888              		.loc 1 319 0
 1889 09d4 64909DE5 		ldr	r9, [sp, #100]
 1890 09d8 4C309DE5 		ldr	r3, [sp, #76]
 1891              		.loc 1 318 0
 1892 09dc 0EC08CE0 		add	ip, ip, lr
 1893 09e0 C8C08DE5 		str	ip, [sp, #200]
 1894              	.LVL397:
 1895              		.loc 1 319 0
 1896 09e4 093083E0 		add	r3, r3, r9
 1897              		.loc 1 320 0
 1898 09e8 94E09DE5 		ldr	lr, [sp, #148]
 1899 09ec 7CC09DE5 		ldr	ip, [sp, #124]
 1900              		.loc 1 319 0
 1901 09f0 D0308DE5 		str	r3, [sp, #208]
 1902              	.LVL398:
 1903              		.loc 1 321 0
 1904 09f4 A4309DE5 		ldr	r3, [sp, #164]
 1905              		.loc 1 320 0
 1906 09f8 0EC08CE0 		add	ip, ip, lr
 1907 09fc D8C08DE5 		str	ip, [sp, #216]
 1908              	.LVL399:
ARM GAS  /cygdrive/c/DOCUME~1/mkwapisz/LOCALS~1/Temp/cc1OEM1Z.s 			page 51


 1909              		.loc 1 321 0
 1910 0a00 077083E0 		add	r7, r3, r7
 1911              	.LVL400:
 1912              		.loc 1 329 0
 1913 0a04 68E09DE5 		ldr	lr, [sp, #104]
 1914 0a08 50C09DE5 		ldr	ip, [sp, #80]
 1915              		.loc 1 321 0
 1916 0a0c E0708DE5 		str	r7, [sp, #224]
 1917              	.LVL401:
 1918              		.loc 1 328 0
 1919 0a10 38909DE5 		ldr	r9, [sp, #56]
 1920 0a14 24709DE5 		ldr	r7, [sp, #36]
 1921              		.loc 1 329 0
 1922 0a18 0EC08CE0 		add	ip, ip, lr
 1923              		.loc 1 328 0
 1924 0a1c 097087E0 		add	r7, r7, r9
 1925              		.loc 1 329 0
 1926 0a20 10C18DE5 		str	ip, [sp, #272]
 1927              	.LVL402:
 1928              		.loc 1 331 0
 1929 0a24 A8909DE5 		ldr	r9, [sp, #168]
 1930 0a28 B0C09DE5 		ldr	ip, [sp, #176]
 1931              		.loc 1 328 0
 1932 0a2c 08718DE5 		str	r7, [sp, #264]
 1933              	.LVL403:
 1934              		.loc 1 330 0
 1935 0a30 80309DE5 		ldr	r3, [sp, #128]
 1936 0a34 98709DE5 		ldr	r7, [sp, #152]
 1937              		.loc 1 331 0
 1938 0a38 0C9089E0 		add	r9, r9, ip
 1939              	.LVL404:
 1940              	.LBB228:
 1941 0a3c 240EA0E1 		mov	r0, r4, lsr #28
 1942              	.LVL405:
 1943              	.LBE228:
 1944              		.loc 1 333 0
 1945 0a40 051084E0 		add	r1, r4, r5
 1946              	.LVL406:
 1947              		.loc 1 330 0
 1948 0a44 073083E0 		add	r3, r3, r7
 1949              	.LVL407:
 1950              	.LBB229:
 1951              		.loc 1 331 0
 1952 0a48 044280E1 		orr	r4, r0, r4, asl #4
 1953              	.LVL408:
 1954              	.LBE229:
 1955 0a4c 20918DE5 		str	r9, [sp, #288]
 1956              	.LVL409:
 1957              		.loc 1 339 0
 1958 0a50 D0009DE5 		ldr	r0, [sp, #208]
 1959              		.loc 1 340 0
 1960 0a54 E0909DE5 		ldr	r9, [sp, #224]
 1961              		.loc 1 339 0
 1962 0a58 C8E09DE5 		ldr	lr, [sp, #200]
 1963              		.loc 1 340 0
 1964 0a5c D8709DE5 		ldr	r7, [sp, #216]
 1965              		.loc 1 334 0
ARM GAS  /cygdrive/c/DOCUME~1/mkwapisz/LOCALS~1/Temp/cc1OEM1Z.s 			page 52


 1966 0a60 06208BE0 		add	r2, fp, r6
 1967              	.LVL410:
 1968              		.loc 1 339 0
 1969 0a64 00E08EE0 		add	lr, lr, r0
 1970              		.loc 1 340 0
 1971 0a68 097087E0 		add	r7, r7, r9
 1972              		.loc 1 330 0
 1973 0a6c 18318DE5 		str	r3, [sp, #280]
 1974              	.LVL411:
 1975              		.loc 1 336 0
 1976 0a70 023081E0 		add	r3, r1, r2
 1977 0a74 E03188E5 		str	r3, [r8, #480]
 1978              	.LBB230:
 1979              		.loc 1 331 0
 1980 0a78 24418DE5 		str	r4, [sp, #292]
 1981              	.LVL412:
 1982              	.LBE230:
 1983              		.loc 1 339 0
 1984 0a7c 28E18DE5 		str	lr, [sp, #296]
 1985              	.LVL413:
 1986              		.loc 1 340 0
 1987 0a80 2C718DE5 		str	r7, [sp, #300]
 1988              	.LVL414:
 1989              		.loc 1 354 0
 1990 0a84 20719DE5 		ldr	r7, [sp, #288]
 1991 0a88 18019DE5 		ldr	r0, [sp, #280]
 1992              		.loc 1 353 0
 1993 0a8c 10E19DE5 		ldr	lr, [sp, #272]
 1994 0a90 08C19DE5 		ldr	ip, [sp, #264]
 1995              		.loc 1 354 0
 1996 0a94 070080E0 		add	r0, r0, r7
 1997              		.loc 1 353 0
 1998 0a98 0EC08CE0 		add	ip, ip, lr
 1999              	.LBB231:
 2000              		.loc 1 337 0
 2001 0a9c 012062E0 		rsb	r2, r2, r1
 2002              	.LVL415:
 2003 0aa0 A8379FE5 		ldr	r3, .L39+120
 2004              	.LVL416:
 2005 0aa4 0410A0E1 		mov	r1, r4
 2006              	.LVL417:
 2007              	.LBE231:
 2008              		.loc 1 354 0
 2009 0aa8 3C018DE5 		str	r0, [sp, #316]
 2010              	.LVL418:
 2011              	.LVL419:
 2012              	.LBB232:
 2013              		.loc 1 337 0
 2014 0aac 0400A0E1 		mov	r0, r4
 2015              	.LBE232:
 2016              		.loc 1 353 0
 2017 0ab0 38C18DE5 		str	ip, [sp, #312]
 2018              	.LVL420:
 2019              	.LBB233:
 2020              		.loc 1 337 0
 2021 0ab4 FEFFFFEB 		bl	MAD_F_MLX
 2022              	.LVL421:
ARM GAS  /cygdrive/c/DOCUME~1/mkwapisz/LOCALS~1/Temp/cc1OEM1Z.s 			page 53


 2023              	.LBE233:
 2024              		.loc 1 323 0
 2025 0ab8 40C09DE5 		ldr	ip, [sp, #64]
 2026              		.loc 1 325 0
 2027 0abc 9C209DE5 		ldr	r2, [sp, #156]
 2028              		.loc 1 326 0
 2029 0ac0 B4709DE5 		ldr	r7, [sp, #180]
 2030              		.loc 1 323 0
 2031 0ac4 2C909DE5 		ldr	r9, [sp, #44]
 2032              		.loc 1 325 0
 2033 0ac8 88109DE5 		ldr	r1, [sp, #136]
 2034              		.loc 1 326 0
 2035 0acc AC309DE5 		ldr	r3, [sp, #172]
 2036              		.loc 1 324 0
 2037 0ad0 70009DE5 		ldr	r0, [sp, #112]
 2038 0ad4 58E09DE5 		ldr	lr, [sp, #88]
 2039              		.loc 1 323 0
 2040 0ad8 0C9089E0 		add	r9, r9, ip
 2041              		.loc 1 325 0
 2042 0adc 021081E0 		add	r1, r1, r2
 2043              		.loc 1 326 0
 2044 0ae0 073083E0 		add	r3, r3, r7
 2045              		.loc 1 369 0
 2046 0ae4 CC209DE5 		ldr	r2, [sp, #204]
 2047 0ae8 D4709DE5 		ldr	r7, [sp, #212]
 2048              		.loc 1 323 0
 2049 0aec E8908DE5 		str	r9, [sp, #232]
 2050              	.LVL422:
 2051              		.loc 1 324 0
 2052 0af0 00E08EE0 		add	lr, lr, r0
 2053              		.loc 1 325 0
 2054 0af4 F8108DE5 		str	r1, [sp, #248]
 2055              	.LVL423:
 2056              		.loc 1 342 0
 2057 0af8 4A9F8DE2 		add	r9, sp, #296
 2058 0afc 001299E8 		ldmia	r9, {r9, ip}	@ phole ldm
 2059              		.loc 1 356 0
 2060 0b00 4E0F8DE2 		add	r0, sp, #312
 2061 0b04 030090E8 		ldmia	r0, {r0, r1}	@ phole ldm
 2062              		.loc 1 369 0
 2063 0b08 072082E0 		add	r2, r2, r7
 2064              		.loc 1 324 0
 2065 0b0c F0E08DE5 		str	lr, [sp, #240]
 2066              	.LVL424:
 2067              		.loc 1 326 0
 2068 0b10 00318DE5 		str	r3, [sp, #256]
 2069              	.LVL425:
 2070              		.loc 1 342 0
 2071 0b14 0CE089E0 		add	lr, r9, ip
 2072              	.LVL426:
 2073              		.loc 1 356 0
 2074 0b18 013080E0 		add	r3, r0, r1
 2075              	.LVL427:
 2076              		.loc 1 370 0
 2077 0b1c E4C09DE5 		ldr	ip, [sp, #228]
 2078              		.loc 1 387 0
 2079 0b20 14119DE5 		ldr	r1, [sp, #276]
ARM GAS  /cygdrive/c/DOCUME~1/mkwapisz/LOCALS~1/Temp/cc1OEM1Z.s 			page 54


 2080              		.loc 1 388 0
 2081 0b24 24719DE5 		ldr	r7, [sp, #292]
 2082              		.loc 1 369 0
 2083 0b28 4C218DE5 		str	r2, [sp, #332]
 2084              	.LVL428:
 2085              		.loc 1 370 0
 2086 0b2c DC909DE5 		ldr	r9, [sp, #220]
 2087              		.loc 1 387 0
 2088 0b30 0C019DE5 		ldr	r0, [sp, #268]
 2089              		.loc 1 388 0
 2090 0b34 1C219DE5 		ldr	r2, [sp, #284]
 2091              		.loc 1 370 0
 2092 0b38 0C9089E0 		add	r9, r9, ip
 2093              		.loc 1 387 0
 2094 0b3c 010080E0 		add	r0, r0, r1
 2095              		.loc 1 388 0
 2096 0b40 072082E0 		add	r2, r2, r7
 2097              		.loc 1 370 0
 2098 0b44 50918DE5 		str	r9, [sp, #336]
 2099              	.LVL429:
 2100              		.loc 1 387 0
 2101 0b48 64018DE5 		str	r0, [sp, #356]
 2102              	.LVL430:
 2103              		.loc 1 388 0
 2104 0b4c 68218DE5 		str	r2, [sp, #360]
 2105              	.LVL431:
 2106              		.loc 1 346 0
 2107 0b50 F0009DE5 		ldr	r0, [sp, #240]
 2108              		.loc 1 347 0
 2109 0b54 00219DE5 		ldr	r2, [sp, #256]
 2110              		.loc 1 346 0
 2111 0b58 E8909DE5 		ldr	r9, [sp, #232]
 2112              		.loc 1 347 0
 2113 0b5c F8109DE5 		ldr	r1, [sp, #248]
 2114              		.loc 1 346 0
 2115 0b60 009089E0 		add	r9, r9, r0
 2116              		.loc 1 347 0
 2117 0b64 021081E0 		add	r1, r1, r2
 2118              		.loc 1 346 0
 2119 0b68 30918DE5 		str	r9, [sp, #304]
 2120              	.LVL432:
 2121              		.loc 1 347 0
 2122 0b6c 34118DE5 		str	r1, [sp, #308]
 2123              	.LVL433:
 2124              		.loc 1 372 0
 2125 0b70 537F8DE2 		add	r7, sp, #332
 2126 0b74 800297E8 		ldmia	r7, {r7, r9}	@ phole ldm
 2127              		.loc 1 378 0
 2128 0b78 F4109DE5 		ldr	r1, [sp, #244]
 2129              		.loc 1 372 0
 2130 0b7c 097087E0 		add	r7, r7, r9
 2131              		.loc 1 378 0
 2132 0b80 EC009DE5 		ldr	r0, [sp, #236]
 2133              		.loc 1 372 0
 2134 0b84 54718DE5 		str	r7, [sp, #340]
 2135              	.LVL434:
 2136              		.loc 1 379 0
ARM GAS  /cygdrive/c/DOCUME~1/mkwapisz/LOCALS~1/Temp/cc1OEM1Z.s 			page 55


 2137 0b88 FC209DE5 		ldr	r2, [sp, #252]
 2138 0b8c 04719DE5 		ldr	r7, [sp, #260]
 2139              		.loc 1 378 0
 2140 0b90 010080E0 		add	r0, r0, r1
 2141 0b94 58018DE5 		str	r0, [sp, #344]
 2142              	.LVL435:
 2143              		.loc 1 379 0
 2144 0b98 072082E0 		add	r2, r2, r7
 2145              		.loc 1 390 0
 2146 0b9c 68019DE5 		ldr	r0, [sp, #360]
 2147 0ba0 64919DE5 		ldr	r9, [sp, #356]
 2148              		.loc 1 379 0
 2149 0ba4 5C218DE5 		str	r2, [sp, #348]
 2150              	.LVL436:
 2151              		.loc 1 374 0
 2152 0ba8 54119DE5 		ldr	r1, [sp, #340]
 2153              		.loc 1 349 0
 2154 0bac 132E8DE2 		add	r2, sp, #304
 2155 0bb0 840092E8 		ldmia	r2, {r2, r7}	@ phole ldm
 2156              		.loc 1 358 0
 2157 0bb4 83C06EE0 		rsb	ip, lr, r3, asl #1
 2158              	.LVL437:
 2159              		.loc 1 390 0
 2160 0bb8 009089E0 		add	r9, r9, r0
 2161              		.loc 1 392 0
 2162 0bbc 893063E0 		rsb	r3, r3, r9, asl #1
 2163              	.LVL438:
 2164              		.loc 1 374 0
 2165 0bc0 81006CE0 		rsb	r0, ip, r1, asl #1
 2166              	.LVL439:
 2167              		.loc 1 390 0
 2168 0bc4 6C918DE5 		str	r9, [sp, #364]
 2169              	.LVL440:
 2170              		.loc 1 349 0
 2171 0bc8 071082E0 		add	r1, r2, r7
 2172              	.LVL441:
 2173              		.loc 1 362 0
 2174 0bcc B8909DE5 		ldr	r9, [sp, #184]
 2175 0bd0 BC209DE5 		ldr	r2, [sp, #188]
 2176 0bd4 029089E0 		add	r9, r9, r2
 2177 0bd8 40918DE5 		str	r9, [sp, #320]
 2178              	.LVL442:
 2179              		.loc 1 363 0
 2180 0bdc C0708DE2 		add	r7, sp, #192
 2181 0be0 800297E8 		ldmia	r7, {r7, r9}	@ phole ldm
 2182 0be4 097087E0 		add	r7, r7, r9
 2183              		.loc 1 392 0
 2184 0be8 70318DE5 		str	r3, [sp, #368]
 2185              	.LVL443:
 2186              		.loc 1 363 0
 2187 0bec 44718DE5 		str	r7, [sp, #324]
 2188              	.LVL444:
 2189              		.loc 1 381 0
 2190 0bf0 562F8DE2 		add	r2, sp, #344
 2191 0bf4 840092E8 		ldmia	r2, {r2, r7}	@ phole ldm
 2192              		.loc 1 394 0
 2193 0bf8 70919DE5 		ldr	r9, [sp, #368]
ARM GAS  /cygdrive/c/DOCUME~1/mkwapisz/LOCALS~1/Temp/cc1OEM1Z.s 			page 56


 2194              		.loc 1 381 0
 2195 0bfc 072082E0 		add	r2, r2, r7
 2196              		.loc 1 383 0
 2197 0c00 827061E0 		rsb	r7, r1, r2, asl #1
 2198              	.LVL445:
 2199              		.loc 1 394 0
 2200 0c04 89A060E0 		rsb	sl, r0, r9, asl #1
 2201              	.LVL446:
 2202              		.loc 1 381 0
 2203 0c08 60218DE5 		str	r2, [sp, #352]
 2204              	.LVL447:
 2205              		.loc 1 365 0
 2206 0c0c 052D8DE2 		add	r2, sp, #320
 2207 0c10 040292E8 		ldmia	r2, {r2, r9}	@ phole ldm
 2208 0c14 092082E0 		add	r2, r2, r9
 2209              	.LVL448:
 2210              		.loc 1 337 0
 2211 0c18 243EA0E1 		mov	r3, r4, lsr #28
 2212 0c1c 10909DE5 		ldr	r9, [sp, #16]
 2213              		.loc 1 365 0
 2214 0c20 48218DE5 		str	r2, [sp, #328]
 2215              	.LVL449:
 2216              		.loc 1 337 0
 2217 0c24 14209DE5 		ldr	r2, [sp, #20]
 2218              	.LVL450:
 2219 0c28 043283E1 		orr	r3, r3, r4, asl #4
 2220 0c2c 023189E7 		str	r3, [r9, r2, asl #2]
 2221              		.loc 1 344 0
 2222 0c30 C0E188E5 		str	lr, [r8, #448]
 2223              		.loc 1 351 0
 2224 0c34 A01188E5 		str	r1, [r8, #416]
 2225              		.loc 1 360 0
 2226 0c38 80C188E5 		str	ip, [r8, #384]
 2227              		.loc 1 367 0
 2228 0c3c 48C19DE5 		ldr	ip, [sp, #328]
 2229              	.LVL451:
 2230              	.LVL452:
 2231              	.LBB234:
 2232              		.loc 1 398 0
 2233 0c40 042065E0 		rsb	r2, r5, r4
 2234              	.LBE234:
 2235              		.loc 1 367 0
 2236 0c44 60C188E5 		str	ip, [r8, #352]
 2237              		.loc 1 376 0
 2238 0c48 400188E5 		str	r0, [r8, #320]
 2239              		.loc 1 385 0
 2240 0c4c 207188E5 		str	r7, [r8, #288]
 2241              		.loc 1 396 0
 2242 0c50 00A188E5 		str	sl, [r8, #256]
 2243              	.LVL453:
 2244              	.LBB235:
 2245              		.loc 1 398 0
 2246 0c54 0410A0E1 		mov	r1, r4
 2247              	.LVL454:
 2248 0c58 E8359FE5 		ldr	r3, .L39+112
 2249              	.LVL455:
 2250 0c5c 0400A0E1 		mov	r0, r4
ARM GAS  /cygdrive/c/DOCUME~1/mkwapisz/LOCALS~1/Temp/cc1OEM1Z.s 			page 57


 2251              	.LVL456:
 2252 0c60 244EA0E1 		mov	r4, r4, lsr #28
 2253 0c64 FEFFFFEB 		bl	MAD_F_MLX
 2254              	.LVL457:
 2255              	.LBE235:
 2256              	.LBB236:
 2257              		.loc 1 399 0
 2258 0c68 0B2066E0 		rsb	r2, r6, fp
 2259              	.LVL458:
 2260 0c6c 0410A0E1 		mov	r1, r4
 2261 0c70 D4359FE5 		ldr	r3, .L39+116
 2262              	.LVL459:
 2263 0c74 0400A0E1 		mov	r0, r4
 2264              	.LVL460:
 2265              	.LBE236:
 2266              	.LBB237:
 2267              		.loc 1 398 0
 2268 0c78 044284E1 		orr	r4, r4, r4, asl #4
 2269              	.LVL461:
 2270              	.LBE237:
 2271              	.LBB238:
 2272              		.loc 1 399 0
 2273 0c7c FEFFFFEB 		bl	MAD_F_MLX
 2274              	.LVL462:
 2275 0c80 242EA0E1 		mov	r2, r4, lsr #28
 2276              	.LVL463:
 2277 0c84 042282E1 		orr	r2, r2, r4, asl #4
 2278              	.LVL464:
 2279              	.LVL465:
 2280              	.LBE238:
 2281              		.loc 1 400 0
 2282 0c88 025084E0 		add	r5, r4, r2
 2283              	.LVL466:
 2284              		.loc 1 402 0
 2285 0c8c E05088E5 		str	r5, [r8, #224]
 2286              	.LBB239:
 2287              		.loc 1 404 0
 2288 0c90 042062E0 		rsb	r2, r2, r4
 2289              	.LVL467:
 2290 0c94 0410A0E1 		mov	r1, r4
 2291 0c98 B0359FE5 		ldr	r3, .L39+120
 2292              	.LVL468:
 2293 0c9c 0400A0E1 		mov	r0, r4
 2294 0ca0 FEFFFFEB 		bl	MAD_F_MLX
 2295              	.LVL469:
 2296              	.LBE239:
 2297 0ca4 243EA0E1 		mov	r3, r4, lsr #28
 2298              		.loc 1 403 0
 2299 0ca8 04E09DE5 		ldr	lr, [sp, #4]
 2300              	.LVL470:
 2301              		.loc 1 404 0
 2302 0cac 043283E1 		orr	r3, r3, r4, asl #4
 2303              		.loc 1 403 0
 2304 0cb0 10009DE5 		ldr	r0, [sp, #16]
 2305              		.loc 1 404 0
 2306 0cb4 835065E0 		rsb	r5, r5, r3, asl #1
 2307              	.LVL471:
ARM GAS  /cygdrive/c/DOCUME~1/mkwapisz/LOCALS~1/Temp/cc1OEM1Z.s 			page 58


 2308              	.LBB240:
 2309              		.loc 1 406 0
 2310 0cb8 C8109DE5 		ldr	r1, [sp, #200]
 2311 0cbc D0309DE5 		ldr	r3, [sp, #208]
 2312              	.LBE240:
 2313              		.loc 1 403 0
 2314 0cc0 00908EE0 		add	r9, lr, r0
 2315              	.LBB241:
 2316              		.loc 1 406 0
 2317 0cc4 012063E0 		rsb	r2, r3, r1
 2318              	.LBE241:
 2319              		.loc 1 404 0
 2320 0cc8 005189E5 		str	r5, [r9, #256]
 2321              	.LVL472:
 2322              	.LBB242:
 2323              		.loc 1 406 0
 2324 0ccc 0410A0E1 		mov	r1, r4
 2325 0cd0 70359FE5 		ldr	r3, .L39+112
 2326              	.LVL473:
 2327 0cd4 0400A0E1 		mov	r0, r4
 2328 0cd8 FEFFFFEB 		bl	MAD_F_MLX
 2329              	.LVL474:
 2330              	.LBE242:
 2331              	.LBB243:
 2332              		.loc 1 407 0
 2333 0cdc D8509DE5 		ldr	r5, [sp, #216]
 2334 0ce0 E0C09DE5 		ldr	ip, [sp, #224]
 2335 0ce4 05206CE0 		rsb	r2, ip, r5
 2336              	.LVL475:
 2337              	.LBE243:
 2338              	.LBB244:
 2339              		.loc 1 406 0
 2340 0ce8 24CEA0E1 		mov	ip, r4, lsr #28
 2341              	.LVL476:
 2342              	.LBE244:
 2343              	.LBB245:
 2344              		.loc 1 407 0
 2345 0cec 0410A0E1 		mov	r1, r4
 2346 0cf0 54359FE5 		ldr	r3, .L39+116
 2347              	.LVL477:
 2348 0cf4 0400A0E1 		mov	r0, r4
 2349              	.LVL478:
 2350              	.LBE245:
 2351              	.LBB246:
 2352              		.loc 1 406 0
 2353 0cf8 04428CE1 		orr	r4, ip, r4, asl #4
 2354              	.LVL479:
 2355 0cfc 74418DE5 		str	r4, [sp, #372]
 2356              	.LVL480:
 2357              	.LBE246:
 2358              	.LBB247:
 2359              		.loc 1 407 0
 2360 0d00 FEFFFFEB 		bl	MAD_F_MLX
 2361              	.LVL481:
 2362 0d04 240EA0E1 		mov	r0, r4, lsr #28
 2363              	.LBE247:
 2364              		.loc 1 408 0
ARM GAS  /cygdrive/c/DOCUME~1/mkwapisz/LOCALS~1/Temp/cc1OEM1Z.s 			page 59


 2365 0d08 74E19DE5 		ldr	lr, [sp, #372]
 2366              	.LVL482:
 2367              	.LBB248:
 2368              		.loc 1 407 0
 2369 0d0c 044280E1 		orr	r4, r0, r4, asl #4
 2370              	.LVL483:
 2371              	.LBE248:
 2372              		.loc 1 408 0
 2373 0d10 04E08EE0 		add	lr, lr, r4
 2374              	.LBB249:
 2375              		.loc 1 414 0
 2376 0d14 E8009DE5 		ldr	r0, [sp, #232]
 2377 0d18 F0109DE5 		ldr	r1, [sp, #240]
 2378              	.LBE249:
 2379              		.loc 1 410 0
 2380 0d1c 8EA06AE0 		rsb	sl, sl, lr, asl #1
 2381              	.LVL484:
 2382              	.LBB250:
 2383              		.loc 1 414 0
 2384 0d20 002061E0 		rsb	r2, r1, r0
 2385              	.LBE250:
 2386              		.loc 1 412 0
 2387 0d24 C0A088E5 		str	sl, [r8, #192]
 2388              	.LVL485:
 2389              	.LBB251:
 2390              		.loc 1 414 0
 2391 0d28 0410A0E1 		mov	r1, r4
 2392 0d2c 14359FE5 		ldr	r3, .L39+112
 2393              	.LVL486:
 2394 0d30 0400A0E1 		mov	r0, r4
 2395              	.LBE251:
 2396              		.loc 1 408 0
 2397 0d34 7CE18DE5 		str	lr, [sp, #380]
 2398              	.LVL487:
 2399              	.LVL488:
 2400              	.LBB252:
 2401              		.loc 1 407 0
 2402 0d38 78418DE5 		str	r4, [sp, #376]
 2403              	.LVL489:
 2404              	.LBE252:
 2405              	.LBB253:
 2406              		.loc 1 414 0
 2407 0d3c FEFFFFEB 		bl	MAD_F_MLX
 2408              	.LVL490:
 2409              	.LBE253:
 2410              	.LBB254:
 2411              		.loc 1 415 0
 2412 0d40 F8309DE5 		ldr	r3, [sp, #248]
 2413 0d44 00519DE5 		ldr	r5, [sp, #256]
 2414              	.LVL491:
 2415              	.LBE254:
 2416              	.LBB255:
 2417              		.loc 1 414 0
 2418 0d48 24CEA0E1 		mov	ip, r4, lsr #28
 2419              	.LBE255:
 2420              	.LBB256:
 2421              		.loc 1 415 0
ARM GAS  /cygdrive/c/DOCUME~1/mkwapisz/LOCALS~1/Temp/cc1OEM1Z.s 			page 60


 2422 0d4c 032065E0 		rsb	r2, r5, r3
 2423              	.LVL492:
 2424 0d50 0410A0E1 		mov	r1, r4
 2425 0d54 F0349FE5 		ldr	r3, .L39+116
 2426              	.LVL493:
 2427 0d58 0400A0E1 		mov	r0, r4
 2428              	.LVL494:
 2429              	.LBE256:
 2430              	.LBB257:
 2431              		.loc 1 414 0
 2432 0d5c 04428CE1 		orr	r4, ip, r4, asl #4
 2433              	.LVL495:
 2434 0d60 80418DE5 		str	r4, [sp, #384]
 2435              	.LVL496:
 2436              	.LBE257:
 2437              	.LBB258:
 2438              		.loc 1 415 0
 2439 0d64 FEFFFFEB 		bl	MAD_F_MLX
 2440              	.LVL497:
 2441 0d68 240EA0E1 		mov	r0, r4, lsr #28
 2442              	.LBE258:
 2443              		.loc 1 416 0
 2444 0d6c 80C19DE5 		ldr	ip, [sp, #384]
 2445              	.LVL498:
 2446              	.LBB259:
 2447              		.loc 1 415 0
 2448 0d70 044280E1 		orr	r4, r0, r4, asl #4
 2449              	.LVL499:
 2450              	.LBE259:
 2451              		.loc 1 416 0
 2452 0d74 04C08CE0 		add	ip, ip, r4
 2453              	.LBB260:
 2454              		.loc 1 422 0
 2455 0d78 08E19DE5 		ldr	lr, [sp, #264]
 2456 0d7c 10019DE5 		ldr	r0, [sp, #272]
 2457              	.LBE260:
 2458              		.loc 1 418 0
 2459 0d80 8C7067E0 		rsb	r7, r7, ip, asl #1
 2460              	.LVL500:
 2461              	.LBB261:
 2462              		.loc 1 422 0
 2463 0d84 0E2060E0 		rsb	r2, r0, lr
 2464              	.LBE261:
 2465              		.loc 1 420 0
 2466 0d88 A07088E5 		str	r7, [r8, #160]
 2467              	.LVL501:
 2468              	.LBB262:
 2469              		.loc 1 422 0
 2470 0d8c 0410A0E1 		mov	r1, r4
 2471 0d90 B0349FE5 		ldr	r3, .L39+112
 2472              	.LVL502:
 2473 0d94 0400A0E1 		mov	r0, r4
 2474              	.LVL503:
 2475              	.LBE262:
 2476              	.LBB263:
 2477              		.loc 1 415 0
 2478 0d98 84418DE5 		str	r4, [sp, #388]
ARM GAS  /cygdrive/c/DOCUME~1/mkwapisz/LOCALS~1/Temp/cc1OEM1Z.s 			page 61


 2479              	.LVL504:
 2480              	.LBE263:
 2481              		.loc 1 416 0
 2482 0d9c 88C18DE5 		str	ip, [sp, #392]
 2483              	.LVL505:
 2484              	.LBB264:
 2485              		.loc 1 422 0
 2486 0da0 FEFFFFEB 		bl	MAD_F_MLX
 2487              	.LVL506:
 2488              	.LBE264:
 2489              	.LBB265:
 2490              		.loc 1 423 0
 2491 0da4 18119DE5 		ldr	r1, [sp, #280]
 2492 0da8 20319DE5 		ldr	r3, [sp, #288]
 2493              	.LVL507:
 2494              	.LBE265:
 2495              	.LBB266:
 2496              		.loc 1 422 0
 2497 0dac 24CEA0E1 		mov	ip, r4, lsr #28
 2498              	.LBE266:
 2499              	.LBB267:
 2500              		.loc 1 423 0
 2501 0db0 012063E0 		rsb	r2, r3, r1
 2502              	.LVL508:
 2503 0db4 0400A0E1 		mov	r0, r4
 2504              	.LVL509:
 2505 0db8 0410A0E1 		mov	r1, r4
 2506 0dbc 88349FE5 		ldr	r3, .L39+116
 2507              	.LVL510:
 2508              	.LBE267:
 2509              	.LBB268:
 2510              		.loc 1 422 0
 2511 0dc0 04428CE1 		orr	r4, ip, r4, asl #4
 2512              	.LVL511:
 2513 0dc4 8C418DE5 		str	r4, [sp, #396]
 2514              	.LVL512:
 2515              	.LBE268:
 2516              	.LBB269:
 2517              		.loc 1 423 0
 2518 0dc8 FEFFFFEB 		bl	MAD_F_MLX
 2519              	.LVL513:
 2520 0dcc 240EA0E1 		mov	r0, r4, lsr #28
 2521              	.LBE269:
 2522              		.loc 1 424 0
 2523 0dd0 8C519DE5 		ldr	r5, [sp, #396]
 2524              	.LVL514:
 2525              	.LBB270:
 2526              		.loc 1 423 0
 2527 0dd4 044280E1 		orr	r4, r0, r4, asl #4
 2528              	.LVL515:
 2529              	.LBE270:
 2530              		.loc 1 426 0
 2531 0dd8 70C19DE5 		ldr	ip, [sp, #368]
 2532              		.loc 1 424 0
 2533 0ddc 045085E0 		add	r5, r5, r4
 2534              		.loc 1 426 0
 2535 0de0 85C06CE0 		rsb	ip, ip, r5, asl #1
ARM GAS  /cygdrive/c/DOCUME~1/mkwapisz/LOCALS~1/Temp/cc1OEM1Z.s 			page 62


 2536              	.LBB271:
 2537              		.loc 1 432 0
 2538 0de4 B8E09DE5 		ldr	lr, [sp, #184]
 2539 0de8 BC009DE5 		ldr	r0, [sp, #188]
 2540              	.LBE271:
 2541              		.loc 1 428 0
 2542 0dec 8CA06AE0 		rsb	sl, sl, ip, asl #1
 2543              	.LVL516:
 2544              	.LBB272:
 2545              		.loc 1 432 0
 2546 0df0 0E2060E0 		rsb	r2, r0, lr
 2547              	.LBE272:
 2548              		.loc 1 430 0
 2549 0df4 80A088E5 		str	sl, [r8, #128]
 2550              	.LVL517:
 2551              	.LBB273:
 2552              		.loc 1 432 0
 2553 0df8 0510A0E1 		mov	r1, r5
 2554 0dfc 44349FE5 		ldr	r3, .L39+112
 2555              	.LVL518:
 2556 0e00 0400A0E1 		mov	r0, r4
 2557              	.LBE273:
 2558              		.loc 1 426 0
 2559 0e04 98C18DE5 		str	ip, [sp, #408]
 2560              	.LVL519:
 2561              	.LVL520:
 2562              	.LBB274:
 2563              		.loc 1 423 0
 2564 0e08 90418DE5 		str	r4, [sp, #400]
 2565              	.LVL521:
 2566              	.LVL522:
 2567              	.LBE274:
 2568              		.loc 1 424 0
 2569 0e0c 94518DE5 		str	r5, [sp, #404]
 2570              	.LVL523:
 2571              	.LBB275:
 2572              		.loc 1 432 0
 2573 0e10 FEFFFFEB 		bl	MAD_F_MLX
 2574              	.LVL524:
 2575              	.LBE275:
 2576              	.LBB276:
 2577              		.loc 1 433 0
 2578 0e14 C0108DE2 		add	r1, sp, #192
 2579 0e18 0A0091E8 		ldmia	r1, {r1, r3}	@ phole ldm
 2580              	.LVL525:
 2581              	.LBE276:
 2582              	.LBB277:
 2583              		.loc 1 432 0
 2584 0e1c 255EA0E1 		mov	r5, r5, lsr #28
 2585              	.LVL526:
 2586              	.LBE277:
 2587              	.LBB278:
 2588              		.loc 1 433 0
 2589 0e20 012063E0 		rsb	r2, r3, r1
 2590              	.LVL527:
 2591              	.LBE278:
 2592              	.LBB279:
ARM GAS  /cygdrive/c/DOCUME~1/mkwapisz/LOCALS~1/Temp/cc1OEM1Z.s 			page 63


 2593              		.loc 1 432 0
 2594 0e24 045285E1 		orr	r5, r5, r4, asl #4
 2595              	.LVL528:
 2596              	.LVL529:
 2597              	.LBE279:
 2598              	.LBB280:
 2599              		.loc 1 433 0
 2600 0e28 0410A0E1 		mov	r1, r4
 2601 0e2c 18349FE5 		ldr	r3, .L39+116
 2602              	.LVL530:
 2603 0e30 0400A0E1 		mov	r0, r4
 2604              	.LVL531:
 2605 0e34 244EA0E1 		mov	r4, r4, lsr #28
 2606 0e38 044284E1 		orr	r4, r4, r4, asl #4
 2607              	.LVL532:
 2608 0e3c FEFFFFEB 		bl	MAD_F_MLX
 2609              	.LVL533:
 2610              	.LBE280:
 2611              		.loc 1 436 0
 2612 0e40 48C19DE5 		ldr	ip, [sp, #328]
 2613              	.LBB281:
 2614              		.loc 1 440 0
 2615 0e44 40E19DE5 		ldr	lr, [sp, #320]
 2616              	.LBE281:
 2617              		.loc 1 434 0
 2618 0e48 046085E0 		add	r6, r5, r4
 2619              	.LVL534:
 2620              	.LBB282:
 2621              		.loc 1 440 0
 2622 0e4c 44019DE5 		ldr	r0, [sp, #324]
 2623              	.LBE282:
 2624              		.loc 1 436 0
 2625 0e50 86B06CE0 		rsb	fp, ip, r6, asl #1
 2626              	.LVL535:
 2627              	.LBB283:
 2628              		.loc 1 440 0
 2629 0e54 0E2060E0 		rsb	r2, r0, lr
 2630              	.LBE283:
 2631              		.loc 1 438 0
 2632 0e58 60B088E5 		str	fp, [r8, #96]
 2633              	.LVL536:
 2634              	.LBB284:
 2635              		.loc 1 440 0
 2636 0e5c 0410A0E1 		mov	r1, r4
 2637 0e60 E8339FE5 		ldr	r3, .L39+120
 2638              	.LVL537:
 2639 0e64 0400A0E1 		mov	r0, r4
 2640 0e68 FEFFFFEB 		bl	MAD_F_MLX
 2641              	.LVL538:
 2642              	.LBE284:
 2643 0e6c 243EA0E1 		mov	r3, r4, lsr #28
 2644              	.LVL539:
 2645 0e70 043283E1 		orr	r3, r3, r4, asl #4
 2646 0e74 83B06BE0 		rsb	fp, fp, r3, asl #1
 2647              	.LVL540:
 2648              	.LVL541:
 2649              	.LBB285:
ARM GAS  /cygdrive/c/DOCUME~1/mkwapisz/LOCALS~1/Temp/cc1OEM1Z.s 			page 64


 2650              		.loc 1 444 0
 2651 0e78 052064E0 		rsb	r2, r4, r5
 2652              	.LVL542:
 2653 0e7c 0410A0E1 		mov	r1, r4
 2654              	.LBE285:
 2655              		.loc 1 442 0
 2656 0e80 80B089E5 		str	fp, [r9, #128]
 2657              	.LBB286:
 2658              		.loc 1 444 0
 2659 0e84 C4339FE5 		ldr	r3, .L39+120
 2660              	.LVL543:
 2661 0e88 0400A0E1 		mov	r0, r4
 2662 0e8c FEFFFFEB 		bl	MAD_F_MLX
 2663              	.LVL544:
 2664              	.LBE286:
 2665 0e90 243EA0E1 		mov	r3, r4, lsr #28
 2666              	.LVL545:
 2667 0e94 043283E1 		orr	r3, r3, r4, asl #4
 2668 0e98 836066E0 		rsb	r6, r6, r3, asl #1
 2669              	.LVL546:
 2670              	.LBB287:
 2671              		.loc 1 446 0
 2672 0e9c CC109DE5 		ldr	r1, [sp, #204]
 2673 0ea0 D4309DE5 		ldr	r3, [sp, #212]
 2674              	.LBE287:
 2675              		.loc 1 444 0
 2676 0ea4 86006BE0 		rsb	r0, fp, r6, asl #1
 2677              	.LBB288:
 2678              		.loc 1 446 0
 2679 0ea8 012063E0 		rsb	r2, r3, r1
 2680              	.LBE288:
 2681              		.loc 1 444 0
 2682 0eac 800189E5 		str	r0, [r9, #384]
 2683              	.LVL547:
 2684              	.LBB289:
 2685              		.loc 1 446 0
 2686 0eb0 0410A0E1 		mov	r1, r4
 2687 0eb4 8C339FE5 		ldr	r3, .L39+112
 2688              	.LVL548:
 2689 0eb8 0400A0E1 		mov	r0, r4
 2690 0ebc FEFFFFEB 		bl	MAD_F_MLX
 2691              	.LVL549:
 2692              	.LBE289:
 2693              	.LBB290:
 2694              		.loc 1 447 0
 2695 0ec0 DC509DE5 		ldr	r5, [sp, #220]
 2696              	.LVL550:
 2697 0ec4 E4C09DE5 		ldr	ip, [sp, #228]
 2698 0ec8 05206CE0 		rsb	r2, ip, r5
 2699              	.LVL551:
 2700              	.LBE290:
 2701              	.LBB291:
 2702              		.loc 1 446 0
 2703 0ecc 24CEA0E1 		mov	ip, r4, lsr #28
 2704              	.LVL552:
 2705              	.LBE291:
 2706              	.LBB292:
ARM GAS  /cygdrive/c/DOCUME~1/mkwapisz/LOCALS~1/Temp/cc1OEM1Z.s 			page 65


 2707              		.loc 1 447 0
 2708 0ed0 0410A0E1 		mov	r1, r4
 2709 0ed4 70339FE5 		ldr	r3, .L39+116
 2710              	.LVL553:
 2711 0ed8 0400A0E1 		mov	r0, r4
 2712              	.LVL554:
 2713              	.LBE292:
 2714              	.LBB293:
 2715              		.loc 1 446 0
 2716 0edc 04428CE1 		orr	r4, ip, r4, asl #4
 2717              	.LVL555:
 2718 0ee0 9C418DE5 		str	r4, [sp, #412]
 2719              	.LVL556:
 2720              	.LBE293:
 2721              	.LBB294:
 2722              		.loc 1 447 0
 2723 0ee4 FEFFFFEB 		bl	MAD_F_MLX
 2724              	.LVL557:
 2725 0ee8 240EA0E1 		mov	r0, r4, lsr #28
 2726              	.LBE294:
 2727              		.loc 1 448 0
 2728 0eec 9CE19DE5 		ldr	lr, [sp, #412]
 2729              	.LVL558:
 2730              	.LBB295:
 2731              		.loc 1 447 0
 2732 0ef0 044280E1 		orr	r4, r0, r4, asl #4
 2733              	.LVL559:
 2734              	.LBE295:
 2735              		.loc 1 450 0
 2736 0ef4 54019DE5 		ldr	r0, [sp, #340]
 2737              		.loc 1 448 0
 2738 0ef8 04E08EE0 		add	lr, lr, r4
 2739              	.LBB296:
 2740              		.loc 1 456 0
 2741 0efc 531F8DE2 		add	r1, sp, #332
 2742 0f00 0A0091E8 		ldmia	r1, {r1, r3}	@ phole ldm
 2743              	.LBE296:
 2744              	.LBB297:
 2745              		.loc 1 447 0
 2746 0f04 A0418DE5 		str	r4, [sp, #416]
 2747              	.LVL560:
 2748              	.LBE297:
 2749              		.loc 1 450 0
 2750 0f08 8E4060E0 		rsb	r4, r0, lr, asl #1
 2751              	.LVL561:
 2752              		.loc 1 452 0
 2753 0f0c 84A06AE0 		rsb	sl, sl, r4, asl #1
 2754              	.LVL562:
 2755              	.LBB298:
 2756              		.loc 1 456 0
 2757 0f10 012063E0 		rsb	r2, r3, r1
 2758              	.LBE298:
 2759              		.loc 1 454 0
 2760 0f14 40A088E5 		str	sl, [r8, #64]
 2761              	.LVL563:
 2762              	.LBB299:
 2763              		.loc 1 456 0
ARM GAS  /cygdrive/c/DOCUME~1/mkwapisz/LOCALS~1/Temp/cc1OEM1Z.s 			page 66


 2764 0f18 0410A0E1 		mov	r1, r4
 2765 0f1c 2C339FE5 		ldr	r3, .L39+120
 2766              	.LVL564:
 2767 0f20 0400A0E1 		mov	r0, r4
 2768              	.LBE299:
 2769              		.loc 1 448 0
 2770 0f24 A4E18DE5 		str	lr, [sp, #420]
 2771              	.LVL565:
 2772              	.LBB300:
 2773              		.loc 1 456 0
 2774 0f28 FEFFFFEB 		bl	MAD_F_MLX
 2775              	.LVL566:
 2776              	.LBE300:
 2777              	.LBB301:
 2778              		.loc 1 458 0
 2779 0f2c F4E09DE5 		ldr	lr, [sp, #244]
 2780 0f30 EC509DE5 		ldr	r5, [sp, #236]
 2781              	.LVL567:
 2782              	.LBE301:
 2783              		.loc 1 456 0
 2784 0f34 24CEA0E1 		mov	ip, r4, lsr #28
 2785              	.LVL568:
 2786 0f38 04C28CE1 		orr	ip, ip, r4, asl #4
 2787              	.LBB302:
 2788              		.loc 1 458 0
 2789 0f3c 05206EE0 		rsb	r2, lr, r5
 2790              	.LVL569:
 2791              	.LBE302:
 2792              		.loc 1 456 0
 2793 0f40 8CC064E0 		rsb	ip, r4, ip, asl #1
 2794              	.LVL570:
 2795              	.LBB303:
 2796              		.loc 1 458 0
 2797 0f44 0510A0E1 		mov	r1, r5
 2798 0f48 F8329FE5 		ldr	r3, .L39+112
 2799              	.LVL571:
 2800 0f4c 0400A0E1 		mov	r0, r4
 2801              	.LBE303:
 2802              		.loc 1 456 0
 2803 0f50 A8C18DE5 		str	ip, [sp, #424]
 2804              	.LVL572:
 2805              	.LBB304:
 2806              		.loc 1 458 0
 2807 0f54 FEFFFFEB 		bl	MAD_F_MLX
 2808              	.LBE304:
 2809              	.LBB305:
 2810              		.loc 1 459 0
 2811 0f58 FC009DE5 		ldr	r0, [sp, #252]
 2812 0f5c 04119DE5 		ldr	r1, [sp, #260]
 2813              	.LBE305:
 2814              	.LBB306:
 2815              		.loc 1 458 0
 2816 0f60 255EA0E1 		mov	r5, r5, lsr #28
 2817              	.LVL573:
 2818 0f64 045285E1 		orr	r5, r5, r4, asl #4
 2819              	.LVL574:
 2820              	.LBE306:
ARM GAS  /cygdrive/c/DOCUME~1/mkwapisz/LOCALS~1/Temp/cc1OEM1Z.s 			page 67


 2821              	.LBB307:
 2822              		.loc 1 459 0
 2823 0f68 002061E0 		rsb	r2, r1, r0
 2824 0f6c D8329FE5 		ldr	r3, .L39+116
 2825              	.LVL575:
 2826 0f70 0410A0E1 		mov	r1, r4
 2827              	.LVL576:
 2828 0f74 0400A0E1 		mov	r0, r4
 2829              	.LVL577:
 2830 0f78 244EA0E1 		mov	r4, r4, lsr #28
 2831 0f7c 044284E1 		orr	r4, r4, r4, asl #4
 2832              	.LVL578:
 2833 0f80 FEFFFFEB 		bl	MAD_F_MLX
 2834              	.LVL579:
 2835              	.LBE307:
 2836              		.loc 1 462 0
 2837 0f84 60219DE5 		ldr	r2, [sp, #352]
 2838              		.loc 1 460 0
 2839 0f88 046085E0 		add	r6, r5, r4
 2840              	.LVL580:
 2841              		.loc 1 462 0
 2842 0f8c 86B062E0 		rsb	fp, r2, r6, asl #1
 2843              	.LVL581:
 2844              	.LBB308:
 2845              		.loc 1 468 0
 2846 0f90 133E8DE2 		add	r3, sp, #304
 2847 0f94 081093E8 		ldmia	r3, {r3, ip}	@ phole ldm
 2848              	.LBE308:
 2849              		.loc 1 464 0
 2850 0f98 8B7067E0 		rsb	r7, r7, fp, asl #1
 2851              	.LVL582:
 2852              	.LBB309:
 2853              		.loc 1 468 0
 2854 0f9c 03206CE0 		rsb	r2, ip, r3
 2855              	.LBE309:
 2856              		.loc 1 466 0
 2857 0fa0 207088E5 		str	r7, [r8, #32]
 2858              	.LVL583:
 2859              	.LBB310:
 2860              		.loc 1 468 0
 2861 0fa4 0410A0E1 		mov	r1, r4
 2862 0fa8 A0329FE5 		ldr	r3, .L39+120
 2863              	.LVL584:
 2864 0fac 0400A0E1 		mov	r0, r4
 2865 0fb0 FEFFFFEB 		bl	MAD_F_MLX
 2866              	.LVL585:
 2867              	.LBE310:
 2868 0fb4 243EA0E1 		mov	r3, r4, lsr #28
 2869              	.LBB311:
 2870              		.loc 1 472 0
 2871 0fb8 58E19DE5 		ldr	lr, [sp, #344]
 2872              	.LVL586:
 2873              	.LBE311:
 2874              		.loc 1 468 0
 2875 0fbc 043283E1 		orr	r3, r3, r4, asl #4
 2876              	.LBB312:
 2877              		.loc 1 472 0
ARM GAS  /cygdrive/c/DOCUME~1/mkwapisz/LOCALS~1/Temp/cc1OEM1Z.s 			page 68


 2878 0fc0 5C019DE5 		ldr	r0, [sp, #348]
 2879              	.LBE312:
 2880              		.loc 1 468 0
 2881 0fc4 837067E0 		rsb	r7, r7, r3, asl #1
 2882              	.LVL587:
 2883              	.LBB313:
 2884              		.loc 1 472 0
 2885 0fc8 0E2060E0 		rsb	r2, r0, lr
 2886              	.LVL588:
 2887 0fcc 0410A0E1 		mov	r1, r4
 2888              	.LBE313:
 2889              		.loc 1 470 0
 2890 0fd0 407089E5 		str	r7, [r9, #64]
 2891              	.LBB314:
 2892              		.loc 1 472 0
 2893 0fd4 74329FE5 		ldr	r3, .L39+120
 2894              	.LVL589:
 2895 0fd8 0400A0E1 		mov	r0, r4
 2896 0fdc FEFFFFEB 		bl	MAD_F_MLX
 2897              	.LVL590:
 2898              	.LBE314:
 2899 0fe0 243EA0E1 		mov	r3, r4, lsr #28
 2900              	.LVL591:
 2901 0fe4 043283E1 		orr	r3, r3, r4, asl #4
 2902 0fe8 83806BE0 		rsb	r8, fp, r3, asl #1
 2903              	.LVL592:
 2904              	.LBB315:
 2905              		.loc 1 478 0
 2906 0fec 061D8DE2 		add	r1, sp, #384
 2907 0ff0 0A0091E8 		ldmia	r1, {r1, r3}	@ phole ldm
 2908              	.LBE315:
 2909              		.loc 1 474 0
 2910 0ff4 887067E0 		rsb	r7, r7, r8, asl #1
 2911              	.LVL593:
 2912              	.LBB316:
 2913              		.loc 1 478 0
 2914 0ff8 012063E0 		rsb	r2, r3, r1
 2915              	.LBE316:
 2916              		.loc 1 476 0
 2917 0ffc C07089E5 		str	r7, [r9, #192]
 2918              	.LVL594:
 2919              	.LBB317:
 2920              		.loc 1 478 0
 2921 1000 0410A0E1 		mov	r1, r4
 2922 1004 44329FE5 		ldr	r3, .L39+120
 2923              	.LVL595:
 2924 1008 0400A0E1 		mov	r0, r4
 2925 100c FEFFFFEB 		bl	MAD_F_MLX
 2926              	.LVL596:
 2927              	.LBE317:
 2928 1010 88C19DE5 		ldr	ip, [sp, #392]
 2929              	.LVL597:
 2930 1014 243EA0E1 		mov	r3, r4, lsr #28
 2931              	.LVL598:
 2932 1018 043283E1 		orr	r3, r3, r4, asl #4
 2933 101c 83006CE0 		rsb	r0, ip, r3, asl #1
 2934 1020 807067E0 		rsb	r7, r7, r0, asl #1
ARM GAS  /cygdrive/c/DOCUME~1/mkwapisz/LOCALS~1/Temp/cc1OEM1Z.s 			page 69


 2935              	.LVL599:
 2936              	.LVL600:
 2937              	.LBB318:
 2938              		.loc 1 482 0
 2939 1024 052064E0 		rsb	r2, r4, r5
 2940              	.LVL601:
 2941 1028 0410A0E1 		mov	r1, r4
 2942              	.LBE318:
 2943              		.loc 1 480 0
 2944 102c 407189E5 		str	r7, [r9, #320]
 2945              	.LBB319:
 2946              		.loc 1 482 0
 2947 1030 18329FE5 		ldr	r3, .L39+120
 2948              	.LVL602:
 2949 1034 0400A0E1 		mov	r0, r4
 2950 1038 FEFFFFEB 		bl	MAD_F_MLX
 2951              	.LVL603:
 2952              	.LBE319:
 2953 103c 243EA0E1 		mov	r3, r4, lsr #28
 2954              	.LVL604:
 2955 1040 043283E1 		orr	r3, r3, r4, asl #4
 2956 1044 836066E0 		rsb	r6, r6, r3, asl #1
 2957              	.LVL605:
 2958 1048 860068E0 		rsb	r0, r8, r6, asl #1
 2959              	.LBB320:
 2960              		.loc 1 485 0
 2961 104c 0CE19DE5 		ldr	lr, [sp, #268]
 2962              	.LBE320:
 2963              		.loc 1 482 0
 2964 1050 807067E0 		rsb	r7, r7, r0, asl #1
 2965              	.LVL606:
 2966              	.LBB321:
 2967              		.loc 1 485 0
 2968 1054 14019DE5 		ldr	r0, [sp, #276]
 2969              	.LVL607:
 2970 1058 0610A0E1 		mov	r1, r6
 2971 105c 0E2060E0 		rsb	r2, r0, lr
 2972              	.LBE321:
 2973              		.loc 1 482 0
 2974 1060 C07189E5 		str	r7, [r9, #448]
 2975              	.LBB322:
 2976              		.loc 1 485 0
 2977 1064 DC319FE5 		ldr	r3, .L39+112
 2978              	.LVL608:
 2979 1068 0400A0E1 		mov	r0, r4
 2980 106c FEFFFFEB 		bl	MAD_F_MLX
 2981              	.LBE322:
 2982              	.LBB323:
 2983              		.loc 1 486 0
 2984 1070 1C119DE5 		ldr	r1, [sp, #284]
 2985 1074 24319DE5 		ldr	r3, [sp, #292]
 2986              	.LVL609:
 2987 1078 0400A0E1 		mov	r0, r4
 2988 107c 012063E0 		rsb	r2, r3, r1
 2989              	.LBE323:
 2990              	.LBB324:
 2991              		.loc 1 485 0
ARM GAS  /cygdrive/c/DOCUME~1/mkwapisz/LOCALS~1/Temp/cc1OEM1Z.s 			page 70


 2992 1080 266EA0E1 		mov	r6, r6, lsr #28
 2993              	.LVL610:
 2994              	.LVL611:
 2995              	.LBE324:
 2996              	.LBB325:
 2997              		.loc 1 486 0
 2998 1084 0510A0E1 		mov	r1, r5
 2999 1088 BC319FE5 		ldr	r3, .L39+116
 3000 108c 255EA0E1 		mov	r5, r5, lsr #28
 3001              	.LVL612:
 3002 1090 FEFFFFEB 		bl	MAD_F_MLX
 3003              	.LVL613:
 3004              	.LVL614:
 3005              	.LBE325:
 3006              	.LBB326:
 3007              		.loc 1 485 0
 3008 1094 046286E1 		orr	r6, r6, r4, asl #4
 3009              	.LVL615:
 3010              	.LVL616:
 3011              	.LBE326:
 3012              	.LBB327:
 3013              		.loc 1 486 0
 3014 1098 045285E1 		orr	r5, r5, r4, asl #4
 3015              	.LVL617:
 3016              	.LBE327:
 3017              		.loc 1 489 0
 3018 109c 6CC19DE5 		ldr	ip, [sp, #364]
 3019              		.loc 1 491 0
 3020 10a0 98119DE5 		ldr	r1, [sp, #408]
 3021              		.loc 1 487 0
 3022 10a4 057086E0 		add	r7, r6, r5
 3023              	.LVL618:
 3024              		.loc 1 489 0
 3025 10a8 87B06CE0 		rsb	fp, ip, r7, asl #1
 3026              	.LVL619:
 3027              	.LBB328:
 3028              		.loc 1 493 0
 3029 10ac 38E19DE5 		ldr	lr, [sp, #312]
 3030 10b0 3C019DE5 		ldr	r0, [sp, #316]
 3031              	.LBE328:
 3032              		.loc 1 491 0
 3033 10b4 8B4061E0 		rsb	r4, r1, fp, asl #1
 3034              	.LVL620:
 3035              	.LBB329:
 3036              		.loc 1 493 0
 3037 10b8 0E2060E0 		rsb	r2, r0, lr
 3038              	.LVL621:
 3039 10bc 0410A0E1 		mov	r1, r4
 3040 10c0 88319FE5 		ldr	r3, .L39+120
 3041              	.LVL622:
 3042 10c4 0400A0E1 		mov	r0, r4
 3043 10c8 FEFFFFEB 		bl	MAD_F_MLX
 3044              	.LVL623:
 3045              	.LBE329:
 3046              		.loc 1 497 0
 3047 10cc 14209DE5 		ldr	r2, [sp, #20]
 3048 10d0 0C309DE5 		ldr	r3, [sp, #12]
ARM GAS  /cygdrive/c/DOCUME~1/mkwapisz/LOCALS~1/Temp/cc1OEM1Z.s 			page 71


 3049              	.LBB330:
 3050              		.loc 1 499 0
 3051 10d4 28E19DE5 		ldr	lr, [sp, #296]
 3052 10d8 2C019DE5 		ldr	r0, [sp, #300]
 3053              	.LVL624:
 3054              	.LBE330:
 3055              		.loc 1 495 0
 3056 10dc 84A06AE0 		rsb	sl, sl, r4, asl #1
 3057              	.LVL625:
 3058              	.LVL626:
 3059              		.loc 1 493 0
 3060 10e0 24CEA0E1 		mov	ip, r4, lsr #28
 3061              		.loc 1 497 0
 3062 10e4 02A183E7 		str	sl, [r3, r2, asl #2]
 3063              	.LVL627:
 3064              		.loc 1 493 0
 3065 10e8 04C28CE1 		orr	ip, ip, r4, asl #4
 3066              	.LBB331:
 3067              		.loc 1 499 0
 3068 10ec 0E2060E0 		rsb	r2, r0, lr
 3069              	.LVL628:
 3070 10f0 0410A0E1 		mov	r1, r4
 3071 10f4 54319FE5 		ldr	r3, .L39+120
 3072              	.LVL629:
 3073 10f8 0400A0E1 		mov	r0, r4
 3074              	.LVL630:
 3075              	.LBE331:
 3076              		.loc 1 493 0
 3077 10fc 8C8064E0 		rsb	r8, r4, ip, asl #1
 3078              	.LVL631:
 3079              	.LBB332:
 3080              		.loc 1 499 0
 3081 1100 FEFFFFEB 		bl	MAD_F_MLX
 3082              	.LVL632:
 3083              	.LBE332:
 3084 1104 243EA0E1 		mov	r3, r4, lsr #28
 3085              	.LVL633:
 3086 1108 043283E1 		orr	r3, r3, r4, asl #4
 3087 110c 83A06AE0 		rsb	sl, sl, r3, asl #1
 3088              	.LVL634:
 3089              		.loc 1 507 0
 3090 1110 A8119DE5 		ldr	r1, [sp, #424]
 3091              		.loc 1 503 0
 3092 1114 88306AE0 		rsb	r3, sl, r8, asl #1
 3093              	.LVL635:
 3094              	.LBB333:
 3095              		.loc 1 511 0
 3096 1118 59CF8DE2 		add	ip, sp, #356
 3097 111c 00509CE8 		ldmia	ip, {ip, lr}	@ phole ldm
 3098              	.LBE333:
 3099              		.loc 1 507 0
 3100 1120 814063E0 		rsb	r4, r3, r1, asl #1
 3101              	.LVL636:
 3102              	.LBB334:
 3103              		.loc 1 511 0
 3104 1124 0C206EE0 		rsb	r2, lr, ip
 3105              	.LVL637:
ARM GAS  /cygdrive/c/DOCUME~1/mkwapisz/LOCALS~1/Temp/cc1OEM1Z.s 			page 72


 3106 1128 0410A0E1 		mov	r1, r4
 3107              	.LBE334:
 3108              		.loc 1 501 0
 3109 112c 20A089E5 		str	sl, [r9, #32]
 3110              		.loc 1 505 0
 3111 1130 603089E5 		str	r3, [r9, #96]
 3112              	.LVL638:
 3113              		.loc 1 509 0
 3114 1134 A04089E5 		str	r4, [r9, #160]
 3115              	.LBB335:
 3116              		.loc 1 511 0
 3117 1138 10319FE5 		ldr	r3, .L39+120
 3118              	.LVL639:
 3119 113c 0400A0E1 		mov	r0, r4
 3120 1140 FEFFFFEB 		bl	MAD_F_MLX
 3121              	.LVL640:
 3122              	.LBE335:
 3123 1144 243EA0E1 		mov	r3, r4, lsr #28
 3124              	.LVL641:
 3125 1148 043283E1 		orr	r3, r3, r4, asl #4
 3126 114c 83A06BE0 		rsb	sl, fp, r3, asl #1
 3127              	.LVL642:
 3128              	.LBB336:
 3129              		.loc 1 519 0
 3130 1150 5D0F8DE2 		add	r0, sp, #372
 3131 1154 030090E8 		ldmia	r0, {r0, r1}	@ phole ldm
 3132              	.LBE336:
 3133              		.loc 1 513 0
 3134 1158 8A8068E0 		rsb	r8, r8, sl, asl #1
 3135              	.LVL643:
 3136              	.LVL644:
 3137              		.loc 1 515 0
 3138 115c 884064E0 		rsb	r4, r4, r8, asl #1
 3139              	.LVL645:
 3140              	.LBB337:
 3141              		.loc 1 519 0
 3142 1160 002061E0 		rsb	r2, r1, r0
 3143              	.LBE337:
 3144              		.loc 1 517 0
 3145 1164 E04089E5 		str	r4, [r9, #224]
 3146              	.LVL646:
 3147              	.LBB338:
 3148              		.loc 1 519 0
 3149 1168 0410A0E1 		mov	r1, r4
 3150 116c DC309FE5 		ldr	r3, .L39+120
 3151              	.LVL647:
 3152 1170 0400A0E1 		mov	r0, r4
 3153 1174 FEFFFFEB 		bl	MAD_F_MLX
 3154              	.LVL648:
 3155              	.LBE338:
 3156 1178 7C219DE5 		ldr	r2, [sp, #380]
 3157              	.LVL649:
 3158 117c 243EA0E1 		mov	r3, r4, lsr #28
 3159              	.LVL650:
 3160 1180 043283E1 		orr	r3, r3, r4, asl #4
 3161 1184 830062E0 		rsb	r0, r2, r3, asl #1
 3162              	.LBB339:
ARM GAS  /cygdrive/c/DOCUME~1/mkwapisz/LOCALS~1/Temp/cc1OEM1Z.s 			page 73


 3163              		.loc 1 523 0
 3164 1188 633F8DE2 		add	r3, sp, #396
 3165 118c 081093E8 		ldmia	r3, {r3, ip}	@ phole ldm
 3166              	.LVL651:
 3167              	.LBE339:
 3168              		.loc 1 519 0
 3169 1190 804064E0 		rsb	r4, r4, r0, asl #1
 3170              	.LVL652:
 3171              	.LBB340:
 3172              		.loc 1 523 0
 3173 1194 03206CE0 		rsb	r2, ip, r3
 3174              	.LVL653:
 3175 1198 0410A0E1 		mov	r1, r4
 3176              	.LVL654:
 3177              	.LBE340:
 3178              		.loc 1 521 0
 3179 119c 204189E5 		str	r4, [r9, #288]
 3180              	.LBB341:
 3181              		.loc 1 523 0
 3182 11a0 A8309FE5 		ldr	r3, .L39+120
 3183              	.LVL655:
 3184 11a4 0400A0E1 		mov	r0, r4
 3185 11a8 FEFFFFEB 		bl	MAD_F_MLX
 3186              	.LVL656:
 3187              	.LBE341:
 3188 11ac 94E19DE5 		ldr	lr, [sp, #404]
 3189              	.LVL657:
 3190 11b0 243EA0E1 		mov	r3, r4, lsr #28
 3191              	.LVL658:
 3192 11b4 043283E1 		orr	r3, r3, r4, asl #4
 3193 11b8 83006EE0 		rsb	r0, lr, r3, asl #1
 3194 11bc 808068E0 		rsb	r8, r8, r0, asl #1
 3195              	.LVL659:
 3196              	.LBB342:
 3197              		.loc 1 529 0
 3198 11c0 670F8DE2 		add	r0, sp, #412
 3199 11c4 030090E8 		ldmia	r0, {r0, r1}	@ phole ldm
 3200              	.LVL660:
 3201              	.LBE342:
 3202              		.loc 1 525 0
 3203 11c8 884064E0 		rsb	r4, r4, r8, asl #1
 3204              	.LVL661:
 3205              	.LBB343:
 3206              		.loc 1 529 0
 3207 11cc 002061E0 		rsb	r2, r1, r0
 3208              	.LBE343:
 3209              		.loc 1 527 0
 3210 11d0 604189E5 		str	r4, [r9, #352]
 3211 11d4 1E0000EA 		b	.L40
 3212              	.L41:
 3213              		.align	2
 3214              	.L39:
 3215 11d8 F210FB0F 		.word	268112114
 3216 11dc D246EC0F 		.word	267142866
 3217 11e0 30FBC800 		.word	13171504
 3218 11e4 91EFDA0B 		.word	198897553
 3219 11e8 6C7A9101 		.word	26311276
ARM GAS  /cygdrive/c/DOCUME~1/mkwapisz/LOCALS~1/Temp/cc1OEM1Z.s 			page 74


 3220 11ec 9AB4BE0A 		.word	180270234
 3221 11f0 8290100F 		.word	252743810
 3222 11f4 36405E0C 		.word	207503414
 3223 11f8 9DE66305 		.word	90433181
 3224 11fc 7ABD760E 		.word	242662778
 3225 1200 9379260A 		.word	170293651
 3226 1204 0244D706 		.word	114770946
 3227 1208 C0AAD30F 		.word	265530048
 3228 120c ABA04F0F 		.word	256876715
 3229 1210 0E025902 		.word	39387662
 3230 1214 24F0D90C 		.word	215609380
 3231 1218 FEFB8709 		.word	159906814
 3232 121c 8C01A504 		.word	77922700
 3233 1220 7E3F850F 		.word	260390782
 3234 1224 79591C0E 		.word	236738937
 3235 1228 2F3FE303 		.word	65224495
 3236 122c A341B90D 		.word	230244771
 3237 1230 CDC33908 		.word	138003405
 3238 1234 4ED78A07 		.word	126539598
 3239 1238 E84BB10F 		.word	263277544
 3240 123c 9D9DE308 		.word	149134749
 3241 1240 08171F03 		.word	52369160
 3242 1244 15B34D0D 		.word	223195925
 3243 1248 E835C80E 		.word	248002024
 3244 124c AA781F06 		.word	102725802
 3245 1250 334F500B 		.word	189812531
 3246              	.L40:
 3247              	.LVL662:
 3248              	.LBB344:
 3249              		.loc 1 529 0
 3250 1254 0410A0E1 		mov	r1, r4
 3251 1258 10301FE5 		ldr	r3, .L39+120
 3252              	.LVL663:
 3253 125c 0400A0E1 		mov	r0, r4
 3254 1260 FEFFFFEB 		bl	MAD_F_MLX
 3255              	.LVL664:
 3256              	.LBE344:
 3257 1264 A4219DE5 		ldr	r2, [sp, #420]
 3258              	.LVL665:
 3259 1268 243EA0E1 		mov	r3, r4, lsr #28
 3260              	.LVL666:
 3261 126c 043283E1 		orr	r3, r3, r4, asl #4
 3262 1270 830062E0 		rsb	r0, r2, r3, asl #1
 3263 1274 A8319DE5 		ldr	r3, [sp, #424]
 3264 1278 800063E0 		rsb	r0, r3, r0, asl #1
 3265              	.LVL667:
 3266 127c 804064E0 		rsb	r4, r4, r0, asl #1
 3267              	.LVL668:
 3268              		.loc 1 532 0
 3269 1280 A04189E5 		str	r4, [r9, #416]
 3270              	.LBB345:
 3271              		.loc 1 534 0
 3272 1284 3C301FE5 		ldr	r3, .L39+120
 3273              	.LVL669:
 3274 1288 0400A0E1 		mov	r0, r4
 3275              	.LVL670:
 3276 128c 0410A0E1 		mov	r1, r4
ARM GAS  /cygdrive/c/DOCUME~1/mkwapisz/LOCALS~1/Temp/cc1OEM1Z.s 			page 75


 3277 1290 062065E0 		rsb	r2, r5, r6
 3278 1294 FEFFFFEB 		bl	MAD_F_MLX
 3279              	.LVL671:
 3280              	.LBE345:
 3281 1298 243EA0E1 		mov	r3, r4, lsr #28
 3282              	.LVL672:
 3283 129c 043283E1 		orr	r3, r3, r4, asl #4
 3284 12a0 837067E0 		rsb	r7, r7, r3, asl #1
 3285              	.LVL673:
 3286 12a4 87006AE0 		rsb	r0, sl, r7, asl #1
 3287 12a8 800068E0 		rsb	r0, r8, r0, asl #1
 3288              	.LVL674:
 3289 12ac 804064E0 		rsb	r4, r4, r0, asl #1
 3290              	.LVL675:
 3291 12b0 E04189E5 		str	r4, [r9, #480]
 3292              		.loc 1 544 0
 3293 12b4 6BDF8DE2 		add	sp, sp, #428
 3294 12b8 F04FBDE8 		ldmfd	sp!, {r4, r5, r6, r7, r8, r9, sl, fp, lr}
 3295 12bc 1EFF2FE1 		bx	lr
 3296              	.LFE5:
 3297              		.size	dct32, .-dct32
 3298              		.align	2
 3299              		.type	synth_half, %function
 3300              	synth_half:
 3301              	.LFB7:
 3302              		.loc 1 754 0
 3303              		@ Function supports interworking.
 3304              		@ args = 0, pretend = 0, frame = 412
 3305              		@ frame_needed = 0, uses_anonymous_args = 0
 3306              	.LVL676:
 3307 12c0 F04F2DE9 		stmfd	sp!, {r4, r5, r6, r7, r8, r9, sl, fp, lr}
 3308              	.LCFI5:
 3309 12c4 67DF4DE2 		sub	sp, sp, #412
 3310              	.LCFI6:
 3311              		.loc 1 754 0
 3312 12c8 94308DE5 		str	r3, [sp, #148]
 3313              		.loc 1 766 0
 3314 12cc 013AA0E3 		mov	r3, #4096
 3315              	.LVL677:
 3316 12d0 033090E7 		ldr	r3, [r0, r3]
 3317              		.loc 1 768 0
 3318 12d4 020052E3 		cmp	r2, #2
 3319              		.loc 1 754 0
 3320 12d8 98208DE5 		str	r2, [sp, #152]
 3321 12dc A0008DE5 		str	r0, [sp, #160]
 3322 12e0 9C108DE5 		str	r1, [sp, #156]
 3323              		.loc 1 766 0
 3324 12e4 D4308DE5 		str	r3, [sp, #212]
 3325              	.LVL678:
 3326              		.loc 1 768 0
 3327 12e8 A902008A 		bhi	.L52
 3328              	.LVL679:
 3329              	.LVL680:
 3330              		.loc 1 797 0
 3331 12ec 2408A0E1 		mov	r0, r4, lsr #16
 3332              	.LVL681:
 3333              		.loc 1 799 0
ARM GAS  /cygdrive/c/DOCUME~1/mkwapisz/LOCALS~1/Temp/cc1OEM1Z.s 			page 76


 3334 12f0 2058A0E1 		mov	r5, r0, lsr #16
 3335              	.LVL682:
 3336              		.loc 1 797 0
 3337 12f4 000880E1 		orr	r0, r0, r0, asl #16
 3338 12f8 E4008DE5 		str	r0, [sp, #228]
 3339              	.LVL683:
 3340              		.loc 1 798 0
 3341 12fc E4C09DE5 		ldr	ip, [sp, #228]
 3342              		.loc 1 833 0
 3343 1300 0510A0E1 		mov	r1, r5
 3344 1304 74508DE5 		str	r5, [sp, #116]
 3345              	.LVL684:
 3346              		.loc 1 799 0
 3347 1308 005885E1 		orr	r5, r5, r0, asl #16
 3348 130c 88508DE5 		str	r5, [sp, #136]
 3349              		.loc 1 798 0
 3350 1310 0C30A0E1 		mov	r3, ip
 3351 1314 0CC08CE0 		add	ip, ip, ip
 3352 1318 FCC08DE5 		str	ip, [sp, #252]
 3353              	.LVL685:
 3354              	.LVL686:
 3355              		.loc 1 831 0
 3356 131c 2998A0E1 		mov	r9, r9, lsr #16
 3357              	.LVL687:
 3358              		.loc 1 799 0
 3359 1320 03C0A0E1 		mov	ip, r3
 3360 1324 88309DE5 		ldr	r3, [sp, #136]
 3361              		.loc 1 833 0
 3362 1328 0140A0E1 		mov	r4, r1
 3363              	.LVL688:
 3364 132c 01B881E1 		orr	fp, r1, r1, asl #16
 3365              	.LVL689:
 3366              		.loc 1 831 0
 3367 1330 009889E1 		orr	r9, r9, r0, asl #16
 3368              	.LVL690:
 3369              		.loc 1 832 0
 3370 1334 2AA8A0E1 		mov	sl, sl, lsr #16
 3371              	.LVL691:
 3372              	.LVL692:
 3373              		.loc 1 857 0
 3374 1338 2888A0E1 		mov	r8, r8, lsr #16
 3375              	.LVL693:
 3376              	.LVL694:
 3377              		.loc 1 832 0
 3378 133c 01A88AE1 		orr	sl, sl, r1, asl #16
 3379              	.LVL695:
 3380              		.loc 1 857 0
 3381 1340 018888E1 		orr	r8, r8, r1, asl #16
 3382              		.loc 1 799 0
 3383 1344 03C08CE0 		add	ip, ip, r3
 3384              		.loc 1 831 0
 3385 1348 099083E0 		add	r9, r3, r9
 3386              	.LVL696:
 3387              		.loc 1 798 0
 3388 134c 90008DE5 		str	r0, [sp, #144]
 3389              		.loc 1 801 0
 3390 1350 FC309DE5 		ldr	r3, [sp, #252]
ARM GAS  /cygdrive/c/DOCUME~1/mkwapisz/LOCALS~1/Temp/cc1OEM1Z.s 			page 77


 3391              		.loc 1 800 0
 3392 1354 8C008DE5 		str	r0, [sp, #140]
 3393              		.loc 1 858 0
 3394 1358 0B10A0E1 		mov	r1, fp
 3395              	.LVL697:
 3396              	.LVL698:
 3397              		.loc 1 801 0
 3398 135c 2408A0E1 		mov	r0, r4, lsr #16
 3399              	.LVL699:
 3400 1360 000880E1 		orr	r0, r0, r0, asl #16
 3401              		.loc 1 831 0
 3402 1364 24918DE5 		str	r9, [sp, #292]
 3403              	.LVL700:
 3404              		.loc 1 830 0
 3405 1368 20518DE5 		str	r5, [sp, #288]
 3406              	.LVL701:
 3407              		.loc 1 858 0
 3408 136c 011081E0 		add	r1, r1, r1
 3409              	.LVL702:
 3410              		.loc 1 835 0
 3411 1370 2558A0E1 		mov	r5, r5, lsr #16
 3412              	.LVL703:
 3413              	.LVL704:
 3414              		.loc 1 861 0
 3415 1374 2778A0E1 		mov	r7, r7, lsr #16
 3416              	.LVL705:
 3417              		.loc 1 858 0
 3418 1378 00108DE5 		str	r1, [sp, #0]
 3419              	.LVL706:
 3420              	.LVL707:
 3421              		.loc 1 835 0
 3422 137c 005885E1 		orr	r5, r5, r0, asl #16
 3423              	.LVL708:
 3424              		.loc 1 861 0
 3425 1380 007887E1 		orr	r7, r7, r0, asl #16
 3426              	.LVL709:
 3427              		.loc 1 803 0
 3428 1384 2018A0E1 		mov	r1, r0, lsr #16
 3429              	.LVL710:
 3430              		.loc 1 802 0
 3431 1388 00E0A0E1 		mov	lr, r0
 3432              		.loc 1 834 0
 3433 138c 0040A0E1 		mov	r4, r0
 3434              	.LVL711:
 3435              		.loc 1 801 0
 3436 1390 000083E0 		add	r0, r3, r0
 3437              		.loc 1 834 0
 3438 1394 24319DE5 		ldr	r3, [sp, #292]
 3439              		.loc 1 856 0
 3440 1398 0B20A0E1 		mov	r2, fp
 3441              	.LVL712:
 3442              		.loc 1 832 0
 3443 139c 0AB08BE0 		add	fp, fp, sl
 3444 13a0 28B18DE5 		str	fp, [sp, #296]
 3445              	.LVL713:
 3446              		.loc 1 834 0
 3447 13a4 044083E0 		add	r4, r3, r4
ARM GAS  /cygdrive/c/DOCUME~1/mkwapisz/LOCALS~1/Temp/cc1OEM1Z.s 			page 78


 3448 13a8 2C418DE5 		str	r4, [sp, #300]
 3449              	.LVL714:
 3450              		.loc 1 835 0
 3451 13ac 28419DE5 		ldr	r4, [sp, #296]
 3452              		.loc 1 799 0
 3453 13b0 00C18DE5 		str	ip, [sp, #256]
 3454              	.LVL715:
 3455              		.loc 1 860 0
 3456 13b4 0560A0E1 		mov	r6, r5
 3457              		.loc 1 801 0
 3458 13b8 04018DE5 		str	r0, [sp, #260]
 3459              	.LVL716:
 3460              		.loc 1 835 0
 3461 13bc 055084E0 		add	r5, r4, r5
 3462              		.loc 1 802 0
 3463 13c0 00019DE5 		ldr	r0, [sp, #256]
 3464              		.loc 1 835 0
 3465 13c4 30518DE5 		str	r5, [sp, #304]
 3466              	.LVL717:
 3467              		.loc 1 803 0
 3468 13c8 04C19DE5 		ldr	ip, [sp, #260]
 3469              		.loc 1 861 0
 3470 13cc 00509DE5 		ldr	r5, [sp, #0]
 3471              		.loc 1 802 0
 3472 13d0 0EE080E0 		add	lr, r0, lr
 3473              		.loc 1 857 0
 3474 13d4 082082E0 		add	r2, r2, r8
 3475              	.LVL718:
 3476              		.loc 1 804 0
 3477 13d8 0180A0E1 		mov	r8, r1
 3478              	.LVL719:
 3479              		.loc 1 803 0
 3480 13dc 041881E1 		orr	r1, r1, r4, asl #16
 3481              		.loc 1 862 0
 3482 13e0 01B0A0E1 		mov	fp, r1
 3483              		.loc 1 802 0
 3484 13e4 08E18DE5 		str	lr, [sp, #264]
 3485              	.LVL720:
 3486              		.loc 1 861 0
 3487 13e8 073085E0 		add	r3, r5, r7
 3488              	.LVL721:
 3489              		.loc 1 860 0
 3490 13ec 062082E0 		add	r2, r2, r6
 3491              	.LVL722:
 3492              		.loc 1 804 0
 3493 13f0 0100A0E1 		mov	r0, r1
 3494              		.loc 1 836 0
 3495 13f4 0150A0E1 		mov	r5, r1
 3496              		.loc 1 837 0
 3497 13f8 0160A0E1 		mov	r6, r1
 3498              		.loc 1 863 0
 3499 13fc 5C108DE5 		str	r1, [sp, #92]
 3500              		.loc 1 803 0
 3501 1400 01108CE0 		add	r1, ip, r1
 3502 1404 0C118DE5 		str	r1, [sp, #268]
 3503              	.LVL723:
 3504              		.loc 1 804 0
ARM GAS  /cygdrive/c/DOCUME~1/mkwapisz/LOCALS~1/Temp/cc1OEM1Z.s 			page 79


 3505 1408 08119DE5 		ldr	r1, [sp, #264]
 3506 140c 000081E0 		add	r0, r1, r0
 3507              		.loc 1 836 0
 3508 1410 2CC19DE5 		ldr	ip, [sp, #300]
 3509              		.loc 1 804 0
 3510 1414 10018DE5 		str	r0, [sp, #272]
 3511              	.LVL724:
 3512              		.loc 1 837 0
 3513 1418 30019DE5 		ldr	r0, [sp, #304]
 3514              	.LVL725:
 3515              		.loc 1 808 0
 3516 141c 2448A0E1 		mov	r4, r4, lsr #16
 3517              	.LVL726:
 3518              	.LVL727:
 3519              		.loc 1 842 0
 3520 1420 2478A0E1 		mov	r7, r4, lsr #16
 3521              		.loc 1 836 0
 3522 1424 05508CE0 		add	r5, ip, r5
 3523              		.loc 1 837 0
 3524 1428 066080E0 		add	r6, r0, r6
 3525              		.loc 1 863 0
 3526 142c 0B3083E0 		add	r3, r3, fp
 3527              	.LVL728:
 3528              	.LVL729:
 3529              		.loc 1 809 0
 3530 1430 2898A0E1 		mov	r9, r8, lsr #16
 3531              		.loc 1 866 0
 3532 1434 58708DE5 		str	r7, [sp, #88]
 3533              		.loc 1 867 0
 3534 1438 50708DE5 		str	r7, [sp, #80]
 3535              		.loc 1 886 0
 3536 143c 38708DE5 		str	r7, [sp, #56]
 3537              		.loc 1 888 0
 3538 1440 30708DE5 		str	r7, [sp, #48]
 3539              		.loc 1 836 0
 3540 1444 34518DE5 		str	r5, [sp, #308]
 3541              	.LVL730:
 3542              		.loc 1 837 0
 3543 1448 38618DE5 		str	r6, [sp, #312]
 3544              	.LVL731:
 3545              		.loc 1 863 0
 3546 144c 00308DE5 		str	r3, [sp, #0]
 3547              	.LVL732:
 3548              		.loc 1 804 0
 3549 1450 0CC19DE5 		ldr	ip, [sp, #268]
 3550 1454 10319DE5 		ldr	r3, [sp, #272]
 3551              		.loc 1 843 0
 3552 1458 09A0A0E1 		mov	sl, r9
 3553              		.loc 1 885 0
 3554 145c 0980A0E1 		mov	r8, r9
 3555              	.LVL733:
 3556              	.LVL734:
 3557              		.loc 1 809 0
 3558 1460 049889E1 		orr	r9, r9, r4, asl #16
 3559              	.LVL735:
 3560              		.loc 1 808 0
 3561 1464 044884E1 		orr	r4, r4, r4, asl #16
ARM GAS  /cygdrive/c/DOCUME~1/mkwapisz/LOCALS~1/Temp/cc1OEM1Z.s 			page 80


 3562 1468 84408DE5 		str	r4, [sp, #132]
 3563              		.loc 1 804 0
 3564 146c 03C08CE0 		add	ip, ip, r3
 3565 1470 14C18DE5 		str	ip, [sp, #276]
 3566              	.LVL736:
 3567              		.loc 1 808 0
 3568 1474 84C09DE5 		ldr	ip, [sp, #132]
 3569              		.loc 1 887 0
 3570 1478 07E0A0E1 		mov	lr, r7
 3571              	.LVL737:
 3572              		.loc 1 843 0
 3573 147c 04A88AE1 		orr	sl, sl, r4, asl #16
 3574              	.LVL738:
 3575              		.loc 1 842 0
 3576 1480 047887E1 		orr	r7, r7, r4, asl #16
 3577              		.loc 1 808 0
 3578 1484 0C9089E0 		add	r9, r9, ip
 3579              	.LVL739:
 3580              	.LVL740:
 3581              		.loc 1 867 0
 3582 1488 0E488EE1 		orr	r4, lr, lr, asl #16
 3583              	.LVL741:
 3584              		.loc 1 837 0
 3585 148c 4D3F8DE2 		add	r3, sp, #308
 3586 1490 081093E8 		ldmia	r3, {r3, ip}	@ phole ldm
 3587              	.LVL742:
 3588              		.loc 1 810 0
 3589 1494 2408A0E1 		mov	r0, r4, lsr #16
 3590              	.LVL743:
 3591              		.loc 1 886 0
 3592 1498 04588EE1 		orr	r5, lr, r4, asl #16
 3593              		.loc 1 842 0
 3594 149c 70708DE5 		str	r7, [sp, #112]
 3595              	.LVL744:
 3596              		.loc 1 844 0
 3597 14a0 2018A0E1 		mov	r1, r0, lsr #16
 3598              		.loc 1 837 0
 3599 14a4 0C3083E0 		add	r3, r3, ip
 3600              	.LVL745:
 3601              		.loc 1 810 0
 3602 14a8 000880E1 		orr	r0, r0, r0, asl #16
 3603              	.LVL746:
 3604              		.loc 1 867 0
 3605 14ac 4C408DE5 		str	r4, [sp, #76]
 3606              		.loc 1 887 0
 3607 14b0 05E0A0E1 		mov	lr, r5
 3608              		.loc 1 837 0
 3609 14b4 3C318DE5 		str	r3, [sp, #316]
 3610              	.LVL747:
 3611              	.LVL748:
 3612              		.loc 1 885 0
 3613 14b8 048888E1 		orr	r8, r8, r4, asl #16
 3614              	.LVL749:
 3615              		.loc 1 842 0
 3616 14bc 70309DE5 		ldr	r3, [sp, #112]
 3617              		.loc 1 811 0
 3618 14c0 0040A0E1 		mov	r4, r0
ARM GAS  /cygdrive/c/DOCUME~1/mkwapisz/LOCALS~1/Temp/cc1OEM1Z.s 			page 81


 3619              	.LVL750:
 3620              		.loc 1 862 0
 3621 14c4 0B2082E0 		add	r2, r2, fp
 3622              	.LVL751:
 3623              		.loc 1 886 0
 3624 14c8 0E8088E0 		add	r8, r8, lr
 3625              	.LVL752:
 3626              		.loc 1 811 0
 3627 14cc 049089E0 		add	r9, r9, r4
 3628              	.LVL753:
 3629              		.loc 1 887 0
 3630 14d0 0EE08EE0 		add	lr, lr, lr
 3631              		.loc 1 844 0
 3632 14d4 3C419DE5 		ldr	r4, [sp, #316]
 3633              		.loc 1 867 0
 3634 14d8 4CC09DE5 		ldr	ip, [sp, #76]
 3635              		.loc 1 887 0
 3636 14dc 18E18DE5 		str	lr, [sp, #280]
 3637              	.LVL754:
 3638              		.loc 1 890 0
 3639 14e0 28108DE5 		str	r1, [sp, #40]
 3640              		.loc 1 842 0
 3641 14e4 03A08AE0 		add	sl, sl, r3
 3642              	.LVL755:
 3643              	.LVL756:
 3644              		.loc 1 844 0
 3645 14e8 001881E1 		orr	r1, r1, r0, asl #16
 3646              		.loc 1 866 0
 3647 14ec 032082E0 		add	r2, r2, r3
 3648              	.LVL757:
 3649              		.loc 1 867 0
 3650 14f0 00309DE5 		ldr	r3, [sp, #0]
 3651              		.loc 1 889 0
 3652 14f4 01B0A0E1 		mov	fp, r1
 3653              		.loc 1 890 0
 3654 14f8 24108DE5 		str	r1, [sp, #36]
 3655              		.loc 1 844 0
 3656 14fc 011064E0 		rsb	r1, r4, r1
 3657              	.LVL758:
 3658              		.loc 1 890 0
 3659 1500 18419DE5 		ldr	r4, [sp, #280]
 3660              		.loc 1 867 0
 3661 1504 0C3083E0 		add	r3, r3, ip
 3662              		.loc 1 886 0
 3663 1508 34508DE5 		str	r5, [sp, #52]
 3664              		.loc 1 888 0
 3665 150c 2C508DE5 		str	r5, [sp, #44]
 3666              	.LVL759:
 3667              		.loc 1 845 0
 3668 1510 2558A0E1 		mov	r5, r5, lsr #16
 3669              	.LVL760:
 3670              	.LVL761:
 3671              		.loc 1 812 0
 3672 1514 20C8A0E1 		mov	ip, r0, lsr #16
 3673              		.loc 1 867 0
 3674 1518 00308DE5 		str	r3, [sp, #0]
 3675              	.LVL762:
ARM GAS  /cygdrive/c/DOCUME~1/mkwapisz/LOCALS~1/Temp/cc1OEM1Z.s 			page 82


 3676              	.LVL763:
 3677              		.loc 1 845 0
 3678 151c 005885E1 		orr	r5, r5, r0, asl #16
 3679              		.loc 1 890 0
 3680 1520 0B4084E0 		add	r4, r4, fp
 3681              		.loc 1 810 0
 3682 1524 14319DE5 		ldr	r3, [sp, #276]
 3683              		.loc 1 866 0
 3684 1528 54708DE5 		str	r7, [sp, #84]
 3685              		.loc 1 845 0
 3686 152c 05A08AE0 		add	sl, sl, r5
 3687              	.LVL764:
 3688              		.loc 1 889 0
 3689 1530 0B8088E0 		add	r8, r8, fp
 3690              	.LVL765:
 3691              		.loc 1 869 0
 3692 1534 00509DE5 		ldr	r5, [sp, #0]
 3693              	.LVL766:
 3694              		.loc 1 812 0
 3695 1538 04B88CE1 		orr	fp, ip, r4, asl #16
 3696              	.LVL767:
 3697              		.loc 1 869 0
 3698 153c 2778A0E1 		mov	r7, r7, lsr #16
 3699              	.LVL768:
 3700 1540 007887E1 		orr	r7, r7, r0, asl #16
 3701              		.loc 1 846 0
 3702 1544 6CC08DE5 		str	ip, [sp, #108]
 3703              		.loc 1 847 0
 3704 1548 64C08DE5 		str	ip, [sp, #100]
 3705              		.loc 1 870 0
 3706 154c 48C08DE5 		str	ip, [sp, #72]
 3707              		.loc 1 871 0
 3708 1550 40C08DE5 		str	ip, [sp, #64]
 3709              		.loc 1 891 0
 3710 1554 20C08DE5 		str	ip, [sp, #32]
 3711              		.loc 1 892 0
 3712 1558 18C08DE5 		str	ip, [sp, #24]
 3713              	.LVL769:
 3714              		.loc 1 890 0
 3715 155c 1C418DE5 		str	r4, [sp, #284]
 3716              	.LVL770:
 3717              		.loc 1 813 0
 3718 1560 80B08DE5 		str	fp, [sp, #128]
 3719              	.LVL771:
 3720              		.loc 1 868 0
 3721 1564 2668A0E1 		mov	r6, r6, lsr #16
 3722              	.LVL772:
 3723              		.loc 1 846 0
 3724 1568 68B08DE5 		str	fp, [sp, #104]
 3725              		.loc 1 847 0
 3726 156c 64409DE5 		ldr	r4, [sp, #100]
 3727              	.LVL773:
 3728              		.loc 1 868 0
 3729 1570 006886E1 		orr	r6, r6, r0, asl #16
 3730              	.LVL774:
 3731              		.loc 1 810 0
 3732 1574 000063E0 		rsb	r0, r3, r0
ARM GAS  /cygdrive/c/DOCUME~1/mkwapisz/LOCALS~1/Temp/cc1OEM1Z.s 			page 83


 3733              	.LVL775:
 3734              		.loc 1 869 0
 3735 1578 073085E0 		add	r3, r5, r7
 3736              	.LVL776:
 3737              		.loc 1 870 0
 3738 157c 48509DE5 		ldr	r5, [sp, #72]
 3739              	.LVL777:
 3740              		.loc 1 847 0
 3741 1580 044884E1 		orr	r4, r4, r4, asl #16
 3742              	.LVL778:
 3743              		.loc 1 870 0
 3744 1584 045885E1 		orr	r5, r5, r4, asl #16
 3745              	.LVL779:
 3746              		.loc 1 847 0
 3747 1588 60408DE5 		str	r4, [sp, #96]
 3748              		.loc 1 891 0
 3749 158c 20409DE5 		ldr	r4, [sp, #32]
 3750              	.LVL780:
 3751 1590 044884E1 		orr	r4, r4, r4, asl #16
 3752              	.LVL781:
 3753              		.loc 1 814 0
 3754 1594 24C8A0E1 		mov	ip, r4, lsr #16
 3755              		.loc 1 815 0
 3756 1598 0CE0A0E1 		mov	lr, ip
 3757              		.loc 1 814 0
 3758 159c 7CC08DE5 		str	ip, [sp, #124]
 3759              		.loc 1 847 0
 3760 15a0 60C09DE5 		ldr	ip, [sp, #96]
 3761              		.loc 1 870 0
 3762 15a4 44508DE5 		str	r5, [sp, #68]
 3763              		.loc 1 847 0
 3764 15a8 0CA08AE0 		add	sl, sl, ip
 3765              	.LVL782:
 3766              		.loc 1 870 0
 3767 15ac 44C09DE5 		ldr	ip, [sp, #68]
 3768              	.LVL783:
 3769              		.loc 1 891 0
 3770 15b0 1C408DE5 		str	r4, [sp, #28]
 3771              		.loc 1 871 0
 3772 15b4 0C3083E0 		add	r3, r3, ip
 3773              	.LVL784:
 3774 15b8 00308DE5 		str	r3, [sp, #0]
 3775              	.LVL785:
 3776              		.loc 1 891 0
 3777 15bc 1C309DE5 		ldr	r3, [sp, #28]
 3778              		.loc 1 868 0
 3779 15c0 062082E0 		add	r2, r2, r6
 3780              	.LVL786:
 3781              		.loc 1 892 0
 3782 15c4 14508DE5 		str	r5, [sp, #20]
 3783              		.loc 1 870 0
 3784 15c8 0C2082E0 		add	r2, r2, ip
 3785              	.LVL787:
 3786              		.loc 1 891 0
 3787 15cc 038088E0 		add	r8, r8, r3
 3788              	.LVL788:
 3789              		.loc 1 892 0
ARM GAS  /cygdrive/c/DOCUME~1/mkwapisz/LOCALS~1/Temp/cc1OEM1Z.s 			page 84


 3790 15d0 1CC19DE5 		ldr	ip, [sp, #284]
 3791 15d4 14309DE5 		ldr	r3, [sp, #20]
 3792              		.loc 1 812 0
 3793 15d8 0B0080E0 		add	r0, r0, fp
 3794              	.LVL789:
 3795              		.loc 1 813 0
 3796 15dc 0B9089E0 		add	r9, r9, fp
 3797              	.LVL790:
 3798              		.loc 1 846 0
 3799 15e0 0B1081E0 		add	r1, r1, fp
 3800              	.LVL791:
 3801              		.loc 1 871 0
 3802 15e4 3C508DE5 		str	r5, [sp, #60]
 3803              		.loc 1 892 0
 3804 15e8 03B08CE0 		add	fp, ip, r3
 3805              	.LVL792:
 3806              	.LVL793:
 3807              		.loc 1 849 0
 3808 15ec 2558A0E1 		mov	r5, r5, lsr #16
 3809              	.LVL794:
 3810              	.LVL795:
 3811              		.loc 1 814 0
 3812 15f0 0EC88EE1 		orr	ip, lr, lr, asl #16
 3813              	.LVL796:
 3814              		.loc 1 872 0
 3815 15f4 2668A0E1 		mov	r6, r6, lsr #16
 3816              	.LVL797:
 3817              	.LVL798:
 3818              		.loc 1 873 0
 3819 15f8 2778A0E1 		mov	r7, r7, lsr #16
 3820              	.LVL799:
 3821 15fc 00409DE5 		ldr	r4, [sp, #0]
 3822              	.LVL800:
 3823              		.loc 1 849 0
 3824 1600 0C5885E1 		orr	r5, r5, ip, asl #16
 3825              	.LVL801:
 3826              		.loc 1 872 0
 3827 1604 0C6886E1 		orr	r6, r6, ip, asl #16
 3828              	.LVL802:
 3829              		.loc 1 873 0
 3830 1608 0C7887E1 		orr	r7, r7, ip, asl #16
 3831              		.loc 1 849 0
 3832 160c 05A08AE0 		add	sl, sl, r5
 3833              	.LVL803:
 3834              	.LVL804:
 3835              		.loc 1 814 0
 3836 1610 0C0080E0 		add	r0, r0, ip
 3837              	.LVL805:
 3838              		.loc 1 815 0
 3839 1614 0C9089E0 		add	r9, r9, ip
 3840              	.LVL806:
 3841              		.loc 1 848 0
 3842 1618 0C1081E0 		add	r1, r1, ip
 3843              	.LVL807:
 3844              		.loc 1 872 0
 3845 161c 062082E0 		add	r2, r2, r6
 3846              	.LVL808:
ARM GAS  /cygdrive/c/DOCUME~1/mkwapisz/LOCALS~1/Temp/cc1OEM1Z.s 			page 85


 3847              		.loc 1 873 0
 3848 1620 073084E0 		add	r3, r4, r7
 3849              	.LVL809:
 3850              		.loc 1 894 0
 3851 1624 0B8088E0 		add	r8, r8, fp
 3852              	.LVL810:
 3853              		.loc 1 817 0
 3854 1628 090080E0 		add	r0, r0, r9
 3855              	.LVL811:
 3856              		.loc 1 851 0
 3857 162c 0A1081E0 		add	r1, r1, sl
 3858              	.LVL812:
 3859              		.loc 1 875 0
 3860 1630 032082E0 		add	r2, r2, r3
 3861              	.LVL813:
 3862              		.loc 1 894 0
 3863 1634 008068E2 		rsb	r8, r8, #0
 3864 1638 0050A0E3 		mov	r5, #0
 3865              		.loc 1 815 0
 3866 163c 0CE0A0E1 		mov	lr, ip
 3867              		.loc 1 814 0
 3868 1640 78C08DE5 		str	ip, [sp, #120]
 3869              		.loc 1 817 0
 3870 1644 E8008DE5 		str	r0, [sp, #232]
 3871              	.LVL814:
 3872              		.loc 1 851 0
 3873 1648 F4108DE5 		str	r1, [sp, #244]
 3874              	.LVL815:
 3875              		.loc 1 875 0
 3876 164c F8208DE5 		str	r2, [sp, #248]
 3877              	.LVL816:
 3878              		.loc 1 894 0
 3879 1650 F0808DE5 		str	r8, [sp, #240]
 3880              	.LVL817:
 3881 1654 DC508DE5 		str	r5, [sp, #220]
 3882              	.LVL818:
 3883 1658 C90100EA 		b	.L45
 3884              	.LVL819:
 3885              	.L46:
 3886              		.loc 1 773 0
 3887 165c 2020A0E3 		mov	r2, #32
 3888 1660 570F8DE2 		add	r0, sp, #348
 3889              		.loc 1 774 0
 3890 1664 02C080E0 		add	ip, r0, r2
 3891              		.loc 1 773 0
 3892 1668 0010A0E3 		mov	r1, #0
 3893              		.loc 1 774 0
 3894 166c A4C08DE5 		str	ip, [sp, #164]
 3895              		.loc 1 773 0
 3896 1670 FEFFFFEB 		bl	memset
 3897              		.loc 1 774 0
 3898 1674 0010A0E3 		mov	r1, #0
 3899 1678 2020A0E3 		mov	r2, #32
 3900 167c A4009DE5 		ldr	r0, [sp, #164]
 3901 1680 FEFFFFEB 		bl	memset
 3902              		.loc 1 796 0
 3903 1684 D4009DE5 		ldr	r0, [sp, #212]
ARM GAS  /cygdrive/c/DOCUME~1/mkwapisz/LOCALS~1/Temp/cc1OEM1Z.s 			page 86


 3904 1688 013040E2 		sub	r3, r0, #1
 3905 168c 0F3003E2 		and	r3, r3, #15
 3906 1690 013083E3 		orr	r3, r3, #1
 3907 1694 04179FE5 		ldr	r1, .L55
 3908              		.loc 1 807 0
 3909 1698 0120C0E3 		bic	r2, r0, #1
 3910              		.loc 1 796 0
 3911 169c 0331A0E1 		mov	r3, r3, asl #2
 3912              		.loc 1 807 0
 3913 16a0 0221A0E1 		mov	r2, r2, asl #2
 3914              		.loc 1 796 0
 3915 16a4 B0308DE5 		str	r3, [sp, #176]
 3916              		.loc 1 807 0
 3917 16a8 01B082E0 		add	fp, r2, r1
 3918              	.LVL820:
 3919 16ac D0208DE5 		str	r2, [sp, #208]
 3920              		.loc 1 796 0
 3921 16b0 B0209DE5 		ldr	r2, [sp, #176]
 3922 16b4 9C409DE5 		ldr	r4, [sp, #156]
 3923 16b8 DC509DE5 		ldr	r5, [sp, #220]
 3924 16bc 019082E0 		add	r9, r2, r1
 3925              	.LVL821:
 3926              		.loc 1 791 0
 3927 16c0 0030E0E1 		mvn	r3, r0
 3928 16c4 851384E0 		add	r1, r4, r5, asl #7
 3929              		.loc 1 782 0
 3930 16c8 012000E2 		and	r2, r0, #1
 3931              		.loc 1 791 0
 3932 16cc 013003E2 		and	r3, r3, #1
 3933              	.LBB346:
 3934              		.loc 1 799 0
 3935 16d0 300089E2 		add	r0, r9, #48
 3936              	.LBE346:
 3937              		.loc 1 782 0
 3938 16d4 8224A0E1 		mov	r2, r2, asl #9
 3939              		.loc 1 791 0
 3940 16d8 8334A0E1 		mov	r3, r3, asl #9
 3941 16dc 301081E2 		add	r1, r1, #48
 3942              	.LBB347:
 3943              		.loc 1 798 0
 3944 16e0 38C089E2 		add	ip, r9, #56
 3945              	.LBE347:
 3946              	.LBB348:
 3947              		.loc 1 799 0
 3948 16e4 B8008DE5 		str	r0, [sp, #184]
 3949              	.LBE348:
 3950              	.LBB349:
 3951              		.loc 1 810 0
 3952 16e8 30008BE2 		add	r0, fp, #48
 3953              	.LBE349:
 3954              	.LBB350:
 3955              		.loc 1 803 0
 3956 16ec 104089E2 		add	r4, r9, #16
 3957              	.LBE350:
 3958              	.LBB351:
 3959              		.loc 1 804 0
 3960 16f0 085089E2 		add	r5, r9, #8
ARM GAS  /cygdrive/c/DOCUME~1/mkwapisz/LOCALS~1/Temp/cc1OEM1Z.s 			page 87


 3961              	.LBE351:
 3962              		.loc 1 782 0
 3963 16f4 A8208DE5 		str	r2, [sp, #168]
 3964              		.loc 1 791 0
 3965 16f8 AC308DE5 		str	r3, [sp, #172]
 3966              	.LBB352:
 3967              		.loc 1 801 0
 3968 16fc 202089E2 		add	r2, r9, #32
 3969              	.LBE352:
 3970              	.LBB353:
 3971              		.loc 1 802 0
 3972 1700 183089E2 		add	r3, r9, #24
 3973 1704 08108DE5 		str	r1, [sp, #8]
 3974              	.LBE353:
 3975              	.LBB354:
 3976              		.loc 1 798 0
 3977 1708 B4C08DE5 		str	ip, [sp, #180]
 3978              	.LBE354:
 3979              	.LBB355:
 3980              		.loc 1 800 0
 3981 170c 281089E2 		add	r1, r9, #40
 3982              	.LBE355:
 3983              	.LBB356:
 3984              		.loc 1 809 0
 3985 1710 38C08BE2 		add	ip, fp, #56
 3986              	.LBE356:
 3987              	.LBB357:
 3988              		.loc 1 810 0
 3989 1714 44018DE5 		str	r0, [sp, #324]
 3990 1718 A0009DE5 		ldr	r0, [sp, #160]
 3991              	.LBE357:
 3992              	.LBB358:
 3993              		.loc 1 800 0
 3994 171c BC108DE5 		str	r1, [sp, #188]
 3995              	.LBE358:
 3996              	.LBB359:
 3997              		.loc 1 801 0
 3998 1720 C0208DE5 		str	r2, [sp, #192]
 3999              	.LBE359:
 4000              	.LBB360:
 4001              		.loc 1 802 0
 4002 1724 C4308DE5 		str	r3, [sp, #196]
 4003              	.LBE360:
 4004              	.LBB361:
 4005              		.loc 1 803 0
 4006 1728 C8408DE5 		str	r4, [sp, #200]
 4007              	.LBE361:
 4008              	.LBB362:
 4009              		.loc 1 804 0
 4010 172c CC508DE5 		str	r5, [sp, #204]
 4011              	.LBE362:
 4012              	.LBB363:
 4013              		.loc 1 809 0
 4014 1730 40C18DE5 		str	ip, [sp, #320]
 4015              	.LBE363:
 4016              	.LBB364:
 4017              		.loc 1 811 0
ARM GAS  /cygdrive/c/DOCUME~1/mkwapisz/LOCALS~1/Temp/cc1OEM1Z.s 			page 88


 4018 1734 28108BE2 		add	r1, fp, #40
 4019              	.LBE364:
 4020              	.LBB365:
 4021              		.loc 1 812 0
 4022 1738 20208BE2 		add	r2, fp, #32
 4023              	.LBE365:
 4024              	.LBB366:
 4025              		.loc 1 813 0
 4026 173c 18308BE2 		add	r3, fp, #24
 4027              	.LBE366:
 4028              	.LBB367:
 4029              		.loc 1 814 0
 4030 1740 10408BE2 		add	r4, fp, #16
 4031              	.LBE367:
 4032              	.LBB368:
 4033              		.loc 1 815 0
 4034 1744 08508BE2 		add	r5, fp, #8
 4035 1748 00C0A0E3 		mov	ip, #0
 4036              	.LBE368:
 4037              	.LBB369:
 4038              		.loc 1 811 0
 4039 174c 48118DE5 		str	r1, [sp, #328]
 4040              	.LBE369:
 4041              	.LBB370:
 4042              		.loc 1 812 0
 4043 1750 4C218DE5 		str	r2, [sp, #332]
 4044              	.LBE370:
 4045              	.LBB371:
 4046              		.loc 1 813 0
 4047 1754 50318DE5 		str	r3, [sp, #336]
 4048              	.LBE371:
 4049              	.LBB372:
 4050              		.loc 1 814 0
 4051 1758 54418DE5 		str	r4, [sp, #340]
 4052              	.LBE372:
 4053              	.LBB373:
 4054              		.loc 1 815 0
 4055 175c 58518DE5 		str	r5, [sp, #344]
 4056 1760 D8C08DE5 		str	ip, [sp, #216]
 4057 1764 04008DE5 		str	r0, [sp, #4]
 4058 1768 750100EA 		b	.L47
 4059              	.LVL822:
 4060              	.L48:
 4061              	.LBE373:
 4062              		.loc 1 782 0
 4063 176c 04109DE5 		ldr	r1, [sp, #4]
 4064 1770 A8209DE5 		ldr	r2, [sp, #168]
 4065 1774 D4309DE5 		ldr	r3, [sp, #212]
 4066 1778 024081E0 		add	r4, r1, r2
 4067              	.LVL823:
 4068 177c 08009DE5 		ldr	r0, [sp, #8]
 4069 1780 A310A0E1 		mov	r1, r3, lsr #1
 4070 1784 0420A0E1 		mov	r2, r4
 4071 1788 013B84E2 		add	r3, r4, #1024
 4072 178c 87FAFFEB 		bl	dct32
 4073              		.loc 1 791 0
 4074 1790 04C09DE5 		ldr	ip, [sp, #4]
ARM GAS  /cygdrive/c/DOCUME~1/mkwapisz/LOCALS~1/Temp/cc1OEM1Z.s 			page 89


 4075 1794 AC009DE5 		ldr	r0, [sp, #172]
 4076              	.LVL824:
 4077              	.LBB374:
 4078              		.loc 1 797 0
 4079 1798 003099E5 		ldr	r3, [r9, #0]
 4080              	.LBE374:
 4081              		.loc 1 791 0
 4082 179c 00508CE0 		add	r5, ip, r0
 4083              	.LVL825:
 4084              	.LBB375:
 4085              		.loc 1 797 0
 4086 17a0 00209CE7 		ldr	r2, [ip, r0]
 4087              	.LVL826:
 4088 17a4 0410A0E1 		mov	r1, r4
 4089              	.LVL827:
 4090 17a8 0400A0E1 		mov	r0, r4
 4091 17ac FEFFFFEB 		bl	MAD_F_MLX
 4092              	.LVL828:
 4093              	.LBE375:
 4094              	.LBB376:
 4095              		.loc 1 798 0
 4096 17b0 B4C09DE5 		ldr	ip, [sp, #180]
 4097 17b4 042095E5 		ldr	r2, [r5, #4]
 4098 17b8 00309CE5 		ldr	r3, [ip, #0]
 4099              	.LVL829:
 4100 17bc 0410A0E1 		mov	r1, r4
 4101              	.LVL830:
 4102 17c0 0400A0E1 		mov	r0, r4
 4103 17c4 FEFFFFEB 		bl	MAD_F_MLX
 4104              	.LVL831:
 4105              	.LBE376:
 4106              	.LBB377:
 4107              		.loc 1 799 0
 4108 17c8 B8C09DE5 		ldr	ip, [sp, #184]
 4109 17cc 082095E5 		ldr	r2, [r5, #8]
 4110 17d0 00309CE5 		ldr	r3, [ip, #0]
 4111              	.LVL832:
 4112 17d4 0410A0E1 		mov	r1, r4
 4113              	.LVL833:
 4114 17d8 0400A0E1 		mov	r0, r4
 4115 17dc FEFFFFEB 		bl	MAD_F_MLX
 4116              	.LVL834:
 4117              	.LBE377:
 4118              	.LBB378:
 4119              		.loc 1 800 0
 4120 17e0 BCC09DE5 		ldr	ip, [sp, #188]
 4121 17e4 0C2095E5 		ldr	r2, [r5, #12]
 4122 17e8 00309CE5 		ldr	r3, [ip, #0]
 4123              	.LVL835:
 4124 17ec 0410A0E1 		mov	r1, r4
 4125              	.LVL836:
 4126 17f0 0400A0E1 		mov	r0, r4
 4127 17f4 FEFFFFEB 		bl	MAD_F_MLX
 4128              	.LVL837:
 4129              	.LBE378:
 4130              	.LBB379:
 4131              		.loc 1 801 0
ARM GAS  /cygdrive/c/DOCUME~1/mkwapisz/LOCALS~1/Temp/cc1OEM1Z.s 			page 90


 4132 17f8 C0C09DE5 		ldr	ip, [sp, #192]
 4133 17fc 102095E5 		ldr	r2, [r5, #16]
 4134 1800 00309CE5 		ldr	r3, [ip, #0]
 4135              	.LVL838:
 4136 1804 0410A0E1 		mov	r1, r4
 4137              	.LVL839:
 4138 1808 0400A0E1 		mov	r0, r4
 4139 180c FEFFFFEB 		bl	MAD_F_MLX
 4140              	.LVL840:
 4141              	.LBE379:
 4142              	.LBB380:
 4143              		.loc 1 802 0
 4144 1810 C4C09DE5 		ldr	ip, [sp, #196]
 4145 1814 142095E5 		ldr	r2, [r5, #20]
 4146 1818 00309CE5 		ldr	r3, [ip, #0]
 4147              	.LVL841:
 4148 181c 0410A0E1 		mov	r1, r4
 4149              	.LVL842:
 4150 1820 0400A0E1 		mov	r0, r4
 4151 1824 FEFFFFEB 		bl	MAD_F_MLX
 4152              	.LVL843:
 4153              	.LBE380:
 4154              	.LBB381:
 4155              		.loc 1 803 0
 4156 1828 C8C09DE5 		ldr	ip, [sp, #200]
 4157 182c 182095E5 		ldr	r2, [r5, #24]
 4158 1830 00309CE5 		ldr	r3, [ip, #0]
 4159              	.LVL844:
 4160 1834 0410A0E1 		mov	r1, r4
 4161              	.LVL845:
 4162 1838 0400A0E1 		mov	r0, r4
 4163 183c FEFFFFEB 		bl	MAD_F_MLX
 4164              	.LVL846:
 4165              	.LBE381:
 4166              	.LBB382:
 4167              		.loc 1 804 0
 4168 1840 CCC09DE5 		ldr	ip, [sp, #204]
 4169 1844 1C2095E5 		ldr	r2, [r5, #28]
 4170 1848 00309CE5 		ldr	r3, [ip, #0]
 4171              	.LVL847:
 4172 184c 0410A0E1 		mov	r1, r4
 4173              	.LVL848:
 4174 1850 0400A0E1 		mov	r0, r4
 4175 1854 FEFFFFEB 		bl	MAD_F_MLX
 4176              	.LVL849:
 4177              	.LBE382:
 4178              	.LBB383:
 4179              		.loc 1 808 0
 4180 1858 04309DE5 		ldr	r3, [sp, #4]
 4181 185c A8C09DE5 		ldr	ip, [sp, #168]
 4182              	.LVL850:
 4183 1860 0410A0E1 		mov	r1, r4
 4184 1864 0C2093E7 		ldr	r2, [r3, ip]
 4185              	.LVL851:
 4186 1868 0400A0E1 		mov	r0, r4
 4187 186c 00309BE5 		ldr	r3, [fp, #0]
 4188 1870 FEFFFFEB 		bl	MAD_F_MLX
ARM GAS  /cygdrive/c/DOCUME~1/mkwapisz/LOCALS~1/Temp/cc1OEM1Z.s 			page 91


 4189              	.LVL852:
 4190              	.LBE383:
 4191              	.LBB384:
 4192              		.loc 1 809 0
 4193 1874 40C19DE5 		ldr	ip, [sp, #320]
 4194              	.LVL853:
 4195 1878 0910A0E1 		mov	r1, r9
 4196 187c 00309CE5 		ldr	r3, [ip, #0]
 4197              	.LVL854:
 4198 1880 042094E5 		ldr	r2, [r4, #4]
 4199              	.LVL855:
 4200 1884 0400A0E1 		mov	r0, r4
 4201 1888 FEFFFFEB 		bl	MAD_F_MLX
 4202              	.LBE384:
 4203              	.LBB385:
 4204              		.loc 1 810 0
 4205 188c 44C19DE5 		ldr	ip, [sp, #324]
 4206              	.LVL856:
 4207 1890 0410A0E1 		mov	r1, r4
 4208 1894 00309CE5 		ldr	r3, [ip, #0]
 4209              	.LVL857:
 4210 1898 082094E5 		ldr	r2, [r4, #8]
 4211              	.LVL858:
 4212 189c 0400A0E1 		mov	r0, r4
 4213 18a0 FEFFFFEB 		bl	MAD_F_MLX
 4214              	.LVL859:
 4215              	.LBE385:
 4216              	.LBB386:
 4217              		.loc 1 811 0
 4218 18a4 48C19DE5 		ldr	ip, [sp, #328]
 4219              	.LVL860:
 4220 18a8 0410A0E1 		mov	r1, r4
 4221 18ac 00309CE5 		ldr	r3, [ip, #0]
 4222              	.LVL861:
 4223 18b0 0C2094E5 		ldr	r2, [r4, #12]
 4224              	.LVL862:
 4225 18b4 0400A0E1 		mov	r0, r4
 4226 18b8 FEFFFFEB 		bl	MAD_F_MLX
 4227              	.LVL863:
 4228              	.LBE386:
 4229              	.LBB387:
 4230              		.loc 1 812 0
 4231 18bc 4CC19DE5 		ldr	ip, [sp, #332]
 4232              	.LVL864:
 4233 18c0 0410A0E1 		mov	r1, r4
 4234 18c4 00309CE5 		ldr	r3, [ip, #0]
 4235              	.LVL865:
 4236 18c8 102094E5 		ldr	r2, [r4, #16]
 4237              	.LVL866:
 4238 18cc 0400A0E1 		mov	r0, r4
 4239 18d0 FEFFFFEB 		bl	MAD_F_MLX
 4240              	.LVL867:
 4241              	.LBE387:
 4242              	.LBB388:
 4243              		.loc 1 813 0
 4244 18d4 50C19DE5 		ldr	ip, [sp, #336]
 4245              	.LVL868:
ARM GAS  /cygdrive/c/DOCUME~1/mkwapisz/LOCALS~1/Temp/cc1OEM1Z.s 			page 92


 4246 18d8 0410A0E1 		mov	r1, r4
 4247 18dc 00309CE5 		ldr	r3, [ip, #0]
 4248              	.LVL869:
 4249 18e0 142094E5 		ldr	r2, [r4, #20]
 4250              	.LVL870:
 4251 18e4 0400A0E1 		mov	r0, r4
 4252 18e8 FEFFFFEB 		bl	MAD_F_MLX
 4253              	.LVL871:
 4254              	.LBE388:
 4255              	.LBB389:
 4256              		.loc 1 814 0
 4257 18ec 54C19DE5 		ldr	ip, [sp, #340]
 4258              	.LVL872:
 4259 18f0 0410A0E1 		mov	r1, r4
 4260 18f4 00309CE5 		ldr	r3, [ip, #0]
 4261              	.LVL873:
 4262 18f8 182094E5 		ldr	r2, [r4, #24]
 4263              	.LVL874:
 4264 18fc 0400A0E1 		mov	r0, r4
 4265 1900 FEFFFFEB 		bl	MAD_F_MLX
 4266              	.LVL875:
 4267              	.LBE389:
 4268              	.LBB390:
 4269              		.loc 1 815 0
 4270 1904 58C19DE5 		ldr	ip, [sp, #344]
 4271              	.LVL876:
 4272 1908 0410A0E1 		mov	r1, r4
 4273              	.LVL877:
 4274 190c 1C2094E5 		ldr	r2, [r4, #28]
 4275 1910 00309CE5 		ldr	r3, [ip, #0]
 4276              	.LVL878:
 4277 1914 0400A0E1 		mov	r0, r4
 4278 1918 FEFFFFEB 		bl	MAD_F_MLX
 4279              	.LVL879:
 4280              	.LBE390:
 4281              		.loc 1 818 0
 4282 191c E8009DE5 		ldr	r0, [sp, #232]
 4283 1920 B6F9FFEB 		bl	scale
 4284              		.loc 1 780 0
 4285 1924 D8309DE5 		ldr	r3, [sp, #216]
 4286 1928 571F8DE2 		add	r1, sp, #348
 4287 192c 8322A0E1 		mov	r2, r3, asl #5
 4288              		.loc 1 818 0
 4289 1930 B23091E1 		ldrh	r3, [r1, r2]
 4290 1934 003083E0 		add	r3, r3, r0
 4291              		.loc 1 780 0
 4292 1938 020081E0 		add	r0, r1, r2
 4293              	.LVL880:
 4294              		.loc 1 819 0
 4295 193c 0080A0E1 		mov	r8, r0
 4296              	.LVL881:
 4297 1940 020080E2 		add	r0, r0, #2
 4298              	.LVL882:
 4299 1944 0560A0E1 		mov	r6, r5
 4300              		.loc 1 818 0
 4301 1948 B23081E1 		strh	r3, [r1, r2]	@ movhi
 4302              		.loc 1 792 0
ARM GAS  /cygdrive/c/DOCUME~1/mkwapisz/LOCALS~1/Temp/cc1OEM1Z.s 			page 93


 4303 194c 015B85E2 		add	r5, r5, #1024
 4304              	.LVL883:
 4305              		.loc 1 819 0
 4306 1950 48A49FE5 		ldr	sl, .L55
 4307              	.LVL884:
 4308 1954 EC008DE5 		str	r0, [sp, #236]
 4309              		.loc 1 792 0
 4310 1958 E0508DE5 		str	r5, [sp, #224]
 4311              	.LVL885:
 4312              		.loc 1 819 0
 4313 195c 0470A0E1 		mov	r7, r4
 4314 1960 0850A0E1 		mov	r5, r8
 4315              	.L49:
 4316              		.loc 1 829 0
 4317 1964 B0C09DE5 		ldr	ip, [sp, #176]
 4318              		.loc 1 825 0
 4319 1968 80A08AE2 		add	sl, sl, #128
 4320              		.loc 1 829 0
 4321 196c 0C408AE0 		add	r4, sl, ip
 4322              	.LVL886:
 4323              	.LBB391:
 4324              		.loc 1 830 0
 4325 1970 0C309AE7 		ldr	r3, [sl, ip]
 4326 1974 002496E5 		ldr	r2, [r6, #1024]
 4327              	.LVL887:
 4328 1978 0410A0E1 		mov	r1, r4
 4329              	.LVL888:
 4330 197c 0400A0E1 		mov	r0, r4
 4331 1980 FEFFFFEB 		bl	MAD_F_MLX
 4332              	.LVL889:
 4333              	.LBE391:
 4334              	.LBB392:
 4335              		.loc 1 831 0
 4336 1984 042496E5 		ldr	r2, [r6, #1028]
 4337              	.LVL890:
 4338 1988 383094E5 		ldr	r3, [r4, #56]
 4339              	.LVL891:
 4340 198c 0400A0E1 		mov	r0, r4
 4341              	.LVL892:
 4342 1990 0910A0E1 		mov	r1, r9
 4343 1994 FEFFFFEB 		bl	MAD_F_MLX
 4344              	.LBE392:
 4345              	.LBB393:
 4346              		.loc 1 832 0
 4347 1998 082496E5 		ldr	r2, [r6, #1032]
 4348              	.LVL893:
 4349 199c 303094E5 		ldr	r3, [r4, #48]
 4350              	.LVL894:
 4351 19a0 0400A0E1 		mov	r0, r4
 4352              	.LVL895:
 4353 19a4 0A10A0E1 		mov	r1, sl
 4354 19a8 FEFFFFEB 		bl	MAD_F_MLX
 4355              	.LVL896:
 4356              	.LBE393:
 4357              	.LBB394:
 4358              		.loc 1 833 0
 4359 19ac 0410A0E1 		mov	r1, r4
ARM GAS  /cygdrive/c/DOCUME~1/mkwapisz/LOCALS~1/Temp/cc1OEM1Z.s 			page 94


 4360 19b0 0C2496E5 		ldr	r2, [r6, #1036]
 4361              	.LVL897:
 4362 19b4 283094E5 		ldr	r3, [r4, #40]
 4363              	.LVL898:
 4364 19b8 0400A0E1 		mov	r0, r4
 4365 19bc FEFFFFEB 		bl	MAD_F_MLX
 4366              	.LVL899:
 4367              	.LVL900:
 4368              	.LBE394:
 4369              	.LBB395:
 4370              		.loc 1 834 0
 4371 19c0 0410A0E1 		mov	r1, r4
 4372 19c4 102496E5 		ldr	r2, [r6, #1040]
 4373              	.LVL901:
 4374 19c8 203094E5 		ldr	r3, [r4, #32]
 4375              	.LVL902:
 4376 19cc 0400A0E1 		mov	r0, r4
 4377 19d0 FEFFFFEB 		bl	MAD_F_MLX
 4378              	.LVL903:
 4379              	.LVL904:
 4380              	.LBE395:
 4381              	.LBB396:
 4382              		.loc 1 835 0
 4383 19d4 0510A0E1 		mov	r1, r5
 4384 19d8 142496E5 		ldr	r2, [r6, #1044]
 4385              	.LVL905:
 4386 19dc 183094E5 		ldr	r3, [r4, #24]
 4387              	.LVL906:
 4388 19e0 0400A0E1 		mov	r0, r4
 4389 19e4 FEFFFFEB 		bl	MAD_F_MLX
 4390              	.LVL907:
 4391              	.LBE396:
 4392              	.LBB397:
 4393              		.loc 1 836 0
 4394 19e8 0410A0E1 		mov	r1, r4
 4395 19ec 182496E5 		ldr	r2, [r6, #1048]
 4396              	.LVL908:
 4397 19f0 103094E5 		ldr	r3, [r4, #16]
 4398              	.LVL909:
 4399 19f4 0400A0E1 		mov	r0, r4
 4400 19f8 FEFFFFEB 		bl	MAD_F_MLX
 4401              	.LVL910:
 4402              	.LBE397:
 4403              		.loc 1 840 0
 4404 19fc D0209DE5 		ldr	r2, [sp, #208]
 4405              	.LVL911:
 4406              	.LBB398:
 4407              		.loc 1 837 0
 4408 1a00 0410A0E1 		mov	r1, r4
 4409              	.LVL912:
 4410 1a04 083094E5 		ldr	r3, [r4, #8]
 4411              	.LVL913:
 4412 1a08 0400A0E1 		mov	r0, r4
 4413              	.LVL914:
 4414              	.LBE398:
 4415              		.loc 1 840 0
 4416 1a0c 02408AE0 		add	r4, sl, r2
ARM GAS  /cygdrive/c/DOCUME~1/mkwapisz/LOCALS~1/Temp/cc1OEM1Z.s 			page 95


 4417              	.LVL915:
 4418              	.LBB399:
 4419              		.loc 1 837 0
 4420 1a10 1C2496E5 		ldr	r2, [r6, #1052]
 4421 1a14 FEFFFFEB 		bl	MAD_F_MLX
 4422              	.LVL916:
 4423              	.LBE399:
 4424              	.LBB400:
 4425              		.loc 1 842 0
 4426 1a18 3C2097E5 		ldr	r2, [r7, #60]
 4427 1a1c 083094E5 		ldr	r3, [r4, #8]
 4428              	.LVL917:
 4429 1a20 0410A0E1 		mov	r1, r4
 4430              	.LVL918:
 4431 1a24 0400A0E1 		mov	r0, r4
 4432 1a28 FEFFFFEB 		bl	MAD_F_MLX
 4433              	.LVL919:
 4434              	.LBE400:
 4435              	.LBB401:
 4436              		.loc 1 843 0
 4437 1a2c 382097E5 		ldr	r2, [r7, #56]
 4438              	.LVL920:
 4439 1a30 103094E5 		ldr	r3, [r4, #16]
 4440              	.LVL921:
 4441 1a34 0400A0E1 		mov	r0, r4
 4442              	.LVL922:
 4443 1a38 0A10A0E1 		mov	r1, sl
 4444 1a3c FEFFFFEB 		bl	MAD_F_MLX
 4445              	.LVL923:
 4446              	.LBE401:
 4447              	.LBB402:
 4448              		.loc 1 844 0
 4449 1a40 0410A0E1 		mov	r1, r4
 4450 1a44 342097E5 		ldr	r2, [r7, #52]
 4451              	.LVL924:
 4452 1a48 183094E5 		ldr	r3, [r4, #24]
 4453              	.LVL925:
 4454 1a4c 0400A0E1 		mov	r0, r4
 4455 1a50 FEFFFFEB 		bl	MAD_F_MLX
 4456              	.LVL926:
 4457              	.LVL927:
 4458              	.LBE402:
 4459              	.LBB403:
 4460              		.loc 1 845 0
 4461 1a54 0510A0E1 		mov	r1, r5
 4462 1a58 302097E5 		ldr	r2, [r7, #48]
 4463              	.LVL928:
 4464 1a5c 203094E5 		ldr	r3, [r4, #32]
 4465              	.LVL929:
 4466 1a60 0400A0E1 		mov	r0, r4
 4467 1a64 FEFFFFEB 		bl	MAD_F_MLX
 4468              	.LVL930:
 4469              	.LBE403:
 4470              	.LBB404:
 4471              		.loc 1 846 0
 4472 1a68 0410A0E1 		mov	r1, r4
 4473 1a6c 2C2097E5 		ldr	r2, [r7, #44]
ARM GAS  /cygdrive/c/DOCUME~1/mkwapisz/LOCALS~1/Temp/cc1OEM1Z.s 			page 96


 4474              	.LVL931:
 4475 1a70 283094E5 		ldr	r3, [r4, #40]
 4476              	.LVL932:
 4477 1a74 0400A0E1 		mov	r0, r4
 4478 1a78 FEFFFFEB 		bl	MAD_F_MLX
 4479              	.LVL933:
 4480              	.LVL934:
 4481              	.LBE404:
 4482              	.LBB405:
 4483              		.loc 1 847 0
 4484 1a7c 0410A0E1 		mov	r1, r4
 4485 1a80 282097E5 		ldr	r2, [r7, #40]
 4486              	.LVL935:
 4487 1a84 303094E5 		ldr	r3, [r4, #48]
 4488              	.LVL936:
 4489 1a88 0400A0E1 		mov	r0, r4
 4490 1a8c FEFFFFEB 		bl	MAD_F_MLX
 4491              	.LVL937:
 4492              	.LVL938:
 4493              	.LBE405:
 4494              	.LBB406:
 4495              		.loc 1 848 0
 4496 1a90 0410A0E1 		mov	r1, r4
 4497              	.LVL939:
 4498 1a94 383094E5 		ldr	r3, [r4, #56]
 4499 1a98 242097E5 		ldr	r2, [r7, #36]
 4500              	.LVL940:
 4501 1a9c 0400A0E1 		mov	r0, r4
 4502 1aa0 FEFFFFEB 		bl	MAD_F_MLX
 4503              	.LVL941:
 4504              	.LVL942:
 4505              	.LBE406:
 4506              	.LBB407:
 4507              		.loc 1 849 0
 4508 1aa4 0400A0E1 		mov	r0, r4
 4509 1aa8 D0409DE5 		ldr	r4, [sp, #208]
 4510              	.LVL943:
 4511 1aac 0510A0E1 		mov	r1, r5
 4512 1ab0 202097E5 		ldr	r2, [r7, #32]
 4513              	.LVL944:
 4514 1ab4 04309AE7 		ldr	r3, [sl, r4]
 4515 1ab8 FEFFFFEB 		bl	MAD_F_MLX
 4516              	.LVL945:
 4517              	.LBE407:
 4518              		.loc 1 852 0
 4519 1abc F4009DE5 		ldr	r0, [sp, #244]
 4520 1ac0 4EF9FFEB 		bl	scale
 4521              	.LVL946:
 4522 1ac4 B2C0D5E1 		ldrh	ip, [r5, #2]
 4523 1ac8 00008CE0 		add	r0, ip, r0
 4524 1acc 0C008DE5 		str	r0, [sp, #12]
 4525              		.loc 1 855 0
 4526 1ad0 D0409DE5 		ldr	r4, [sp, #208]
 4527              		.loc 1 852 0
 4528 1ad4 0CC09DE5 		ldr	ip, [sp, #12]
 4529              		.loc 1 855 0
 4530 1ad8 0A4064E0 		rsb	r4, r4, sl
ARM GAS  /cygdrive/c/DOCUME~1/mkwapisz/LOCALS~1/Temp/cc1OEM1Z.s 			page 97


 4531              	.LVL947:
 4532              		.loc 1 852 0
 4533 1adc B2C0E5E1 		strh	ip, [r5, #2]!	@ movhi
 4534              	.LBB408:
 4535              		.loc 1 856 0
 4536 1ae0 202097E5 		ldr	r2, [r7, #32]
 4537 1ae4 3C3094E5 		ldr	r3, [r4, #60]
 4538              	.LVL948:
 4539 1ae8 0410A0E1 		mov	r1, r4
 4540              	.LVL949:
 4541 1aec 0400A0E1 		mov	r0, r4
 4542 1af0 FEFFFFEB 		bl	MAD_F_MLX
 4543              	.LVL950:
 4544              	.LVL951:
 4545              	.LBE408:
 4546              	.LBB409:
 4547              		.loc 1 857 0
 4548 1af4 0810A0E1 		mov	r1, r8
 4549 1af8 242097E5 		ldr	r2, [r7, #36]
 4550              	.LVL952:
 4551 1afc 443094E5 		ldr	r3, [r4, #68]
 4552              	.LVL953:
 4553 1b00 0400A0E1 		mov	r0, r4
 4554 1b04 FEFFFFEB 		bl	MAD_F_MLX
 4555              	.LVL954:
 4556              	.LBE409:
 4557              	.LBB410:
 4558              		.loc 1 858 0
 4559 1b08 0410A0E1 		mov	r1, r4
 4560 1b0c 282097E5 		ldr	r2, [r7, #40]
 4561              	.LVL955:
 4562 1b10 4C3094E5 		ldr	r3, [r4, #76]
 4563              	.LVL956:
 4564 1b14 0400A0E1 		mov	r0, r4
 4565 1b18 FEFFFFEB 		bl	MAD_F_MLX
 4566              	.LVL957:
 4567              	.LVL958:
 4568              	.LBE410:
 4569              	.LBB411:
 4570              		.loc 1 859 0
 4571 1b1c 0410A0E1 		mov	r1, r4
 4572 1b20 2C2097E5 		ldr	r2, [r7, #44]
 4573              	.LVL959:
 4574 1b24 543094E5 		ldr	r3, [r4, #84]
 4575              	.LVL960:
 4576 1b28 0400A0E1 		mov	r0, r4
 4577 1b2c FEFFFFEB 		bl	MAD_F_MLX
 4578              	.LVL961:
 4579              	.LVL962:
 4580              	.LBE411:
 4581              	.LBB412:
 4582              		.loc 1 860 0
 4583 1b30 0610A0E1 		mov	r1, r6
 4584 1b34 302097E5 		ldr	r2, [r7, #48]
 4585              	.LVL963:
 4586 1b38 5C3094E5 		ldr	r3, [r4, #92]
 4587              	.LVL964:
ARM GAS  /cygdrive/c/DOCUME~1/mkwapisz/LOCALS~1/Temp/cc1OEM1Z.s 			page 98


 4588 1b3c 0400A0E1 		mov	r0, r4
 4589 1b40 FEFFFFEB 		bl	MAD_F_MLX
 4590              	.LVL965:
 4591              	.LBE412:
 4592              	.LBB413:
 4593              		.loc 1 861 0
 4594 1b44 0710A0E1 		mov	r1, r7
 4595              	.LVL966:
 4596 1b48 342097E5 		ldr	r2, [r7, #52]
 4597              	.LVL967:
 4598 1b4c 643094E5 		ldr	r3, [r4, #100]
 4599              	.LVL968:
 4600 1b50 0400A0E1 		mov	r0, r4
 4601 1b54 FEFFFFEB 		bl	MAD_F_MLX
 4602              	.LVL969:
 4603              	.LVL970:
 4604              	.LBE413:
 4605              	.LBB414:
 4606              		.loc 1 862 0
 4607 1b58 0410A0E1 		mov	r1, r4
 4608 1b5c 382097E5 		ldr	r2, [r7, #56]
 4609              	.LVL971:
 4610 1b60 6C3094E5 		ldr	r3, [r4, #108]
 4611              	.LVL972:
 4612 1b64 0400A0E1 		mov	r0, r4
 4613 1b68 FEFFFFEB 		bl	MAD_F_MLX
 4614              	.LVL973:
 4615              	.LBE414:
 4616              		.loc 1 865 0
 4617 1b6c B0209DE5 		ldr	r2, [sp, #176]
 4618              	.LVL974:
 4619              	.LBB415:
 4620              		.loc 1 863 0
 4621 1b70 0410A0E1 		mov	r1, r4
 4622              	.LVL975:
 4623 1b74 743094E5 		ldr	r3, [r4, #116]
 4624              	.LVL976:
 4625 1b78 0400A0E1 		mov	r0, r4
 4626              	.LBE415:
 4627              		.loc 1 865 0
 4628 1b7c 0A4062E0 		rsb	r4, r2, sl
 4629              	.LVL977:
 4630              	.LBB416:
 4631              		.loc 1 863 0
 4632 1b80 3C2097E5 		ldr	r2, [r7, #60]
 4633 1b84 FEFFFFEB 		bl	MAD_F_MLX
 4634              	.LVL978:
 4635              	.LVL979:
 4636              	.LBE416:
 4637              	.LBB417:
 4638              		.loc 1 866 0
 4639 1b88 1C2496E5 		ldr	r2, [r6, #1052]
 4640 1b8c 743094E5 		ldr	r3, [r4, #116]
 4641              	.LVL980:
 4642 1b90 0410A0E1 		mov	r1, r4
 4643              	.LVL981:
 4644 1b94 0400A0E1 		mov	r0, r4
ARM GAS  /cygdrive/c/DOCUME~1/mkwapisz/LOCALS~1/Temp/cc1OEM1Z.s 			page 99


 4645 1b98 FEFFFFEB 		bl	MAD_F_MLX
 4646              	.LVL982:
 4647              	.LBE417:
 4648              	.LBB418:
 4649              		.loc 1 867 0
 4650 1b9c 182496E5 		ldr	r2, [r6, #1048]
 4651              	.LVL983:
 4652 1ba0 0410A0E1 		mov	r1, r4
 4653              	.LVL984:
 4654 1ba4 6C3094E5 		ldr	r3, [r4, #108]
 4655              	.LVL985:
 4656 1ba8 0400A0E1 		mov	r0, r4
 4657 1bac FEFFFFEB 		bl	MAD_F_MLX
 4658              	.LVL986:
 4659              	.LVL987:
 4660              	.LBE418:
 4661              	.LBB419:
 4662              		.loc 1 868 0
 4663 1bb0 0610A0E1 		mov	r1, r6
 4664              	.LVL988:
 4665 1bb4 142496E5 		ldr	r2, [r6, #1044]
 4666              	.LVL989:
 4667 1bb8 643094E5 		ldr	r3, [r4, #100]
 4668              	.LVL990:
 4669 1bbc 0400A0E1 		mov	r0, r4
 4670 1bc0 FEFFFFEB 		bl	MAD_F_MLX
 4671              	.LVL991:
 4672              	.LVL992:
 4673              	.LBE419:
 4674              	.LBB420:
 4675              		.loc 1 869 0
 4676 1bc4 0710A0E1 		mov	r1, r7
 4677 1bc8 102496E5 		ldr	r2, [r6, #1040]
 4678              	.LVL993:
 4679 1bcc 5C3094E5 		ldr	r3, [r4, #92]
 4680              	.LVL994:
 4681 1bd0 0400A0E1 		mov	r0, r4
 4682 1bd4 FEFFFFEB 		bl	MAD_F_MLX
 4683              	.LBE420:
 4684              	.LBB421:
 4685              		.loc 1 870 0
 4686 1bd8 0C2496E5 		ldr	r2, [r6, #1036]
 4687              	.LVL995:
 4688 1bdc 0410A0E1 		mov	r1, r4
 4689              	.LVL996:
 4690 1be0 543094E5 		ldr	r3, [r4, #84]
 4691              	.LVL997:
 4692 1be4 0400A0E1 		mov	r0, r4
 4693 1be8 FEFFFFEB 		bl	MAD_F_MLX
 4694              	.LVL998:
 4695              	.LBE421:
 4696              	.LBB422:
 4697              		.loc 1 871 0
 4698 1bec 082496E5 		ldr	r2, [r6, #1032]
 4699              	.LVL999:
 4700 1bf0 0410A0E1 		mov	r1, r4
 4701              	.LVL1000:
ARM GAS  /cygdrive/c/DOCUME~1/mkwapisz/LOCALS~1/Temp/cc1OEM1Z.s 			page 100


 4702 1bf4 4C3094E5 		ldr	r3, [r4, #76]
 4703              	.LVL1001:
 4704 1bf8 0400A0E1 		mov	r0, r4
 4705 1bfc FEFFFFEB 		bl	MAD_F_MLX
 4706              	.LVL1002:
 4707              	.LVL1003:
 4708              	.LBE422:
 4709              	.LBB423:
 4710              		.loc 1 872 0
 4711 1c00 0610A0E1 		mov	r1, r6
 4712              	.LVL1004:
 4713 1c04 042496E5 		ldr	r2, [r6, #1028]
 4714              	.LVL1005:
 4715 1c08 443094E5 		ldr	r3, [r4, #68]
 4716              	.LVL1006:
 4717 1c0c 0400A0E1 		mov	r0, r4
 4718 1c10 FEFFFFEB 		bl	MAD_F_MLX
 4719              	.LVL1007:
 4720              	.LBE423:
 4721              	.LBB424:
 4722              		.loc 1 873 0
 4723 1c14 002496E5 		ldr	r2, [r6, #1024]
 4724              	.LVL1008:
 4725 1c18 0710A0E1 		mov	r1, r7
 4726              	.LVL1009:
 4727 1c1c 3C3094E5 		ldr	r3, [r4, #60]
 4728              	.LVL1010:
 4729 1c20 0400A0E1 		mov	r0, r4
 4730 1c24 FEFFFFEB 		bl	MAD_F_MLX
 4731              	.LBE424:
 4732              		.loc 1 876 0
 4733 1c28 F8009DE5 		ldr	r0, [sp, #248]
 4734 1c2c F3F8FFEB 		bl	scale
 4735              	.LVL1011:
 4736 1c30 BE31D8E1 		ldrh	r3, [r8, #30]
 4737              		.loc 1 822 0
 4738 1c34 68219FE5 		ldr	r2, .L55+4
 4739              		.loc 1 876 0
 4740 1c38 003083E0 		add	r3, r3, r0
 4741              		.loc 1 822 0
 4742 1c3c 02005AE1 		cmp	sl, r2
 4743              		.loc 1 876 0
 4744 1c40 BE31C8E1 		strh	r3, [r8, #30]	@ movhi
 4745              	.LVL1012:
 4746 1c44 207087E2 		add	r7, r7, #32
 4747 1c48 206086E2 		add	r6, r6, #32
 4748 1c4c 028048E2 		sub	r8, r8, #2
 4749              		.loc 1 822 0
 4750 1c50 43FFFF1A 		bne	.L49
 4751              	.LBB425:
 4752              		.loc 1 885 0
 4753 1c54 B0509DE5 		ldr	r5, [sp, #176]
 4754 1c58 E0309DE5 		ldr	r3, [sp, #224]
 4755              	.LBE425:
 4756              		.loc 1 822 0
 4757 1c5c E0C09DE5 		ldr	ip, [sp, #224]
 4758              		.loc 1 884 0
ARM GAS  /cygdrive/c/DOCUME~1/mkwapisz/LOCALS~1/Temp/cc1OEM1Z.s 			page 101


 4759 1c60 80408AE2 		add	r4, sl, #128
 4760              	.LVL1013:
 4761              	.LBB426:
 4762              		.loc 1 885 0
 4763 1c64 E02193E5 		ldr	r2, [r3, #480]
 4764 1c68 043095E7 		ldr	r3, [r5, r4]
 4765              	.LBE426:
 4766              		.loc 1 884 0
 4767 1c6c 044085E0 		add	r4, r5, r4
 4768              	.LVL1014:
 4769              	.LVL1015:
 4770              	.LBB427:
 4771              		.loc 1 885 0
 4772 1c70 0400A0E1 		mov	r0, r4
 4773              	.LBE427:
 4774              		.loc 1 822 0
 4775 1c74 1E5E8CE2 		add	r5, ip, #480
 4776              	.LVL1016:
 4777              	.LVL1017:
 4778              	.LBB428:
 4779              		.loc 1 885 0
 4780 1c78 0810A0E1 		mov	r1, r8
 4781 1c7c FEFFFFEB 		bl	MAD_F_MLX
 4782              	.LVL1018:
 4783              	.LBE428:
 4784              	.LBB429:
 4785              		.loc 1 886 0
 4786 1c80 0410A0E1 		mov	r1, r4
 4787              	.LVL1019:
 4788 1c84 383094E5 		ldr	r3, [r4, #56]
 4789              	.LVL1020:
 4790 1c88 0400A0E1 		mov	r0, r4
 4791 1c8c 042095E5 		ldr	r2, [r5, #4]
 4792 1c90 FEFFFFEB 		bl	MAD_F_MLX
 4793              	.LVL1021:
 4794              	.LVL1022:
 4795              	.LBE429:
 4796              	.LBB430:
 4797              		.loc 1 887 0
 4798 1c94 0410A0E1 		mov	r1, r4
 4799              	.LVL1023:
 4800 1c98 303094E5 		ldr	r3, [r4, #48]
 4801              	.LVL1024:
 4802 1c9c 0400A0E1 		mov	r0, r4
 4803 1ca0 082095E5 		ldr	r2, [r5, #8]
 4804 1ca4 FEFFFFEB 		bl	MAD_F_MLX
 4805              	.LVL1025:
 4806              	.LVL1026:
 4807              	.LBE430:
 4808              	.LBB431:
 4809              		.loc 1 888 0
 4810 1ca8 0410A0E1 		mov	r1, r4
 4811              	.LVL1027:
 4812 1cac 283094E5 		ldr	r3, [r4, #40]
 4813              	.LVL1028:
 4814 1cb0 0400A0E1 		mov	r0, r4
 4815 1cb4 0C2095E5 		ldr	r2, [r5, #12]
ARM GAS  /cygdrive/c/DOCUME~1/mkwapisz/LOCALS~1/Temp/cc1OEM1Z.s 			page 102


 4816 1cb8 FEFFFFEB 		bl	MAD_F_MLX
 4817              	.LVL1029:
 4818              	.LVL1030:
 4819              	.LBE431:
 4820              	.LBB432:
 4821              		.loc 1 889 0
 4822 1cbc 0410A0E1 		mov	r1, r4
 4823              	.LVL1031:
 4824 1cc0 203094E5 		ldr	r3, [r4, #32]
 4825              	.LVL1032:
 4826 1cc4 0400A0E1 		mov	r0, r4
 4827 1cc8 102095E5 		ldr	r2, [r5, #16]
 4828 1ccc FEFFFFEB 		bl	MAD_F_MLX
 4829              	.LVL1033:
 4830              	.LVL1034:
 4831              	.LBE432:
 4832              	.LBB433:
 4833              		.loc 1 890 0
 4834 1cd0 0410A0E1 		mov	r1, r4
 4835              	.LVL1035:
 4836 1cd4 183094E5 		ldr	r3, [r4, #24]
 4837              	.LVL1036:
 4838 1cd8 0400A0E1 		mov	r0, r4
 4839 1cdc 142095E5 		ldr	r2, [r5, #20]
 4840 1ce0 FEFFFFEB 		bl	MAD_F_MLX
 4841              	.LVL1037:
 4842              	.LVL1038:
 4843              	.LBE433:
 4844              	.LBB434:
 4845              		.loc 1 891 0
 4846 1ce4 0410A0E1 		mov	r1, r4
 4847              	.LVL1039:
 4848 1ce8 103094E5 		ldr	r3, [r4, #16]
 4849              	.LVL1040:
 4850 1cec 0400A0E1 		mov	r0, r4
 4851 1cf0 182095E5 		ldr	r2, [r5, #24]
 4852 1cf4 FEFFFFEB 		bl	MAD_F_MLX
 4853              	.LVL1041:
 4854              	.LVL1042:
 4855              	.LBE434:
 4856              	.LBB435:
 4857              		.loc 1 892 0
 4858 1cf8 0410A0E1 		mov	r1, r4
 4859              	.LVL1043:
 4860 1cfc 083094E5 		ldr	r3, [r4, #8]
 4861 1d00 1C2095E5 		ldr	r2, [r5, #28]
 4862              	.LVL1044:
 4863 1d04 0400A0E1 		mov	r0, r4
 4864 1d08 FEFFFFEB 		bl	MAD_F_MLX
 4865              	.LVL1045:
 4866              	.LBE435:
 4867              		.loc 1 895 0
 4868 1d0c F0009DE5 		ldr	r0, [sp, #240]
 4869 1d10 BAF8FFEB 		bl	scale
 4870 1d14 EC109DE5 		ldr	r1, [sp, #236]
 4871 1d18 BE31D1E1 		ldrh	r3, [r1, #30]
 4872 1d1c 003083E0 		add	r3, r3, r0
ARM GAS  /cygdrive/c/DOCUME~1/mkwapisz/LOCALS~1/Temp/cc1OEM1Z.s 			page 103


 4873              		.loc 1 776 0
 4874 1d20 D8209DE5 		ldr	r2, [sp, #216]
 4875 1d24 08409DE5 		ldr	r4, [sp, #8]
 4876              	.LVL1046:
 4877              		.loc 1 895 0
 4878 1d28 BE31C1E1 		strh	r3, [r1, #30]	@ movhi
 4879 1d2c 04309DE5 		ldr	r3, [sp, #4]
 4880              		.loc 1 776 0
 4881 1d30 012082E2 		add	r2, r2, #1
 4882 1d34 023B83E2 		add	r3, r3, #2048
 4883 1d38 124C84E2 		add	r4, r4, #4608
 4884 1d3c D8208DE5 		str	r2, [sp, #216]
 4885 1d40 18008DE9 		stmib	sp, {r3, r4}	@ phole stm
 4886              	.LVL1047:
 4887              	.L47:
 4888 1d44 D8509DE5 		ldr	r5, [sp, #216]
 4889              	.LVL1048:
 4890 1d48 98C09DE5 		ldr	ip, [sp, #152]
 4891 1d4c 0C0055E1 		cmp	r5, ip
 4892 1d50 85FEFF1A 		bne	.L48
 4893              		.loc 1 901 0
 4894 1d54 A4109DE5 		ldr	r1, [sp, #164]
 4895 1d58 0C30A0E1 		mov	r3, ip
 4896 1d5c 570F8DE2 		add	r0, sp, #348
 4897 1d60 2020A0E3 		mov	r2, #32
 4898 1d64 FEFFFFEB 		bl	render_sample_block
 4899              		.loc 1 904 0
 4900 1d68 D4009DE5 		ldr	r0, [sp, #212]
 4901              		.loc 1 771 0
 4902 1d6c DC109DE5 		ldr	r1, [sp, #220]
 4903              		.loc 1 904 0
 4904 1d70 013080E2 		add	r3, r0, #1
 4905 1d74 0F3003E2 		and	r3, r3, #15
 4906              		.loc 1 771 0
 4907 1d78 011081E2 		add	r1, r1, #1
 4908              		.loc 1 904 0
 4909 1d7c D4308DE5 		str	r3, [sp, #212]
 4910              		.loc 1 771 0
 4911 1d80 DC108DE5 		str	r1, [sp, #220]
 4912              	.LVL1049:
 4913              	.L45:
 4914 1d84 DC209DE5 		ldr	r2, [sp, #220]
 4915 1d88 94309DE5 		ldr	r3, [sp, #148]
 4916              	.LVL1050:
 4917 1d8c 030052E1 		cmp	r2, r3
 4918 1d90 31FEFF1A 		bne	.L46
 4919              	.LVL1051:
 4920              	.L52:
 4921              		.loc 1 907 0
 4922 1d94 67DF8DE2 		add	sp, sp, #412
 4923 1d98 F04FBDE8 		ldmfd	sp!, {r4, r5, r6, r7, r8, r9, sl, fp, lr}
 4924 1d9c 1EFF2FE1 		bx	lr
 4925              	.L56:
 4926              		.align	2
 4927              	.L55:
 4928 1da0 00000000 		.word	D
 4929 1da4 80070000 		.word	D+1920
ARM GAS  /cygdrive/c/DOCUME~1/mkwapisz/LOCALS~1/Temp/cc1OEM1Z.s 			page 104


 4930              	.LFE7:
 4931              		.size	synth_half, .-synth_half
 4932              		.align	2
 4933              		.type	synth_full, %function
 4934              	synth_full:
 4935              	.LFB6:
 4936              		.loc 1 592 0
 4937              		@ Function supports interworking.
 4938              		@ args = 0, pretend = 0, frame = 476
 4939              		@ frame_needed = 0, uses_anonymous_args = 0
 4940              	.LVL1052:
 4941 1da8 F04F2DE9 		stmfd	sp!, {r4, r5, r6, r7, r8, r9, sl, fp, lr}
 4942              	.LCFI7:
 4943 1dac 77DF4DE2 		sub	sp, sp, #476
 4944              	.LCFI8:
 4945              		.loc 1 592 0
 4946 1db0 94308DE5 		str	r3, [sp, #148]
 4947              		.loc 1 604 0
 4948 1db4 013AA0E3 		mov	r3, #4096
 4949              	.LVL1053:
 4950 1db8 033090E7 		ldr	r3, [r0, r3]
 4951              		.loc 1 606 0
 4952 1dbc 020052E3 		cmp	r2, #2
 4953              		.loc 1 592 0
 4954 1dc0 98208DE5 		str	r2, [sp, #152]
 4955 1dc4 A0008DE5 		str	r0, [sp, #160]
 4956 1dc8 9C108DE5 		str	r1, [sp, #156]
 4957              		.loc 1 604 0
 4958 1dcc D4308DE5 		str	r3, [sp, #212]
 4959              	.LVL1054:
 4960              		.loc 1 606 0
 4961 1dd0 A902008A 		bhi	.L67
 4962              	.LVL1055:
 4963              	.LVL1056:
 4964              		.loc 1 635 0
 4965 1dd4 2408A0E1 		mov	r0, r4, lsr #16
 4966              	.LVL1057:
 4967              		.loc 1 637 0
 4968 1dd8 2058A0E1 		mov	r5, r0, lsr #16
 4969              	.LVL1058:
 4970              		.loc 1 635 0
 4971 1ddc 000880E1 		orr	r0, r0, r0, asl #16
 4972 1de0 E0008DE5 		str	r0, [sp, #224]
 4973              	.LVL1059:
 4974              		.loc 1 636 0
 4975 1de4 E0C09DE5 		ldr	ip, [sp, #224]
 4976              		.loc 1 671 0
 4977 1de8 0510A0E1 		mov	r1, r5
 4978 1dec 74508DE5 		str	r5, [sp, #116]
 4979              	.LVL1060:
 4980              		.loc 1 637 0
 4981 1df0 005885E1 		orr	r5, r5, r0, asl #16
 4982 1df4 88508DE5 		str	r5, [sp, #136]
 4983              		.loc 1 636 0
 4984 1df8 0C30A0E1 		mov	r3, ip
 4985 1dfc 0CC08CE0 		add	ip, ip, ip
 4986 1e00 F4C08DE5 		str	ip, [sp, #244]
ARM GAS  /cygdrive/c/DOCUME~1/mkwapisz/LOCALS~1/Temp/cc1OEM1Z.s 			page 105


 4987              	.LVL1061:
 4988              	.LVL1062:
 4989              		.loc 1 669 0
 4990 1e04 2998A0E1 		mov	r9, r9, lsr #16
 4991              	.LVL1063:
 4992              		.loc 1 637 0
 4993 1e08 03C0A0E1 		mov	ip, r3
 4994 1e0c 88309DE5 		ldr	r3, [sp, #136]
 4995              		.loc 1 671 0
 4996 1e10 0140A0E1 		mov	r4, r1
 4997              	.LVL1064:
 4998 1e14 01B881E1 		orr	fp, r1, r1, asl #16
 4999              	.LVL1065:
 5000              		.loc 1 669 0
 5001 1e18 009889E1 		orr	r9, r9, r0, asl #16
 5002              	.LVL1066:
 5003              		.loc 1 670 0
 5004 1e1c 2AA8A0E1 		mov	sl, sl, lsr #16
 5005              	.LVL1067:
 5006              	.LVL1068:
 5007              		.loc 1 695 0
 5008 1e20 2888A0E1 		mov	r8, r8, lsr #16
 5009              	.LVL1069:
 5010              	.LVL1070:
 5011              		.loc 1 670 0
 5012 1e24 01A88AE1 		orr	sl, sl, r1, asl #16
 5013              	.LVL1071:
 5014              		.loc 1 695 0
 5015 1e28 018888E1 		orr	r8, r8, r1, asl #16
 5016              		.loc 1 637 0
 5017 1e2c 03C08CE0 		add	ip, ip, r3
 5018              		.loc 1 669 0
 5019 1e30 099083E0 		add	r9, r3, r9
 5020              	.LVL1072:
 5021              		.loc 1 636 0
 5022 1e34 90008DE5 		str	r0, [sp, #144]
 5023              		.loc 1 639 0
 5024 1e38 F4309DE5 		ldr	r3, [sp, #244]
 5025              		.loc 1 638 0
 5026 1e3c 8C008DE5 		str	r0, [sp, #140]
 5027              		.loc 1 696 0
 5028 1e40 0B10A0E1 		mov	r1, fp
 5029              	.LVL1073:
 5030              	.LVL1074:
 5031              		.loc 1 639 0
 5032 1e44 2408A0E1 		mov	r0, r4, lsr #16
 5033              	.LVL1075:
 5034 1e48 000880E1 		orr	r0, r0, r0, asl #16
 5035              		.loc 1 669 0
 5036 1e4c 1C918DE5 		str	r9, [sp, #284]
 5037              	.LVL1076:
 5038              		.loc 1 668 0
 5039 1e50 18518DE5 		str	r5, [sp, #280]
 5040              	.LVL1077:
 5041              		.loc 1 696 0
 5042 1e54 011081E0 		add	r1, r1, r1
 5043              	.LVL1078:
ARM GAS  /cygdrive/c/DOCUME~1/mkwapisz/LOCALS~1/Temp/cc1OEM1Z.s 			page 106


 5044              		.loc 1 673 0
 5045 1e58 2558A0E1 		mov	r5, r5, lsr #16
 5046              	.LVL1079:
 5047              	.LVL1080:
 5048              		.loc 1 699 0
 5049 1e5c 2778A0E1 		mov	r7, r7, lsr #16
 5050              	.LVL1081:
 5051              		.loc 1 696 0
 5052 1e60 00108DE5 		str	r1, [sp, #0]
 5053              	.LVL1082:
 5054              	.LVL1083:
 5055              		.loc 1 673 0
 5056 1e64 005885E1 		orr	r5, r5, r0, asl #16
 5057              	.LVL1084:
 5058              		.loc 1 699 0
 5059 1e68 007887E1 		orr	r7, r7, r0, asl #16
 5060              	.LVL1085:
 5061              		.loc 1 641 0
 5062 1e6c 2018A0E1 		mov	r1, r0, lsr #16
 5063              	.LVL1086:
 5064              		.loc 1 640 0
 5065 1e70 00E0A0E1 		mov	lr, r0
 5066              		.loc 1 672 0
 5067 1e74 0040A0E1 		mov	r4, r0
 5068              	.LVL1087:
 5069              		.loc 1 639 0
 5070 1e78 000083E0 		add	r0, r3, r0
 5071              		.loc 1 672 0
 5072 1e7c 1C319DE5 		ldr	r3, [sp, #284]
 5073              		.loc 1 694 0
 5074 1e80 0B20A0E1 		mov	r2, fp
 5075              	.LVL1088:
 5076              		.loc 1 670 0
 5077 1e84 0AB08BE0 		add	fp, fp, sl
 5078 1e88 20B18DE5 		str	fp, [sp, #288]
 5079              	.LVL1089:
 5080              		.loc 1 672 0
 5081 1e8c 044083E0 		add	r4, r3, r4
 5082 1e90 24418DE5 		str	r4, [sp, #292]
 5083              	.LVL1090:
 5084              		.loc 1 673 0
 5085 1e94 20419DE5 		ldr	r4, [sp, #288]
 5086              		.loc 1 637 0
 5087 1e98 F8C08DE5 		str	ip, [sp, #248]
 5088              	.LVL1091:
 5089              		.loc 1 698 0
 5090 1e9c 0560A0E1 		mov	r6, r5
 5091              		.loc 1 639 0
 5092 1ea0 FC008DE5 		str	r0, [sp, #252]
 5093              	.LVL1092:
 5094              		.loc 1 673 0
 5095 1ea4 055084E0 		add	r5, r4, r5
 5096              		.loc 1 640 0
 5097 1ea8 F8009DE5 		ldr	r0, [sp, #248]
 5098              		.loc 1 673 0
 5099 1eac 28518DE5 		str	r5, [sp, #296]
 5100              	.LVL1093:
ARM GAS  /cygdrive/c/DOCUME~1/mkwapisz/LOCALS~1/Temp/cc1OEM1Z.s 			page 107


 5101              		.loc 1 641 0
 5102 1eb0 FCC09DE5 		ldr	ip, [sp, #252]
 5103              		.loc 1 699 0
 5104 1eb4 00509DE5 		ldr	r5, [sp, #0]
 5105              		.loc 1 640 0
 5106 1eb8 0EE080E0 		add	lr, r0, lr
 5107              		.loc 1 695 0
 5108 1ebc 082082E0 		add	r2, r2, r8
 5109              	.LVL1094:
 5110              		.loc 1 642 0
 5111 1ec0 0180A0E1 		mov	r8, r1
 5112              	.LVL1095:
 5113              		.loc 1 641 0
 5114 1ec4 041881E1 		orr	r1, r1, r4, asl #16
 5115              		.loc 1 700 0
 5116 1ec8 01B0A0E1 		mov	fp, r1
 5117              		.loc 1 640 0
 5118 1ecc 00E18DE5 		str	lr, [sp, #256]
 5119              	.LVL1096:
 5120              		.loc 1 699 0
 5121 1ed0 073085E0 		add	r3, r5, r7
 5122              	.LVL1097:
 5123              		.loc 1 698 0
 5124 1ed4 062082E0 		add	r2, r2, r6
 5125              	.LVL1098:
 5126              		.loc 1 642 0
 5127 1ed8 0100A0E1 		mov	r0, r1
 5128              		.loc 1 674 0
 5129 1edc 0150A0E1 		mov	r5, r1
 5130              		.loc 1 675 0
 5131 1ee0 0160A0E1 		mov	r6, r1
 5132              		.loc 1 701 0
 5133 1ee4 5C108DE5 		str	r1, [sp, #92]
 5134              		.loc 1 641 0
 5135 1ee8 01108CE0 		add	r1, ip, r1
 5136 1eec 04118DE5 		str	r1, [sp, #260]
 5137              	.LVL1099:
 5138              		.loc 1 642 0
 5139 1ef0 00119DE5 		ldr	r1, [sp, #256]
 5140 1ef4 000081E0 		add	r0, r1, r0
 5141              		.loc 1 674 0
 5142 1ef8 24C19DE5 		ldr	ip, [sp, #292]
 5143              		.loc 1 642 0
 5144 1efc 08018DE5 		str	r0, [sp, #264]
 5145              	.LVL1100:
 5146              		.loc 1 675 0
 5147 1f00 28019DE5 		ldr	r0, [sp, #296]
 5148              	.LVL1101:
 5149              		.loc 1 646 0
 5150 1f04 2448A0E1 		mov	r4, r4, lsr #16
 5151              	.LVL1102:
 5152              	.LVL1103:
 5153              		.loc 1 680 0
 5154 1f08 2478A0E1 		mov	r7, r4, lsr #16
 5155              		.loc 1 674 0
 5156 1f0c 05508CE0 		add	r5, ip, r5
 5157              		.loc 1 675 0
ARM GAS  /cygdrive/c/DOCUME~1/mkwapisz/LOCALS~1/Temp/cc1OEM1Z.s 			page 108


 5158 1f10 066080E0 		add	r6, r0, r6
 5159              		.loc 1 701 0
 5160 1f14 0B3083E0 		add	r3, r3, fp
 5161              	.LVL1104:
 5162              	.LVL1105:
 5163              		.loc 1 647 0
 5164 1f18 2898A0E1 		mov	r9, r8, lsr #16
 5165              		.loc 1 704 0
 5166 1f1c 58708DE5 		str	r7, [sp, #88]
 5167              		.loc 1 705 0
 5168 1f20 50708DE5 		str	r7, [sp, #80]
 5169              		.loc 1 724 0
 5170 1f24 38708DE5 		str	r7, [sp, #56]
 5171              		.loc 1 726 0
 5172 1f28 30708DE5 		str	r7, [sp, #48]
 5173              		.loc 1 674 0
 5174 1f2c 2C518DE5 		str	r5, [sp, #300]
 5175              	.LVL1106:
 5176              		.loc 1 675 0
 5177 1f30 30618DE5 		str	r6, [sp, #304]
 5178              	.LVL1107:
 5179              		.loc 1 701 0
 5180 1f34 00308DE5 		str	r3, [sp, #0]
 5181              	.LVL1108:
 5182              		.loc 1 642 0
 5183 1f38 04C19DE5 		ldr	ip, [sp, #260]
 5184 1f3c 08319DE5 		ldr	r3, [sp, #264]
 5185              		.loc 1 681 0
 5186 1f40 09A0A0E1 		mov	sl, r9
 5187              		.loc 1 723 0
 5188 1f44 0980A0E1 		mov	r8, r9
 5189              	.LVL1109:
 5190              	.LVL1110:
 5191              		.loc 1 647 0
 5192 1f48 049889E1 		orr	r9, r9, r4, asl #16
 5193              	.LVL1111:
 5194              		.loc 1 646 0
 5195 1f4c 044884E1 		orr	r4, r4, r4, asl #16
 5196 1f50 84408DE5 		str	r4, [sp, #132]
 5197              		.loc 1 642 0
 5198 1f54 03C08CE0 		add	ip, ip, r3
 5199 1f58 0CC18DE5 		str	ip, [sp, #268]
 5200              	.LVL1112:
 5201              		.loc 1 646 0
 5202 1f5c 84C09DE5 		ldr	ip, [sp, #132]
 5203              		.loc 1 725 0
 5204 1f60 07E0A0E1 		mov	lr, r7
 5205              	.LVL1113:
 5206              		.loc 1 681 0
 5207 1f64 04A88AE1 		orr	sl, sl, r4, asl #16
 5208              	.LVL1114:
 5209              		.loc 1 680 0
 5210 1f68 047887E1 		orr	r7, r7, r4, asl #16
 5211              		.loc 1 646 0
 5212 1f6c 0C9089E0 		add	r9, r9, ip
 5213              	.LVL1115:
 5214              	.LVL1116:
ARM GAS  /cygdrive/c/DOCUME~1/mkwapisz/LOCALS~1/Temp/cc1OEM1Z.s 			page 109


 5215              		.loc 1 705 0
 5216 1f70 0E488EE1 		orr	r4, lr, lr, asl #16
 5217              	.LVL1117:
 5218              		.loc 1 675 0
 5219 1f74 4B3F8DE2 		add	r3, sp, #300
 5220 1f78 081093E8 		ldmia	r3, {r3, ip}	@ phole ldm
 5221              	.LVL1118:
 5222              		.loc 1 648 0
 5223 1f7c 2408A0E1 		mov	r0, r4, lsr #16
 5224              	.LVL1119:
 5225              		.loc 1 724 0
 5226 1f80 04588EE1 		orr	r5, lr, r4, asl #16
 5227              		.loc 1 680 0
 5228 1f84 70708DE5 		str	r7, [sp, #112]
 5229              	.LVL1120:
 5230              		.loc 1 682 0
 5231 1f88 2018A0E1 		mov	r1, r0, lsr #16
 5232              		.loc 1 675 0
 5233 1f8c 0C3083E0 		add	r3, r3, ip
 5234              	.LVL1121:
 5235              		.loc 1 648 0
 5236 1f90 000880E1 		orr	r0, r0, r0, asl #16
 5237              	.LVL1122:
 5238              		.loc 1 705 0
 5239 1f94 4C408DE5 		str	r4, [sp, #76]
 5240              		.loc 1 725 0
 5241 1f98 05E0A0E1 		mov	lr, r5
 5242              		.loc 1 675 0
 5243 1f9c 34318DE5 		str	r3, [sp, #308]
 5244              	.LVL1123:
 5245              	.LVL1124:
 5246              		.loc 1 723 0
 5247 1fa0 048888E1 		orr	r8, r8, r4, asl #16
 5248              	.LVL1125:
 5249              		.loc 1 680 0
 5250 1fa4 70309DE5 		ldr	r3, [sp, #112]
 5251              		.loc 1 649 0
 5252 1fa8 0040A0E1 		mov	r4, r0
 5253              	.LVL1126:
 5254              		.loc 1 700 0
 5255 1fac 0B2082E0 		add	r2, r2, fp
 5256              	.LVL1127:
 5257              		.loc 1 724 0
 5258 1fb0 0E8088E0 		add	r8, r8, lr
 5259              	.LVL1128:
 5260              		.loc 1 649 0
 5261 1fb4 049089E0 		add	r9, r9, r4
 5262              	.LVL1129:
 5263              		.loc 1 725 0
 5264 1fb8 0EE08EE0 		add	lr, lr, lr
 5265              		.loc 1 682 0
 5266 1fbc 34419DE5 		ldr	r4, [sp, #308]
 5267              		.loc 1 705 0
 5268 1fc0 4CC09DE5 		ldr	ip, [sp, #76]
 5269              		.loc 1 725 0
 5270 1fc4 10E18DE5 		str	lr, [sp, #272]
 5271              	.LVL1130:
ARM GAS  /cygdrive/c/DOCUME~1/mkwapisz/LOCALS~1/Temp/cc1OEM1Z.s 			page 110


 5272              		.loc 1 728 0
 5273 1fc8 28108DE5 		str	r1, [sp, #40]
 5274              		.loc 1 680 0
 5275 1fcc 03A08AE0 		add	sl, sl, r3
 5276              	.LVL1131:
 5277              	.LVL1132:
 5278              		.loc 1 682 0
 5279 1fd0 001881E1 		orr	r1, r1, r0, asl #16
 5280              		.loc 1 704 0
 5281 1fd4 032082E0 		add	r2, r2, r3
 5282              	.LVL1133:
 5283              		.loc 1 705 0
 5284 1fd8 00309DE5 		ldr	r3, [sp, #0]
 5285              		.loc 1 727 0
 5286 1fdc 01B0A0E1 		mov	fp, r1
 5287              		.loc 1 728 0
 5288 1fe0 24108DE5 		str	r1, [sp, #36]
 5289              		.loc 1 682 0
 5290 1fe4 011064E0 		rsb	r1, r4, r1
 5291              	.LVL1134:
 5292              		.loc 1 728 0
 5293 1fe8 10419DE5 		ldr	r4, [sp, #272]
 5294              		.loc 1 705 0
 5295 1fec 0C3083E0 		add	r3, r3, ip
 5296              		.loc 1 724 0
 5297 1ff0 34508DE5 		str	r5, [sp, #52]
 5298              		.loc 1 726 0
 5299 1ff4 2C508DE5 		str	r5, [sp, #44]
 5300              	.LVL1135:
 5301              		.loc 1 683 0
 5302 1ff8 2558A0E1 		mov	r5, r5, lsr #16
 5303              	.LVL1136:
 5304              	.LVL1137:
 5305              		.loc 1 650 0
 5306 1ffc 20C8A0E1 		mov	ip, r0, lsr #16
 5307              		.loc 1 705 0
 5308 2000 00308DE5 		str	r3, [sp, #0]
 5309              	.LVL1138:
 5310              	.LVL1139:
 5311              		.loc 1 683 0
 5312 2004 005885E1 		orr	r5, r5, r0, asl #16
 5313              		.loc 1 728 0
 5314 2008 0B4084E0 		add	r4, r4, fp
 5315              		.loc 1 648 0
 5316 200c 0C319DE5 		ldr	r3, [sp, #268]
 5317              		.loc 1 704 0
 5318 2010 54708DE5 		str	r7, [sp, #84]
 5319              		.loc 1 683 0
 5320 2014 05A08AE0 		add	sl, sl, r5
 5321              	.LVL1140:
 5322              		.loc 1 727 0
 5323 2018 0B8088E0 		add	r8, r8, fp
 5324              	.LVL1141:
 5325              		.loc 1 707 0
 5326 201c 00509DE5 		ldr	r5, [sp, #0]
 5327              	.LVL1142:
 5328              		.loc 1 650 0
ARM GAS  /cygdrive/c/DOCUME~1/mkwapisz/LOCALS~1/Temp/cc1OEM1Z.s 			page 111


 5329 2020 04B88CE1 		orr	fp, ip, r4, asl #16
 5330              	.LVL1143:
 5331              		.loc 1 707 0
 5332 2024 2778A0E1 		mov	r7, r7, lsr #16
 5333              	.LVL1144:
 5334 2028 007887E1 		orr	r7, r7, r0, asl #16
 5335              		.loc 1 684 0
 5336 202c 6CC08DE5 		str	ip, [sp, #108]
 5337              		.loc 1 685 0
 5338 2030 64C08DE5 		str	ip, [sp, #100]
 5339              		.loc 1 708 0
 5340 2034 48C08DE5 		str	ip, [sp, #72]
 5341              		.loc 1 709 0
 5342 2038 40C08DE5 		str	ip, [sp, #64]
 5343              		.loc 1 729 0
 5344 203c 20C08DE5 		str	ip, [sp, #32]
 5345              		.loc 1 730 0
 5346 2040 18C08DE5 		str	ip, [sp, #24]
 5347              	.LVL1145:
 5348              		.loc 1 728 0
 5349 2044 14418DE5 		str	r4, [sp, #276]
 5350              	.LVL1146:
 5351              		.loc 1 651 0
 5352 2048 80B08DE5 		str	fp, [sp, #128]
 5353              	.LVL1147:
 5354              		.loc 1 706 0
 5355 204c 2668A0E1 		mov	r6, r6, lsr #16
 5356              	.LVL1148:
 5357              		.loc 1 684 0
 5358 2050 68B08DE5 		str	fp, [sp, #104]
 5359              		.loc 1 685 0
 5360 2054 64409DE5 		ldr	r4, [sp, #100]
 5361              	.LVL1149:
 5362              		.loc 1 706 0
 5363 2058 006886E1 		orr	r6, r6, r0, asl #16
 5364              	.LVL1150:
 5365              		.loc 1 648 0
 5366 205c 000063E0 		rsb	r0, r3, r0
 5367              	.LVL1151:
 5368              		.loc 1 707 0
 5369 2060 073085E0 		add	r3, r5, r7
 5370              	.LVL1152:
 5371              		.loc 1 708 0
 5372 2064 48509DE5 		ldr	r5, [sp, #72]
 5373              	.LVL1153:
 5374              		.loc 1 685 0
 5375 2068 044884E1 		orr	r4, r4, r4, asl #16
 5376              	.LVL1154:
 5377              		.loc 1 708 0
 5378 206c 045885E1 		orr	r5, r5, r4, asl #16
 5379              	.LVL1155:
 5380              		.loc 1 685 0
 5381 2070 60408DE5 		str	r4, [sp, #96]
 5382              		.loc 1 729 0
 5383 2074 20409DE5 		ldr	r4, [sp, #32]
 5384              	.LVL1156:
 5385 2078 044884E1 		orr	r4, r4, r4, asl #16
ARM GAS  /cygdrive/c/DOCUME~1/mkwapisz/LOCALS~1/Temp/cc1OEM1Z.s 			page 112


 5386              	.LVL1157:
 5387              		.loc 1 652 0
 5388 207c 24C8A0E1 		mov	ip, r4, lsr #16
 5389              		.loc 1 653 0
 5390 2080 0CE0A0E1 		mov	lr, ip
 5391              		.loc 1 652 0
 5392 2084 7CC08DE5 		str	ip, [sp, #124]
 5393              		.loc 1 685 0
 5394 2088 60C09DE5 		ldr	ip, [sp, #96]
 5395              		.loc 1 708 0
 5396 208c 44508DE5 		str	r5, [sp, #68]
 5397              		.loc 1 685 0
 5398 2090 0CA08AE0 		add	sl, sl, ip
 5399              	.LVL1158:
 5400              		.loc 1 708 0
 5401 2094 44C09DE5 		ldr	ip, [sp, #68]
 5402              	.LVL1159:
 5403              		.loc 1 729 0
 5404 2098 1C408DE5 		str	r4, [sp, #28]
 5405              		.loc 1 709 0
 5406 209c 0C3083E0 		add	r3, r3, ip
 5407              	.LVL1160:
 5408 20a0 00308DE5 		str	r3, [sp, #0]
 5409              	.LVL1161:
 5410              		.loc 1 729 0
 5411 20a4 1C309DE5 		ldr	r3, [sp, #28]
 5412              		.loc 1 706 0
 5413 20a8 062082E0 		add	r2, r2, r6
 5414              	.LVL1162:
 5415              		.loc 1 730 0
 5416 20ac 14508DE5 		str	r5, [sp, #20]
 5417              		.loc 1 708 0
 5418 20b0 0C2082E0 		add	r2, r2, ip
 5419              	.LVL1163:
 5420              		.loc 1 729 0
 5421 20b4 038088E0 		add	r8, r8, r3
 5422              	.LVL1164:
 5423              		.loc 1 730 0
 5424 20b8 14C19DE5 		ldr	ip, [sp, #276]
 5425 20bc 14309DE5 		ldr	r3, [sp, #20]
 5426              		.loc 1 650 0
 5427 20c0 0B0080E0 		add	r0, r0, fp
 5428              	.LVL1165:
 5429              		.loc 1 651 0
 5430 20c4 0B9089E0 		add	r9, r9, fp
 5431              	.LVL1166:
 5432              		.loc 1 684 0
 5433 20c8 0B1081E0 		add	r1, r1, fp
 5434              	.LVL1167:
 5435              		.loc 1 709 0
 5436 20cc 3C508DE5 		str	r5, [sp, #60]
 5437              		.loc 1 730 0
 5438 20d0 03B08CE0 		add	fp, ip, r3
 5439              	.LVL1168:
 5440              	.LVL1169:
 5441              		.loc 1 687 0
 5442 20d4 2558A0E1 		mov	r5, r5, lsr #16
ARM GAS  /cygdrive/c/DOCUME~1/mkwapisz/LOCALS~1/Temp/cc1OEM1Z.s 			page 113


 5443              	.LVL1170:
 5444              	.LVL1171:
 5445              		.loc 1 652 0
 5446 20d8 0EC88EE1 		orr	ip, lr, lr, asl #16
 5447              	.LVL1172:
 5448              		.loc 1 710 0
 5449 20dc 2668A0E1 		mov	r6, r6, lsr #16
 5450              	.LVL1173:
 5451              	.LVL1174:
 5452              		.loc 1 711 0
 5453 20e0 2778A0E1 		mov	r7, r7, lsr #16
 5454              	.LVL1175:
 5455 20e4 00409DE5 		ldr	r4, [sp, #0]
 5456              	.LVL1176:
 5457              		.loc 1 687 0
 5458 20e8 0C5885E1 		orr	r5, r5, ip, asl #16
 5459              	.LVL1177:
 5460              		.loc 1 710 0
 5461 20ec 0C6886E1 		orr	r6, r6, ip, asl #16
 5462              	.LVL1178:
 5463              		.loc 1 711 0
 5464 20f0 0C7887E1 		orr	r7, r7, ip, asl #16
 5465              		.loc 1 687 0
 5466 20f4 05A08AE0 		add	sl, sl, r5
 5467              	.LVL1179:
 5468              	.LVL1180:
 5469              		.loc 1 652 0
 5470 20f8 0C0080E0 		add	r0, r0, ip
 5471              	.LVL1181:
 5472              		.loc 1 653 0
 5473 20fc 0C9089E0 		add	r9, r9, ip
 5474              	.LVL1182:
 5475              		.loc 1 686 0
 5476 2100 0C1081E0 		add	r1, r1, ip
 5477              	.LVL1183:
 5478              		.loc 1 710 0
 5479 2104 062082E0 		add	r2, r2, r6
 5480              	.LVL1184:
 5481              		.loc 1 711 0
 5482 2108 073084E0 		add	r3, r4, r7
 5483              	.LVL1185:
 5484              		.loc 1 732 0
 5485 210c 0B8088E0 		add	r8, r8, fp
 5486              	.LVL1186:
 5487              		.loc 1 655 0
 5488 2110 090080E0 		add	r0, r0, r9
 5489              	.LVL1187:
 5490              		.loc 1 689 0
 5491 2114 0A1081E0 		add	r1, r1, sl
 5492              	.LVL1188:
 5493              		.loc 1 713 0
 5494 2118 032082E0 		add	r2, r2, r3
 5495              	.LVL1189:
 5496              		.loc 1 732 0
 5497 211c 008068E2 		rsb	r8, r8, #0
 5498 2120 0050A0E3 		mov	r5, #0
 5499              		.loc 1 653 0
ARM GAS  /cygdrive/c/DOCUME~1/mkwapisz/LOCALS~1/Temp/cc1OEM1Z.s 			page 114


 5500 2124 0CE0A0E1 		mov	lr, ip
 5501              		.loc 1 652 0
 5502 2128 78C08DE5 		str	ip, [sp, #120]
 5503              		.loc 1 655 0
 5504 212c E4008DE5 		str	r0, [sp, #228]
 5505              	.LVL1190:
 5506              		.loc 1 689 0
 5507 2130 EC108DE5 		str	r1, [sp, #236]
 5508              	.LVL1191:
 5509              		.loc 1 713 0
 5510 2134 F0208DE5 		str	r2, [sp, #240]
 5511              	.LVL1192:
 5512              		.loc 1 732 0
 5513 2138 E8808DE5 		str	r8, [sp, #232]
 5514              	.LVL1193:
 5515 213c DC508DE5 		str	r5, [sp, #220]
 5516              	.LVL1194:
 5517 2140 C90100EA 		b	.L60
 5518              	.LVL1195:
 5519              	.L61:
 5520              		.loc 1 611 0
 5521 2144 4020A0E3 		mov	r2, #64
 5522 2148 570F8DE2 		add	r0, sp, #348
 5523              		.loc 1 612 0
 5524 214c 02C080E0 		add	ip, r0, r2
 5525              		.loc 1 611 0
 5526 2150 0010A0E3 		mov	r1, #0
 5527              		.loc 1 612 0
 5528 2154 A4C08DE5 		str	ip, [sp, #164]
 5529              		.loc 1 611 0
 5530 2158 FEFFFFEB 		bl	memset
 5531              		.loc 1 612 0
 5532 215c 0010A0E3 		mov	r1, #0
 5533 2160 4020A0E3 		mov	r2, #64
 5534 2164 A4009DE5 		ldr	r0, [sp, #164]
 5535 2168 FEFFFFEB 		bl	memset
 5536              		.loc 1 634 0
 5537 216c D4009DE5 		ldr	r0, [sp, #212]
 5538 2170 013040E2 		sub	r3, r0, #1
 5539 2174 0F3003E2 		and	r3, r3, #15
 5540 2178 013083E3 		orr	r3, r3, #1
 5541 217c 04179FE5 		ldr	r1, .L70
 5542              		.loc 1 645 0
 5543 2180 0120C0E3 		bic	r2, r0, #1
 5544              		.loc 1 634 0
 5545 2184 0331A0E1 		mov	r3, r3, asl #2
